MPLINK 4.40, Linker
Linker Map File - Created Tue Oct 09 09:11:21 2012

                                 Section Info
                  Section       Type    Address   Location Size(Bytes)
                ---------  ---------  ---------  ---------  ---------
               _entry_scn       code   0x000000    program   0x000006
       .code__user_putc.o       code   0x000006    program   0x000002
           tick_interrupt       code   0x000008    program   0x000006
          .code_adcbusy.o       code   0x00000e    program   0x00000a
           work_interrupt       code   0x000018    program   0x000006
                   .cinit    romdata   0x00001e    program   0x00004a
        .code_mandm8722.o       code   0x000068    program   0x0061c0
              .code_daq.o       code   0x006228    program   0x0019fa
     .romdata_mandm8722.o    romdata   0x007c22    program   0x0013ce
             .stringtable    romdata   0x008ff0    program   0x001327
      .romdata_putsxlcd.o    romdata   0x00a317    program   0x000000
        .idata_u2open.o_i    romdata   0x00a317    program   0x000000
       .romdata_fxm3232.o    romdata   0x00a317    program   0x000000
       .idata_fxm3232.o_i    romdata   0x00a317    program   0x000000
      .romdata_fxd1616u.o    romdata   0x00a317    program   0x000000
      .idata_fxd1616u.o_i    romdata   0x00a317    program   0x000000
       .romdata_adcconv.o    romdata   0x00a317    program   0x000000
       .idata_adcconv.o_i    romdata   0x00a317    program   0x000000
      .romdata_busy_eep.o    romdata   0x00a317    program   0x000000
      .idata_busy_eep.o_i    romdata   0x00a317    program   0x000000
      .romdata_readaddr.o    romdata   0x00a317    program   0x000000
      .romdata_wcmdxlcd.o    romdata   0x00a317    program   0x000000
      .idata_wcmdxlcd.o_i    romdata   0x00a317    program   0x000000
      .idata_setddram.o_i    romdata   0x00a317    program   0x000000
      .romdata_setcgram.o    romdata   0x00a317    program   0x000000
      .idata_readdata.o_i    romdata   0x00a317    program   0x000000
    .romdata__user_putc.o    romdata   0x00a317    program   0x000000
    .idata__user_putc.o_i    romdata   0x00a317    program   0x000000
          .romdata_putc.o    romdata   0x00a317    program   0x000000
       .romdata_sprintf.o    romdata   0x00a317    program   0x000000
        .idata_u2puts.o_i    romdata   0x00a317    program   0x000000
       .romdata_u2putrs.o    romdata   0x00a317    program   0x000000
       .romdata_write_B.o    romdata   0x00a317    program   0x000000
       .idata_write_B.o_i    romdata   0x00a317    program   0x000000
       .romdata_t3write.o    romdata   0x00a317    program   0x000000
       .romdata_t0write.o    romdata   0x00a317    program   0x000000
       .idata_u2write.o_i    romdata   0x00a317    program   0x000000
        .romdata_u2defs.o    romdata   0x00a317    program   0x000000
        .idata_read_B.o_i    romdata   0x00a317    program   0x000000
       .romdata_adcread.o    romdata   0x00a317    program   0x000000
       .idata_adcread.o_i    romdata   0x00a317    program   0x000000
        .romdata_u2read.o    romdata   0x00a317    program   0x000000
        .idata_t4open.o_i    romdata   0x00a317    program   0x000000
        .idata_t3open.o_i    romdata   0x00a317    program   0x000000
        .idata_t0open.o_i    romdata   0x00a317    program   0x000000
        .idata_c018iz.o_i    romdata   0x00a317    program   0x000000
        .romdata_c018iz.o    romdata   0x00a317    program   0x000000
         .idata_power.o_i    romdata   0x00a317    program   0x000000
         .idata_model.o_i    romdata   0x00a317    program   0x000000
          .romdata_crit.o    romdata   0x00a317    program   0x000000
  .romdata_mandm_vector.o    romdata   0x00a317    program   0x000000
      .idata_putrxlcd.o_i    romdata   0x00a317    program   0x000000
      .romdata_openxlcd.o    romdata   0x00a317    program   0x000000
           .code_u2defs.o       code   0x00a318    program   0x000000
           .code_c018iz.o       code   0x00a318    program   0x000000
     .code_mandm_vector.o       code   0x00a318    program   0x000d40
         .code_vfprintf.o       code   0x00b058    program   0x000c22
                     PROG       code   0x00bc7a    program   0x0006c2
            .code_power.o       code   0x00c33c    program   0x00047a
           .code_config.o       code   0x00c7b6    program   0x000304
             .code_crit.o       code   0x00caba    program   0x0001f2
                   STRING       code   0x00ccac    program   0x000192
           .code_hwconf.o       code   0x00ce3e    program   0x00017e
          .code_sprintf.o       code   0x00cfbc    program   0x0000ac
               _cinit_scn       code   0x00d068    program   0x00009e
         .code_openxlcd.o       code   0x00d106    program   0x00009a
           .code_u2open.o       code   0x00d1a0    program   0x00008a
             .code_putc.o       code   0x00d22a    program   0x000084
          .code_fxm3232.o       code   0x00d2ae    program   0x000070
          .code_adcopen.o       code   0x00d31e    program   0x00006e
          .code_u2putrs.o       code   0x00d38c    program   0x000064
          .code_write_B.o       code   0x00d3f0    program   0x000060
           .code_read_B.o       code   0x00d450    program   0x00005c
         .code_putrxlcd.o       code   0x00d4ac    program   0x000054
           .code_u2puts.o       code   0x00d500    program   0x00004c
         .code_setddram.o       code   0x00d54c    program   0x000048
         .code_setcgram.o       code   0x00d594    program   0x000048
         .code_fxd3232u.o       code   0x00d5dc    program   0x000048
         .code_writdata.o       code   0x00d624    program   0x000046
         .code_wcmdxlcd.o       code   0x00d66a    program   0x000046
         .code_readdata.o       code   0x00d6b0    program   0x000044
         .code_readaddr.o       code   0x00d6f4    program   0x000044
           .code_t3open.o       code   0x00d738    program   0x000042
         .code_putsxlcd.o       code   0x00d77a    program   0x000042
           .code_u2read.o       code   0x00d7bc    program   0x00003e
                   STDLIB       code   0x00d7fa    program   0x00003c
          .code_t3write.o       code   0x00d836    program   0x000038
          .code_t0write.o       code   0x00d86e    program   0x000038
           .code_t0open.o       code   0x00d8a6    program   0x000038
           .code_t4open.o       code   0x00d8de    program   0x000036
             D10KTCYXCODE       code   0x00d914    program   0x00002e
          .code_u2write.o       code   0x00d942    program   0x00002e
         .code_adcsetch.o       code   0x00d970    program   0x00002e
         .code_fxd1616u.o       code   0x00d99e    program   0x00002c
         .code_busyxlcd.o       code   0x00d9ca    program   0x00002c
                    CTYPE       code   0x00d9f6    program   0x000024
             _startup_scn       code   0x00da1a    program   0x000020
                    .code       code   0x00da3a    program   0x000020
                    STDIO       code   0x00da5a    program   0x00001c
              D10TCYXCODE       code   0x00da76    program   0x000016
          .code_adcread.o       code   0x00da8c    program   0x000012
      .romdata_vfprintf.o    romdata   0x00da9e    program   0x000011
        .idata_u2defs.o_i    romdata   0x00daaf    program   0x000000
        .romdata_u2puts.o    romdata   0x00daaf    program   0x000000
         .romdata_model.o    romdata   0x00daaf    program   0x000000
          .idata_putc.o_i    romdata   0x00daaf    program   0x000000
       .idata_sprintf.o_i    romdata   0x00daaf    program   0x000000
       .romdata_u2write.o    romdata   0x00daaf    program   0x000000
       .idata_u2putrs.o_i    romdata   0x00daaf    program   0x000000
       .idata_t0write.o_i    romdata   0x00daaf    program   0x000000
        .romdata___init.o    romdata   0x00daaf    program   0x000000
      .idata_vfprintf.o_i    romdata   0x00daaf    program   0x000000
        .idata___init.o_i    romdata   0x00daaf    program   0x000000
       .idata_t3write.o_i    romdata   0x00daaf    program   0x000000
        .romdata_hwconf.o    romdata   0x00daaf    program   0x000000
        .idata_hwconf.o_i    romdata   0x00daaf    program   0x000000
      .romdata_fxd3232u.o    romdata   0x00daaf    program   0x000000
      .idata_fxd3232u.o_i    romdata   0x00daaf    program   0x000000
      .idata_writdata.o_i    romdata   0x00daaf    program   0x000000
      .romdata_writdata.o    romdata   0x00daaf    program   0x000000
       .romdata_adcbusy.o    romdata   0x00daaf    program   0x000000
       .idata_adcbusy.o_i    romdata   0x00daaf    program   0x000000
        .romdata_config.o    romdata   0x00daaf    program   0x000000
        .idata_config.o_i    romdata   0x00daaf    program   0x000000
      .romdata_busyxlcd.o    romdata   0x00daaf    program   0x000000
      .idata_busyxlcd.o_i    romdata   0x00daaf    program   0x000000
      .idata_openxlcd.o_i    romdata   0x00daaf    program   0x000000
      .romdata_setddram.o    romdata   0x00daaf    program   0x000000
      .idata_setcgram.o_i    romdata   0x00daaf    program   0x000000
      .romdata_readdata.o    romdata   0x00daaf    program   0x000000
      .romdata_putrxlcd.o    romdata   0x00daaf    program   0x000000
      .idata_readaddr.o_i    romdata   0x00daaf    program   0x000000
      .idata_putsxlcd.o_i    romdata   0x00daaf    program   0x000000
      .romdata_adcsetch.o    romdata   0x00daaf    program   0x000000
      .idata_adcsetch.o_i    romdata   0x00daaf    program   0x000000
        .romdata_u2open.o    romdata   0x00daaf    program   0x000000
        .romdata_read_B.o    romdata   0x00daaf    program   0x000000
         .romdata_power.o    romdata   0x00daaf    program   0x000000
       .idata_adcopen.o_i    romdata   0x00daaf    program   0x000000
        .idata_u2read.o_i    romdata   0x00daaf    program   0x000000
       .romdata_adcopen.o    romdata   0x00daaf    program   0x000000
        .romdata_t4open.o    romdata   0x00daaf    program   0x000000
           .romdata_daq.o    romdata   0x00daaf    program   0x000000
        .romdata_t0open.o    romdata   0x00daaf    program   0x000000
        .romdata_t3open.o    romdata   0x00daaf    program   0x000000
            .code_model.o       code   0x00dab0    program   0x000000
         .code_busy_eep.o       code   0x00dab0    program   0x000006
          .code_adcconv.o       code   0x00dab6    program   0x000004
           .code___init.o       code   0x00daba    program   0x000002
                  gpr10_i    romdata   0x00dabc    program   0x000030
              SEED_DATA_i    romdata   0x00daec    program   0x000002
  .idata_mandm_vector.o_i    romdata   0x00daee    program   0x000012
     .idata_mandm8722.o_i    romdata   0x00db00    program   0x000094
           .idata_daq.o_i    romdata   0x00db94    program   0x000004
          .idata_crit.o_i    romdata   0x00db98    program   0x000002
.config_300001_mandm8722.o    romdata   0x300001    program   0x000001
.config_300002_mandm8722.o    romdata   0x300002    program   0x000001
.config_300003_mandm8722.o    romdata   0x300003    program   0x000001
.config_300006_mandm8722.o    romdata   0x300006    program   0x000001
                 .tmpdata      udata   0x000000       data   0x000024
                MATH_DATA      udata   0x000024       data   0x000014
         tick_handler_tmp      udata   0x000038       data   0x000004
                DELAYDAT2      udata   0x00003c       data   0x000001
                DELAYDAT1      udata   0x00003d       data   0x000001
              ISRHtmpdata      udata   0x00003e       data   0x000000
                     gpr5      udata   0x000060       data   0x00009b
          .udata_hwconf.o      udata   0x0000fb       data   0x000001
          .udata_config.o      udata   0x0000fc       data   0x000001
         .idata_adcread.o      idata   0x0000fd       data   0x000000
         .udata_adcread.o      udata   0x0000fd       data   0x000000
          .idata_u2read.o      idata   0x0000fd       data   0x000000
          .udata_u2read.o      udata   0x0000fd       data   0x000000
          .idata_t4open.o      idata   0x0000fd       data   0x000000
          .udata_t4open.o      udata   0x0000fd       data   0x000000
          .idata_t3open.o      idata   0x0000fd       data   0x000000
          .udata_t3open.o      udata   0x0000fd       data   0x000000
          .idata_t0open.o      idata   0x0000fd       data   0x000000
          .udata_t0open.o      udata   0x0000fd       data   0x000000
         .idata_adcopen.o      idata   0x0000fd       data   0x000000
         .udata_adcopen.o      udata   0x0000fd       data   0x000000
          .idata_u2open.o      idata   0x0000fd       data   0x000000
          .udata_u2open.o      udata   0x0000fd       data   0x000000
         .idata_fxm3232.o      idata   0x0000fd       data   0x000000
         .udata_fxm3232.o      udata   0x0000fd       data   0x000000
        .idata_fxd3232u.o      idata   0x0000fd       data   0x000000
        .udata_fxd3232u.o      udata   0x0000fd       data   0x000000
        .idata_fxd1616u.o      idata   0x0000fd       data   0x000000
        .udata_fxd1616u.o      udata   0x0000fd       data   0x000000
      .udata__user_putc.o      udata   0x0000fd       data   0x000000
      .idata__user_putc.o      idata   0x0000fd       data   0x000000
         .idata_adcconv.o      idata   0x0000fd       data   0x000000
         .udata_adcconv.o      udata   0x0000fd       data   0x000000
        .idata_vfprintf.o      idata   0x0000fd       data   0x000000
        .udata_vfprintf.o      udata   0x0000fd       data   0x000000
         .idata_sprintf.o      idata   0x0000fd       data   0x000000
         .udata_sprintf.o      udata   0x0000fd       data   0x000000
          .idata_u2puts.o      idata   0x0000fd       data   0x000000
          .udata_u2puts.o      udata   0x0000fd       data   0x000000
         .idata_u2putrs.o      idata   0x0000fd       data   0x000000
         .udata_u2putrs.o      udata   0x0000fd       data   0x000000
          .idata___init.o      idata   0x0000fd       data   0x000000
          .udata___init.o      udata   0x0000fd       data   0x000000
         .idata_write_B.o      idata   0x0000fd       data   0x000000
         .udata_write_B.o      udata   0x0000fd       data   0x000000
         .idata_t3write.o      idata   0x0000fd       data   0x000000
         .udata_t3write.o      udata   0x0000fd       data   0x000000
         .idata_t0write.o      idata   0x0000fd       data   0x000000
         .udata_t0write.o      udata   0x0000fd       data   0x000000
         .idata_u2write.o      idata   0x0000fd       data   0x000000
         .udata_u2write.o      udata   0x0000fd       data   0x000000
          .idata_u2defs.o      idata   0x0000fd       data   0x000000
        .idata_adcsetch.o      idata   0x0000fd       data   0x000000
        .udata_adcsetch.o      udata   0x0000fd       data   0x000000
            .udata_putc.o      udata   0x0000fd       data   0x000000
            .idata_putc.o      idata   0x0000fd       data   0x000000
          .idata_read_B.o      idata   0x0000fd       data   0x000000
          .udata_read_B.o      udata   0x0000fd       data   0x000000
        .udata_readaddr.o      udata   0x0000fd       data   0x000000
        .idata_putsxlcd.o      idata   0x0000fd       data   0x000000
        .udata_putsxlcd.o      udata   0x0000fd       data   0x000000
        .idata_putrxlcd.o      idata   0x0000fd       data   0x000000
        .udata_putrxlcd.o      udata   0x0000fd       data   0x000000
        .idata_openxlcd.o      idata   0x0000fd       data   0x000000
        .udata_openxlcd.o      udata   0x0000fd       data   0x000000
        .idata_writdata.o      idata   0x0000fd       data   0x000000
        .udata_writdata.o      udata   0x0000fd       data   0x000000
          .idata_c018iz.o      idata   0x0000fd       data   0x000000
                     gpr6      udata   0x0000fd       data   0x000000
            .udata_crit.o      udata   0x0000fd       data   0x000000
       .udata_mandm8722.o      udata   0x0000fd       data   0x000000
           .idata_power.o      idata   0x0000fd       data   0x000000
           .idata_model.o      idata   0x0000fd       data   0x000000
           .udata_model.o      udata   0x0000fd       data   0x000000
          .idata_hwconf.o      idata   0x0000fd       data   0x000000
        .idata_busy_eep.o      idata   0x0000fd       data   0x000000
        .udata_busy_eep.o      udata   0x0000fd       data   0x000000
         .idata_adcbusy.o      idata   0x0000fd       data   0x000000
         .udata_adcbusy.o      udata   0x0000fd       data   0x000000
          .idata_config.o      idata   0x0000fd       data   0x000000
        .idata_busyxlcd.o      idata   0x0000fd       data   0x000000
        .udata_busyxlcd.o      udata   0x0000fd       data   0x000000
        .idata_wcmdxlcd.o      idata   0x0000fd       data   0x000000
        .udata_wcmdxlcd.o      udata   0x0000fd       data   0x000000
        .idata_readaddr.o      idata   0x0000fd       data   0x000000
        .idata_setddram.o      idata   0x0000fd       data   0x000000
        .udata_readdata.o      udata   0x0000fd       data   0x000000
        .idata_readdata.o      idata   0x0000fd       data   0x000000
        .udata_setcgram.o      udata   0x0000fd       data   0x000000
        .idata_setcgram.o      idata   0x0000fd       data   0x000000
        .udata_setddram.o      udata   0x0000fd       data   0x000000
                     gpr2      udata   0x000100       data   0x0000fc
             .idata_daq.o      idata   0x0001fc       data   0x000004
                    gpr13      udata   0x000200       data   0x0000fb
                     gpr1      udata   0x000300       data   0x0000ce
                    gpr10      idata   0x0003ce       data   0x000030
                SEED_DATA      idata   0x0003fe       data   0x000002
                     gpr8      udata   0x000400       data   0x0000b0
           .udata_power.o      udata   0x0004b0       data   0x00003a
    .idata_mandm_vector.o      idata   0x0004ea       data   0x000012
            .idata_crit.o      idata   0x0004fc       data   0x000002
                     gpr4      udata   0x0004fe       data   0x000001
          .udata_u2defs.o      udata   0x0004ff       data   0x000001
                     gpr9      udata   0x000500       data   0x0000a7
                     gpr3      udata   0x0005a7       data   0x00001c
             .udata_daq.o      udata   0x0005c3       data   0x000011
                     gpr7      udata   0x0005d4       data   0x00000c
          .udata_c018iz.o      udata   0x0005e0       data   0x00000a
    .udata_mandm_vector.o      udata   0x0005ea       data   0x000006
       .idata_mandm8722.o      idata   0x000600       data   0x000094
                   .stack      udata   0x000e00       data   0x000100
            SFR_UNBANKED0      udata   0x000f62       data   0x00009e



                              Program Memory Usage 
                               Start         End      
                           ---------   ---------      
                            0x000000    0x00a316      
                            0x00a318    0x00daae      
                            0x00dab0    0x00db99      
                            0x300001    0x300003      
                            0x300006    0x300006      
            56220 out of 132120 program addresses used, program memory utilization is 42%



                              Symbols - Sorted by Name
                     Name    Address   Location    Storage File                     
                ---------  ---------  ---------  --------- ---------                
                     ABSI   0x00117a    program     extern X:\mandm\mandm\mandm8722.c
                     ABSL   0x0011a8    program     extern X:\mandm\mandm\mandm8722.c
                 ADC_read   0x006350    program     extern X:\mandm\mandm\daq.c     
                 ADC_zero   0x006228    program     extern X:\mandm\mandm\daq.c     
                  BusyADC   0x00000e    program     extern C:\Program Files\Microchip\mplabc18\v3.40\src\pmc_common\ADC\adcbusy.c
                 BusyXLCD   0x00d9ca    program     extern X:\mandm\mandm\xlcd\busyxlcd.c
                 Busy_eep   0x00dab0    program     extern C:\Program Files\Microchip\mplabc18\v3.40\src\pmc_common\EEP\busy_eep.c
             Change_Count   0x00628e    program     extern X:\mandm\mandm\daq.c     
        Clear_All_Buttons   0x00b002    program     extern X:\mandm\mandm\mandm_vector.c
               ConvertADC   0x00dab6    program     extern C:\Program Files\Microchip\mplabc18\v3.40\src\pmc_common\ADC\adcconv.c
                   D10K_1   0x00d920    program     static C:\Program Files\Microchip\mplabc18\v3.40\src\traditional\delays\d10ktcyx.asm
                    D10Kl   0x00d92c    program     static C:\Program Files\Microchip\mplabc18\v3.40\src\traditional\delays\d10ktcyx.asm
                    D10Kx   0x00d91e    program     static C:\Program Files\Microchip\mplabc18\v3.40\src\traditional\delays\d10ktcyx.asm
                    D10_1   0x00da86    program     static C:\Program Files\Microchip\mplabc18\v3.40\src\traditional\delays\d10tcyx.asm
                     D10x   0x00da7e    program     static C:\Program Files\Microchip\mplabc18\v3.40\src\traditional\delays\d10tcyx.asm
                   D1616S   0x00bfaa    program     static C:\Program Files\Microchip\mplabc18\v3.40\src\traditional\math\fxd1616s.asm
                D1616SNEG   0x00bfb8    program     static C:\Program Files\Microchip\mplabc18\v3.40\src\traditional\math\fxd1616s.asm
                 D1616SOK   0x00bfb4    program     static C:\Program Files\Microchip\mplabc18\v3.40\src\traditional\math\fxd1616s.asm
                  D1616SX   0x00bfca    program     static C:\Program Files\Microchip\mplabc18\v3.40\src\traditional\math\fxd1616s.asm
                   D3232S   0x00c004    program     static C:\Program Files\Microchip\mplabc18\v3.40\src\traditional\math\fxd3232s.asm
                D3232SNEG   0x00c012    program     static C:\Program Files\Microchip\mplabc18\v3.40\src\traditional\math\fxd3232s.asm
                 D3232SOK   0x00c00e    program     static C:\Program Files\Microchip\mplabc18\v3.40\src\traditional\math\fxd3232s.asm
                  D3232SX   0x00c032    program     static C:\Program Files\Microchip\mplabc18\v3.40\src\traditional\math\fxd3232s.asm
                  DA1616S   0x00bf9a    program     static C:\Program Files\Microchip\mplabc18\v3.40\src\traditional\math\fxd1616s.asm
                  DA3232S   0x00bfee    program     static C:\Program Files\Microchip\mplabc18\v3.40\src\traditional\math\fxd3232s.asm
             Delay10KTCYx   0x00d914    program     extern C:\Program Files\Microchip\mplabc18\v3.40\src\traditional\delays\d10ktcyx.asm
              Delay10TCYx   0x00da76    program     extern C:\Program Files\Microchip\mplabc18\v3.40\src\traditional\delays\d10tcyx.asm
            DelayFor18TCY   0x000634    program     extern X:\mandm\mandm\mandm8722.c
             DelayPORXLCD   0x00064e    program     extern X:\mandm\mandm\mandm8722.c
                DelayXLCD   0x00065a    program     extern X:\mandm\mandm\mandm8722.c
                 FLO1632S   0x00bc7e    program     extern C:\Program Files\Microchip\mplabc18\v3.40\src\traditional\math\cast16FP.asm
                 FLO1632U   0x00bc7a    program     extern C:\Program Files\Microchip\mplabc18\v3.40\src\traditional\math\cast16FP.asm
                 FLO3232S   0x00bca8    program     extern C:\Program Files\Microchip\mplabc18\v3.40\src\traditional\math\cast32FP.asm
                 FLO3232U   0x00bca4    program     extern C:\Program Files\Microchip\mplabc18\v3.40\src\traditional\math\cast32FP.asm
                    FPA32   0x00bcdc    program     extern C:\Program Files\Microchip\mplabc18\v3.40\src\traditional\math\addFP.asm
                    FPD32   0x00be08    program     extern C:\Program Files\Microchip\mplabc18\v3.40\src\traditional\math\divFP.asm
                    FPM32   0x00beae    program     extern C:\Program Files\Microchip\mplabc18\v3.40\src\traditional\math\mulFP.asm
                    FPS32   0x00bcda    program     extern C:\Program Files\Microchip\mplabc18\v3.40\src\traditional\math\addFP.asm
                 FXD1616S   0x00bf88    program     extern C:\Program Files\Microchip\mplabc18\v3.40\src\traditional\math\fxd1616s.asm
                 FXD1616U   0x00d99e    program     extern C:\Program Files\Microchip\mplabc18\v3.40\src\traditional\math\fxd1616u.c
                 FXD3232S   0x00bfd4    program     extern C:\Program Files\Microchip\mplabc18\v3.40\src\traditional\math\fxd3232s.asm
                 FXD3232U   0x00d5dc    program     extern C:\Program Files\Microchip\mplabc18\v3.40\src\traditional\math\fxd3232u.c
                 FXM1616S   0x00c2e2    program     extern C:\Program Files\Microchip\mplabc18\v3.40\src\traditional\math\fxm1616s.asm
                 FXM1616U   0x00c2a6    program     extern C:\Program Files\Microchip\mplabc18\v3.40\src\traditional\math\fxm1616u.asm
                 FXM2424U   0x00c03c    program     extern C:\Program Files\Microchip\mplabc18\v3.40\src\traditional\math\fxm2424u.asm
                  FXM3232   0x00d2ae    program     extern C:\Program Files\Microchip\mplabc18\v3.40\src\traditional\math\fxm3232.c
                  INT3216   0x00c0ce    program     extern C:\Program Files\Microchip\mplabc18\v3.40\src\traditional\math\castFP16.asm
                  INT3232   0x00c12c    program     extern C:\Program Files\Microchip\mplabc18\v3.40\src\traditional\math\castFP32.asm
              LCD_VC_puts   0x00016e    program     extern X:\mandm\mandm\mandm8722.c
               Open2USART   0x00d1a0    program     extern C:\Program Files\Microchip\mplabc18\v3.40\src\pmc_common\USART\u2open.c
                  OpenADC   0x00d31e    program     extern C:\Program Files\Microchip\mplabc18\v3.40\src\pmc_common\ADC\adcopen.c
               OpenTimer0   0x00d8a6    program     extern C:\Program Files\Microchip\mplabc18\v3.40\src\pmc_common\Timers\t0open.c
               OpenTimer3   0x00d738    program     extern C:\Program Files\Microchip\mplabc18\v3.40\src\pmc_common\Timers\t3open.c
               OpenTimer4   0x00d8de    program     extern C:\Program Files\Microchip\mplabc18\v3.40\src\pmc_common\Timers\t4open.c
                 OpenXLCD   0x00d106    program     extern X:\mandm\mandm\xlcd\openxlcd.c
                   P1wait   0x00aff6    program     extern X:\mandm\mandm\mandm_vector.c
                   P2wait   0x00affc    program     extern X:\mandm\mandm\mandm_vector.c
               Read2USART   0x00d7bc    program     extern C:\Program Files\Microchip\mplabc18\v3.40\src\pmc_common\USART\u2read.c
                  ReadADC   0x00da8c    program     extern C:\Program Files\Microchip\mplabc18\v3.40\src\pmc_common\ADC\adcread.c
             ReadAddrXLCD   0x00d6f4    program     extern X:\mandm\mandm\xlcd\readaddr.c
             ReadDataXLCD   0x00d6b0    program     extern X:\mandm\mandm\xlcd\readdata.c
               Read_b_eep   0x00d450    program     extern C:\Program Files\Microchip\mplabc18\v3.40\src\pmc_common\EEP\read_B.c
       Reset_Change_Count   0x00624e    program     extern X:\mandm\mandm\daq.c     
             SetCGRamAddr   0x00d594    program     extern X:\mandm\mandm\xlcd\setcgram.c
               SetChanADC   0x00d970    program     extern C:\Program Files\Microchip\mplabc18\v3.40\src\pmc_common\ADC\adcsetch.c
             SetDDRamAddr   0x00d54c    program     extern X:\mandm\mandm\xlcd\setddram.c
               Set_Cursor   0x0018ac    program     extern X:\mandm\mandm\mandm8722.c
               TSIGN1616A   0x00c32e    program     static C:\Program Files\Microchip\mplabc18\v3.40\src\traditional\math\fxm1616s.asm
              Write2USART   0x00d942    program     extern C:\Program Files\Microchip\mplabc18\v3.40\src\pmc_common\USART\u2write.c
             WriteCmdXLCD   0x00d66a    program     extern X:\mandm\mandm\xlcd\wcmdxlcd.c
            WriteDataXLCD   0x00d624    program     extern X:\mandm\mandm\xlcd\writdata.c
              WriteTimer0   0x00d86e    program     extern C:\Program Files\Microchip\mplabc18\v3.40\src\pmc_common\Timers\t0write.c
              WriteTimer3   0x00d836    program     extern C:\Program Files\Microchip\mplabc18\v3.40\src\pmc_common\Timers\t3write.c
              Write_b_eep   0x00d3f0    program     extern C:\Program Files\Microchip\mplabc18\v3.40\src\pmc_common\EEP\write_B.c
                   _2jEnd   0x00cd64    program     static C:\Program Files\Microchip\mplabc18\v3.40\src\traditional\stdclib\slenpgm.asm
              _3jContinue   0x00ce08    program     static C:\Program Files\Microchip\mplabc18\v3.40\src\traditional\stdclib\sncpyp2r.asm
              _4jContinue   0x00ccd8    program     static C:\Program Files\Microchip\mplabc18\v3.40\src\traditional\stdclib\memcmp.asm
              _4jContinue   0x00cdae    program     static C:\Program Files\Microchip\mplabc18\v3.40\src\traditional\stdclib\strncpy.asm
                   _4jEnd   0x00ce12    program     static C:\Program Files\Microchip\mplabc18\v3.40\src\traditional\stdclib\sncpyp2r.asm
                   _5jEnd   0x00cce2    program     static C:\Program Files\Microchip\mplabc18\v3.40\src\traditional\stdclib\memcmp.asm
                   _5jEnd   0x00cdb8    program     static C:\Program Files\Microchip\mplabc18\v3.40\src\traditional\stdclib\strncpy.asm
       _D10KTCYXCODE_0010   0x00d924    program     static C:\Program Files\Microchip\mplabc18\v3.40\src\traditional\delays\d10ktcyx.asm
       _D10KTCYXCODE_001C   0x00d930    program     static C:\Program Files\Microchip\mplabc18\v3.40\src\traditional\delays\d10ktcyx.asm
        _D10TCYXCODE_000A   0x00da80    program     static C:\Program Files\Microchip\mplabc18\v3.40\src\traditional\delays\d10tcyx.asm
        _D10TCYXCODE_000C   0x00da82    program     static C:\Program Files\Microchip\mplabc18\v3.40\src\traditional\delays\d10tcyx.asm
        _D10TCYXCODE_000E   0x00da84    program     static C:\Program Files\Microchip\mplabc18\v3.40\src\traditional\delays\d10tcyx.asm
                 __FpExit   0x00c1a6    program     extern C:\Program Files\Microchip\mplabc18\v3.40\src\traditional\math\packFP.asm
                 __FpPack   0x00c1d2    program     extern C:\Program Files\Microchip\mplabc18\v3.40\src\traditional\math\packFP.asm
            __FpReturnNaN   0x00c19a    program     extern C:\Program Files\Microchip\mplabc18\v3.40\src\traditional\math\packFP.asm
         __FpReturnNegInf   0x00c1ac    program     extern C:\Program Files\Microchip\mplabc18\v3.40\src\traditional\math\packFP.asm
        __FpReturnNegZero   0x00c1c4    program     extern C:\Program Files\Microchip\mplabc18\v3.40\src\traditional\math\packFP.asm
         __FpReturnPosInf   0x00c1b2    program     extern C:\Program Files\Microchip\mplabc18\v3.40\src\traditional\math\packFP.asm
        __FpReturnPosZero   0x00c1cc    program     extern C:\Program Files\Microchip\mplabc18\v3.40\src\traditional\math\packFP.asm
        __FpReturnSignInf   0x00c1a8    program     extern C:\Program Files\Microchip\mplabc18\v3.40\src\traditional\math\packFP.asm
       __FpReturnSignZero   0x00c1c0    program     extern C:\Program Files\Microchip\mplabc18\v3.40\src\traditional\math\packFP.asm
              __FpReturnW   0x00c22a    program     extern C:\Program Files\Microchip\mplabc18\v3.40\src\traditional\math\packFP.asm
              __FpUnPackA   0x00c24a    program     extern C:\Program Files\Microchip\mplabc18\v3.40\src\traditional\math\UnpackFP.asm
              __FpUnPackB   0x00c27a    program     extern C:\Program Files\Microchip\mplabc18\v3.40\src\traditional\math\UnpackFP.asm
       ___case_0_lbl00030   0x00a610    program     static                          
       ___case_1_lbl00031   0x00a616    program     static                          
       ___case_2_lbl00032   0x00a61e    program     static                          
      ___default_lbl00033   0x00a626    program     static                          
           ___do_lbl00032   0x000346    program     static                          
           ___do_lbl00033   0x000368    program     static                          
           ___do_lbl00034   0x000326    program     static                          
           ___do_lbl00383   0x002b90    program     static                          
           ___do_lbl00384   0x002bbe    program     static                          
           ___do_lbl00389   0x0028ca    program     static                          
           ___do_lbl00393   0x002f04    program     static                          
           ___do_lbl00394   0x002f32    program     static                          
           ___do_lbl00399   0x002c3e    program     static                          
           ___do_lbl00407   0x003116    program     static                          
           ___do_lbl00408   0x00311c    program     static                          
           ___do_lbl00409   0x00310a    program     static                          
           ___do_lbl00413   0x003738    program     static                          
           ___do_lbl00414   0x003776    program     static                          
           ___do_lbl00426   0x003198    program     static                          
           ___do_lbl00427   0x003d98    program     static                          
           ___do_lbl00428   0x003dd6    program     static                          
           ___do_lbl00440   0x0037f8    program     static                          
           ___do_lbl00463   0x004b8c    program     static                          
           ___do_lbl00464   0x004b92    program     static                          
           ___do_lbl00465   0x004b80    program     static                          
         ___else_lbl00003   0x00a3a6    program     static                          
         ___else_lbl00008   0x00cbb2    program     static                          
         ___else_lbl00009   0x00a462    program     static                          
         ___else_lbl00011   0x00a480    program     static                          
         ___else_lbl00014   0x00a4f0    program     static                          
         ___else_lbl00016   0x00a50e    program     static                          
         ___else_lbl00027   0x00a5ca    program     static                          
         ___else_lbl00071   0x00a7c4    program     static                          
         ___else_lbl00080   0x00a89e    program     static                          
         ___else_lbl00082   0x00a8ac    program     static                          
         ___else_lbl00084   0x00a8ba    program     static                          
         ___else_lbl00086   0x00a8f2    program     static                          
         ___else_lbl00088   0x00a958    program     static                          
         ___else_lbl00094   0x00a9c0    program     static                          
         ___else_lbl00100   0x00ad42    program     static                          
         ___else_lbl00104   0x00ae44    program     static                          
         ___else_lbl00110   0x00aece    program     static                          
         ___else_lbl00112   0x00aea8    program     static                          
         ___else_lbl00460   0x003dda    program     static                          
         ___else_lbl00468   0x0048d2    program     static                          
         ___else_lbl00491   0x005114    program     static                          
         ___else_lbl00499   0x0051e0    program     static                          
          ___for_lbl00010   0x0063b4    program     static                          
          ___for_lbl00011   0x0063be    program     static                          
          ___for_lbl00014   0x006378    program     static                          
          ___for_lbl00015   0x0064be    program     static                          
          ___for_lbl00016   0x0064c8    program     static                          
          ___for_lbl00019   0x006482    program     static                          
          ___for_lbl00020   0x0065c8    program     static                          
          ___for_lbl00021   0x0065d2    program     static                          
          ___for_lbl00024   0x00658c    program     static                          
          ___for_lbl00027   0x006800    program     static                          
          ___for_lbl00028   0x0002b6    program     static                          
          ___for_lbl00028   0x00680a    program     static                          
          ___for_lbl00029   0x0002c4    program     static                          
          ___for_lbl00030   0x00028c    program     static                          
          ___for_lbl00031   0x0067c4    program     static                          
          ___for_lbl00034   0x006a38    program     static                          
          ___for_lbl00035   0x006a42    program     static                          
          ___for_lbl00038   0x0069fc    program     static                          
          ___for_lbl00041   0x006c72    program     static                          
          ___for_lbl00042   0x006c7c    program     static                          
          ___for_lbl00045   0x006c36    program     static                          
          ___for_lbl00046   0x006d02    program     static                          
          ___for_lbl00047   0x006d0c    program     static                          
          ___for_lbl00050   0x006cc6    program     static                          
          ___for_lbl00051   0x006d92    program     static                          
          ___for_lbl00052   0x006d9c    program     static                          
          ___for_lbl00054   0x000646    program     static                          
          ___for_lbl00055   0x006d56    program     static                          
          ___for_lbl00055   0x00064c    program     static                          
          ___for_lbl00056   0x007a82    program     static                          
          ___for_lbl00056   0x00063a    program     static                          
          ___for_lbl00057   0x007a8e    program     static                          
          ___for_lbl00066   0x006e5c    program     static                          
          ___for_lbl00078   0x000fae    program     static                          
          ___for_lbl00079   0x000fb4    program     static                          
          ___for_lbl00081   0x000c7e    program     static                          
          ___for_lbl00381   0x002f78    program     static                          
          ___for_lbl00382   0x002f84    program     static                          
          ___for_lbl00403   0x00285e    program     static                          
          ___for_lbl00442   0x00405e    program     static                          
          ___for_lbl00443   0x004072    program     static                          
          ___for_lbl00448   0x003e22    program     static                          
          ___for_lbl00449   0x00432a    program     static                          
          ___for_lbl00450   0x00433e    program     static                          
          ___for_lbl00455   0x0040ee    program     static                          
          ___for_lbl00456   0x0047a2    program     static                          
          ___for_lbl00457   0x0047b6    program     static                          
          ___for_lbl00458   0x00474e    program     static                          
          ___for_lbl00461   0x004ba4    program     static                          
          ___for_lbl00462   0x004bb8    program     static                          
          ___for_lbl00469   0x0047c2    program     static                          
          ___for_lbl00486   0x0050ba    program     static                          
          ___for_lbl00487   0x0050c0    program     static                          
          ___for_lbl00488   0x005090    program     static                          
          ___for_lbl00492   0x0051d8    program     static                          
          ___for_lbl00493   0x0051de    program     static                          
          ___for_lbl00494   0x0051a0    program     static                          
          ___for_lbl00495   0x005236    program     static                          
          ___for_lbl00496   0x00523c    program     static                          
          ___for_lbl00497   0x0051fe    program     static                          
           ___if_lbl00001   0x00ce6c    program     static                          
           ___if_lbl00001   0x00cae8    program     static                          
           ___if_lbl00001   0x00a378    program     static                          
           ___if_lbl00002   0x00a3b6    program     static                          
           ___if_lbl00002   0x00cb0c    program     static                          
           ___if_lbl00003   0x00cb2c    program     static                          
           ___if_lbl00003   0x00ce7e    program     static                          
           ___if_lbl00004   0x00cb4c    program     static                          
           ___if_lbl00004   0x00a3c0    program     static                          
           ___if_lbl00005   0x00a3ca    program     static                          
           ___if_lbl00006   0x00cf8a    program     static                          
           ___if_lbl00006   0x00a3d4    program     static                          
           ___if_lbl00006   0x00cb80    program     static                          
           ___if_lbl00007   0x00a3d4    program     static                          
           ___if_lbl00007   0x00cbba    program     static                          
           ___if_lbl00008   0x00a47e    program     static                          
           ___if_lbl00010   0x00a48e    program     static                          
           ___if_lbl00012   0x00a48e    program     static                          
           ___if_lbl00013   0x00a50c    program     static                          
           ___if_lbl00015   0x00a51c    program     static                          
           ___if_lbl00017   0x00a51c    program     static                          
           ___if_lbl00018   0x00a520    program     static                          
           ___if_lbl00020   0x00a52e    program     static                          
           ___if_lbl00021   0x00a542    program     static                          
           ___if_lbl00023   0x00a55c    program     static                          
           ___if_lbl00024   0x00a58a    program     static                          
           ___if_lbl00025   0x00a5be    program     static                          
           ___if_lbl00025   0x0066b4    program     static                          
           ___if_lbl00026   0x00a5d2    program     static                          
           ___if_lbl00026   0x00679e    program     static                          
           ___if_lbl00028   0x00a5fe    program     static                          
           ___if_lbl00032   0x0068ec    program     static                          
           ___if_lbl00033   0x0069d6    program     static                          
           ___if_lbl00034   0x00a62c    program     static                          
           ___if_lbl00035   0x00a62c    program     static                          
           ___if_lbl00036   0x00a632    program     static                          
           ___if_lbl00037   0x00a638    program     static                          
           ___if_lbl00038   0x00a63e    program     static                          
           ___if_lbl00039   0x00a644    program     static                          
           ___if_lbl00039   0x006b24    program     static                          
           ___if_lbl00040   0x00a644    program     static                          
           ___if_lbl00040   0x006c0e    program     static                          
           ___if_lbl00041   0x00a664    program     static                          
           ___if_lbl00042   0x00a668    program     static                          
           ___if_lbl00043   0x00a680    program     static                          
           ___if_lbl00044   0x00a696    program     static                          
           ___if_lbl00045   0x00a6a4    program     static                          
           ___if_lbl00046   0x00a6b2    program     static                          
           ___if_lbl00047   0x00a6c0    program     static                          
           ___if_lbl00048   0x00a6ce    program     static                          
           ___if_lbl00049   0x00a6dc    program     static                          
           ___if_lbl00051   0x00a6f2    program     static                          
           ___if_lbl00053   0x00a708    program     static                          
           ___if_lbl00055   0x00a71c    program     static                          
           ___if_lbl00058   0x00a726    program     static                          
           ___if_lbl00058   0x007070    program     static                          
           ___if_lbl00060   0x00a738    program     static                          
           ___if_lbl00060   0x0070fc    program     static                          
           ___if_lbl00061   0x00a738    program     static                          
           ___if_lbl00061   0x007164    program     static                          
           ___if_lbl00062   0x0072d0    program     static                          
           ___if_lbl00063   0x0073ca    program     static                          
           ___if_lbl00063   0x00a75c    program     static                          
           ___if_lbl00064   0x007576    program     static                          
           ___if_lbl00064   0x00a760    program     static                          
           ___if_lbl00065   0x0078ee    program     static                          
           ___if_lbl00066   0x00a784    program     static                          
           ___if_lbl00067   0x007a8e    program     static                          
           ___if_lbl00067   0x00a788    program     static                          
           ___if_lbl00069   0x00a7c2    program     static                          
           ___if_lbl00070   0x00a7cc    program     static                          
           ___if_lbl00072   0x00a7ea    program     static                          
           ___if_lbl00073   0x00a7ea    program     static                          
           ___if_lbl00074   0x00a7ee    program     static                          
           ___if_lbl00076   0x00a80c    program     static                          
           ___if_lbl00077   0x00a888    program     static                          
           ___if_lbl00078   0x00a888    program     static                          
           ___if_lbl00079   0x00a8a2    program     static                          
           ___if_lbl00080   0x000fae    program     static                          
           ___if_lbl00081   0x00a8b0    program     static                          
           ___if_lbl00083   0x00a8be    program     static                          
           ___if_lbl00085   0x00a922    program     static                          
           ___if_lbl00087   0x00a98a    program     static                          
           ___if_lbl00089   0x00aa72    program     static                          
           ___if_lbl00090   0x00aa9a    program     static                          
           ___if_lbl00091   0x00aaca    program     static                          
           ___if_lbl00092   0x00ab1e    program     static                          
           ___if_lbl00093   0x00ab20    program     static                          
           ___if_lbl00095   0x00ab80    program     static                          
           ___if_lbl00096   0x00abe8    program     static                          
           ___if_lbl00097   0x00ac48    program     static                          
           ___if_lbl00098   0x00acb2    program     static                          
           ___if_lbl00099   0x00ad98    program     static                          
           ___if_lbl00102   0x00ae42    program     static                          
           ___if_lbl00103   0x00ae64    program     static                          
           ___if_lbl00108   0x00aef2    program     static                          
           ___if_lbl00109   0x00aef2    program     static                          
           ___if_lbl00111   0x00aef2    program     static                          
           ___if_lbl00113   0x00aef2    program     static                          
           ___if_lbl00114   0x00aef2    program     static                          
           ___if_lbl00115   0x00af44    program     static                          
           ___if_lbl00116   0x00af44    program     static                          
           ___if_lbl00117   0x00af60    program     static                          
           ___if_lbl00118   0x00af6e    program     static                          
           ___if_lbl00120   0x00af8a    program     static                          
           ___if_lbl00121   0x00af8a    program     static                          
           ___if_lbl00377   0x00277a    program     static                          
           ___if_lbl00378   0x0027b4    program     static                          
           ___if_lbl00379   0x0027c6    program     static                          
           ___if_lbl00380   0x002800    program     static                          
           ___if_lbl00385   0x00298e    program     static                          
           ___if_lbl00386   0x002a7a    program     static                          
           ___if_lbl00387   0x002b6a    program     static                          
           ___if_lbl00388   0x002b7e    program     static                          
           ___if_lbl00391   0x002bea    program     static                          
           ___if_lbl00392   0x002c04    program     static                          
           ___if_lbl00395   0x002d02    program     static                          
           ___if_lbl00396   0x002dee    program     static                          
           ___if_lbl00397   0x002ede    program     static                          
           ___if_lbl00398   0x002ef2    program     static                          
           ___if_lbl00401   0x002f5e    program     static                          
           ___if_lbl00402   0x002f78    program     static                          
           ___if_lbl00405   0x00308a    program     static                          
           ___if_lbl00406   0x0030e6    program     static                          
           ___if_lbl00410   0x003172    program     static                          
           ___if_lbl00411   0x003172    program     static                          
           ___if_lbl00412   0x00318c    program     static                          
           ___if_lbl00418   0x003382    program     static                          
           ___if_lbl00419   0x0033b2    program     static                          
           ___if_lbl00420   0x0033b6    program     static                          
           ___if_lbl00421   0x00341e    program     static                          
           ___if_lbl00422   0x003542    program     static                          
           ___if_lbl00423   0x00362a    program     static                          
           ___if_lbl00424   0x003712    program     static                          
           ___if_lbl00425   0x003726    program     static                          
           ___if_lbl00432   0x0039e2    program     static                          
           ___if_lbl00433   0x003a12    program     static                          
           ___if_lbl00434   0x003a16    program     static                          
           ___if_lbl00435   0x003a7e    program     static                          
           ___if_lbl00436   0x003ba2    program     static                          
           ___if_lbl00437   0x003c8a    program     static                          
           ___if_lbl00438   0x003d72    program     static                          
           ___if_lbl00439   0x003d86    program     static                          
           ___if_lbl00441   0x003dd6    program     static                          
           ___if_lbl00444   0x003ee0    program     static                          
           ___if_lbl00445   0x003fde    program     static                          
           ___if_lbl00446   0x003ff6    program     static                          
           ___if_lbl00447   0x00405e    program     static                          
           ___if_lbl00451   0x0041ac    program     static                          
           ___if_lbl00452   0x0042aa    program     static                          
           ___if_lbl00453   0x0042c2    program     static                          
           ___if_lbl00454   0x00432a    program     static                          
           ___if_lbl00459   0x0047b6    program     static                          
           ___if_lbl00466   0x004ba4    program     static                          
           ___if_lbl00467   0x004ba4    program     static                          
           ___if_lbl00481   0x004e18    program     static                          
           ___if_lbl00482   0x004e4e    program     static                          
           ___if_lbl00483   0x004e84    program     static                          
           ___if_lbl00484   0x004eba    program     static                          
           ___if_lbl00485   0x005036    program     static                          
           ___if_lbl00489   0x0050c0    program     static                          
           ___if_lbl00490   0x005166    program     static                          
           ___if_lbl00498   0x005256    program     static                          
           ___if_lbl00502   0x005260    program     static                          
           ___if_lbl00503   0x0052b6    program     static                          
           ___if_lbl00507   0x00552c    program     static                          
           ___if_lbl00508   0x005556    program     static                          
           ___if_lbl00509   0x00556a    program     static                          
       ___return_lbl00000   0x00cb4c    program     static                          
       ___return_lbl00000   0x00cf8a    program     static                          
       ___return_lbl00000   0x00d9c8    program     static                          
       ___return_lbl00000   0x00d4a0    program     static                          
       ___return_lbl00000   0x00624c    program     static                          
       ___return_lbl00000   0x00000c    program     static                          
       ___return_lbl00000   0x00d622    program     static                          
       ___return_lbl00000   0x00d31c    program     static                          
       ___return_lbl00000   0x000004    program     static                          
       ___return_lbl00000   0x00af8a    program     static                          
       ___return_lbl00001   0x00001c    program     static                          
       ___return_lbl00001   0x00da38    program     static                          
       ___return_lbl00002   0x00d104    program     static                          
       ___return_lbl00005   0x00cbba    program     static                          
       ___return_lbl00009   0x007a94    program     static                          
       ___return_lbl00027   0x0002c4    program     static                          
       ___return_lbl00031   0x000368    program     static                          
       ___return_lbl00053   0x00064c    program     static                          
       ___return_lbl00072   0x0008b6    program     static                          
       ___return_lbl00077   0x000fb6    program     static                          
       ___return_lbl00123   0x00aff4    program     static                          
       ___return_lbl00376   0x004bf6    program     static                          
       ___return_lbl00480   0x00556c    program     static                          
   ___switchexit_lbl00029   0x00a62c    program     static                          
        ___while_lbl00001   0x006242    program     static                          
        ___while_lbl00002   0x00624c    program     static                          
        ___while_lbl00004   0x00cedc    program     static                          
        ___while_lbl00005   0x00ceea    program     static                          
        ___while_lbl00012   0x006388    program     static                          
        ___while_lbl00013   0x006392    program     static                          
        ___while_lbl00017   0x006492    program     static                          
        ___while_lbl00018   0x00649c    program     static                          
        ___while_lbl00022   0x00659c    program     static                          
        ___while_lbl00023   0x0065a6    program     static                          
        ___while_lbl00029   0x0067d4    program     static                          
        ___while_lbl00030   0x0067de    program     static                          
        ___while_lbl00036   0x006a0c    program     static                          
        ___while_lbl00037   0x006a16    program     static                          
        ___while_lbl00043   0x006c46    program     static                          
        ___while_lbl00044   0x006c50    program     static                          
        ___while_lbl00048   0x006cd6    program     static                          
        ___while_lbl00049   0x006ce0    program     static                          
        ___while_lbl00053   0x006d66    program     static                          
        ___while_lbl00054   0x006d70    program     static                          
        ___while_lbl00056   0x00a724    program     static                          
        ___while_lbl00057   0x00a726    program     static                          
        ___while_lbl00500   0x00525e    program     static                          
        ___while_lbl00501   0x005260    program     static                          
        ___while_lbl00504   0x005516    program     static                          
        ___while_lbl00505   0x00556c    program     static                          
               __config_0   0x300001    program     static X:\mandm\mandm\mandm8722.c
               __config_1   0x300002    program     static X:\mandm\mandm\mandm8722.c
               __config_2   0x300003    program     static X:\mandm\mandm\mandm8722.c
               __config_3   0x300006    program     static X:\mandm\mandm\mandm8722.c
                   __init   0x00daba    program     extern C:\Program Files\Microchip\mplabc18\v3.40\src\traditional\stdclib\__init.c
                   __pa_0   0x00d7ac    program     static X:\mandm\mandm\xlcd\putsxlcd.c
                   __pa_0   0x00d4e8    program     static X:\mandm\mandm\xlcd\putrxlcd.c
                   __pa_0   0x00b046    program     static X:\mandm\mandm\mandm_vector.c
                   __pa_0   0x00d9e4    program     static X:\mandm\mandm\xlcd\busyxlcd.c
                   __pa_0   0x00b998    program     static C:\Program Files\Microchip\mplabc18\v3.40\src\traditional\stdclib\vfprintf.c
                   __pa_0   0x00d18e    program     static X:\mandm\mandm\xlcd\openxlcd.c
                   __pa_0   0x00d65c    program     static X:\mandm\mandm\xlcd\writdata.c
                   __pa_0   0x00d6a2    program     static X:\mandm\mandm\xlcd\wcmdxlcd.c
                   __pa_0   0x00556e    program     static X:\mandm\mandm\mandm8722.c
                   __pa_0   0x00d586    program     static X:\mandm\mandm\xlcd\setddram.c
                   __pa_0   0x00d5ce    program     static X:\mandm\mandm\xlcd\setcgram.c
                   __pa_0   0x00ca0a    program     static X:\mandm\mandm\config.c  
                   __pa_0   0x00cc76    program     static X:\mandm\mandm\crit.c    
                   __pa_0   0x00c72e    program     static X:\mandm\mandm\power.c   
                   __pa_0   0x007b82    program     static X:\mandm\mandm\daq.c     
                   __pa_1   0x00cc84    program     static X:\mandm\mandm\crit.c    
                   __pa_1   0x00c73c    program     static X:\mandm\mandm\power.c   
                   __pa_1   0x007baa    program     static X:\mandm\mandm\daq.c     
                   __pa_1   0x00d198    program     static X:\mandm\mandm\xlcd\openxlcd.c
                   __pa_1   0x00b9a0    program     static C:\Program Files\Microchip\mplabc18\v3.40\src\traditional\stdclib\vfprintf.c
                   __pa_1   0x0055a4    program     static X:\mandm\mandm\mandm8722.c
                   __pa_1   0x00ca20    program     static X:\mandm\mandm\config.c  
                   __pa_1   0x00b050    program     static X:\mandm\mandm\mandm_vector.c
                  __pa_10   0x00ca78    program     static X:\mandm\mandm\config.c  
                  __pa_10   0x00567e    program     static X:\mandm\mandm\mandm8722.c
                  __pa_10   0x00c7a6    program     static X:\mandm\mandm\power.c   
                  __pa_10   0x00ba54    program     static C:\Program Files\Microchip\mplabc18\v3.40\src\traditional\stdclib\vfprintf.c
                 __pa_100   0x005c82    program     static X:\mandm\mandm\mandm8722.c
                 __pa_101   0x005c96    program     static X:\mandm\mandm\mandm8722.c
                 __pa_102   0x005ca2    program     static X:\mandm\mandm\mandm8722.c
                 __pa_103   0x005cbe    program     static X:\mandm\mandm\mandm8722.c
                 __pa_104   0x005cda    program     static X:\mandm\mandm\mandm8722.c
                 __pa_105   0x005ce2    program     static X:\mandm\mandm\mandm8722.c
                 __pa_106   0x005d14    program     static X:\mandm\mandm\mandm8722.c
                 __pa_107   0x005d24    program     static X:\mandm\mandm\mandm8722.c
                 __pa_108   0x005d40    program     static X:\mandm\mandm\mandm8722.c
                 __pa_109   0x005d48    program     static X:\mandm\mandm\mandm8722.c
                  __pa_11   0x00ba62    program     static C:\Program Files\Microchip\mplabc18\v3.40\src\traditional\stdclib\vfprintf.c
                  __pa_11   0x00c7ae    program     static X:\mandm\mandm\power.c   
                  __pa_11   0x00ca84    program     static X:\mandm\mandm\config.c  
                  __pa_11   0x0056d6    program     static X:\mandm\mandm\mandm8722.c
                 __pa_110   0x005d50    program     static X:\mandm\mandm\mandm8722.c
                 __pa_111   0x005d5a    program     static X:\mandm\mandm\mandm8722.c
                 __pa_112   0x005d64    program     static X:\mandm\mandm\mandm8722.c
                 __pa_113   0x005d72    program     static X:\mandm\mandm\mandm8722.c
                 __pa_114   0x005d7a    program     static X:\mandm\mandm\mandm8722.c
                 __pa_115   0x005d7e    program     static X:\mandm\mandm\mandm8722.c
                 __pa_116   0x005d86    program     static X:\mandm\mandm\mandm8722.c
                 __pa_117   0x005d92    program     static X:\mandm\mandm\mandm8722.c
                 __pa_118   0x005da4    program     static X:\mandm\mandm\mandm8722.c
                 __pa_119   0x005dbe    program     static X:\mandm\mandm\mandm8722.c
                  __pa_12   0x0056e8    program     static X:\mandm\mandm\mandm8722.c
                  __pa_12   0x00ba78    program     static C:\Program Files\Microchip\mplabc18\v3.40\src\traditional\stdclib\vfprintf.c
                  __pa_12   0x00ca8c    program     static X:\mandm\mandm\config.c  
                 __pa_120   0x005dd2    program     static X:\mandm\mandm\mandm8722.c
                 __pa_121   0x005dd8    program     static X:\mandm\mandm\mandm8722.c
                 __pa_122   0x005de0    program     static X:\mandm\mandm\mandm8722.c
                 __pa_123   0x005de8    program     static X:\mandm\mandm\mandm8722.c
                 __pa_124   0x005df4    program     static X:\mandm\mandm\mandm8722.c
                 __pa_125   0x005e02    program     static X:\mandm\mandm\mandm8722.c
                 __pa_126   0x005e14    program     static X:\mandm\mandm\mandm8722.c
                 __pa_127   0x005e28    program     static X:\mandm\mandm\mandm8722.c
                 __pa_128   0x005e2e    program     static X:\mandm\mandm\mandm8722.c
                 __pa_129   0x005e38    program     static X:\mandm\mandm\mandm8722.c
                  __pa_13   0x00ca90    program     static X:\mandm\mandm\config.c  
                  __pa_13   0x00ba92    program     static C:\Program Files\Microchip\mplabc18\v3.40\src\traditional\stdclib\vfprintf.c
                  __pa_13   0x00572e    program     static X:\mandm\mandm\mandm8722.c
                 __pa_130   0x005e3e    program     static X:\mandm\mandm\mandm8722.c
                 __pa_131   0x005e54    program     static X:\mandm\mandm\mandm8722.c
                 __pa_132   0x005e68    program     static X:\mandm\mandm\mandm8722.c
                 __pa_133   0x005e72    program     static X:\mandm\mandm\mandm8722.c
                 __pa_134   0x005e7c    program     static X:\mandm\mandm\mandm8722.c
                 __pa_135   0x005e84    program     static X:\mandm\mandm\mandm8722.c
                 __pa_136   0x005e8a    program     static X:\mandm\mandm\mandm8722.c
                 __pa_137   0x005e94    program     static X:\mandm\mandm\mandm8722.c
                 __pa_138   0x005ea6    program     static X:\mandm\mandm\mandm8722.c
                 __pa_139   0x005eb8    program     static X:\mandm\mandm\mandm8722.c
                  __pa_14   0x00574e    program     static X:\mandm\mandm\mandm8722.c
                  __pa_14   0x00baaa    program     static C:\Program Files\Microchip\mplabc18\v3.40\src\traditional\stdclib\vfprintf.c
                  __pa_14   0x00ca98    program     static X:\mandm\mandm\config.c  
                 __pa_140   0x005ec4    program     static X:\mandm\mandm\mandm8722.c
                 __pa_141   0x005ed6    program     static X:\mandm\mandm\mandm8722.c
                 __pa_142   0x005ee4    program     static X:\mandm\mandm\mandm8722.c
                 __pa_143   0x005ef6    program     static X:\mandm\mandm\mandm8722.c
                 __pa_144   0x005f08    program     static X:\mandm\mandm\mandm8722.c
                 __pa_145   0x005f1a    program     static X:\mandm\mandm\mandm8722.c
                 __pa_146   0x005f24    program     static X:\mandm\mandm\mandm8722.c
                 __pa_147   0x005f2a    program     static X:\mandm\mandm\mandm8722.c
                 __pa_148   0x005f34    program     static X:\mandm\mandm\mandm8722.c
                 __pa_149   0x005f40    program     static X:\mandm\mandm\mandm8722.c
                  __pa_15   0x00caa0    program     static X:\mandm\mandm\config.c  
                  __pa_15   0x00baba    program     static C:\Program Files\Microchip\mplabc18\v3.40\src\traditional\stdclib\vfprintf.c
                  __pa_15   0x005766    program     static X:\mandm\mandm\mandm8722.c
                 __pa_150   0x005f4a    program     static X:\mandm\mandm\mandm8722.c
                 __pa_151   0x005f54    program     static X:\mandm\mandm\mandm8722.c
                 __pa_152   0x005f5e    program     static X:\mandm\mandm\mandm8722.c
                 __pa_153   0x005f68    program     static X:\mandm\mandm\mandm8722.c
                 __pa_154   0x005f74    program     static X:\mandm\mandm\mandm8722.c
                 __pa_155   0x005f7a    program     static X:\mandm\mandm\mandm8722.c
                 __pa_156   0x005f80    program     static X:\mandm\mandm\mandm8722.c
                 __pa_157   0x005f8e    program     static X:\mandm\mandm\mandm8722.c
                 __pa_158   0x005f9c    program     static X:\mandm\mandm\mandm8722.c
                 __pa_159   0x005fa6    program     static X:\mandm\mandm\mandm8722.c
                  __pa_16   0x00caaa    program     static X:\mandm\mandm\config.c  
                  __pa_16   0x00577e    program     static X:\mandm\mandm\mandm8722.c
                  __pa_16   0x00bad0    program     static C:\Program Files\Microchip\mplabc18\v3.40\src\traditional\stdclib\vfprintf.c
                 __pa_160   0x005fb0    program     static X:\mandm\mandm\mandm8722.c
                 __pa_161   0x005fbe    program     static X:\mandm\mandm\mandm8722.c
                 __pa_162   0x005fc8    program     static X:\mandm\mandm\mandm8722.c
                 __pa_163   0x005fd4    program     static X:\mandm\mandm\mandm8722.c
                 __pa_164   0x005fe2    program     static X:\mandm\mandm\mandm8722.c
                 __pa_165   0x005fee    program     static X:\mandm\mandm\mandm8722.c
                 __pa_166   0x005ff8    program     static X:\mandm\mandm\mandm8722.c
                 __pa_167   0x006002    program     static X:\mandm\mandm\mandm8722.c
                 __pa_168   0x00600a    program     static X:\mandm\mandm\mandm8722.c
                 __pa_169   0x006014    program     static X:\mandm\mandm\mandm8722.c
                  __pa_17   0x00bae2    program     static C:\Program Files\Microchip\mplabc18\v3.40\src\traditional\stdclib\vfprintf.c
                  __pa_17   0x00579a    program     static X:\mandm\mandm\mandm8722.c
                  __pa_17   0x00caae    program     static X:\mandm\mandm\config.c  
                 __pa_170   0x00601c    program     static X:\mandm\mandm\mandm8722.c
                 __pa_171   0x006026    program     static X:\mandm\mandm\mandm8722.c
                 __pa_172   0x006030    program     static X:\mandm\mandm\mandm8722.c
                 __pa_173   0x00603a    program     static X:\mandm\mandm\mandm8722.c
                 __pa_174   0x006044    program     static X:\mandm\mandm\mandm8722.c
                 __pa_175   0x00604c    program     static X:\mandm\mandm\mandm8722.c
                 __pa_176   0x006054    program     static X:\mandm\mandm\mandm8722.c
                 __pa_177   0x00605c    program     static X:\mandm\mandm\mandm8722.c
                 __pa_178   0x006076    program     static X:\mandm\mandm\mandm8722.c
                 __pa_179   0x006098    program     static X:\mandm\mandm\mandm8722.c
                  __pa_18   0x00baf4    program     static C:\Program Files\Microchip\mplabc18\v3.40\src\traditional\stdclib\vfprintf.c
                  __pa_18   0x00cab4    program     static X:\mandm\mandm\config.c  
                  __pa_18   0x0057c4    program     static X:\mandm\mandm\mandm8722.c
                 __pa_180   0x00609e    program     static X:\mandm\mandm\mandm8722.c
                 __pa_181   0x0060b6    program     static X:\mandm\mandm\mandm8722.c
                 __pa_182   0x0060d2    program     static X:\mandm\mandm\mandm8722.c
                 __pa_183   0x0060ea    program     static X:\mandm\mandm\mandm8722.c
                 __pa_184   0x0060f4    program     static X:\mandm\mandm\mandm8722.c
                 __pa_185   0x0060fa    program     static X:\mandm\mandm\mandm8722.c
                 __pa_186   0x006114    program     static X:\mandm\mandm\mandm8722.c
                 __pa_187   0x00611c    program     static X:\mandm\mandm\mandm8722.c
                 __pa_188   0x006132    program     static X:\mandm\mandm\mandm8722.c
                 __pa_189   0x00613a    program     static X:\mandm\mandm\mandm8722.c
                  __pa_19   0x0057ce    program     static X:\mandm\mandm\mandm8722.c
                  __pa_19   0x00bafe    program     static C:\Program Files\Microchip\mplabc18\v3.40\src\traditional\stdclib\vfprintf.c
                 __pa_190   0x00614a    program     static X:\mandm\mandm\mandm8722.c
                 __pa_191   0x006152    program     static X:\mandm\mandm\mandm8722.c
                 __pa_192   0x006164    program     static X:\mandm\mandm\mandm8722.c
                 __pa_193   0x00616e    program     static X:\mandm\mandm\mandm8722.c
                 __pa_194   0x006178    program     static X:\mandm\mandm\mandm8722.c
                 __pa_195   0x006186    program     static X:\mandm\mandm\mandm8722.c
                 __pa_196   0x006194    program     static X:\mandm\mandm\mandm8722.c
                 __pa_197   0x0061a0    program     static X:\mandm\mandm\mandm8722.c
                 __pa_198   0x0061ac    program     static X:\mandm\mandm\mandm8722.c
                 __pa_199   0x0061b4    program     static X:\mandm\mandm\mandm8722.c
                   __pa_2   0x007bce    program     static X:\mandm\mandm\daq.c     
                   __pa_2   0x00c746    program     static X:\mandm\mandm\power.c   
                   __pa_2   0x00cc90    program     static X:\mandm\mandm\crit.c    
                   __pa_2   0x00ca28    program     static X:\mandm\mandm\config.c  
                   __pa_2   0x0055da    program     static X:\mandm\mandm\mandm8722.c
                   __pa_2   0x00b9aa    program     static C:\Program Files\Microchip\mplabc18\v3.40\src\traditional\stdclib\vfprintf.c
                  __pa_20   0x0057d6    program     static X:\mandm\mandm\mandm8722.c
                  __pa_20   0x00bb0e    program     static C:\Program Files\Microchip\mplabc18\v3.40\src\traditional\stdclib\vfprintf.c
                 __pa_200   0x0061c0    program     static X:\mandm\mandm\mandm8722.c
                 __pa_201   0x0061c8    program     static X:\mandm\mandm\mandm8722.c
                 __pa_202   0x0061ce    program     static X:\mandm\mandm\mandm8722.c
                 __pa_203   0x0061d6    program     static X:\mandm\mandm\mandm8722.c
                 __pa_204   0x0061de    program     static X:\mandm\mandm\mandm8722.c
                 __pa_205   0x0061e4    program     static X:\mandm\mandm\mandm8722.c
                 __pa_206   0x0061ee    program     static X:\mandm\mandm\mandm8722.c
                 __pa_207   0x0061f6    program     static X:\mandm\mandm\mandm8722.c
                 __pa_208   0x006206    program     static X:\mandm\mandm\mandm8722.c
                 __pa_209   0x006218    program     static X:\mandm\mandm\mandm8722.c
                  __pa_21   0x0057e0    program     static X:\mandm\mandm\mandm8722.c
                  __pa_21   0x00bb1e    program     static C:\Program Files\Microchip\mplabc18\v3.40\src\traditional\stdclib\vfprintf.c
                 __pa_210   0x006220    program     static X:\mandm\mandm\mandm8722.c
                  __pa_22   0x0057fa    program     static X:\mandm\mandm\mandm8722.c
                  __pa_22   0x00bb2e    program     static C:\Program Files\Microchip\mplabc18\v3.40\src\traditional\stdclib\vfprintf.c
                  __pa_23   0x005804    program     static X:\mandm\mandm\mandm8722.c
                  __pa_23   0x00bb3a    program     static C:\Program Files\Microchip\mplabc18\v3.40\src\traditional\stdclib\vfprintf.c
                  __pa_24   0x00580e    program     static X:\mandm\mandm\mandm8722.c
                  __pa_24   0x00bb48    program     static C:\Program Files\Microchip\mplabc18\v3.40\src\traditional\stdclib\vfprintf.c
                  __pa_25   0x00bb50    program     static C:\Program Files\Microchip\mplabc18\v3.40\src\traditional\stdclib\vfprintf.c
                  __pa_25   0x005830    program     static X:\mandm\mandm\mandm8722.c
                  __pa_26   0x00bb5a    program     static C:\Program Files\Microchip\mplabc18\v3.40\src\traditional\stdclib\vfprintf.c
                  __pa_26   0x00583c    program     static X:\mandm\mandm\mandm8722.c
                  __pa_27   0x00bb64    program     static C:\Program Files\Microchip\mplabc18\v3.40\src\traditional\stdclib\vfprintf.c
                  __pa_27   0x005846    program     static X:\mandm\mandm\mandm8722.c
                  __pa_28   0x005854    program     static X:\mandm\mandm\mandm8722.c
                  __pa_28   0x00bb6c    program     static C:\Program Files\Microchip\mplabc18\v3.40\src\traditional\stdclib\vfprintf.c
                  __pa_29   0x005860    program     static X:\mandm\mandm\mandm8722.c
                  __pa_29   0x00bb7a    program     static C:\Program Files\Microchip\mplabc18\v3.40\src\traditional\stdclib\vfprintf.c
                   __pa_3   0x00b9b4    program     static C:\Program Files\Microchip\mplabc18\v3.40\src\traditional\stdclib\vfprintf.c
                   __pa_3   0x00c750    program     static X:\mandm\mandm\power.c   
                   __pa_3   0x0055ee    program     static X:\mandm\mandm\mandm8722.c
                   __pa_3   0x007be0    program     static X:\mandm\mandm\daq.c     
                   __pa_3   0x00cc9e    program     static X:\mandm\mandm\crit.c    
                   __pa_3   0x00ca36    program     static X:\mandm\mandm\config.c  
                  __pa_30   0x005874    program     static X:\mandm\mandm\mandm8722.c
                  __pa_30   0x00bb96    program     static C:\Program Files\Microchip\mplabc18\v3.40\src\traditional\stdclib\vfprintf.c
                  __pa_31   0x00588a    program     static X:\mandm\mandm\mandm8722.c
                  __pa_31   0x00bbb0    program     static C:\Program Files\Microchip\mplabc18\v3.40\src\traditional\stdclib\vfprintf.c
                  __pa_32   0x005894    program     static X:\mandm\mandm\mandm8722.c
                  __pa_32   0x00bbca    program     static C:\Program Files\Microchip\mplabc18\v3.40\src\traditional\stdclib\vfprintf.c
                  __pa_33   0x00589e    program     static X:\mandm\mandm\mandm8722.c
                  __pa_33   0x00bbe2    program     static C:\Program Files\Microchip\mplabc18\v3.40\src\traditional\stdclib\vfprintf.c
                  __pa_34   0x00bbec    program     static C:\Program Files\Microchip\mplabc18\v3.40\src\traditional\stdclib\vfprintf.c
                  __pa_34   0x0058b6    program     static X:\mandm\mandm\mandm8722.c
                  __pa_35   0x00bbfa    program     static C:\Program Files\Microchip\mplabc18\v3.40\src\traditional\stdclib\vfprintf.c
                  __pa_35   0x0058c8    program     static X:\mandm\mandm\mandm8722.c
                  __pa_36   0x00bc02    program     static C:\Program Files\Microchip\mplabc18\v3.40\src\traditional\stdclib\vfprintf.c
                  __pa_36   0x0058d2    program     static X:\mandm\mandm\mandm8722.c
                  __pa_37   0x00bc0c    program     static C:\Program Files\Microchip\mplabc18\v3.40\src\traditional\stdclib\vfprintf.c
                  __pa_37   0x0058e0    program     static X:\mandm\mandm\mandm8722.c
                  __pa_38   0x0058ea    program     static X:\mandm\mandm\mandm8722.c
                  __pa_38   0x00bc1c    program     static C:\Program Files\Microchip\mplabc18\v3.40\src\traditional\stdclib\vfprintf.c
                  __pa_39   0x00bc2a    program     static C:\Program Files\Microchip\mplabc18\v3.40\src\traditional\stdclib\vfprintf.c
                  __pa_39   0x0058f6    program     static X:\mandm\mandm\mandm8722.c
                   __pa_4   0x005602    program     static X:\mandm\mandm\mandm8722.c
                   __pa_4   0x007bfc    program     static X:\mandm\mandm\daq.c     
                   __pa_4   0x00c758    program     static X:\mandm\mandm\power.c   
                   __pa_4   0x00b9cc    program     static C:\Program Files\Microchip\mplabc18\v3.40\src\traditional\stdclib\vfprintf.c
                   __pa_4   0x00ca3e    program     static X:\mandm\mandm\config.c  
                  __pa_40   0x005910    program     static X:\mandm\mandm\mandm8722.c
                  __pa_40   0x00bc36    program     static C:\Program Files\Microchip\mplabc18\v3.40\src\traditional\stdclib\vfprintf.c
                  __pa_41   0x005922    program     static X:\mandm\mandm\mandm8722.c
                  __pa_41   0x00bc42    program     static C:\Program Files\Microchip\mplabc18\v3.40\src\traditional\stdclib\vfprintf.c
                  __pa_42   0x00bc4a    program     static C:\Program Files\Microchip\mplabc18\v3.40\src\traditional\stdclib\vfprintf.c
                  __pa_42   0x00592a    program     static X:\mandm\mandm\mandm8722.c
                  __pa_43   0x005930    program     static X:\mandm\mandm\mandm8722.c
                  __pa_43   0x00bc54    program     static C:\Program Files\Microchip\mplabc18\v3.40\src\traditional\stdclib\vfprintf.c
                  __pa_44   0x00593c    program     static X:\mandm\mandm\mandm8722.c
                  __pa_44   0x00bc5a    program     static C:\Program Files\Microchip\mplabc18\v3.40\src\traditional\stdclib\vfprintf.c
                  __pa_45   0x00bc64    program     static C:\Program Files\Microchip\mplabc18\v3.40\src\traditional\stdclib\vfprintf.c
                  __pa_45   0x005948    program     static X:\mandm\mandm\mandm8722.c
                  __pa_46   0x005972    program     static X:\mandm\mandm\mandm8722.c
                  __pa_46   0x00bc70    program     static C:\Program Files\Microchip\mplabc18\v3.40\src\traditional\stdclib\vfprintf.c
                  __pa_47   0x00597c    program     static X:\mandm\mandm\mandm8722.c
                  __pa_48   0x005986    program     static X:\mandm\mandm\mandm8722.c
                  __pa_49   0x005990    program     static X:\mandm\mandm\mandm8722.c
                   __pa_5   0x007c0a    program     static X:\mandm\mandm\daq.c     
                   __pa_5   0x00ca4e    program     static X:\mandm\mandm\config.c  
                   __pa_5   0x00c766    program     static X:\mandm\mandm\power.c   
                   __pa_5   0x00b9e0    program     static C:\Program Files\Microchip\mplabc18\v3.40\src\traditional\stdclib\vfprintf.c
                   __pa_5   0x005608    program     static X:\mandm\mandm\mandm8722.c
                  __pa_50   0x00599a    program     static X:\mandm\mandm\mandm8722.c
                  __pa_51   0x0059a8    program     static X:\mandm\mandm\mandm8722.c
                  __pa_52   0x0059b6    program     static X:\mandm\mandm\mandm8722.c
                  __pa_53   0x0059c2    program     static X:\mandm\mandm\mandm8722.c
                  __pa_54   0x0059ca    program     static X:\mandm\mandm\mandm8722.c
                  __pa_55   0x0059ee    program     static X:\mandm\mandm\mandm8722.c
                  __pa_56   0x005a12    program     static X:\mandm\mandm\mandm8722.c
                  __pa_57   0x005a22    program     static X:\mandm\mandm\mandm8722.c
                  __pa_58   0x005a2a    program     static X:\mandm\mandm\mandm8722.c
                  __pa_59   0x005a42    program     static X:\mandm\mandm\mandm8722.c
                   __pa_6   0x007c18    program     static X:\mandm\mandm\daq.c     
                   __pa_6   0x00b9fc    program     static C:\Program Files\Microchip\mplabc18\v3.40\src\traditional\stdclib\vfprintf.c
                   __pa_6   0x005610    program     static X:\mandm\mandm\mandm8722.c
                   __pa_6   0x00ca56    program     static X:\mandm\mandm\config.c  
                   __pa_6   0x00c77e    program     static X:\mandm\mandm\power.c   
                  __pa_60   0x005a54    program     static X:\mandm\mandm\mandm8722.c
                  __pa_61   0x005a5c    program     static X:\mandm\mandm\mandm8722.c
                  __pa_62   0x005a68    program     static X:\mandm\mandm\mandm8722.c
                  __pa_63   0x005a6e    program     static X:\mandm\mandm\mandm8722.c
                  __pa_64   0x005a86    program     static X:\mandm\mandm\mandm8722.c
                  __pa_65   0x005a90    program     static X:\mandm\mandm\mandm8722.c
                  __pa_66   0x005aa6    program     static X:\mandm\mandm\mandm8722.c
                  __pa_67   0x005ab0    program     static X:\mandm\mandm\mandm8722.c
                  __pa_68   0x005abc    program     static X:\mandm\mandm\mandm8722.c
                  __pa_69   0x005ac4    program     static X:\mandm\mandm\mandm8722.c
                   __pa_7   0x00c78c    program     static X:\mandm\mandm\power.c   
                   __pa_7   0x00ba06    program     static C:\Program Files\Microchip\mplabc18\v3.40\src\traditional\stdclib\vfprintf.c
                   __pa_7   0x005656    program     static X:\mandm\mandm\mandm8722.c
                   __pa_7   0x00ca5e    program     static X:\mandm\mandm\config.c  
                  __pa_70   0x005acc    program     static X:\mandm\mandm\mandm8722.c
                  __pa_71   0x005ada    program     static X:\mandm\mandm\mandm8722.c
                  __pa_72   0x005ae8    program     static X:\mandm\mandm\mandm8722.c
                  __pa_73   0x005af6    program     static X:\mandm\mandm\mandm8722.c
                  __pa_74   0x005b08    program     static X:\mandm\mandm\mandm8722.c
                  __pa_75   0x005b1a    program     static X:\mandm\mandm\mandm8722.c
                  __pa_76   0x005b2c    program     static X:\mandm\mandm\mandm8722.c
                  __pa_77   0x005b3e    program     static X:\mandm\mandm\mandm8722.c
                  __pa_78   0x005b50    program     static X:\mandm\mandm\mandm8722.c
                  __pa_79   0x005b62    program     static X:\mandm\mandm\mandm8722.c
                   __pa_8   0x005668    program     static X:\mandm\mandm\mandm8722.c
                   __pa_8   0x00ba12    program     static C:\Program Files\Microchip\mplabc18\v3.40\src\traditional\stdclib\vfprintf.c
                   __pa_8   0x00c796    program     static X:\mandm\mandm\power.c   
                   __pa_8   0x00ca66    program     static X:\mandm\mandm\config.c  
                  __pa_80   0x005b6c    program     static X:\mandm\mandm\mandm8722.c
                  __pa_81   0x005b7e    program     static X:\mandm\mandm\mandm8722.c
                  __pa_82   0x005b90    program     static X:\mandm\mandm\mandm8722.c
                  __pa_83   0x005b9c    program     static X:\mandm\mandm\mandm8722.c
                  __pa_84   0x005ba2    program     static X:\mandm\mandm\mandm8722.c
                  __pa_85   0x005bac    program     static X:\mandm\mandm\mandm8722.c
                  __pa_86   0x005bb6    program     static X:\mandm\mandm\mandm8722.c
                  __pa_87   0x005bbe    program     static X:\mandm\mandm\mandm8722.c
                  __pa_88   0x005bc4    program     static X:\mandm\mandm\mandm8722.c
                  __pa_89   0x005bce    program     static X:\mandm\mandm\mandm8722.c
                   __pa_9   0x00ba34    program     static C:\Program Files\Microchip\mplabc18\v3.40\src\traditional\stdclib\vfprintf.c
                   __pa_9   0x00c79e    program     static X:\mandm\mandm\power.c   
                   __pa_9   0x005672    program     static X:\mandm\mandm\mandm8722.c
                   __pa_9   0x00ca72    program     static X:\mandm\mandm\config.c  
                  __pa_90   0x005bdc    program     static X:\mandm\mandm\mandm8722.c
                  __pa_91   0x005bea    program     static X:\mandm\mandm\mandm8722.c
                  __pa_92   0x005bf8    program     static X:\mandm\mandm\mandm8722.c
                  __pa_93   0x005c00    program     static X:\mandm\mandm\mandm8722.c
                  __pa_94   0x005c0e    program     static X:\mandm\mandm\mandm8722.c
                  __pa_95   0x005c18    program     static X:\mandm\mandm\mandm8722.c
                  __pa_96   0x005c22    program     static X:\mandm\mandm\mandm8722.c
                  __pa_97   0x005c2c    program     static X:\mandm\mandm\mandm8722.c
                  __pa_98   0x005c3a    program     static X:\mandm\mandm\mandm8722.c
                  __pa_99   0x005c66    program     static X:\mandm\mandm\mandm8722.c
               __string_0   0x00904e    program     static X:\mandm\mandm\daq.c     
               __string_0   0x00a314    program     static X:\mandm\mandm\config.c  
               __string_1   0x00901f    program     static X:\mandm\mandm\daq.c     
               __string_1   0x00a2f7    program     static X:\mandm\mandm\config.c  
             __string_108   0x00a1f8    program     static X:\mandm\mandm\mandm8722.c
             __string_109   0x00a1ef    program     static X:\mandm\mandm\mandm8722.c
             __string_110   0x00a1d6    program     static X:\mandm\mandm\mandm8722.c
             __string_111   0x00a1cf    program     static X:\mandm\mandm\mandm8722.c
             __string_112   0x00a1cc    program     static X:\mandm\mandm\mandm8722.c
             __string_113   0x00a1c7    program     static X:\mandm\mandm\mandm8722.c
             __string_114   0x00a1c5    program     static X:\mandm\mandm\mandm8722.c
             __string_115   0x00a1af    program     static X:\mandm\mandm\mandm8722.c
             __string_116   0x00a120    program     static X:\mandm\mandm\mandm8722.c
             __string_117   0x00a061    program     static X:\mandm\mandm\mandm8722.c
             __string_118   0x00a002    program     static X:\mandm\mandm\mandm8722.c
             __string_119   0x009f8a    program     static X:\mandm\mandm\mandm8722.c
             __string_120   0x009f69    program     static X:\mandm\mandm\mandm8722.c
             __string_121   0x009f57    program     static X:\mandm\mandm\mandm8722.c
             __string_122   0x009f4b    program     static X:\mandm\mandm\mandm8722.c
             __string_123   0x009f43    program     static X:\mandm\mandm\mandm8722.c
             __string_124   0x009f3b    program     static X:\mandm\mandm\mandm8722.c
             __string_125   0x009f35    program     static X:\mandm\mandm\mandm8722.c
             __string_126   0x009f28    program     static X:\mandm\mandm\mandm8722.c
             __string_127   0x009f1e    program     static X:\mandm\mandm\mandm8722.c
             __string_128   0x009f0c    program     static X:\mandm\mandm\mandm8722.c
             __string_129   0x009ef2    program     static X:\mandm\mandm\mandm8722.c
             __string_130   0x009ed8    program     static X:\mandm\mandm\mandm8722.c
             __string_131   0x009eb8    program     static X:\mandm\mandm\mandm8722.c
             __string_132   0x009e9e    program     static X:\mandm\mandm\mandm8722.c
             __string_133   0x009e85    program     static X:\mandm\mandm\mandm8722.c
             __string_134   0x009e61    program     static X:\mandm\mandm\mandm8722.c
             __string_135   0x009e3e    program     static X:\mandm\mandm\mandm8722.c
             __string_136   0x009e00    program     static X:\mandm\mandm\mandm8722.c
             __string_137   0x009dc8    program     static X:\mandm\mandm\mandm8722.c
             __string_138   0x009dad    program     static X:\mandm\mandm\mandm8722.c
             __string_139   0x009d82    program     static X:\mandm\mandm\mandm8722.c
             __string_140   0x009d5d    program     static X:\mandm\mandm\mandm8722.c
             __string_141   0x009d47    program     static X:\mandm\mandm\mandm8722.c
             __string_142   0x009d30    program     static X:\mandm\mandm\mandm8722.c
             __string_143   0x009ce1    program     static X:\mandm\mandm\mandm8722.c
             __string_144   0x009c8b    program     static X:\mandm\mandm\mandm8722.c
             __string_145   0x009c6f    program     static X:\mandm\mandm\mandm8722.c
             __string_146   0x009c4f    program     static X:\mandm\mandm\mandm8722.c
             __string_147   0x009bfb    program     static X:\mandm\mandm\mandm8722.c
             __string_148   0x009bbc    program     static X:\mandm\mandm\mandm8722.c
             __string_149   0x009b9a    program     static X:\mandm\mandm\mandm8722.c
             __string_150   0x009b47    program     static X:\mandm\mandm\mandm8722.c
             __string_151   0x009b35    program     static X:\mandm\mandm\mandm8722.c
             __string_152   0x009b1a    program     static X:\mandm\mandm\mandm8722.c
             __string_153   0x009b0b    program     static X:\mandm\mandm\mandm8722.c
             __string_154   0x009af0    program     static X:\mandm\mandm\mandm8722.c
             __string_155   0x009ad8    program     static X:\mandm\mandm\mandm8722.c
             __string_156   0x009ac9    program     static X:\mandm\mandm\mandm8722.c
             __string_157   0x009ab1    program     static X:\mandm\mandm\mandm8722.c
             __string_158   0x009a9a    program     static X:\mandm\mandm\mandm8722.c
             __string_159   0x009a83    program     static X:\mandm\mandm\mandm8722.c
             __string_160   0x009a70    program     static X:\mandm\mandm\mandm8722.c
             __string_161   0x009a4b    program     static X:\mandm\mandm\mandm8722.c
             __string_162   0x009a35    program     static X:\mandm\mandm\mandm8722.c
             __string_163   0x009a1f    program     static X:\mandm\mandm\mandm8722.c
             __string_164   0x009a09    program     static X:\mandm\mandm\mandm8722.c
             __string_165   0x0099f3    program     static X:\mandm\mandm\mandm8722.c
             __string_166   0x0099ca    program     static X:\mandm\mandm\mandm8722.c
             __string_167   0x0099a9    program     static X:\mandm\mandm\mandm8722.c
             __string_168   0x00998c    program     static X:\mandm\mandm\mandm8722.c
             __string_169   0x009965    program     static X:\mandm\mandm\mandm8722.c
             __string_170   0x00993e    program     static X:\mandm\mandm\mandm8722.c
             __string_171   0x009917    program     static X:\mandm\mandm\mandm8722.c
             __string_172   0x0098ee    program     static X:\mandm\mandm\mandm8722.c
             __string_173   0x0098c5    program     static X:\mandm\mandm\mandm8722.c
             __string_174   0x00989c    program     static X:\mandm\mandm\mandm8722.c
             __string_175   0x009875    program     static X:\mandm\mandm\mandm8722.c
             __string_176   0x00985d    program     static X:\mandm\mandm\mandm8722.c
             __string_177   0x009848    program     static X:\mandm\mandm\mandm8722.c
             __string_178   0x00981f    program     static X:\mandm\mandm\mandm8722.c
             __string_179   0x0097fd    program     static X:\mandm\mandm\mandm8722.c
             __string_180   0x0097d6    program     static X:\mandm\mandm\mandm8722.c
             __string_181   0x0097b5    program     static X:\mandm\mandm\mandm8722.c
             __string_182   0x00979f    program     static X:\mandm\mandm\mandm8722.c
             __string_183   0x009789    program     static X:\mandm\mandm\mandm8722.c
             __string_184   0x009773    program     static X:\mandm\mandm\mandm8722.c
             __string_185   0x009754    program     static X:\mandm\mandm\mandm8722.c
             __string_186   0x009735    program     static X:\mandm\mandm\mandm8722.c
             __string_187   0x009716    program     static X:\mandm\mandm\mandm8722.c
             __string_188   0x0096f8    program     static X:\mandm\mandm\mandm8722.c
             __string_189   0x0096d4    program     static X:\mandm\mandm\mandm8722.c
             __string_190   0x0096a6    program     static X:\mandm\mandm\mandm8722.c
             __string_191   0x00968a    program     static X:\mandm\mandm\mandm8722.c
             __string_192   0x00965f    program     static X:\mandm\mandm\mandm8722.c
             __string_193   0x009640    program     static X:\mandm\mandm\mandm8722.c
             __string_194   0x009618    program     static X:\mandm\mandm\mandm8722.c
             __string_195   0x0095eb    program     static X:\mandm\mandm\mandm8722.c
             __string_196   0x0095d0    program     static X:\mandm\mandm\mandm8722.c
             __string_197   0x0095a5    program     static X:\mandm\mandm\mandm8722.c
             __string_198   0x009585    program     static X:\mandm\mandm\mandm8722.c
             __string_199   0x00956e    program     static X:\mandm\mandm\mandm8722.c
               __string_2   0x00a2d2    program     static X:\mandm\mandm\config.c  
               __string_2   0x008ff0    program     static X:\mandm\mandm\daq.c     
             __string_200   0x009557    program     static X:\mandm\mandm\mandm8722.c
             __string_201   0x00953b    program     static X:\mandm\mandm\mandm8722.c
             __string_202   0x00951d    program     static X:\mandm\mandm\mandm8722.c
             __string_203   0x0094f7    program     static X:\mandm\mandm\mandm8722.c
             __string_204   0x0094da    program     static X:\mandm\mandm\mandm8722.c
             __string_205   0x0094b5    program     static X:\mandm\mandm\mandm8722.c
             __string_206   0x00949e    program     static X:\mandm\mandm\mandm8722.c
             __string_207   0x009476    program     static X:\mandm\mandm\mandm8722.c
             __string_208   0x00944e    program     static X:\mandm\mandm\mandm8722.c
             __string_209   0x009426    program     static X:\mandm\mandm\mandm8722.c
             __string_210   0x00940e    program     static X:\mandm\mandm\mandm8722.c
             __string_211   0x0093ec    program     static X:\mandm\mandm\mandm8722.c
             __string_212   0x0093d6    program     static X:\mandm\mandm\mandm8722.c
             __string_213   0x0093c3    program     static X:\mandm\mandm\mandm8722.c
             __string_214   0x0093b0    program     static X:\mandm\mandm\mandm8722.c
             __string_215   0x00939d    program     static X:\mandm\mandm\mandm8722.c
             __string_216   0x00936f    program     static X:\mandm\mandm\mandm8722.c
             __string_217   0x00933a    program     static X:\mandm\mandm\mandm8722.c
             __string_218   0x009317    program     static X:\mandm\mandm\mandm8722.c
             __string_219   0x0092d9    program     static X:\mandm\mandm\mandm8722.c
             __string_220   0x0092c4    program     static X:\mandm\mandm\mandm8722.c
             __string_221   0x00929f    program     static X:\mandm\mandm\mandm8722.c
             __string_222   0x009275    program     static X:\mandm\mandm\mandm8722.c
             __string_223   0x00924c    program     static X:\mandm\mandm\mandm8722.c
             __string_224   0x009223    program     static X:\mandm\mandm\mandm8722.c
             __string_225   0x00920b    program     static X:\mandm\mandm\mandm8722.c
             __string_226   0x0091ec    program     static X:\mandm\mandm\mandm8722.c
             __string_227   0x0091d3    program     static X:\mandm\mandm\mandm8722.c
             __string_228   0x0091b6    program     static X:\mandm\mandm\mandm8722.c
             __string_229   0x009196    program     static X:\mandm\mandm\mandm8722.c
             __string_230   0x009173    program     static X:\mandm\mandm\mandm8722.c
             __string_231   0x009153    program     static X:\mandm\mandm\mandm8722.c
             __string_232   0x00913a    program     static X:\mandm\mandm\mandm8722.c
             __string_233   0x00911e    program     static X:\mandm\mandm\mandm8722.c
             __string_234   0x009105    program     static X:\mandm\mandm\mandm8722.c
             __string_235   0x0090ec    program     static X:\mandm\mandm\mandm8722.c
             __string_236   0x0090d6    program     static X:\mandm\mandm\mandm8722.c
             __string_237   0x0090bd    program     static X:\mandm\mandm\mandm8722.c
             __string_238   0x00909b    program     static X:\mandm\mandm\mandm8722.c
             __string_239   0x00907d    program     static X:\mandm\mandm\mandm8722.c
               __string_3   0x00a2ac    program     static X:\mandm\mandm\config.c  
               __string_4   0x00a285    program     static X:\mandm\mandm\config.c  
               __string_5   0x00a263    program     static X:\mandm\mandm\config.c  
               __string_6   0x00a24c    program     static X:\mandm\mandm\config.c  
               __string_7   0x00a228    program     static X:\mandm\mandm\config.c  
               __string_8   0x00a204    program     static X:\mandm\mandm\config.c  
               __tmplbl_0   0x00ce78    program     static                          
               __tmplbl_0   0x00a52c    program     static                          
               __tmplbl_1   0x00ce72    program     static                          
               __tmplbl_1   0x00a526    program     static                          
               __tmplbl_1   0x0002b0    program     static                          
              __tmplbl_10   0x006640    program     static                          
              __tmplbl_10   0x00a710    program     static                          
             __tmplbl_100   0x0057ce    program     static                          
             __tmplbl_101   0x006178    program     static                          
             __tmplbl_102   0x006178    program     static                          
             __tmplbl_103   0x005d86    program     static                          
             __tmplbl_104   0x005d86    program     static                          
             __tmplbl_108   0x0057ce    program     static                          
              __tmplbl_11   0x006878    program     static                          
              __tmplbl_11   0x00a734    program     static                          
             __tmplbl_110   0x0057ce    program     static                          
             __tmplbl_111   0x0057ce    program     static                          
              __tmplbl_12   0x00a72e    program     static                          
              __tmplbl_12   0x006ab0    program     static                          
              __tmplbl_13   0x006f9c    program     static                          
              __tmplbl_13   0x00a756    program     static                          
             __tmplbl_132   0x0057ce    program     static                          
             __tmplbl_133   0x0057ce    program     static                          
             __tmplbl_135   0x0057ce    program     static                          
             __tmplbl_136   0x005d50    program     static                          
             __tmplbl_137   0x005d50    program     static                          
             __tmplbl_138   0x005d50    program     static                          
             __tmplbl_139   0x005d50    program     static                          
              __tmplbl_14   0x007254    program     static                          
              __tmplbl_14   0x00a750    program     static                          
             __tmplbl_140   0x005d50    program     static                          
             __tmplbl_141   0x005d50    program     static                          
             __tmplbl_145   0x005d50    program     static                          
             __tmplbl_146   0x0057ce    program     static                          
             __tmplbl_147   0x002a28    program     static                          
             __tmplbl_148   0x002b18    program     static                          
             __tmplbl_149   0x002bca    program     static                          
              __tmplbl_15   0x00734e    program     static                          
              __tmplbl_15   0x00a77e    program     static                          
             __tmplbl_150   0x002bf6    program     static                          
             __tmplbl_151   0x002d9c    program     static                          
             __tmplbl_152   0x002e8c    program     static                          
             __tmplbl_153   0x002f3e    program     static                          
             __tmplbl_154   0x002f6a    program     static                          
             __tmplbl_155   0x005f2a    program     static                          
             __tmplbl_156   0x005f2a    program     static                          
             __tmplbl_157   0x005f2a    program     static                          
             __tmplbl_158   0x0061ce    program     static                          
              __tmplbl_16   0x00a778    program     static                          
              __tmplbl_17   0x00a7a6    program     static                          
              __tmplbl_18   0x00a7a0    program     static                          
              __tmplbl_19   0x00a7fa    program     static                          
               __tmplbl_2   0x000366    program     static                          
               __tmplbl_2   0x00a54e    program     static                          
              __tmplbl_20   0x00a7f4    program     static                          
              __tmplbl_21   0x00a850    program     static                          
              __tmplbl_22   0x00a87a    program     static                          
              __tmplbl_23   0x00aa08    program     static                          
              __tmplbl_24   0x00aa64    program     static                          
              __tmplbl_25   0x00aa8c    program     static                          
              __tmplbl_26   0x00ab16    program     static                          
              __tmplbl_27   0x00ae1a    program     static                          
              __tmplbl_28   0x00adde    program     static                          
              __tmplbl_29   0x00aea4    program     static                          
               __tmplbl_3   0x0066a8    program     static                          
               __tmplbl_3   0x00a548    program     static                          
              __tmplbl_30   0x00ae82    program     static                          
              __tmplbl_31   0x00ae7c    program     static                          
              __tmplbl_32   0x00ae76    program     static                          
              __tmplbl_33   0x00af2c    program     static                          
              __tmplbl_34   0x00af7a    program     static                          
              __tmplbl_35   0x00af74    program     static                          
               __tmplbl_4   0x00a5bc    program     static                          
               __tmplbl_4   0x0068e0    program     static                          
              __tmplbl_42   0x00bb2e    program     static                          
              __tmplbl_43   0x00b976    program     static                          
              __tmplbl_44   0x00b95c    program     static                          
               __tmplbl_5   0x006b18    program     static                          
               __tmplbl_5   0x00a6ec    program     static                          
               __tmplbl_6   0x0070c2    program     static                          
               __tmplbl_6   0x00a6e4    program     static                          
              __tmplbl_62   0x002be2    program     static                          
              __tmplbl_63   0x002bd2    program     static                          
              __tmplbl_64   0x002f56    program     static                          
              __tmplbl_65   0x002f46    program     static                          
              __tmplbl_66   0x002fa0    program     static                          
              __tmplbl_67   0x002f96    program     static                          
              __tmplbl_68   0x00336e    program     static                          
              __tmplbl_69   0x003368    program     static                          
               __tmplbl_7   0x00a702    program     static                          
               __tmplbl_7   0x0070bc    program     static                          
              __tmplbl_70   0x003362    program     static                          
              __tmplbl_71   0x003776    program     static                          
              __tmplbl_72   0x003764    program     static                          
              __tmplbl_73   0x0039ce    program     static                          
              __tmplbl_74   0x0039c8    program     static                          
              __tmplbl_75   0x0039c2    program     static                          
              __tmplbl_76   0x003dd6    program     static                          
              __tmplbl_77   0x003dc4    program     static                          
              __tmplbl_78   0x003e3a    program     static                          
              __tmplbl_79   0x003fcc    program     static                          
               __tmplbl_8   0x0063ea    program     static                          
               __tmplbl_8   0x00a6fa    program     static                          
              __tmplbl_80   0x004106    program     static                          
              __tmplbl_81   0x004298    program     static                          
              __tmplbl_82   0x004766    program     static                          
              __tmplbl_83   0x0047da    program     static                          
              __tmplbl_84   0x005528    program     static                          
              __tmplbl_85   0x005522    program     static                          
              __tmplbl_85   0x00b0ae    program     static                          
              __tmplbl_86   0x0057ce    program     static                          
              __tmplbl_87   0x0057ce    program     static                          
              __tmplbl_88   0x0057ce    program     static                          
              __tmplbl_89   0x0057ce    program     static                          
               __tmplbl_9   0x00a718    program     static                          
               __tmplbl_9   0x0064f4    program     static                          
              __tmplbl_90   0x0057ce    program     static                          
              __tmplbl_91   0x0057ce    program     static                          
              __tmplbl_92   0x0057ce    program     static                          
              __tmplbl_93   0x0057ce    program     static                          
              __tmplbl_95   0x0057ce    program     static                          
              __tmplbl_96   0x0057ce    program     static                          
              __tmplbl_97   0x005e94    program     static                          
              __tmplbl_98   0x005e94    program     static                          
              __tmplbl_99   0x0057ce    program     static                          
            __zero_memory   0x00da3a    program     extern C:\Program Files\Microchip\mplabc18\v3.40\src\traditional\proc\p18F8722.asm
                _do_cinit   0x00d068    program     extern C:\Program Files\Microchip\mplabc18\v3.40\src\traditional\startup\c018iz.c
                   _entry   0x000000    program     extern C:\Program Files\Microchip\mplabc18\v3.40\src\traditional\startup\c018iz.c
                   _false   0x00d61e    program     static                          
                 _startup   0x00da1a    program     extern C:\Program Files\Microchip\mplabc18\v3.40\src\traditional\startup\c018iz.c
              _usart_putc   0x00da5a    program     extern C:\Program Files\Microchip\mplabc18\v3.40\src\pmc_common\USART\_usartpc.asm
               _user_putc   0x000006    program     extern C:\Program Files\Microchip\mplabc18\v3.40\src\traditional\stdclib\_user_putc.c
                    adcg0   0x0080cd    program     extern X:\mandm\mandm\mandm_msg.h
                    adcg1   0x00810d    program     extern X:\mandm\mandm\mandm_msg.h
                    adcg2   0x008138    program     extern X:\mandm\mandm\mandm_msg.h
                    adcg3   0x00816b    program     extern X:\mandm\mandm\mandm_msg.h
                    adcg4   0x0081d7    program     extern X:\mandm\mandm\mandm_msg.h
                     ahfp   0x0012ec    program     extern X:\mandm\mandm\mandm8722.c
                 almcode0   0x00891f    program     extern X:\mandm\mandm\mandm_msg.h
                 almcode1   0x00893f    program     extern X:\mandm\mandm\mandm_msg.h
                almcode10   0x008ae6    program     extern X:\mandm\mandm\mandm_msg.h
                almcode11   0x008b27    program     extern X:\mandm\mandm\mandm_msg.h
                almcode12   0x008b4d    program     extern X:\mandm\mandm\mandm_msg.h
                almcode13   0x008b73    program     extern X:\mandm\mandm\mandm_msg.h
                almcode14   0x008b9f    program     extern X:\mandm\mandm\mandm_msg.h
                almcode15   0x008bb7    program     extern X:\mandm\mandm\mandm_msg.h
                almcode16   0x008bce    program     extern X:\mandm\mandm\mandm_msg.h
                almcode17   0x008bfb    program     extern X:\mandm\mandm\mandm_msg.h
                 almcode2   0x00896f    program     extern X:\mandm\mandm\mandm_msg.h
                 almcode3   0x008992    program     extern X:\mandm\mandm\mandm_msg.h
                 almcode4   0x0089b5    program     extern X:\mandm\mandm\mandm_msg.h
                 almcode5   0x0089e6    program     extern X:\mandm\mandm\mandm_msg.h
                 almcode6   0x008a1a    program     extern X:\mandm\mandm\mandm_msg.h
                 almcode7   0x008a4f    program     extern X:\mandm\mandm\mandm_msg.h
                 almcode8   0x008a88    program     extern X:\mandm\mandm\mandm_msg.h
                 almcode9   0x008ab6    program     extern X:\mandm\mandm\mandm_msg.h
                almcode99   0x008c1a    program     extern X:\mandm\mandm\mandm_msg.h
                 ansidraw   0x0017a4    program     extern X:\mandm\mandm\mandm8722.c
              battbuffer0   0x00880d    program     extern X:\mandm\mandm\mandm_msg.h
              battheader0   0x0086d8    program     extern X:\mandm\mandm\mandm_msg.h
              battheader1   0x00874c    program     extern X:\mandm\mandm\mandm_msg.h
                blink_led   0x00c670    program     extern X:\mandm\mandm\power.c   
             buzzer_ticks   0x00b010    program     extern X:\mandm\mandm\mandm_vector.c
                 charger0   0x008f01    program     extern X:\mandm\mandm\mandm_msg.h
                 charger1   0x008f38    program     extern X:\mandm\mandm\mandm_msg.h
                 charger2   0x008f72    program     extern X:\mandm\mandm\mandm_msg.h
                 charger3   0x008fb0    program     extern X:\mandm\mandm\mandm_msg.h
                 charger4   0x008fcf    program     extern X:\mandm\mandm\mandm_msg.h
                charger99   0x008fef    program     extern X:\mandm\mandm\mandm_msg.h
              check_alarm   0x00138c    program     extern X:\mandm\mandm\mandm8722.c
              check_cable   0x001da2    program     extern X:\mandm\mandm\mandm8722.c
                checktime   0x000370    program     extern X:\mandm\mandm\mandm8722.c
            checktime_cal   0x0004d2    program     extern X:\mandm\mandm\mandm8722.c
            checktime_eep   0x000548    program     extern X:\mandm\mandm\mandm8722.c
          checktime_motor   0x00045c    program     extern X:\mandm\mandm\mandm8722.c
         checktime_select   0x0003e6    program     extern X:\mandm\mandm\mandm8722.c
          checktime_track   0x0005be    program     extern X:\mandm\mandm\mandm8722.c
                chrgcode0   0x008c1b    program     extern X:\mandm\mandm\mandm_msg.h
                chrgcode1   0x008c4c    program     extern X:\mandm\mandm\mandm_msg.h
               chrgcode10   0x008dc6    program     extern X:\mandm\mandm\mandm_msg.h
               chrgcode11   0x008df3    program     extern X:\mandm\mandm\mandm_msg.h
               chrgcode12   0x008e1e    program     extern X:\mandm\mandm\mandm_msg.h
               chrgcode13   0x008e4c    program     extern X:\mandm\mandm\mandm_msg.h
               chrgcode14   0x008e79    program     extern X:\mandm\mandm\mandm_msg.h
               chrgcode15   0x008ead    program     extern X:\mandm\mandm\mandm_msg.h
               chrgcode16   0x008ed7    program     extern X:\mandm\mandm\mandm_msg.h
                chrgcode2   0x008c82    program     extern X:\mandm\mandm\mandm_msg.h
                chrgcode3   0x008cae    program     extern X:\mandm\mandm\mandm_msg.h
                chrgcode4   0x008cdf    program     extern X:\mandm\mandm\mandm_msg.h
                chrgcode5   0x008d17    program     extern X:\mandm\mandm\mandm_msg.h
                chrgcode6   0x008d2a    program     extern X:\mandm\mandm\mandm_msg.h
                chrgcode7   0x008d4a    program     extern X:\mandm\mandm\mandm_msg.h
                chrgcode8   0x008d77    program     extern X:\mandm\mandm\mandm_msg.h
                chrgcode9   0x008da1    program     extern X:\mandm\mandm\mandm_msg.h
               clear_crit   0x00cbbc    program     extern X:\mandm\mandm\crit.c    
                  clr_lcd   0x000684    program     extern X:\mandm\mandm\mandm8722.c
                compare_l   0x00da50    program     static C:\Program Files\Microchip\mplabc18\v3.40\src\traditional\proc\p18F8722.asm
               config_pic   0x00ce3e    program     extern X:\mandm\mandm\hwconf.c  
                copy_loop   0x00d0da    program     static                          
            copy_one_byte   0x00d0e0    program     static                          
          default_display   0x00256a    program     extern X:\mandm\mandm\mandm8722.c
              display_cal   0x004c0a    program     extern X:\mandm\mandm\mandm8722.c
                  divert0   0x0088dd    program     extern X:\mandm\mandm\mandm_msg.h
                  divert1   0x0088fd    program     extern X:\mandm\mandm\mandm_msg.h
                 divert99   0x00891e    program     extern X:\mandm\mandm\mandm_msg.h
                     done   0x00d104    program     static                          
             done_copying   0x00d0ee    program     static                          
           e220_m_display   0x0023d4    program     extern X:\mandm\mandm\mandm8722.c
         e220_qei_display   0x0024b4    program     extern X:\mandm\mandm\mandm8722.c
            e220_qei_exer   0x0021a8    program     extern X:\mandm\mandm\mandm8722.c
                   e_crit   0x00cb54    program     extern X:\mandm\mandm\crit.c    
                emotor_cw   0x00c600    program     extern X:\mandm\mandm\power.c   
        emotor_is_all_off   0x00c628    program     extern X:\mandm\mandm\power.c   
             emotor_power   0x00c59c    program     extern X:\mandm\mandm\power.c   
         emotor_power_off   0x00c640    program     extern X:\mandm\mandm\power.c   
          emotor_power_on   0x00c646    program     extern X:\mandm\mandm\power.c   
            emotor_relays   0x00c5e6    program     extern X:\mandm\mandm\power.c   
        emotor_slow_start   0x00c5ea    program     extern X:\mandm\mandm\power.c   
         emotor_slow_stop   0x00c5fc    program     extern X:\mandm\mandm\power.c   
        emotor_switch_ccw   0x00c632    program     extern X:\mandm\mandm\power.c   
               emotor_v24   0x00c64c    program     extern X:\mandm\mandm\power.c   
                  endloop   0x00d9c4    program     static                          
                exerciser   0x002280    program     extern X:\mandm\mandm\mandm8722.c
          fail_all_motors   0x00268c    program     extern X:\mandm\mandm\mandm8722.c
                fail_safe   0x0016c2    program     extern X:\mandm\mandm\mandm8722.c
                  get_hid   0x001ed0    program     extern X:\mandm\mandm\mandm8722.c
            gsd_m_display   0x00235a    program     extern X:\mandm\mandm\mandm8722.c
                   hello0   0x00844f    program     extern X:\mandm\mandm\mandm_msg.h
                   hello1   0x00849c    program     extern X:\mandm\mandm\mandm_msg.h
           help_m_display   0x0022ec    program     extern X:\mandm\mandm\mandm8722.c
                 hid_menu   0x0022ca    program     extern X:\mandm\mandm\mandm8722.c
                       hm   0x0010ae    program     extern X:\mandm\mandm\mandm8722.c
                      hms   0x000fd4    program     extern X:\mandm\mandm\mandm8722.c
                    hold0   0x0084a9    program     extern X:\mandm\mandm\mandm_msg.h
                    hold1   0x008507    program     extern X:\mandm\mandm\mandm_msg.h
             hold_process   0x0008b8    program     extern X:\mandm\mandm\mandm8722.c
                idle_loop   0x00afe8    program     extern X:\mandm\mandm\mandm_vector.c
                 init_lcd   0x004cea    program     extern X:\mandm\mandm\mandm8722.c
           init_motordata   0x00c7b6    program     extern X:\mandm\mandm\config.c  
          is_led_blinking   0x00c716    program     extern X:\mandm\mandm\power.c   
                  isdigit   0x00d9f6    program     extern C:\Program Files\Microchip\mplabc18\v3.40\src\traditional\stdclib\isdigit.asm
                 jANotInf   0x00becc    program     static C:\Program Files\Microchip\mplabc18\v3.40\src\traditional\math\mulFP.asm
                 jANotInf   0x00be26    program     static C:\Program Files\Microchip\mplabc18\v3.40\src\traditional\math\divFP.asm
                 jANotInf   0x00bd04    program     static C:\Program Files\Microchip\mplabc18\v3.40\src\traditional\math\addFP.asm
                 jANotNeg   0x00bd98    program     static C:\Program Files\Microchip\mplabc18\v3.40\src\traditional\math\addFP.asm
                jANotZero   0x00be3a    program     static C:\Program Files\Microchip\mplabc18\v3.40\src\traditional\math\divFP.asm
              jAandWsetup   0x00bd68    program     static C:\Program Files\Microchip\mplabc18\v3.40\src\traditional\math\addFP.asm
                 jAltBexp   0x00bd56    program     static C:\Program Files\Microchip\mplabc18\v3.40\src\traditional\math\addFP.asm
                jBANotInf   0x00bcfa    program     static C:\Program Files\Microchip\mplabc18\v3.40\src\traditional\math\addFP.asm
                 jBNotInf   0x00bd12    program     static C:\Program Files\Microchip\mplabc18\v3.40\src\traditional\math\addFP.asm
              jBothFinite   0x00beda    program     static C:\Program Files\Microchip\mplabc18\v3.40\src\traditional\math\mulFP.asm
             jBothNotZero   0x00bee6    program     static C:\Program Files\Microchip\mplabc18\v3.40\src\traditional\math\mulFP.asm
            jDifOrPosSign   0x00bd26    program     static C:\Program Files\Microchip\mplabc18\v3.40\src\traditional\math\addFP.asm
                     jEnd   0x00cce8    program     static C:\Program Files\Microchip\mplabc18\v3.40\src\traditional\stdclib\memcmp.asm
                     jEnd   0x00cd2e    program     static C:\Program Files\Microchip\mplabc18\v3.40\src\traditional\stdclib\scpyp2r.asm
                     jEnd   0x00cd66    program     static C:\Program Files\Microchip\mplabc18\v3.40\src\traditional\stdclib\slenpgm.asm
                     jEnd   0x00ce3c    program     static C:\Program Files\Microchip\mplabc18\v3.40\src\traditional\stdclib\strlen.asm
                     jEnd   0x00cdc4    program     static C:\Program Files\Microchip\mplabc18\v3.40\src\traditional\stdclib\strncpy.asm
                     jEnd   0x00ce20    program     static C:\Program Files\Microchip\mplabc18\v3.40\src\traditional\stdclib\sncpyp2r.asm
                    jExit   0x00c12a    program     static C:\Program Files\Microchip\mplabc18\v3.40\src\traditional\math\castFP16.asm
                    jExit   0x00c198    program     static C:\Program Files\Microchip\mplabc18\v3.40\src\traditional\math\castFP32.asm
               jFinalSign   0x00be00    program     static C:\Program Files\Microchip\mplabc18\v3.40\src\traditional\math\addFP.asm
                jHaveZero   0x00bee2    program     static C:\Program Files\Microchip\mplabc18\v3.40\src\traditional\math\mulFP.asm
                jI2F16Beg   0x00bc8e    program     static C:\Program Files\Microchip\mplabc18\v3.40\src\traditional\math\cast16FP.asm
                jI2F32Beg   0x00bcc0    program     static C:\Program Files\Microchip\mplabc18\v3.40\src\traditional\math\cast32FP.asm
                    jLoop   0x00cd4e    program     static C:\Program Files\Microchip\mplabc18\v3.40\src\traditional\stdclib\slenpgm.asm
                    jLoop   0x00cd24    program     static C:\Program Files\Microchip\mplabc18\v3.40\src\traditional\stdclib\scpyp2r.asm
                    jLoop   0x00be62    program     static C:\Program Files\Microchip\mplabc18\v3.40\src\traditional\math\divFP.asm
                    jLoop   0x00cdfc    program     static C:\Program Files\Microchip\mplabc18\v3.40\src\traditional\stdclib\sncpyp2r.asm
                    jLoop   0x00c16c    program     static C:\Program Files\Microchip\mplabc18\v3.40\src\traditional\math\castFP32.asm
                    jLoop   0x00ce32    program     static C:\Program Files\Microchip\mplabc18\v3.40\src\traditional\stdclib\strlen.asm
                    jLoop   0x00cda2    program     static C:\Program Files\Microchip\mplabc18\v3.40\src\traditional\stdclib\strncpy.asm
                    jLoop   0x00cccc    program     static C:\Program Files\Microchip\mplabc18\v3.40\src\traditional\stdclib\memcmp.asm
                    jLoop   0x00c10a    program     static C:\Program Files\Microchip\mplabc18\v3.40\src\traditional\math\castFP16.asm
                jLoopExit   0x00c180    program     static C:\Program Files\Microchip\mplabc18\v3.40\src\traditional\math\castFP32.asm
                jLoopExit   0x00c11a    program     static C:\Program Files\Microchip\mplabc18\v3.40\src\traditional\math\castFP16.asm
                   jMatch   0x00da16    program     static C:\Program Files\Microchip\mplabc18\v3.40\src\traditional\stdclib\isdigit.asm
                     jMax   0x00c0de    program     static C:\Program Files\Microchip\mplabc18\v3.40\src\traditional\math\castFP16.asm
                     jMax   0x00c13c    program     static C:\Program Files\Microchip\mplabc18\v3.40\src\traditional\math\castFP32.asm
                  jMaxNeg   0x00c0ec    program     static C:\Program Files\Microchip\mplabc18\v3.40\src\traditional\math\castFP16.asm
                  jMaxNeg   0x00c14e    program     static C:\Program Files\Microchip\mplabc18\v3.40\src\traditional\math\castFP32.asm
                  jMaxPos   0x00c0e2    program     static C:\Program Files\Microchip\mplabc18\v3.40\src\traditional\math\castFP16.asm
                  jMaxPos   0x00c140    program     static C:\Program Files\Microchip\mplabc18\v3.40\src\traditional\math\castFP32.asm
                    jNext   0x00be88    program     static C:\Program Files\Microchip\mplabc18\v3.40\src\traditional\math\divFP.asm
                jNoAdjust   0x00be86    program     static C:\Program Files\Microchip\mplabc18\v3.40\src\traditional\math\divFP.asm
                 jNoMatch   0x00da18    program     static C:\Program Files\Microchip\mplabc18\v3.40\src\traditional\stdclib\isdigit.asm
             jNotBothZero   0x00bd2a    program     static C:\Program Files\Microchip\mplabc18\v3.40\src\traditional\math\addFP.asm
                  jNotInf   0x00c15a    program     static C:\Program Files\Microchip\mplabc18\v3.40\src\traditional\math\castFP32.asm
                  jNotInf   0x00c0fa    program     static C:\Program Files\Microchip\mplabc18\v3.40\src\traditional\math\castFP16.asm
                  jPkLoop   0x00c1e0    program     static C:\Program Files\Microchip\mplabc18\v3.40\src\traditional\math\packFP.asm
             jPkRoundDone   0x00c22a    program     static C:\Program Files\Microchip\mplabc18\v3.40\src\traditional\math\packFP.asm
               jPkRoundIt   0x00c212    program     static C:\Program Files\Microchip\mplabc18\v3.40\src\traditional\math\packFP.asm
             jPkShiftDone   0x00c1fc    program     static C:\Program Files\Microchip\mplabc18\v3.40\src\traditional\math\packFP.asm
           jReturnPosInf0   0x00c1b6    program     static C:\Program Files\Microchip\mplabc18\v3.40\src\traditional\math\packFP.asm
               jShiftDone   0x00bdc0    program     static C:\Program Files\Microchip\mplabc18\v3.40\src\traditional\math\addFP.asm
               jShiftLoop   0x00bdb2    program     static C:\Program Files\Microchip\mplabc18\v3.40\src\traditional\math\addFP.asm
                jSignDone   0x00bdf0    program     static C:\Program Files\Microchip\mplabc18\v3.40\src\traditional\math\addFP.asm
              jSignedZero   0x00be30    program     static C:\Program Files\Microchip\mplabc18\v3.40\src\traditional\math\divFP.asm
                  jUnpkA1   0x00c254    program     static C:\Program Files\Microchip\mplabc18\v3.40\src\traditional\math\UnpackFP.asm
                  jUnpkA2   0x00c26c    program     static C:\Program Files\Microchip\mplabc18\v3.40\src\traditional\math\UnpackFP.asm
                 jUnpkANZ   0x00c262    program     static C:\Program Files\Microchip\mplabc18\v3.40\src\traditional\math\UnpackFP.asm
                  jUnpkB1   0x00c284    program     static C:\Program Files\Microchip\mplabc18\v3.40\src\traditional\math\UnpackFP.asm
                  jUnpkB2   0x00c29c    program     static C:\Program Files\Microchip\mplabc18\v3.40\src\traditional\math\UnpackFP.asm
                 jUnpkBNZ   0x00c292    program     static C:\Program Files\Microchip\mplabc18\v3.40\src\traditional\math\UnpackFP.asm
                 jUnpkNaN   0x00c276    program     static C:\Program Files\Microchip\mplabc18\v3.40\src\traditional\math\UnpackFP.asm
                 jWNotNeg   0x00bdac    program     static C:\Program Files\Microchip\mplabc18\v3.40\src\traditional\math\addFP.asm
                   jWr123   0x00c146    program     static C:\Program Files\Microchip\mplabc18\v3.40\src\traditional\math\castFP32.asm
                  jWrZ123   0x00c156    program     static C:\Program Files\Microchip\mplabc18\v3.40\src\traditional\math\castFP32.asm
                    jZero   0x00c154    program     static C:\Program Files\Microchip\mplabc18\v3.40\src\traditional\math\castFP32.asm
                    jZero   0x00c0f4    program     static C:\Program Files\Microchip\mplabc18\v3.40\src\traditional\math\castFP16.asm
               jZero1and2   0x00c1ba    program     static C:\Program Files\Microchip\mplabc18\v3.40\src\traditional\math\packFP.asm
                 keycmds0   0x0085b0    program     extern X:\mandm\mandm\mandm_msg.h
                 keycmds1   0x008651    program     extern X:\mandm\mandm\mandm_msg.h
                     loop   0x00da6a    program     static C:\Program Files\Microchip\mplabc18\v3.40\src\pmc_common\USART\_usartpc.asm
                     loop   0x00da2e    program     static                          
                     loop   0x00d9a8    program     static                          
                     loop   0x00d5ea    program     static                          
                   loop_h   0x00da48    program     static C:\Program Files\Microchip\mplabc18\v3.40\src\traditional\proc\p18F8722.asm
                   loop_l   0x00da52    program     static C:\Program Files\Microchip\mplabc18\v3.40\src\traditional\proc\p18F8722.asm
                 lowbatt0   0x007fb6    program     extern X:\mandm\mandm\mandm_msg.h
                lp_filter   0x000694    program     extern X:\mandm\mandm\mandm8722.c
                     main   0x004d4a    program     extern X:\mandm\mandm\mandm8722.c
                   memcmp   0x00ccac    program     extern C:\Program Files\Microchip\mplabc18\v3.40\src\traditional\stdclib\memcmp.asm
          menuselect_free   0x007e2a    program     extern X:\mandm\mandm\mandm_msg.h
         menuselect_track   0x007ef0    program     extern X:\mandm\mandm\mandm_msg.h
                 menutext   0x007d63    program     extern X:\mandm\mandm\mandm_msg.h
        menutext_template   0x007c9a    program     extern X:\mandm\mandm\mandm_msg.h
             modelheader0   0x0087d6    program     extern X:\mandm\mandm\mandm_msg.h
             modelheader1   0x0087f5    program     extern X:\mandm\mandm\mandm_msg.h
            motor_control   0x00c370    program     extern X:\mandm\mandm\power.c   
            my_struct_cmp   0x00c33c    program     extern X:\mandm\mandm\power.c   
                 nav_menu   0x002164    program     extern X:\mandm\mandm\mandm8722.c
                     putc   0x00d22a    program     extern C:\Program Files\Microchip\mplabc18\v3.40\src\traditional\stdclib\putc.c
                    putc2   0x000666    program     extern X:\mandm\mandm\mandm8722.c
              putrs2USART   0x00d38c    program     extern C:\Program Files\Microchip\mplabc18\v3.40\src\pmc_common\USART\u2putrs.c
                putrsXLCD   0x00d4ac    program     extern X:\mandm\mandm\xlcd\putrxlcd.c
               puts2USART   0x00d500    program     extern C:\Program Files\Microchip\mplabc18\v3.40\src\pmc_common\USART\u2puts.c
                 putsXLCD   0x00d77a    program     extern X:\mandm\mandm\xlcd\putsxlcd.c
                     rand   0x00d808    program     extern C:\Program Files\Microchip\mplabc18\v3.40\src\traditional\stdclib\rand.asm
         read_data_eeprom   0x00cc4c    program     extern X:\mandm\mandm\crit.c    
                relay_v24   0x00c66a    program     extern X:\mandm\mandm\power.c   
                  run_cal   0x0026fe    program     extern X:\mandm\mandm\mandm8722.c
                   s_crit   0x00caba    program     extern X:\mandm\mandm\crit.c    
                 s_digits   0x00da9e    program     static C:\Program Files\Microchip\mplabc18\v3.40\src\traditional\stdclib\vfprintf.c
            s_put_n_chars   0x00b058    program     static C:\Program Files\Microchip\mplabc18\v3.40\src\traditional\stdclib\vfprintf.c
                  sddump0   0x008835    program     extern X:\mandm\mandm\mandm_msg.h
                  sddump1   0x008863    program     extern X:\mandm\mandm\mandm_msg.h
                  sddump2   0x008899    program     extern X:\mandm\mandm\mandm_msg.h
                  sddump3   0x0088b0    program     extern X:\mandm\mandm\mandm_msg.h
         slow_timer_start   0x00b038    program     extern X:\mandm\mandm\mandm_vector.c
                     spin   0x007c22    program     extern X:\mandm\mandm\mandm_msg.h
                 spinners   0x000068    program     extern X:\mandm\mandm\mandm8722.c
                  sprintf   0x00cfbc    program     extern C:\Program Files\Microchip\mplabc18\v3.40\src\traditional\stdclib\sprintf.c
                    srand   0x00d7fa    program     extern C:\Program Files\Microchip\mplabc18\v3.40\src\traditional\stdclib\rand.asm
              start_delay   0x00067e    program     extern X:\mandm\mandm\mandm8722.c
                start_pic   0x00cf92    program     extern X:\mandm\mandm\hwconf.c  
       start_workerthread   0x00cfb8    program     extern X:\mandm\mandm\hwconf.c  
            strcpypgm2ram   0x00ccfe    program     extern C:\Program Files\Microchip\mplabc18\v3.40\src\traditional\stdclib\scpyp2r.asm
                   strlen   0x00ce22    program     extern C:\Program Files\Microchip\mplabc18\v3.40\src\traditional\stdclib\strlen.asm
                strlenpgm   0x00cd30    program     extern C:\Program Files\Microchip\mplabc18\v3.40\src\traditional\stdclib\slenpgm.asm
                  strncpy   0x00cd7a    program     extern C:\Program Files\Microchip\mplabc18\v3.40\src\traditional\stdclib\strncpy.asm
           strncpypgm2ram   0x00cdd6    program     extern C:\Program Files\Microchip\mplabc18\v3.40\src\traditional\stdclib\sncpyp2r.asm
                    sync0   0x008540    program     extern X:\mandm\mandm\mandm_msg.h
                    sync1   0x008574    program     extern X:\mandm\mandm\mandm_msg.h
                    sync2   0x008592    program     extern X:\mandm\mandm\mandm_msg.h
              system_data   0x0008fc    program     extern X:\mandm\mandm\mandm8722.c
              system_help   0x000fb8    program     extern X:\mandm\mandm\mandm8722.c
                term_time   0x00085a    program     extern X:\mandm\mandm\mandm8722.c
                     test   0x00d082    program     static                          
             tick_handler   0x00a318    program     extern X:\mandm\mandm\mandm_vector.c
                 tick_int   0x000008    program     extern X:\mandm\mandm\mandm8722.c
              track_motor   0x001924    program     extern X:\mandm\mandm\mandm8722.c
                   tweak0   0x00820e    program     extern X:\mandm\mandm\mandm_msg.h
                   tweak1   0x0082ab    program     extern X:\mandm\mandm\mandm_msg.h
                   tweak2   0x0082d4    program     extern X:\mandm\mandm\mandm_msg.h
                   tweak3   0x0082f8    program     extern X:\mandm\mandm\mandm_msg.h
                   tweak4   0x008377    program     extern X:\mandm\mandm\mandm_msg.h
                   tweak5   0x0083a7    program     extern X:\mandm\mandm\mandm_msg.h
                 tweak_t1   0x00842d    program     extern X:\mandm\mandm\mandm_msg.h
                 tweak_t2   0x008432    program     extern X:\mandm\mandm\mandm_msg.h
                 tweak_t3   0x008436    program     extern X:\mandm\mandm\mandm_msg.h
                 tweak_t4   0x00843a    program     extern X:\mandm\mandm\mandm_msg.h
                 tweak_tw   0x00843f    program     extern X:\mandm\mandm\mandm_msg.h
              update_hist   0x000238    program     extern X:\mandm\mandm\mandm8722.c
          update_lcd_menu   0x0017e0    program     extern X:\mandm\mandm\mandm8722.c
         varian_v_display   0x0025ca    program     extern X:\mandm\mandm\mandm8722.c
                 vfprintf   0x00b084    program     extern C:\Program Files\Microchip\mplabc18\v3.40\src\traditional\stdclib\vfprintf.c
        viision_m_display   0x00241e    program     extern X:\mandm\mandm\mandm8722.c
       viision_ms_display   0x002462    program     extern X:\mandm\mandm\mandm8722.c
             voice1_ticks   0x00b01c    program     extern X:\mandm\mandm\mandm_vector.c
             voice2_ticks   0x00b02a    program     extern X:\mandm\mandm\mandm_vector.c
                   voltfp   0x0011da    program     extern X:\mandm\mandm\mandm8722.c
                  voltfpi   0x00121a    program     extern X:\mandm\mandm\mandm8722.c
                  voltfps   0x0011fc    program     extern X:\mandm\mandm\mandm8722.c
                 wdtdelay   0x00027a    program     extern X:\mandm\mandm\mandm8722.c
                  wdttime   0x0002cc    program     extern X:\mandm\mandm\mandm8722.c
             work_handler   0x00afc6    program     extern X:\mandm\mandm\mandm_vector.c
                 work_int   0x000018    program     extern X:\mandm\mandm\mandm8722.c
        write_data_eeprom   0x00cbc6    program     extern X:\mandm\mandm\crit.c    
                    zero0   0x007ff9    program     extern X:\mandm\mandm\mandm_msg.h
                    zero1   0x008023    program     extern X:\mandm\mandm\mandm_msg.h
                    zero2   0x00805f    program     extern X:\mandm\mandm\mandm_msg.h
                    zero3   0x008093    program     extern X:\mandm\mandm\mandm_msg.h
              zero_amploc   0x007a96    program     extern X:\mandm\mandm\daq.c     
               zero_block   0x00da48    program     static C:\Program Files\Microchip\mplabc18\v3.40\src\traditional\proc\p18F8722.asm
                   ADCON0   0x000fc2       data     extern C:\Program Files\Microchip\mplabc18\v3.40\src\traditional\proc\p18F8722.asm
               ADCON0bits   0x000fc2       data     extern C:\Program Files\Microchip\mplabc18\v3.40\src\traditional\proc\p18F8722.asm
                   ADCON1   0x000fc1       data     extern C:\Program Files\Microchip\mplabc18\v3.40\src\traditional\proc\p18F8722.asm
               ADCON1bits   0x000fc1       data     extern C:\Program Files\Microchip\mplabc18\v3.40\src\traditional\proc\p18F8722.asm
                   ADCON2   0x000fc0       data     extern C:\Program Files\Microchip\mplabc18\v3.40\src\traditional\proc\p18F8722.asm
               ADCON2bits   0x000fc0       data     extern C:\Program Files\Microchip\mplabc18\v3.40\src\traditional\proc\p18F8722.asm
                    ADRES   0x000fc3       data     extern C:\Program Files\Microchip\mplabc18\v3.40\src\traditional\proc\p18F8722.asm
                   ADRESH   0x000fc4       data     extern C:\Program Files\Microchip\mplabc18\v3.40\src\traditional\proc\p18F8722.asm
                   ADRESL   0x000fc3       data     extern C:\Program Files\Microchip\mplabc18\v3.40\src\traditional\proc\p18F8722.asm
                  BAUDCON   0x000f7e       data     extern C:\Program Files\Microchip\mplabc18\v3.40\src\traditional\proc\p18F8722.asm
                 BAUDCON1   0x000f7e       data     extern C:\Program Files\Microchip\mplabc18\v3.40\src\traditional\proc\p18F8722.asm
             BAUDCON1bits   0x000f7e       data     extern C:\Program Files\Microchip\mplabc18\v3.40\src\traditional\proc\p18F8722.asm
                 BAUDCON2   0x000f7c       data     extern C:\Program Files\Microchip\mplabc18\v3.40\src\traditional\proc\p18F8722.asm
             BAUDCON2bits   0x000f7c       data     extern C:\Program Files\Microchip\mplabc18\v3.40\src\traditional\proc\p18F8722.asm
              BAUDCONbits   0x000f7e       data     extern C:\Program Files\Microchip\mplabc18\v3.40\src\traditional\proc\p18F8722.asm
                      BSR   0x000fe0       data     extern C:\Program Files\Microchip\mplabc18\v3.40\src\traditional\proc\p18F8722.asm
                        C   0x000094       data     extern X:\mandm\mandm\mandm8722.c
                    C2RAW   0x0005bf       data     extern X:\mandm\mandm\mandm8722.c
                  CCP1CON   0x000fbd       data     extern C:\Program Files\Microchip\mplabc18\v3.40\src\traditional\proc\p18F8722.asm
              CCP1CONbits   0x000fbd       data     extern C:\Program Files\Microchip\mplabc18\v3.40\src\traditional\proc\p18F8722.asm
                  CCP2CON   0x000fba       data     extern C:\Program Files\Microchip\mplabc18\v3.40\src\traditional\proc\p18F8722.asm
              CCP2CONbits   0x000fba       data     extern C:\Program Files\Microchip\mplabc18\v3.40\src\traditional\proc\p18F8722.asm
                  CCP3CON   0x000fb7       data     extern C:\Program Files\Microchip\mplabc18\v3.40\src\traditional\proc\p18F8722.asm
              CCP3CONbits   0x000fb7       data     extern C:\Program Files\Microchip\mplabc18\v3.40\src\traditional\proc\p18F8722.asm
                  CCP4CON   0x000f73       data     extern C:\Program Files\Microchip\mplabc18\v3.40\src\traditional\proc\p18F8722.asm
              CCP4CONbits   0x000f73       data     extern C:\Program Files\Microchip\mplabc18\v3.40\src\traditional\proc\p18F8722.asm
                  CCP5CON   0x000f70       data     extern C:\Program Files\Microchip\mplabc18\v3.40\src\traditional\proc\p18F8722.asm
              CCP5CONbits   0x000f70       data     extern C:\Program Files\Microchip\mplabc18\v3.40\src\traditional\proc\p18F8722.asm
                    CCPR1   0x000fbe       data     extern C:\Program Files\Microchip\mplabc18\v3.40\src\traditional\proc\p18F8722.asm
                   CCPR1H   0x000fbf       data     extern C:\Program Files\Microchip\mplabc18\v3.40\src\traditional\proc\p18F8722.asm
                   CCPR1L   0x000fbe       data     extern C:\Program Files\Microchip\mplabc18\v3.40\src\traditional\proc\p18F8722.asm
                    CCPR2   0x000fbb       data     extern C:\Program Files\Microchip\mplabc18\v3.40\src\traditional\proc\p18F8722.asm
                   CCPR2H   0x000fbc       data     extern C:\Program Files\Microchip\mplabc18\v3.40\src\traditional\proc\p18F8722.asm
                   CCPR2L   0x000fbb       data     extern C:\Program Files\Microchip\mplabc18\v3.40\src\traditional\proc\p18F8722.asm
                    CCPR3   0x000fb8       data     extern C:\Program Files\Microchip\mplabc18\v3.40\src\traditional\proc\p18F8722.asm
                   CCPR3H   0x000fb9       data     extern C:\Program Files\Microchip\mplabc18\v3.40\src\traditional\proc\p18F8722.asm
                   CCPR3L   0x000fb8       data     extern C:\Program Files\Microchip\mplabc18\v3.40\src\traditional\proc\p18F8722.asm
                    CCPR4   0x000f74       data     extern C:\Program Files\Microchip\mplabc18\v3.40\src\traditional\proc\p18F8722.asm
                   CCPR4H   0x000f75       data     extern C:\Program Files\Microchip\mplabc18\v3.40\src\traditional\proc\p18F8722.asm
                   CCPR4L   0x000f74       data     extern C:\Program Files\Microchip\mplabc18\v3.40\src\traditional\proc\p18F8722.asm
                    CCPR5   0x000f71       data     extern C:\Program Files\Microchip\mplabc18\v3.40\src\traditional\proc\p18F8722.asm
                   CCPR5H   0x000f72       data     extern C:\Program Files\Microchip\mplabc18\v3.40\src\traditional\proc\p18F8722.asm
                   CCPR5L   0x000f71       data     extern C:\Program Files\Microchip\mplabc18\v3.40\src\traditional\proc\p18F8722.asm
                    CMCON   0x000fb4       data     extern C:\Program Files\Microchip\mplabc18\v3.40\src\traditional\proc\p18F8722.asm
                CMCONbits   0x000fb4       data     extern C:\Program Files\Microchip\mplabc18\v3.40\src\traditional\proc\p18F8722.asm
                  COOLING   0x00060c       data     extern X:\mandm\mandm\mandm8722.c
                    CRITC   0x000691       data     extern X:\mandm\mandm\mandm8722.c
                   CVRCON   0x000fb5       data     extern C:\Program Files\Microchip\mplabc18\v3.40\src\traditional\proc\p18F8722.asm
               CVRCONbits   0x000fb5       data     extern C:\Program Files\Microchip\mplabc18\v3.40\src\traditional\proc\p18F8722.asm
                   Cursor   0x000520       data     extern X:\mandm\mandm\mandm8722.c
                     DDRA   0x000f92       data     extern C:\Program Files\Microchip\mplabc18\v3.40\src\traditional\proc\p18F8722.asm
                 DDRAbits   0x000f92       data     extern C:\Program Files\Microchip\mplabc18\v3.40\src\traditional\proc\p18F8722.asm
                     DDRB   0x000f93       data     extern C:\Program Files\Microchip\mplabc18\v3.40\src\traditional\proc\p18F8722.asm
                 DDRBbits   0x000f93       data     extern C:\Program Files\Microchip\mplabc18\v3.40\src\traditional\proc\p18F8722.asm
                     DDRC   0x000f94       data     extern C:\Program Files\Microchip\mplabc18\v3.40\src\traditional\proc\p18F8722.asm
                 DDRCbits   0x000f94       data     extern C:\Program Files\Microchip\mplabc18\v3.40\src\traditional\proc\p18F8722.asm
                     DDRD   0x000f95       data     extern C:\Program Files\Microchip\mplabc18\v3.40\src\traditional\proc\p18F8722.asm
                 DDRDbits   0x000f95       data     extern C:\Program Files\Microchip\mplabc18\v3.40\src\traditional\proc\p18F8722.asm
                     DDRE   0x000f96       data     extern C:\Program Files\Microchip\mplabc18\v3.40\src\traditional\proc\p18F8722.asm
                 DDREbits   0x000f96       data     extern C:\Program Files\Microchip\mplabc18\v3.40\src\traditional\proc\p18F8722.asm
                     DDRF   0x000f97       data     extern C:\Program Files\Microchip\mplabc18\v3.40\src\traditional\proc\p18F8722.asm
                 DDRFbits   0x000f97       data     extern C:\Program Files\Microchip\mplabc18\v3.40\src\traditional\proc\p18F8722.asm
                     DDRG   0x000f98       data     extern C:\Program Files\Microchip\mplabc18\v3.40\src\traditional\proc\p18F8722.asm
                 DDRGbits   0x000f98       data     extern C:\Program Files\Microchip\mplabc18\v3.40\src\traditional\proc\p18F8722.asm
                     DDRH   0x000f99       data     extern C:\Program Files\Microchip\mplabc18\v3.40\src\traditional\proc\p18F8722.asm
                 DDRHbits   0x000f99       data     extern C:\Program Files\Microchip\mplabc18\v3.40\src\traditional\proc\p18F8722.asm
                     DDRJ   0x000f9a       data     extern C:\Program Files\Microchip\mplabc18\v3.40\src\traditional\proc\p18F8722.asm
                 DDRJbits   0x000f9a       data     extern C:\Program Files\Microchip\mplabc18\v3.40\src\traditional\proc\p18F8722.asm
             DISPLAY_MODE   0x000609       data     extern X:\mandm\mandm\mandm8722.c
                 D_UPDATE   0x00060a       data     extern X:\mandm\mandm\mandm8722.c
            DelayCounter1   0x00003d       data     extern C:\Program Files\Microchip\mplabc18\v3.40\src\traditional\delays\delayd1.asm
            DelayCounter2   0x00003c       data     extern C:\Program Files\Microchip\mplabc18\v3.40\src\traditional\delays\delayd2.asm
                  ECCP1AS   0x000fb6       data     extern C:\Program Files\Microchip\mplabc18\v3.40\src\traditional\proc\p18F8722.asm
              ECCP1ASbits   0x000fb6       data     extern C:\Program Files\Microchip\mplabc18\v3.40\src\traditional\proc\p18F8722.asm
                 ECCP1CON   0x000fbd       data     extern C:\Program Files\Microchip\mplabc18\v3.40\src\traditional\proc\p18F8722.asm
             ECCP1CONbits   0x000fbd       data     extern C:\Program Files\Microchip\mplabc18\v3.40\src\traditional\proc\p18F8722.asm
                 ECCP1DEL   0x000f79       data     extern C:\Program Files\Microchip\mplabc18\v3.40\src\traditional\proc\p18F8722.asm
             ECCP1DELbits   0x000f79       data     extern C:\Program Files\Microchip\mplabc18\v3.40\src\traditional\proc\p18F8722.asm
                  ECCP2AS   0x000f68       data     extern C:\Program Files\Microchip\mplabc18\v3.40\src\traditional\proc\p18F8722.asm
              ECCP2ASbits   0x000f68       data     extern C:\Program Files\Microchip\mplabc18\v3.40\src\traditional\proc\p18F8722.asm
                 ECCP2CON   0x000fba       data     extern C:\Program Files\Microchip\mplabc18\v3.40\src\traditional\proc\p18F8722.asm
             ECCP2CONbits   0x000fba       data     extern C:\Program Files\Microchip\mplabc18\v3.40\src\traditional\proc\p18F8722.asm
                 ECCP2DEL   0x000f67       data     extern C:\Program Files\Microchip\mplabc18\v3.40\src\traditional\proc\p18F8722.asm
             ECCP2DELbits   0x000f67       data     extern C:\Program Files\Microchip\mplabc18\v3.40\src\traditional\proc\p18F8722.asm
                  ECCP3AS   0x000f6a       data     extern C:\Program Files\Microchip\mplabc18\v3.40\src\traditional\proc\p18F8722.asm
              ECCP3ASbits   0x000f6a       data     extern C:\Program Files\Microchip\mplabc18\v3.40\src\traditional\proc\p18F8722.asm
                 ECCP3CON   0x000fb7       data     extern C:\Program Files\Microchip\mplabc18\v3.40\src\traditional\proc\p18F8722.asm
             ECCP3CONbits   0x000fb7       data     extern C:\Program Files\Microchip\mplabc18\v3.40\src\traditional\proc\p18F8722.asm
                 ECCP3DEL   0x000f69       data     extern C:\Program Files\Microchip\mplabc18\v3.40\src\traditional\proc\p18F8722.asm
             ECCP3DELbits   0x000f69       data     extern C:\Program Files\Microchip\mplabc18\v3.40\src\traditional\proc\p18F8722.asm
                    EEADR   0x000fa9       data     extern C:\Program Files\Microchip\mplabc18\v3.40\src\traditional\proc\p18F8722.asm
                   EEADRH   0x000faa       data     extern C:\Program Files\Microchip\mplabc18\v3.40\src\traditional\proc\p18F8722.asm
                   EECON1   0x000fa6       data     extern C:\Program Files\Microchip\mplabc18\v3.40\src\traditional\proc\p18F8722.asm
               EECON1bits   0x000fa6       data     extern C:\Program Files\Microchip\mplabc18\v3.40\src\traditional\proc\p18F8722.asm
                   EECON2   0x000fa7       data     extern C:\Program Files\Microchip\mplabc18\v3.40\src\traditional\proc\p18F8722.asm
                   EEDATA   0x000fa8       data     extern C:\Program Files\Microchip\mplabc18\v3.40\src\traditional\proc\p18F8722.asm
                   EEP_ER   0x000614       data     extern X:\mandm\mandm\mandm8722.c
                 FAILSAFE   0x000606       data     extern X:\mandm\mandm\mandm8722.c
                 FORCEOUT   0x000602       data     extern X:\mandm\mandm\mandm8722.c
                     FSR0   0x000fe9       data     extern C:\Program Files\Microchip\mplabc18\v3.40\src\traditional\proc\p18F8722.asm
                    FSR0H   0x000fea       data     extern C:\Program Files\Microchip\mplabc18\v3.40\src\traditional\proc\p18F8722.asm
                    FSR0L   0x000fe9       data     extern C:\Program Files\Microchip\mplabc18\v3.40\src\traditional\proc\p18F8722.asm
                     FSR1   0x000fe1       data     extern C:\Program Files\Microchip\mplabc18\v3.40\src\traditional\proc\p18F8722.asm
                    FSR1H   0x000fe2       data     extern C:\Program Files\Microchip\mplabc18\v3.40\src\traditional\proc\p18F8722.asm
                    FSR1L   0x000fe1       data     extern C:\Program Files\Microchip\mplabc18\v3.40\src\traditional\proc\p18F8722.asm
                     FSR2   0x000fd9       data     extern C:\Program Files\Microchip\mplabc18\v3.40\src\traditional\proc\p18F8722.asm
                    FSR2H   0x000fda       data     extern C:\Program Files\Microchip\mplabc18\v3.40\src\traditional\proc\p18F8722.asm
                    FSR2L   0x000fd9       data     extern C:\Program Files\Microchip\mplabc18\v3.40\src\traditional\proc\p18F8722.asm
             GLITCH_CHECK   0x00060b       data     extern X:\mandm\mandm\mandm8722.c
                    HCRIT   0x000364       data     extern X:\mandm\mandm\mandm8722.c
            HID_IDLE_FLAG   0x0004eb       data     static X:\mandm\mandm\mandm_vector.c
                  HLVDCON   0x000fd2       data     extern C:\Program Files\Microchip\mplabc18\v3.40\src\traditional\proc\p18F8722.asm
              HLVDCONbits   0x000fd2       data     extern C:\Program Files\Microchip\mplabc18\v3.40\src\traditional\proc\p18F8722.asm
                HOLD_PROC   0x000608       data     extern X:\mandm\mandm\mandm8722.c
                    H_tmp   0x0004fd       data     static X:\mandm\mandm\crit.c    
                    H_tmp   0x0004fc       data     static X:\mandm\mandm\crit.c    
                 IDLEFLAG   0x000677       data     extern X:\mandm\mandm\mandm8722.c
                    INDF0   0x000fef       data     extern C:\Program Files\Microchip\mplabc18\v3.40\src\traditional\proc\p18F8722.asm
                    INDF1   0x000fe7       data     extern C:\Program Files\Microchip\mplabc18\v3.40\src\traditional\proc\p18F8722.asm
                    INDF2   0x000fdf       data     extern C:\Program Files\Microchip\mplabc18\v3.40\src\traditional\proc\p18F8722.asm
                   INTCON   0x000ff2       data     extern C:\Program Files\Microchip\mplabc18\v3.40\src\traditional\proc\p18F8722.asm
                  INTCON2   0x000ff1       data     extern C:\Program Files\Microchip\mplabc18\v3.40\src\traditional\proc\p18F8722.asm
              INTCON2bits   0x000ff1       data     extern C:\Program Files\Microchip\mplabc18\v3.40\src\traditional\proc\p18F8722.asm
                  INTCON3   0x000ff0       data     extern C:\Program Files\Microchip\mplabc18\v3.40\src\traditional\proc\p18F8722.asm
              INTCON3bits   0x000ff0       data     extern C:\Program Files\Microchip\mplabc18\v3.40\src\traditional\proc\p18F8722.asm
               INTCONbits   0x000ff2       data     extern C:\Program Files\Microchip\mplabc18\v3.40\src\traditional\proc\p18F8722.asm
                     IPR1   0x000f9f       data     extern C:\Program Files\Microchip\mplabc18\v3.40\src\traditional\proc\p18F8722.asm
                 IPR1bits   0x000f9f       data     extern C:\Program Files\Microchip\mplabc18\v3.40\src\traditional\proc\p18F8722.asm
                     IPR2   0x000fa2       data     extern C:\Program Files\Microchip\mplabc18\v3.40\src\traditional\proc\p18F8722.asm
                 IPR2bits   0x000fa2       data     extern C:\Program Files\Microchip\mplabc18\v3.40\src\traditional\proc\p18F8722.asm
                     IPR3   0x000fa5       data     extern C:\Program Files\Microchip\mplabc18\v3.40\src\traditional\proc\p18F8722.asm
                 IPR3bits   0x000fa5       data     extern C:\Program Files\Microchip\mplabc18\v3.40\src\traditional\proc\p18F8722.asm
                   KEYNUM   0x000605       data     extern X:\mandm\mandm\mandm8722.c
                     LATA   0x000f89       data     extern C:\Program Files\Microchip\mplabc18\v3.40\src\traditional\proc\p18F8722.asm
                 LATAbits   0x000f89       data     extern C:\Program Files\Microchip\mplabc18\v3.40\src\traditional\proc\p18F8722.asm
                     LATB   0x000f8a       data     extern C:\Program Files\Microchip\mplabc18\v3.40\src\traditional\proc\p18F8722.asm
                 LATBbits   0x000f8a       data     extern C:\Program Files\Microchip\mplabc18\v3.40\src\traditional\proc\p18F8722.asm
                     LATC   0x000f8b       data     extern C:\Program Files\Microchip\mplabc18\v3.40\src\traditional\proc\p18F8722.asm
                 LATCbits   0x000f8b       data     extern C:\Program Files\Microchip\mplabc18\v3.40\src\traditional\proc\p18F8722.asm
                     LATD   0x000f8c       data     extern C:\Program Files\Microchip\mplabc18\v3.40\src\traditional\proc\p18F8722.asm
                 LATDbits   0x000f8c       data     extern C:\Program Files\Microchip\mplabc18\v3.40\src\traditional\proc\p18F8722.asm
                     LATE   0x000f8d       data     extern C:\Program Files\Microchip\mplabc18\v3.40\src\traditional\proc\p18F8722.asm
                 LATEbits   0x000f8d       data     extern C:\Program Files\Microchip\mplabc18\v3.40\src\traditional\proc\p18F8722.asm
                     LATF   0x000f8e       data     extern C:\Program Files\Microchip\mplabc18\v3.40\src\traditional\proc\p18F8722.asm
                 LATFbits   0x000f8e       data     extern C:\Program Files\Microchip\mplabc18\v3.40\src\traditional\proc\p18F8722.asm
                     LATG   0x000f8f       data     extern C:\Program Files\Microchip\mplabc18\v3.40\src\traditional\proc\p18F8722.asm
                 LATGbits   0x000f8f       data     extern C:\Program Files\Microchip\mplabc18\v3.40\src\traditional\proc\p18F8722.asm
                     LATH   0x000f90       data     extern C:\Program Files\Microchip\mplabc18\v3.40\src\traditional\proc\p18F8722.asm
                 LATHbits   0x000f90       data     extern C:\Program Files\Microchip\mplabc18\v3.40\src\traditional\proc\p18F8722.asm
                     LATJ   0x000f91       data     extern C:\Program Files\Microchip\mplabc18\v3.40\src\traditional\proc\p18F8722.asm
                 LATJbits   0x000f91       data     extern C:\Program Files\Microchip\mplabc18\v3.40\src\traditional\proc\p18F8722.asm
                   LCD_OK   0x000692       data     extern X:\mandm\mandm\mandm8722.c
                    LCRIT   0x00036c       data     extern X:\mandm\mandm\mandm8722.c
                   LVDCON   0x000fd2       data     extern C:\Program Files\Microchip\mplabc18\v3.40\src\traditional\proc\p18F8722.asm
               LVDCONbits   0x000fd2       data     extern C:\Program Files\Microchip\mplabc18\v3.40\src\traditional\proc\p18F8722.asm
                   MEMCON   0x000f9c       data     extern C:\Program Files\Microchip\mplabc18\v3.40\src\traditional\proc\p18F8722.asm
               MEMCONbits   0x000f9c       data     extern C:\Program Files\Microchip\mplabc18\v3.40\src\traditional\proc\p18F8722.asm
                 MOD_DATA   0x000610       data     extern X:\mandm\mandm\mandm8722.c
                   OSCCON   0x000fd3       data     extern C:\Program Files\Microchip\mplabc18\v3.40\src\traditional\proc\p18F8722.asm
               OSCCONbits   0x000fd3       data     extern C:\Program Files\Microchip\mplabc18\v3.40\src\traditional\proc\p18F8722.asm
                  OSCTUNE   0x000f9b       data     extern C:\Program Files\Microchip\mplabc18\v3.40\src\traditional\proc\p18F8722.asm
              OSCTUNEbits   0x000f9b       data     extern C:\Program Files\Microchip\mplabc18\v3.40\src\traditional\proc\p18F8722.asm
               OldEncoder   0x000524       data     extern X:\mandm\mandm\mandm8722.c
                       PC   0x000ff9       data     extern C:\Program Files\Microchip\mplabc18\v3.40\src\traditional\proc\p18F8722.asm
                      PCL   0x000ff9       data     extern C:\Program Files\Microchip\mplabc18\v3.40\src\traditional\proc\p18F8722.asm
                   PCLATH   0x000ffa       data     extern C:\Program Files\Microchip\mplabc18\v3.40\src\traditional\proc\p18F8722.asm
                   PCLATU   0x000ffb       data     extern C:\Program Files\Microchip\mplabc18\v3.40\src\traditional\proc\p18F8722.asm
                     PIE1   0x000f9d       data     extern C:\Program Files\Microchip\mplabc18\v3.40\src\traditional\proc\p18F8722.asm
                 PIE1bits   0x000f9d       data     extern C:\Program Files\Microchip\mplabc18\v3.40\src\traditional\proc\p18F8722.asm
                     PIE2   0x000fa0       data     extern C:\Program Files\Microchip\mplabc18\v3.40\src\traditional\proc\p18F8722.asm
                 PIE2bits   0x000fa0       data     extern C:\Program Files\Microchip\mplabc18\v3.40\src\traditional\proc\p18F8722.asm
                     PIE3   0x000fa3       data     extern C:\Program Files\Microchip\mplabc18\v3.40\src\traditional\proc\p18F8722.asm
                 PIE3bits   0x000fa3       data     extern C:\Program Files\Microchip\mplabc18\v3.40\src\traditional\proc\p18F8722.asm
                     PIR1   0x000f9e       data     extern C:\Program Files\Microchip\mplabc18\v3.40\src\traditional\proc\p18F8722.asm
                 PIR1bits   0x000f9e       data     extern C:\Program Files\Microchip\mplabc18\v3.40\src\traditional\proc\p18F8722.asm
                     PIR2   0x000fa1       data     extern C:\Program Files\Microchip\mplabc18\v3.40\src\traditional\proc\p18F8722.asm
                 PIR2bits   0x000fa1       data     extern C:\Program Files\Microchip\mplabc18\v3.40\src\traditional\proc\p18F8722.asm
                     PIR3   0x000fa4       data     extern C:\Program Files\Microchip\mplabc18\v3.40\src\traditional\proc\p18F8722.asm
                 PIR3bits   0x000fa4       data     extern C:\Program Files\Microchip\mplabc18\v3.40\src\traditional\proc\p18F8722.asm
                   PLUSW0   0x000feb       data     extern C:\Program Files\Microchip\mplabc18\v3.40\src\traditional\proc\p18F8722.asm
                   PLUSW1   0x000fe3       data     extern C:\Program Files\Microchip\mplabc18\v3.40\src\traditional\proc\p18F8722.asm
                   PLUSW2   0x000fdb       data     extern C:\Program Files\Microchip\mplabc18\v3.40\src\traditional\proc\p18F8722.asm
                    PORTA   0x000f80       data     extern C:\Program Files\Microchip\mplabc18\v3.40\src\traditional\proc\p18F8722.asm
                PORTAbits   0x000f80       data     extern C:\Program Files\Microchip\mplabc18\v3.40\src\traditional\proc\p18F8722.asm
                    PORTB   0x000f81       data     extern C:\Program Files\Microchip\mplabc18\v3.40\src\traditional\proc\p18F8722.asm
                PORTBbits   0x000f81       data     extern C:\Program Files\Microchip\mplabc18\v3.40\src\traditional\proc\p18F8722.asm
                    PORTC   0x000f82       data     extern C:\Program Files\Microchip\mplabc18\v3.40\src\traditional\proc\p18F8722.asm
                PORTCbits   0x000f82       data     extern C:\Program Files\Microchip\mplabc18\v3.40\src\traditional\proc\p18F8722.asm
                    PORTD   0x000f83       data     extern C:\Program Files\Microchip\mplabc18\v3.40\src\traditional\proc\p18F8722.asm
                PORTDbits   0x000f83       data     extern C:\Program Files\Microchip\mplabc18\v3.40\src\traditional\proc\p18F8722.asm
                    PORTE   0x000f84       data     extern C:\Program Files\Microchip\mplabc18\v3.40\src\traditional\proc\p18F8722.asm
                PORTEbits   0x000f84       data     extern C:\Program Files\Microchip\mplabc18\v3.40\src\traditional\proc\p18F8722.asm
                    PORTF   0x000f85       data     extern C:\Program Files\Microchip\mplabc18\v3.40\src\traditional\proc\p18F8722.asm
                PORTFbits   0x000f85       data     extern C:\Program Files\Microchip\mplabc18\v3.40\src\traditional\proc\p18F8722.asm
                    PORTG   0x000f86       data     extern C:\Program Files\Microchip\mplabc18\v3.40\src\traditional\proc\p18F8722.asm
                PORTGbits   0x000f86       data     extern C:\Program Files\Microchip\mplabc18\v3.40\src\traditional\proc\p18F8722.asm
                    PORTH   0x000f87       data     extern C:\Program Files\Microchip\mplabc18\v3.40\src\traditional\proc\p18F8722.asm
                PORTHbits   0x000f87       data     extern C:\Program Files\Microchip\mplabc18\v3.40\src\traditional\proc\p18F8722.asm
                    PORTJ   0x000f88       data     extern C:\Program Files\Microchip\mplabc18\v3.40\src\traditional\proc\p18F8722.asm
                PORTJbits   0x000f88       data     extern C:\Program Files\Microchip\mplabc18\v3.40\src\traditional\proc\p18F8722.asm
                 POSTDEC0   0x000fed       data     extern C:\Program Files\Microchip\mplabc18\v3.40\src\traditional\proc\p18F8722.asm
                 POSTDEC1   0x000fe5       data     extern C:\Program Files\Microchip\mplabc18\v3.40\src\traditional\proc\p18F8722.asm
                 POSTDEC2   0x000fdd       data     extern C:\Program Files\Microchip\mplabc18\v3.40\src\traditional\proc\p18F8722.asm
                 POSTINC0   0x000fee       data     extern C:\Program Files\Microchip\mplabc18\v3.40\src\traditional\proc\p18F8722.asm
                 POSTINC1   0x000fe6       data     extern C:\Program Files\Microchip\mplabc18\v3.40\src\traditional\proc\p18F8722.asm
                 POSTINC2   0x000fde       data     extern C:\Program Files\Microchip\mplabc18\v3.40\src\traditional\proc\p18F8722.asm
                      PR2   0x000fcb       data     extern C:\Program Files\Microchip\mplabc18\v3.40\src\traditional\proc\p18F8722.asm
                      PR4   0x000f77       data     extern C:\Program Files\Microchip\mplabc18\v3.40\src\traditional\proc\p18F8722.asm
                  PREINC0   0x000fec       data     extern C:\Program Files\Microchip\mplabc18\v3.40\src\traditional\proc\p18F8722.asm
                  PREINC1   0x000fe4       data     extern C:\Program Files\Microchip\mplabc18\v3.40\src\traditional\proc\p18F8722.asm
                  PREINC2   0x000fdc       data     extern C:\Program Files\Microchip\mplabc18\v3.40\src\traditional\proc\p18F8722.asm
               PRIPOWEROK   0x000601       data     extern X:\mandm\mandm\mandm8722.c
                     PROD   0x000ff3       data     extern C:\Program Files\Microchip\mplabc18\v3.40\src\traditional\proc\p18F8722.asm
                    PRODH   0x000ff4       data     extern C:\Program Files\Microchip\mplabc18\v3.40\src\traditional\proc\p18F8722.asm
                    PRODL   0x000ff3       data     extern C:\Program Files\Microchip\mplabc18\v3.40\src\traditional\proc\p18F8722.asm
                   PSPCON   0x000fb0       data     extern C:\Program Files\Microchip\mplabc18\v3.40\src\traditional\proc\p18F8722.asm
               PSPCONbits   0x000fb0       data     extern C:\Program Files\Microchip\mplabc18\v3.40\src\traditional\proc\p18F8722.asm
                        R   0x000061       data     extern X:\mandm\mandm\mandm8722.c
                     RCON   0x000fd0       data     extern C:\Program Files\Microchip\mplabc18\v3.40\src\traditional\proc\p18F8722.asm
                 RCONbits   0x000fd0       data     extern C:\Program Files\Microchip\mplabc18\v3.40\src\traditional\proc\p18F8722.asm
                    RCREG   0x000fae       data     extern C:\Program Files\Microchip\mplabc18\v3.40\src\traditional\proc\p18F8722.asm
                   RCREG1   0x000fae       data     extern C:\Program Files\Microchip\mplabc18\v3.40\src\traditional\proc\p18F8722.asm
                   RCREG2   0x000f6e       data     extern C:\Program Files\Microchip\mplabc18\v3.40\src\traditional\proc\p18F8722.asm
                    RCSTA   0x000fab       data     extern C:\Program Files\Microchip\mplabc18\v3.40\src\traditional\proc\p18F8722.asm
                   RCSTA1   0x000fab       data     extern C:\Program Files\Microchip\mplabc18\v3.40\src\traditional\proc\p18F8722.asm
               RCSTA1bits   0x000fab       data     extern C:\Program Files\Microchip\mplabc18\v3.40\src\traditional\proc\p18F8722.asm
                   RCSTA2   0x000f6b       data     extern C:\Program Files\Microchip\mplabc18\v3.40\src\traditional\proc\p18F8722.asm
               RCSTA2bits   0x000f6b       data     extern C:\Program Files\Microchip\mplabc18\v3.40\src\traditional\proc\p18F8722.asm
                RCSTAbits   0x000fab       data     extern C:\Program Files\Microchip\mplabc18\v3.40\src\traditional\proc\p18F8722.asm
              RESET_ZEROS   0x00060e       data     extern X:\mandm\mandm\mandm8722.c
              RS232_DEBUG   0x000628       data     extern X:\mandm\mandm\mandm8722.c
                  SET_ADC   0x000612       data     extern X:\mandm\mandm\mandm8722.c
                     SIGN   0x000024       data     extern C:\Program Files\Microchip\mplabc18\v3.40\src\traditional\math\cmath18.asm
              SLOW_STATUS   0x0005c2       data     extern X:\mandm\mandm\mandm8722.c
                    SPBRG   0x000faf       data     extern C:\Program Files\Microchip\mplabc18\v3.40\src\traditional\proc\p18F8722.asm
                   SPBRG1   0x000faf       data     extern C:\Program Files\Microchip\mplabc18\v3.40\src\traditional\proc\p18F8722.asm
                   SPBRG2   0x000f6f       data     extern C:\Program Files\Microchip\mplabc18\v3.40\src\traditional\proc\p18F8722.asm
                   SPBRGH   0x000f7f       data     extern C:\Program Files\Microchip\mplabc18\v3.40\src\traditional\proc\p18F8722.asm
                  SPBRGH1   0x000f7f       data     extern C:\Program Files\Microchip\mplabc18\v3.40\src\traditional\proc\p18F8722.asm
                  SPBRGH2   0x000f7d       data     extern C:\Program Files\Microchip\mplabc18\v3.40\src\traditional\proc\p18F8722.asm
                  SSP1ADD   0x000fc8       data     extern C:\Program Files\Microchip\mplabc18\v3.40\src\traditional\proc\p18F8722.asm
                  SSP1BUF   0x000fc9       data     extern C:\Program Files\Microchip\mplabc18\v3.40\src\traditional\proc\p18F8722.asm
                 SSP1CON1   0x000fc6       data     extern C:\Program Files\Microchip\mplabc18\v3.40\src\traditional\proc\p18F8722.asm
             SSP1CON1bits   0x000fc6       data     extern C:\Program Files\Microchip\mplabc18\v3.40\src\traditional\proc\p18F8722.asm
                 SSP1CON2   0x000fc5       data     extern C:\Program Files\Microchip\mplabc18\v3.40\src\traditional\proc\p18F8722.asm
             SSP1CON2bits   0x000fc5       data     extern C:\Program Files\Microchip\mplabc18\v3.40\src\traditional\proc\p18F8722.asm
                 SSP1STAT   0x000fc7       data     extern C:\Program Files\Microchip\mplabc18\v3.40\src\traditional\proc\p18F8722.asm
             SSP1STATbits   0x000fc7       data     extern C:\Program Files\Microchip\mplabc18\v3.40\src\traditional\proc\p18F8722.asm
                  SSP2ADD   0x000f65       data     extern C:\Program Files\Microchip\mplabc18\v3.40\src\traditional\proc\p18F8722.asm
                  SSP2BUF   0x000f66       data     extern C:\Program Files\Microchip\mplabc18\v3.40\src\traditional\proc\p18F8722.asm
                 SSP2CON1   0x000f63       data     extern C:\Program Files\Microchip\mplabc18\v3.40\src\traditional\proc\p18F8722.asm
             SSP2CON1bits   0x000f63       data     extern C:\Program Files\Microchip\mplabc18\v3.40\src\traditional\proc\p18F8722.asm
                 SSP2CON2   0x000f62       data     extern C:\Program Files\Microchip\mplabc18\v3.40\src\traditional\proc\p18F8722.asm
             SSP2CON2bits   0x000f62       data     extern C:\Program Files\Microchip\mplabc18\v3.40\src\traditional\proc\p18F8722.asm
                 SSP2STAT   0x000f64       data     extern C:\Program Files\Microchip\mplabc18\v3.40\src\traditional\proc\p18F8722.asm
             SSP2STATbits   0x000f64       data     extern C:\Program Files\Microchip\mplabc18\v3.40\src\traditional\proc\p18F8722.asm
                   SSPADD   0x000fc8       data     extern C:\Program Files\Microchip\mplabc18\v3.40\src\traditional\proc\p18F8722.asm
                   SSPBUF   0x000fc9       data     extern C:\Program Files\Microchip\mplabc18\v3.40\src\traditional\proc\p18F8722.asm
                  SSPCON1   0x000fc6       data     extern C:\Program Files\Microchip\mplabc18\v3.40\src\traditional\proc\p18F8722.asm
              SSPCON1bits   0x000fc6       data     extern C:\Program Files\Microchip\mplabc18\v3.40\src\traditional\proc\p18F8722.asm
                  SSPCON2   0x000fc5       data     extern C:\Program Files\Microchip\mplabc18\v3.40\src\traditional\proc\p18F8722.asm
              SSPCON2bits   0x000fc5       data     extern C:\Program Files\Microchip\mplabc18\v3.40\src\traditional\proc\p18F8722.asm
                  SSPSTAT   0x000fc7       data     extern C:\Program Files\Microchip\mplabc18\v3.40\src\traditional\proc\p18F8722.asm
              SSPSTATbits   0x000fc7       data     extern C:\Program Files\Microchip\mplabc18\v3.40\src\traditional\proc\p18F8722.asm
                   STATUS   0x000fd8       data     extern C:\Program Files\Microchip\mplabc18\v3.40\src\traditional\proc\p18F8722.asm
               STATUSbits   0x000fd8       data     extern C:\Program Files\Microchip\mplabc18\v3.40\src\traditional\proc\p18F8722.asm
                   STKPTR   0x000ffc       data     extern C:\Program Files\Microchip\mplabc18\v3.40\src\traditional\proc\p18F8722.asm
               STKPTRbits   0x000ffc       data     extern C:\Program Files\Microchip\mplabc18\v3.40\src\traditional\proc\p18F8722.asm
            SYSTEM_STABLE   0x000607       data     extern X:\mandm\mandm\mandm8722.c
                 SYS_DATA   0x00060f       data     extern X:\mandm\mandm\mandm8722.c
                 SYS_HELP   0x000611       data     extern X:\mandm\mandm\mandm8722.c
                     Seed   0x0003fe       data     static C:\Program Files\Microchip\mplabc18\v3.40\src\traditional\stdclib\rand.asm
                    T0CON   0x000fd5       data     extern C:\Program Files\Microchip\mplabc18\v3.40\src\traditional\proc\p18F8722.asm
                T0CONbits   0x000fd5       data     extern C:\Program Files\Microchip\mplabc18\v3.40\src\traditional\proc\p18F8722.asm
                    T1CON   0x000fcd       data     extern C:\Program Files\Microchip\mplabc18\v3.40\src\traditional\proc\p18F8722.asm
                T1CONbits   0x000fcd       data     extern C:\Program Files\Microchip\mplabc18\v3.40\src\traditional\proc\p18F8722.asm
                    T2CON   0x000fca       data     extern C:\Program Files\Microchip\mplabc18\v3.40\src\traditional\proc\p18F8722.asm
                T2CONbits   0x000fca       data     extern C:\Program Files\Microchip\mplabc18\v3.40\src\traditional\proc\p18F8722.asm
                    T3CON   0x000fb1       data     extern C:\Program Files\Microchip\mplabc18\v3.40\src\traditional\proc\p18F8722.asm
                T3CONbits   0x000fb1       data     extern C:\Program Files\Microchip\mplabc18\v3.40\src\traditional\proc\p18F8722.asm
                    T4CON   0x000f76       data     extern C:\Program Files\Microchip\mplabc18\v3.40\src\traditional\proc\p18F8722.asm
                T4CONbits   0x000f76       data     extern C:\Program Files\Microchip\mplabc18\v3.40\src\traditional\proc\p18F8722.asm
                   TABLAT   0x000ff5       data     extern C:\Program Files\Microchip\mplabc18\v3.40\src\traditional\proc\p18F8722.asm
                   TBLPTR   0x000ff6       data     extern C:\Program Files\Microchip\mplabc18\v3.40\src\traditional\proc\p18F8722.asm
                  TBLPTRH   0x000ff7       data     extern C:\Program Files\Microchip\mplabc18\v3.40\src\traditional\proc\p18F8722.asm
                  TBLPTRL   0x000ff6       data     extern C:\Program Files\Microchip\mplabc18\v3.40\src\traditional\proc\p18F8722.asm
                  TBLPTRU   0x000ff8       data     extern C:\Program Files\Microchip\mplabc18\v3.40\src\traditional\proc\p18F8722.asm
            TEST_SPINNERS   0x000616       data     extern X:\mandm\mandm\mandm8722.c
                TIMERFLAG   0x000600       data     extern X:\mandm\mandm\mandm8722.c
                    TMR0H   0x000fd7       data     extern C:\Program Files\Microchip\mplabc18\v3.40\src\traditional\proc\p18F8722.asm
                    TMR0L   0x000fd6       data     extern C:\Program Files\Microchip\mplabc18\v3.40\src\traditional\proc\p18F8722.asm
                    TMR1H   0x000fcf       data     extern C:\Program Files\Microchip\mplabc18\v3.40\src\traditional\proc\p18F8722.asm
                    TMR1L   0x000fce       data     extern C:\Program Files\Microchip\mplabc18\v3.40\src\traditional\proc\p18F8722.asm
                     TMR2   0x000fcc       data     extern C:\Program Files\Microchip\mplabc18\v3.40\src\traditional\proc\p18F8722.asm
                    TMR3H   0x000fb3       data     extern C:\Program Files\Microchip\mplabc18\v3.40\src\traditional\proc\p18F8722.asm
                    TMR3L   0x000fb2       data     extern C:\Program Files\Microchip\mplabc18\v3.40\src\traditional\proc\p18F8722.asm
                     TMR4   0x000f78       data     extern C:\Program Files\Microchip\mplabc18\v3.40\src\traditional\proc\p18F8722.asm
                      TOS   0x000ffd       data     extern C:\Program Files\Microchip\mplabc18\v3.40\src\traditional\proc\p18F8722.asm
                     TOSH   0x000ffe       data     extern C:\Program Files\Microchip\mplabc18\v3.40\src\traditional\proc\p18F8722.asm
                     TOSL   0x000ffd       data     extern C:\Program Files\Microchip\mplabc18\v3.40\src\traditional\proc\p18F8722.asm
                     TOSU   0x000fff       data     extern C:\Program Files\Microchip\mplabc18\v3.40\src\traditional\proc\p18F8722.asm
                    TRISA   0x000f92       data     extern C:\Program Files\Microchip\mplabc18\v3.40\src\traditional\proc\p18F8722.asm
                TRISAbits   0x000f92       data     extern C:\Program Files\Microchip\mplabc18\v3.40\src\traditional\proc\p18F8722.asm
                    TRISB   0x000f93       data     extern C:\Program Files\Microchip\mplabc18\v3.40\src\traditional\proc\p18F8722.asm
                TRISBbits   0x000f93       data     extern C:\Program Files\Microchip\mplabc18\v3.40\src\traditional\proc\p18F8722.asm
                    TRISC   0x000f94       data     extern C:\Program Files\Microchip\mplabc18\v3.40\src\traditional\proc\p18F8722.asm
                TRISCbits   0x000f94       data     extern C:\Program Files\Microchip\mplabc18\v3.40\src\traditional\proc\p18F8722.asm
                    TRISD   0x000f95       data     extern C:\Program Files\Microchip\mplabc18\v3.40\src\traditional\proc\p18F8722.asm
                TRISDbits   0x000f95       data     extern C:\Program Files\Microchip\mplabc18\v3.40\src\traditional\proc\p18F8722.asm
                    TRISE   0x000f96       data     extern C:\Program Files\Microchip\mplabc18\v3.40\src\traditional\proc\p18F8722.asm
                TRISEbits   0x000f96       data     extern C:\Program Files\Microchip\mplabc18\v3.40\src\traditional\proc\p18F8722.asm
                    TRISF   0x000f97       data     extern C:\Program Files\Microchip\mplabc18\v3.40\src\traditional\proc\p18F8722.asm
                TRISFbits   0x000f97       data     extern C:\Program Files\Microchip\mplabc18\v3.40\src\traditional\proc\p18F8722.asm
                    TRISG   0x000f98       data     extern C:\Program Files\Microchip\mplabc18\v3.40\src\traditional\proc\p18F8722.asm
                TRISGbits   0x000f98       data     extern C:\Program Files\Microchip\mplabc18\v3.40\src\traditional\proc\p18F8722.asm
                    TRISH   0x000f99       data     extern C:\Program Files\Microchip\mplabc18\v3.40\src\traditional\proc\p18F8722.asm
                TRISHbits   0x000f99       data     extern C:\Program Files\Microchip\mplabc18\v3.40\src\traditional\proc\p18F8722.asm
                    TRISJ   0x000f9a       data     extern C:\Program Files\Microchip\mplabc18\v3.40\src\traditional\proc\p18F8722.asm
                TRISJbits   0x000f9a       data     extern C:\Program Files\Microchip\mplabc18\v3.40\src\traditional\proc\p18F8722.asm
                    TWEAK   0x000615       data     extern X:\mandm\mandm\mandm8722.c
                    TXREG   0x000fad       data     extern C:\Program Files\Microchip\mplabc18\v3.40\src\traditional\proc\p18F8722.asm
                   TXREG1   0x000fad       data     extern C:\Program Files\Microchip\mplabc18\v3.40\src\traditional\proc\p18F8722.asm
                   TXREG2   0x000f6d       data     extern C:\Program Files\Microchip\mplabc18\v3.40\src\traditional\proc\p18F8722.asm
                    TXSTA   0x000fac       data     extern C:\Program Files\Microchip\mplabc18\v3.40\src\traditional\proc\p18F8722.asm
                   TXSTA1   0x000fac       data     extern C:\Program Files\Microchip\mplabc18\v3.40\src\traditional\proc\p18F8722.asm
               TXSTA1bits   0x000fac       data     extern C:\Program Files\Microchip\mplabc18\v3.40\src\traditional\proc\p18F8722.asm
                   TXSTA2   0x000f6c       data     extern C:\Program Files\Microchip\mplabc18\v3.40\src\traditional\proc\p18F8722.asm
               TXSTA2bits   0x000f6c       data     extern C:\Program Files\Microchip\mplabc18\v3.40\src\traditional\proc\p18F8722.asm
                TXSTAbits   0x000fac       data     extern C:\Program Files\Microchip\mplabc18\v3.40\src\traditional\proc\p18F8722.asm
               UPDATE_EEP   0x00060d       data     extern X:\mandm\mandm\mandm8722.c
            USART2_Status   0x0004ff       data     extern C:\Program Files\Microchip\mplabc18\v3.40\src\pmc_common\USART\u2defs.c
                        V   0x00009e       data     extern X:\mandm\mandm\mandm8722.c
                      Vin   0x000667       data     extern X:\mandm\mandm\mandm8722.c
                   WDTCON   0x000fd1       data     extern C:\Program Files\Microchip\mplabc18\v3.40\src\traditional\proc\p18F8722.asm
               WDTCONbits   0x000fd1       data     extern C:\Program Files\Microchip\mplabc18\v3.40\src\traditional\proc\p18F8722.asm
                   WDT_TO   0x000613       data     extern X:\mandm\mandm\mandm8722.c
               WORKERFLAG   0x000603       data     extern X:\mandm\mandm\mandm8722.c
                     WREG   0x000fe8       data     extern C:\Program Files\Microchip\mplabc18\v3.40\src\traditional\proc\p18F8722.asm
                    YNKEY   0x000523       data     extern X:\mandm\mandm\mandm8722.c
                      ZAP   0x0004ed       data     static X:\mandm\mandm\mandm_vector.c
                 __AARGB0   0x00002d       data     extern C:\Program Files\Microchip\mplabc18\v3.40\src\traditional\math\aarg.asm
                 __AARGB1   0x00002c       data     extern C:\Program Files\Microchip\mplabc18\v3.40\src\traditional\math\aarg.asm
                 __AARGB2   0x00002b       data     extern C:\Program Files\Microchip\mplabc18\v3.40\src\traditional\math\aarg.asm
                 __AARGB3   0x00002a       data     extern C:\Program Files\Microchip\mplabc18\v3.40\src\traditional\math\aarg.asm
                 __AARGB4   0x000029       data     extern C:\Program Files\Microchip\mplabc18\v3.40\src\traditional\math\aarg.asm
                 __AARGB5   0x000028       data     extern C:\Program Files\Microchip\mplabc18\v3.40\src\traditional\math\aarg.asm
                 __AARGB6   0x000027       data     extern C:\Program Files\Microchip\mplabc18\v3.40\src\traditional\math\aarg.asm
                 __AARGB7   0x000026       data     extern C:\Program Files\Microchip\mplabc18\v3.40\src\traditional\math\aarg.asm
                   __AEXP   0x00002e       data     extern C:\Program Files\Microchip\mplabc18\v3.40\src\traditional\math\aarg.asm
                 __BARGB0   0x000032       data     extern C:\Program Files\Microchip\mplabc18\v3.40\src\traditional\math\barg.asm
                 __BARGB1   0x000031       data     extern C:\Program Files\Microchip\mplabc18\v3.40\src\traditional\math\barg.asm
                 __BARGB2   0x000030       data     extern C:\Program Files\Microchip\mplabc18\v3.40\src\traditional\math\barg.asm
                 __BARGB3   0x00002f       data     extern C:\Program Files\Microchip\mplabc18\v3.40\src\traditional\math\barg.asm
                   __BEXP   0x000033       data     extern C:\Program Files\Microchip\mplabc18\v3.40\src\traditional\math\barg.asm
                __FPFLAGS   0x000025       data     extern C:\Program Files\Microchip\mplabc18\v3.40\src\traditional\math\cmath18.asm
            __FPFLAGSbits   0x000025       data     extern C:\Program Files\Microchip\mplabc18\v3.40\src\traditional\math\cmath18.asm
                  __REMB0   0x000029       data     extern C:\Program Files\Microchip\mplabc18\v3.40\src\traditional\math\aarg.asm
                  __REMB1   0x000028       data     extern C:\Program Files\Microchip\mplabc18\v3.40\src\traditional\math\aarg.asm
                  __REMB2   0x000027       data     extern C:\Program Files\Microchip\mplabc18\v3.40\src\traditional\math\aarg.asm
                  __REMB3   0x000026       data     extern C:\Program Files\Microchip\mplabc18\v3.40\src\traditional\math\aarg.asm
                   __TEMP   0x000037       data     extern C:\Program Files\Microchip\mplabc18\v3.40\src\traditional\math\temparg.asm
                 __TEMPB0   0x000037       data     extern C:\Program Files\Microchip\mplabc18\v3.40\src\traditional\math\temparg.asm
                 __TEMPB1   0x000036       data     extern C:\Program Files\Microchip\mplabc18\v3.40\src\traditional\math\temparg.asm
                 __TEMPB2   0x000035       data     extern C:\Program Files\Microchip\mplabc18\v3.40\src\traditional\math\temparg.asm
                 __TEMPB3   0x000034       data     extern C:\Program Files\Microchip\mplabc18\v3.40\src\traditional\math\temparg.asm
                  __tmp_0   0x000000       data     static C:\Program Files\Microchip\mplabc18\v3.40\src\traditional\stdclib\sprintf.c
                  __tmp_0   0x000000       data     static C:\Program Files\Microchip\mplabc18\v3.40\src\traditional\stdclib\vfprintf.c
                  __tmp_0   0x000000       data     static C:\Program Files\Microchip\mplabc18\v3.40\src\traditional\stdclib\putc.c
                  __tmp_0   0x000000       data     static C:\Program Files\Microchip\mplabc18\v3.40\src\pmc_common\USART\u2open.c
                  __tmp_0   0x000000       data     static C:\Program Files\Microchip\mplabc18\v3.40\src\pmc_common\ADC\adcopen.c
                  __tmp_0   0x000000       data     static C:\Program Files\Microchip\mplabc18\v3.40\src\pmc_common\EEP\write_B.c
                  __tmp_0   0x000000       data     static C:\Program Files\Microchip\mplabc18\v3.40\src\pmc_common\ADC\adcread.c
                  __tmp_0   0x000000       data     static C:\Program Files\Microchip\mplabc18\v3.40\src\pmc_common\ADC\adcsetch.c
                  __tmp_0   0x000000       data     static C:\Program Files\Microchip\mplabc18\v3.40\src\pmc_common\EEP\read_B.c
                  __tmp_0   0x000000       data     static X:\mandm\mandm\daq.c     
                  __tmp_0   0x000000       data     static X:\mandm\mandm\crit.c    
                  __tmp_0   0x000000       data     static X:\mandm\mandm\mandm8722.c
                  __tmp_0   0x000000       data     static X:\mandm\mandm\power.c   
                  __tmp_1   0x000038       data     static X:\mandm\mandm\mandm_vector.c
                    a10_x   0x0005b7       data     extern X:\mandm\mandm\mandm8722.c
                  a10_x_t   0x0005c7       data     static X:\mandm\mandm\daq.c     
                    a10_y   0x0005b9       data     extern X:\mandm\mandm\mandm8722.c
                  a10_y_t   0x0005cb       data     static X:\mandm\mandm\daq.c     
                    a10_z   0x0005bb       data     extern X:\mandm\mandm\mandm8722.c
                  a10_z_t   0x0005cf       data     static X:\mandm\mandm\daq.c     
                  adc_cal   0x000681       data     extern X:\mandm\mandm\mandm8722.c
                   ahfrak   0x000663       data     extern X:\mandm\mandm\mandm8722.c
             alarm_buffer   0x0003a0       data     extern X:\mandm\mandm\mandm8722.c
              alarm_codes   0x000617       data     extern X:\mandm\mandm\mandm8722.c
                  alm_num   0x0003ee       data     static X:\mandm\mandm\mandm8722.c
                   almctr   0x0004fe       data     extern X:\mandm\mandm\mandm8722.c
                   b_read   0x0004ec       data     static X:\mandm\mandm\mandm_vector.c
                 band_max   0x0004f4       data     static X:\mandm\mandm\mandm_vector.c
                 bootstr2   0x000200       data     extern X:\mandm\mandm\mandm8722.c
               build_date   0x000636       data     extern X:\mandm\mandm\mandm8722.c
               build_time   0x000639       data     extern X:\mandm\mandm\mandm8722.c
                   button   0x000060       data     extern X:\mandm\mandm\mandm8722.c
                       c1   0x0005ea       data     static X:\mandm\mandm\mandm_vector.c
                       c2   0x0005eb       data     static X:\mandm\mandm\mandm_vector.c
               cable_type   0x000693       data     extern X:\mandm\mandm\mandm8722.c
                   cdelay   0x0005c1       data     extern X:\mandm\mandm\mandm8722.c
                   change   0x0001fe       data     static X:\mandm\mandm\daq.c     
             change_count   0x0001fc       data     extern X:\mandm\mandm\daq.c     
               check_menu   0x0005a4       data     static X:\mandm\mandm\mandm8722.c
                   chrg_v   0x00066b       data     extern X:\mandm\mandm\mandm8722.c
                      cid   0x000352       data     extern X:\mandm\mandm\mandm8722.c
                clocks_hz   0x000582       data     static X:\mandm\mandm\mandm8722.c
                clocks_hz   0x00058e       data     static X:\mandm\mandm\mandm8722.c
                clocks_hz   0x00059a       data     static X:\mandm\mandm\mandm8722.c
                clocks_hz   0x000576       data     static X:\mandm\mandm\mandm8722.c
                clocks_hz   0x00056a       data     static X:\mandm\mandm\mandm8722.c
                clocks_hz   0x00055e       data     static X:\mandm\mandm\mandm8722.c
                clocks_hz   0x000552       data     static X:\mandm\mandm\mandm8722.c
              critc_count   0x000629       data     extern X:\mandm\mandm\mandm8722.c
              critc_level   0x000604       data     extern X:\mandm\mandm\mandm8722.c
                      csd   0x000340       data     extern X:\mandm\mandm\mandm8722.c
                curr_byte   0x0005e3       data     static C:\Program Files\Microchip\mplabc18\v3.40\src\traditional\startup\c018iz.c
               curr_entry   0x0005e5       data     static C:\Program Files\Microchip\mplabc18\v3.40\src\traditional\startup\c018iz.c
                 data_ptr   0x0005e7       data     static C:\Program Files\Microchip\mplabc18\v3.40\src\traditional\startup\c018iz.c
                   dcount   0x000562       data     static X:\mandm\mandm\mandm8722.c
                   dcount   0x00056e       data     static X:\mandm\mandm\mandm8722.c
                   dcount   0x000556       data     static X:\mandm\mandm\mandm8722.c
                   dcount   0x00057a       data     static X:\mandm\mandm\mandm8722.c
                   dcount   0x00054a       data     static X:\mandm\mandm\mandm8722.c
                   dcount   0x000586       data     static X:\mandm\mandm\mandm8722.c
                   dcount   0x000592       data     static X:\mandm\mandm\mandm8722.c
                   dcount   0x000546       data     static X:\mandm\mandm\mandm8722.c
                 deadband   0x0003f1       data     static X:\mandm\mandm\mandm8722.c
                       ds   0x000100       data     extern X:\mandm\mandm\mandm8722.c
                      dsi   0x00063c       data     extern X:\mandm\mandm\mandm8722.c
                 eep_char   0x0003fc       data     static X:\mandm\mandm\mandm8722.c
                emo_bumps   0x0004ea       data     static X:\mandm\mandm\mandm_vector.c
                       f1   0x000374       data     extern X:\mandm\mandm\mandm8722.c
                       f2   0x00037b       data     extern X:\mandm\mandm\mandm8722.c
                       f3   0x000382       data     extern X:\mandm\mandm\mandm8722.c
                       f4   0x000389       data     extern X:\mandm\mandm\mandm8722.c
               fast_ticks   0x0004f1       data     static X:\mandm\mandm\mandm_vector.c
                  get_out   0x0005a5       data     static X:\mandm\mandm\mandm8722.c
             glitch_count   0x0005c0       data     extern X:\mandm\mandm\mandm8722.c
                        h   0x0003d5       data     static X:\mandm\mandm\mandm8722.c
                        h   0x0003e1       data     static X:\mandm\mandm\mandm8722.c
                 help_pos   0x00063e       data     extern X:\mandm\mandm\mandm8722.c
                 hid_idle   0x0004f8       data     static X:\mandm\mandm\mandm_vector.c
               hms_string   0x0005a7       data     extern X:\mandm\mandm\mandm8722.c
                        i   0x0003ed       data     static X:\mandm\mandm\mandm8722.c
                        i   0x0005c3       data     static X:\mandm\mandm\daq.c     
                       ib   0x0003d4       data     static X:\mandm\mandm\mandm8722.c
                       ip   0x00067d       data     extern X:\mandm\mandm\mandm8722.c
                       iw   0x000679       data     extern X:\mandm\mandm\mandm8722.c
                    knob1   0x000500       data     extern X:\mandm\mandm\mandm8722.c
                    knob2   0x000510       data     extern X:\mandm\mandm\mandm8722.c
              knob_to_pot   0x000678       data     extern X:\mandm\mandm\mandm8722.c
               last_shape   0x0003d3       data     static X:\mandm\mandm\mandm8722.c
                lastmotor   0x0004b0       data     static X:\mandm\mandm\power.c   
                    lcd18   0x0003ce       data     extern X:\mandm\mandm\mandm8722.c
                 lp_speed   0x00062e       data     extern X:\mandm\mandm\mandm8722.c
                     lp_x   0x000632       data     extern X:\mandm\mandm\mandm8722.c
                        m   0x0003e5       data     static X:\mandm\mandm\mandm8722.c
                        m   0x0003d9       data     static X:\mandm\mandm\mandm8722.c
                 menu_pos   0x0005a6       data     static X:\mandm\mandm\mandm8722.c
                 menu_pos   0x0003fb       data     static X:\mandm\mandm\mandm8722.c
                 menu_pos   0x0003fa       data     static X:\mandm\mandm\mandm8722.c
                     mode   0x000619       data     extern X:\mandm\mandm\mandm8722.c
                motor_ptr   0x0004ae       data     extern X:\mandm\mandm\mandm8722.c
                motordata   0x000400       data     extern X:\mandm\mandm\mandm8722.c
                      msi   0x00063d       data     extern X:\mandm\mandm\mandm8722.c
                        n   0x00059e       data     static X:\mandm\mandm\mandm8722.c
                 new_menu   0x0005a3       data     static X:\mandm\mandm\mandm8722.c
                old_error   0x0003f7       data     static X:\mandm\mandm\mandm8722.c
                 old_menu   0x0003f9       data     static X:\mandm\mandm\mandm8722.c
                       p1   0x000300       data     extern X:\mandm\mandm\mandm8722.c
                       p2   0x000310       data     extern X:\mandm\mandm\mandm8722.c
                       p3   0x000390       data     extern X:\mandm\mandm\mandm8722.c
                 position   0x0003ef       data     static X:\mandm\mandm\mandm8722.c
                     prom   0x0005e0       data     static C:\Program Files\Microchip\mplabc18\v3.40\src\traditional\startup\c018iz.c
                     qei1   0x000529       data     extern X:\mandm\mandm\mandm8722.c
                     rawp   0x0005d4       data     extern X:\mandm\mandm\mandm8722.c
               real_ticks   0x0004f0       data     static X:\mandm\mandm\mandm_vector.c
                   rx_tmp   0x0004f2       data     static X:\mandm\mandm\mandm_vector.c
                        s   0x0003dd       data     static X:\mandm\mandm\mandm8722.c
                        s   0x0003e9       data     static X:\mandm\mandm\mandm8722.c
                        s   0x000540       data     static X:\mandm\mandm\mandm8722.c
                  s_delay   0x0005a2       data     static X:\mandm\mandm\mandm8722.c
                    shape   0x0003f0       data     static X:\mandm\mandm\mandm8722.c
                     sign   0x00062d       data     extern X:\mandm\mandm\mandm8722.c
                     slow   0x0005a0       data     static X:\mandm\mandm\mandm8722.c
               slow_timer   0x0003cf       data     extern X:\mandm\mandm\mandm8722.c
                   smooth   0x0003ae       data     extern X:\mandm\mandm\mandm8722.c
                  solar_t   0x000673       data     extern X:\mandm\mandm\mandm8722.c
                       t1   0x00063f       data     extern X:\mandm\mandm\mandm8722.c
                       t2   0x000643       data     extern X:\mandm\mandm\mandm8722.c
                       t3   0x000647       data     extern X:\mandm\mandm\mandm8722.c
                       t4   0x00064b       data     extern X:\mandm\mandm\mandm8722.c
                       t5   0x00064f       data     extern X:\mandm\mandm\mandm8722.c
                       t6   0x000653       data     extern X:\mandm\mandm\mandm8722.c
                       t7   0x000657       data     extern X:\mandm\mandm\mandm8722.c
                   t_time   0x00065b       data     extern X:\mandm\mandm\mandm8722.c
                  termstr   0x000320       data     extern X:\mandm\mandm\mandm8722.c
                    timer   0x0005ec       data     static X:\mandm\mandm\mandm_vector.c
                   timerl   0x0005ee       data     static X:\mandm\mandm\mandm_vector.c
                 timetemp   0x000596       data     static X:\mandm\mandm\mandm8722.c
                 timetemp   0x00058a       data     static X:\mandm\mandm\mandm8722.c
                 timetemp   0x00057e       data     static X:\mandm\mandm\mandm8722.c
                 timetemp   0x000572       data     static X:\mandm\mandm\mandm8722.c
                 timetemp   0x00054e       data     static X:\mandm\mandm\mandm8722.c
                 timetemp   0x000566       data     static X:\mandm\mandm\mandm8722.c
                 timetemp   0x00055a       data     static X:\mandm\mandm\mandm8722.c
                 vbatol_t   0x00066f       data     extern X:\mandm\mandm\mandm8722.c
                 vc_count   0x0004ee       data     static X:\mandm\mandm\mandm_vector.c
                 voltfrak   0x00065f       data     extern X:\mandm\mandm\mandm8722.c
              was_running   0x0003f5       data     static X:\mandm\mandm\mandm8722.c
             worker_timer   0x0004ef       data     static X:\mandm\mandm\mandm_vector.c
                 worktick   0x0005bd       data     extern X:\mandm\mandm\mandm8722.c
                        z   0x0003fd       data     static X:\mandm\mandm\mandm8722.c
                        z   0x0005c5       data     static X:\mandm\mandm\daq.c     
                        z   0x0000fb       data     static X:\mandm\mandm\hwconf.c  
                        z   0x0005a1       data     static X:\mandm\mandm\mandm8722.c
                        z   0x0005d3       data     static X:\mandm\mandm\daq.c     
                        z   0x00059f       data     static X:\mandm\mandm\mandm8722.c
                        z   0x0000fc       data     static X:\mandm\mandm\config.c  



                              Symbols - Sorted by Address
                     Name    Address   Location    Storage File                     
                ---------  ---------  ---------  --------- ---------                
                   _entry   0x000000    program     extern C:\Program Files\Microchip\mplabc18\v3.40\src\traditional\startup\c018iz.c
       ___return_lbl00000   0x000004    program     static                          
               _user_putc   0x000006    program     extern C:\Program Files\Microchip\mplabc18\v3.40\src\traditional\stdclib\_user_putc.c
                 tick_int   0x000008    program     extern X:\mandm\mandm\mandm8722.c
       ___return_lbl00000   0x00000c    program     static                          
                  BusyADC   0x00000e    program     extern C:\Program Files\Microchip\mplabc18\v3.40\src\pmc_common\ADC\adcbusy.c
                 work_int   0x000018    program     extern X:\mandm\mandm\mandm8722.c
       ___return_lbl00001   0x00001c    program     static                          
                 spinners   0x000068    program     extern X:\mandm\mandm\mandm8722.c
              LCD_VC_puts   0x00016e    program     extern X:\mandm\mandm\mandm8722.c
              update_hist   0x000238    program     extern X:\mandm\mandm\mandm8722.c
                 wdtdelay   0x00027a    program     extern X:\mandm\mandm\mandm8722.c
          ___for_lbl00030   0x00028c    program     static                          
               __tmplbl_1   0x0002b0    program     static                          
          ___for_lbl00028   0x0002b6    program     static                          
          ___for_lbl00029   0x0002c4    program     static                          
       ___return_lbl00027   0x0002c4    program     static                          
                  wdttime   0x0002cc    program     extern X:\mandm\mandm\mandm8722.c
           ___do_lbl00034   0x000326    program     static                          
           ___do_lbl00032   0x000346    program     static                          
               __tmplbl_2   0x000366    program     static                          
           ___do_lbl00033   0x000368    program     static                          
       ___return_lbl00031   0x000368    program     static                          
                checktime   0x000370    program     extern X:\mandm\mandm\mandm8722.c
         checktime_select   0x0003e6    program     extern X:\mandm\mandm\mandm8722.c
          checktime_motor   0x00045c    program     extern X:\mandm\mandm\mandm8722.c
            checktime_cal   0x0004d2    program     extern X:\mandm\mandm\mandm8722.c
            checktime_eep   0x000548    program     extern X:\mandm\mandm\mandm8722.c
          checktime_track   0x0005be    program     extern X:\mandm\mandm\mandm8722.c
            DelayFor18TCY   0x000634    program     extern X:\mandm\mandm\mandm8722.c
          ___for_lbl00056   0x00063a    program     static                          
          ___for_lbl00054   0x000646    program     static                          
          ___for_lbl00055   0x00064c    program     static                          
       ___return_lbl00053   0x00064c    program     static                          
             DelayPORXLCD   0x00064e    program     extern X:\mandm\mandm\mandm8722.c
                DelayXLCD   0x00065a    program     extern X:\mandm\mandm\mandm8722.c
                    putc2   0x000666    program     extern X:\mandm\mandm\mandm8722.c
              start_delay   0x00067e    program     extern X:\mandm\mandm\mandm8722.c
                  clr_lcd   0x000684    program     extern X:\mandm\mandm\mandm8722.c
                lp_filter   0x000694    program     extern X:\mandm\mandm\mandm8722.c
                term_time   0x00085a    program     extern X:\mandm\mandm\mandm8722.c
       ___return_lbl00072   0x0008b6    program     static                          
             hold_process   0x0008b8    program     extern X:\mandm\mandm\mandm8722.c
              system_data   0x0008fc    program     extern X:\mandm\mandm\mandm8722.c
          ___for_lbl00081   0x000c7e    program     static                          
           ___if_lbl00080   0x000fae    program     static                          
          ___for_lbl00078   0x000fae    program     static                          
          ___for_lbl00079   0x000fb4    program     static                          
       ___return_lbl00077   0x000fb6    program     static                          
              system_help   0x000fb8    program     extern X:\mandm\mandm\mandm8722.c
                      hms   0x000fd4    program     extern X:\mandm\mandm\mandm8722.c
                       hm   0x0010ae    program     extern X:\mandm\mandm\mandm8722.c
                     ABSI   0x00117a    program     extern X:\mandm\mandm\mandm8722.c
                     ABSL   0x0011a8    program     extern X:\mandm\mandm\mandm8722.c
                   voltfp   0x0011da    program     extern X:\mandm\mandm\mandm8722.c
                  voltfps   0x0011fc    program     extern X:\mandm\mandm\mandm8722.c
                  voltfpi   0x00121a    program     extern X:\mandm\mandm\mandm8722.c
                     ahfp   0x0012ec    program     extern X:\mandm\mandm\mandm8722.c
              check_alarm   0x00138c    program     extern X:\mandm\mandm\mandm8722.c
                fail_safe   0x0016c2    program     extern X:\mandm\mandm\mandm8722.c
                 ansidraw   0x0017a4    program     extern X:\mandm\mandm\mandm8722.c
          update_lcd_menu   0x0017e0    program     extern X:\mandm\mandm\mandm8722.c
               Set_Cursor   0x0018ac    program     extern X:\mandm\mandm\mandm8722.c
              track_motor   0x001924    program     extern X:\mandm\mandm\mandm8722.c
              check_cable   0x001da2    program     extern X:\mandm\mandm\mandm8722.c
                  get_hid   0x001ed0    program     extern X:\mandm\mandm\mandm8722.c
                 nav_menu   0x002164    program     extern X:\mandm\mandm\mandm8722.c
            e220_qei_exer   0x0021a8    program     extern X:\mandm\mandm\mandm8722.c
                exerciser   0x002280    program     extern X:\mandm\mandm\mandm8722.c
                 hid_menu   0x0022ca    program     extern X:\mandm\mandm\mandm8722.c
           help_m_display   0x0022ec    program     extern X:\mandm\mandm\mandm8722.c
            gsd_m_display   0x00235a    program     extern X:\mandm\mandm\mandm8722.c
           e220_m_display   0x0023d4    program     extern X:\mandm\mandm\mandm8722.c
        viision_m_display   0x00241e    program     extern X:\mandm\mandm\mandm8722.c
       viision_ms_display   0x002462    program     extern X:\mandm\mandm\mandm8722.c
         e220_qei_display   0x0024b4    program     extern X:\mandm\mandm\mandm8722.c
          default_display   0x00256a    program     extern X:\mandm\mandm\mandm8722.c
         varian_v_display   0x0025ca    program     extern X:\mandm\mandm\mandm8722.c
          fail_all_motors   0x00268c    program     extern X:\mandm\mandm\mandm8722.c
                  run_cal   0x0026fe    program     extern X:\mandm\mandm\mandm8722.c
           ___if_lbl00377   0x00277a    program     static                          
           ___if_lbl00378   0x0027b4    program     static                          
           ___if_lbl00379   0x0027c6    program     static                          
           ___if_lbl00380   0x002800    program     static                          
          ___for_lbl00403   0x00285e    program     static                          
           ___do_lbl00389   0x0028ca    program     static                          
           ___if_lbl00385   0x00298e    program     static                          
             __tmplbl_147   0x002a28    program     static                          
           ___if_lbl00386   0x002a7a    program     static                          
             __tmplbl_148   0x002b18    program     static                          
           ___if_lbl00387   0x002b6a    program     static                          
           ___if_lbl00388   0x002b7e    program     static                          
           ___do_lbl00383   0x002b90    program     static                          
           ___do_lbl00384   0x002bbe    program     static                          
             __tmplbl_149   0x002bca    program     static                          
              __tmplbl_63   0x002bd2    program     static                          
              __tmplbl_62   0x002be2    program     static                          
           ___if_lbl00391   0x002bea    program     static                          
             __tmplbl_150   0x002bf6    program     static                          
           ___if_lbl00392   0x002c04    program     static                          
           ___do_lbl00399   0x002c3e    program     static                          
           ___if_lbl00395   0x002d02    program     static                          
             __tmplbl_151   0x002d9c    program     static                          
           ___if_lbl00396   0x002dee    program     static                          
             __tmplbl_152   0x002e8c    program     static                          
           ___if_lbl00397   0x002ede    program     static                          
           ___if_lbl00398   0x002ef2    program     static                          
           ___do_lbl00393   0x002f04    program     static                          
           ___do_lbl00394   0x002f32    program     static                          
             __tmplbl_153   0x002f3e    program     static                          
              __tmplbl_65   0x002f46    program     static                          
              __tmplbl_64   0x002f56    program     static                          
           ___if_lbl00401   0x002f5e    program     static                          
             __tmplbl_154   0x002f6a    program     static                          
           ___if_lbl00402   0x002f78    program     static                          
          ___for_lbl00381   0x002f78    program     static                          
          ___for_lbl00382   0x002f84    program     static                          
              __tmplbl_67   0x002f96    program     static                          
              __tmplbl_66   0x002fa0    program     static                          
           ___if_lbl00405   0x00308a    program     static                          
           ___if_lbl00406   0x0030e6    program     static                          
           ___do_lbl00409   0x00310a    program     static                          
           ___do_lbl00407   0x003116    program     static                          
           ___do_lbl00408   0x00311c    program     static                          
           ___if_lbl00411   0x003172    program     static                          
           ___if_lbl00410   0x003172    program     static                          
           ___if_lbl00412   0x00318c    program     static                          
           ___do_lbl00426   0x003198    program     static                          
              __tmplbl_70   0x003362    program     static                          
              __tmplbl_69   0x003368    program     static                          
              __tmplbl_68   0x00336e    program     static                          
           ___if_lbl00418   0x003382    program     static                          
           ___if_lbl00419   0x0033b2    program     static                          
           ___if_lbl00420   0x0033b6    program     static                          
           ___if_lbl00421   0x00341e    program     static                          
           ___if_lbl00422   0x003542    program     static                          
           ___if_lbl00423   0x00362a    program     static                          
           ___if_lbl00424   0x003712    program     static                          
           ___if_lbl00425   0x003726    program     static                          
           ___do_lbl00413   0x003738    program     static                          
              __tmplbl_72   0x003764    program     static                          
           ___do_lbl00414   0x003776    program     static                          
              __tmplbl_71   0x003776    program     static                          
           ___do_lbl00440   0x0037f8    program     static                          
              __tmplbl_75   0x0039c2    program     static                          
              __tmplbl_74   0x0039c8    program     static                          
              __tmplbl_73   0x0039ce    program     static                          
           ___if_lbl00432   0x0039e2    program     static                          
           ___if_lbl00433   0x003a12    program     static                          
           ___if_lbl00434   0x003a16    program     static                          
           ___if_lbl00435   0x003a7e    program     static                          
           ___if_lbl00436   0x003ba2    program     static                          
           ___if_lbl00437   0x003c8a    program     static                          
           ___if_lbl00438   0x003d72    program     static                          
           ___if_lbl00439   0x003d86    program     static                          
           ___do_lbl00427   0x003d98    program     static                          
              __tmplbl_77   0x003dc4    program     static                          
           ___do_lbl00428   0x003dd6    program     static                          
           ___if_lbl00441   0x003dd6    program     static                          
              __tmplbl_76   0x003dd6    program     static                          
         ___else_lbl00460   0x003dda    program     static                          
          ___for_lbl00448   0x003e22    program     static                          
              __tmplbl_78   0x003e3a    program     static                          
           ___if_lbl00444   0x003ee0    program     static                          
              __tmplbl_79   0x003fcc    program     static                          
           ___if_lbl00445   0x003fde    program     static                          
           ___if_lbl00446   0x003ff6    program     static                          
           ___if_lbl00447   0x00405e    program     static                          
          ___for_lbl00442   0x00405e    program     static                          
          ___for_lbl00443   0x004072    program     static                          
          ___for_lbl00455   0x0040ee    program     static                          
              __tmplbl_80   0x004106    program     static                          
           ___if_lbl00451   0x0041ac    program     static                          
              __tmplbl_81   0x004298    program     static                          
           ___if_lbl00452   0x0042aa    program     static                          
           ___if_lbl00453   0x0042c2    program     static                          
          ___for_lbl00449   0x00432a    program     static                          
           ___if_lbl00454   0x00432a    program     static                          
          ___for_lbl00450   0x00433e    program     static                          
          ___for_lbl00458   0x00474e    program     static                          
              __tmplbl_82   0x004766    program     static                          
          ___for_lbl00456   0x0047a2    program     static                          
          ___for_lbl00457   0x0047b6    program     static                          
           ___if_lbl00459   0x0047b6    program     static                          
          ___for_lbl00469   0x0047c2    program     static                          
              __tmplbl_83   0x0047da    program     static                          
         ___else_lbl00468   0x0048d2    program     static                          
           ___do_lbl00465   0x004b80    program     static                          
           ___do_lbl00463   0x004b8c    program     static                          
           ___do_lbl00464   0x004b92    program     static                          
           ___if_lbl00466   0x004ba4    program     static                          
           ___if_lbl00467   0x004ba4    program     static                          
          ___for_lbl00461   0x004ba4    program     static                          
          ___for_lbl00462   0x004bb8    program     static                          
       ___return_lbl00376   0x004bf6    program     static                          
              display_cal   0x004c0a    program     extern X:\mandm\mandm\mandm8722.c
                 init_lcd   0x004cea    program     extern X:\mandm\mandm\mandm8722.c
                     main   0x004d4a    program     extern X:\mandm\mandm\mandm8722.c
           ___if_lbl00481   0x004e18    program     static                          
           ___if_lbl00482   0x004e4e    program     static                          
           ___if_lbl00483   0x004e84    program     static                          
           ___if_lbl00484   0x004eba    program     static                          
           ___if_lbl00485   0x005036    program     static                          
          ___for_lbl00488   0x005090    program     static                          
          ___for_lbl00486   0x0050ba    program     static                          
           ___if_lbl00489   0x0050c0    program     static                          
          ___for_lbl00487   0x0050c0    program     static                          
         ___else_lbl00491   0x005114    program     static                          
           ___if_lbl00490   0x005166    program     static                          
          ___for_lbl00494   0x0051a0    program     static                          
          ___for_lbl00492   0x0051d8    program     static                          
          ___for_lbl00493   0x0051de    program     static                          
         ___else_lbl00499   0x0051e0    program     static                          
          ___for_lbl00497   0x0051fe    program     static                          
          ___for_lbl00495   0x005236    program     static                          
          ___for_lbl00496   0x00523c    program     static                          
           ___if_lbl00498   0x005256    program     static                          
        ___while_lbl00500   0x00525e    program     static                          
        ___while_lbl00501   0x005260    program     static                          
           ___if_lbl00502   0x005260    program     static                          
           ___if_lbl00503   0x0052b6    program     static                          
        ___while_lbl00504   0x005516    program     static                          
              __tmplbl_85   0x005522    program     static                          
              __tmplbl_84   0x005528    program     static                          
           ___if_lbl00507   0x00552c    program     static                          
           ___if_lbl00508   0x005556    program     static                          
           ___if_lbl00509   0x00556a    program     static                          
        ___while_lbl00505   0x00556c    program     static                          
       ___return_lbl00480   0x00556c    program     static                          
                   __pa_0   0x00556e    program     static X:\mandm\mandm\mandm8722.c
                   __pa_1   0x0055a4    program     static X:\mandm\mandm\mandm8722.c
                   __pa_2   0x0055da    program     static X:\mandm\mandm\mandm8722.c
                   __pa_3   0x0055ee    program     static X:\mandm\mandm\mandm8722.c
                   __pa_4   0x005602    program     static X:\mandm\mandm\mandm8722.c
                   __pa_5   0x005608    program     static X:\mandm\mandm\mandm8722.c
                   __pa_6   0x005610    program     static X:\mandm\mandm\mandm8722.c
                   __pa_7   0x005656    program     static X:\mandm\mandm\mandm8722.c
                   __pa_8   0x005668    program     static X:\mandm\mandm\mandm8722.c
                   __pa_9   0x005672    program     static X:\mandm\mandm\mandm8722.c
                  __pa_10   0x00567e    program     static X:\mandm\mandm\mandm8722.c
                  __pa_11   0x0056d6    program     static X:\mandm\mandm\mandm8722.c
                  __pa_12   0x0056e8    program     static X:\mandm\mandm\mandm8722.c
                  __pa_13   0x00572e    program     static X:\mandm\mandm\mandm8722.c
                  __pa_14   0x00574e    program     static X:\mandm\mandm\mandm8722.c
                  __pa_15   0x005766    program     static X:\mandm\mandm\mandm8722.c
                  __pa_16   0x00577e    program     static X:\mandm\mandm\mandm8722.c
                  __pa_17   0x00579a    program     static X:\mandm\mandm\mandm8722.c
                  __pa_18   0x0057c4    program     static X:\mandm\mandm\mandm8722.c
             __tmplbl_110   0x0057ce    program     static                          
             __tmplbl_108   0x0057ce    program     static                          
             __tmplbl_100   0x0057ce    program     static                          
             __tmplbl_111   0x0057ce    program     static                          
             __tmplbl_132   0x0057ce    program     static                          
             __tmplbl_133   0x0057ce    program     static                          
             __tmplbl_135   0x0057ce    program     static                          
             __tmplbl_146   0x0057ce    program     static                          
              __tmplbl_86   0x0057ce    program     static                          
                  __pa_19   0x0057ce    program     static X:\mandm\mandm\mandm8722.c
              __tmplbl_95   0x0057ce    program     static                          
              __tmplbl_96   0x0057ce    program     static                          
              __tmplbl_99   0x0057ce    program     static                          
              __tmplbl_93   0x0057ce    program     static                          
              __tmplbl_92   0x0057ce    program     static                          
              __tmplbl_91   0x0057ce    program     static                          
              __tmplbl_90   0x0057ce    program     static                          
              __tmplbl_89   0x0057ce    program     static                          
              __tmplbl_88   0x0057ce    program     static                          
              __tmplbl_87   0x0057ce    program     static                          
                  __pa_20   0x0057d6    program     static X:\mandm\mandm\mandm8722.c
                  __pa_21   0x0057e0    program     static X:\mandm\mandm\mandm8722.c
                  __pa_22   0x0057fa    program     static X:\mandm\mandm\mandm8722.c
                  __pa_23   0x005804    program     static X:\mandm\mandm\mandm8722.c
                  __pa_24   0x00580e    program     static X:\mandm\mandm\mandm8722.c
                  __pa_25   0x005830    program     static X:\mandm\mandm\mandm8722.c
                  __pa_26   0x00583c    program     static X:\mandm\mandm\mandm8722.c
                  __pa_27   0x005846    program     static X:\mandm\mandm\mandm8722.c
                  __pa_28   0x005854    program     static X:\mandm\mandm\mandm8722.c
                  __pa_29   0x005860    program     static X:\mandm\mandm\mandm8722.c
                  __pa_30   0x005874    program     static X:\mandm\mandm\mandm8722.c
                  __pa_31   0x00588a    program     static X:\mandm\mandm\mandm8722.c
                  __pa_32   0x005894    program     static X:\mandm\mandm\mandm8722.c
                  __pa_33   0x00589e    program     static X:\mandm\mandm\mandm8722.c
                  __pa_34   0x0058b6    program     static X:\mandm\mandm\mandm8722.c
                  __pa_35   0x0058c8    program     static X:\mandm\mandm\mandm8722.c
                  __pa_36   0x0058d2    program     static X:\mandm\mandm\mandm8722.c
                  __pa_37   0x0058e0    program     static X:\mandm\mandm\mandm8722.c
                  __pa_38   0x0058ea    program     static X:\mandm\mandm\mandm8722.c
                  __pa_39   0x0058f6    program     static X:\mandm\mandm\mandm8722.c
                  __pa_40   0x005910    program     static X:\mandm\mandm\mandm8722.c
                  __pa_41   0x005922    program     static X:\mandm\mandm\mandm8722.c
                  __pa_42   0x00592a    program     static X:\mandm\mandm\mandm8722.c
                  __pa_43   0x005930    program     static X:\mandm\mandm\mandm8722.c
                  __pa_44   0x00593c    program     static X:\mandm\mandm\mandm8722.c
                  __pa_45   0x005948    program     static X:\mandm\mandm\mandm8722.c
                  __pa_46   0x005972    program     static X:\mandm\mandm\mandm8722.c
                  __pa_47   0x00597c    program     static X:\mandm\mandm\mandm8722.c
                  __pa_48   0x005986    program     static X:\mandm\mandm\mandm8722.c
                  __pa_49   0x005990    program     static X:\mandm\mandm\mandm8722.c
                  __pa_50   0x00599a    program     static X:\mandm\mandm\mandm8722.c
                  __pa_51   0x0059a8    program     static X:\mandm\mandm\mandm8722.c
                  __pa_52   0x0059b6    program     static X:\mandm\mandm\mandm8722.c
                  __pa_53   0x0059c2    program     static X:\mandm\mandm\mandm8722.c
                  __pa_54   0x0059ca    program     static X:\mandm\mandm\mandm8722.c
                  __pa_55   0x0059ee    program     static X:\mandm\mandm\mandm8722.c
                  __pa_56   0x005a12    program     static X:\mandm\mandm\mandm8722.c
                  __pa_57   0x005a22    program     static X:\mandm\mandm\mandm8722.c
                  __pa_58   0x005a2a    program     static X:\mandm\mandm\mandm8722.c
                  __pa_59   0x005a42    program     static X:\mandm\mandm\mandm8722.c
                  __pa_60   0x005a54    program     static X:\mandm\mandm\mandm8722.c
                  __pa_61   0x005a5c    program     static X:\mandm\mandm\mandm8722.c
                  __pa_62   0x005a68    program     static X:\mandm\mandm\mandm8722.c
                  __pa_63   0x005a6e    program     static X:\mandm\mandm\mandm8722.c
                  __pa_64   0x005a86    program     static X:\mandm\mandm\mandm8722.c
                  __pa_65   0x005a90    program     static X:\mandm\mandm\mandm8722.c
                  __pa_66   0x005aa6    program     static X:\mandm\mandm\mandm8722.c
                  __pa_67   0x005ab0    program     static X:\mandm\mandm\mandm8722.c
                  __pa_68   0x005abc    program     static X:\mandm\mandm\mandm8722.c
                  __pa_69   0x005ac4    program     static X:\mandm\mandm\mandm8722.c
                  __pa_70   0x005acc    program     static X:\mandm\mandm\mandm8722.c
                  __pa_71   0x005ada    program     static X:\mandm\mandm\mandm8722.c
                  __pa_72   0x005ae8    program     static X:\mandm\mandm\mandm8722.c
                  __pa_73   0x005af6    program     static X:\mandm\mandm\mandm8722.c
                  __pa_74   0x005b08    program     static X:\mandm\mandm\mandm8722.c
                  __pa_75   0x005b1a    program     static X:\mandm\mandm\mandm8722.c
                  __pa_76   0x005b2c    program     static X:\mandm\mandm\mandm8722.c
                  __pa_77   0x005b3e    program     static X:\mandm\mandm\mandm8722.c
                  __pa_78   0x005b50    program     static X:\mandm\mandm\mandm8722.c
                  __pa_79   0x005b62    program     static X:\mandm\mandm\mandm8722.c
                  __pa_80   0x005b6c    program     static X:\mandm\mandm\mandm8722.c
                  __pa_81   0x005b7e    program     static X:\mandm\mandm\mandm8722.c
                  __pa_82   0x005b90    program     static X:\mandm\mandm\mandm8722.c
                  __pa_83   0x005b9c    program     static X:\mandm\mandm\mandm8722.c
                  __pa_84   0x005ba2    program     static X:\mandm\mandm\mandm8722.c
                  __pa_85   0x005bac    program     static X:\mandm\mandm\mandm8722.c
                  __pa_86   0x005bb6    program     static X:\mandm\mandm\mandm8722.c
                  __pa_87   0x005bbe    program     static X:\mandm\mandm\mandm8722.c
                  __pa_88   0x005bc4    program     static X:\mandm\mandm\mandm8722.c
                  __pa_89   0x005bce    program     static X:\mandm\mandm\mandm8722.c
                  __pa_90   0x005bdc    program     static X:\mandm\mandm\mandm8722.c
                  __pa_91   0x005bea    program     static X:\mandm\mandm\mandm8722.c
                  __pa_92   0x005bf8    program     static X:\mandm\mandm\mandm8722.c
                  __pa_93   0x005c00    program     static X:\mandm\mandm\mandm8722.c
                  __pa_94   0x005c0e    program     static X:\mandm\mandm\mandm8722.c
                  __pa_95   0x005c18    program     static X:\mandm\mandm\mandm8722.c
                  __pa_96   0x005c22    program     static X:\mandm\mandm\mandm8722.c
                  __pa_97   0x005c2c    program     static X:\mandm\mandm\mandm8722.c
                  __pa_98   0x005c3a    program     static X:\mandm\mandm\mandm8722.c
                  __pa_99   0x005c66    program     static X:\mandm\mandm\mandm8722.c
                 __pa_100   0x005c82    program     static X:\mandm\mandm\mandm8722.c
                 __pa_101   0x005c96    program     static X:\mandm\mandm\mandm8722.c
                 __pa_102   0x005ca2    program     static X:\mandm\mandm\mandm8722.c
                 __pa_103   0x005cbe    program     static X:\mandm\mandm\mandm8722.c
                 __pa_104   0x005cda    program     static X:\mandm\mandm\mandm8722.c
                 __pa_105   0x005ce2    program     static X:\mandm\mandm\mandm8722.c
                 __pa_106   0x005d14    program     static X:\mandm\mandm\mandm8722.c
                 __pa_107   0x005d24    program     static X:\mandm\mandm\mandm8722.c
                 __pa_108   0x005d40    program     static X:\mandm\mandm\mandm8722.c
                 __pa_109   0x005d48    program     static X:\mandm\mandm\mandm8722.c
             __tmplbl_136   0x005d50    program     static                          
             __tmplbl_145   0x005d50    program     static                          
             __tmplbl_141   0x005d50    program     static                          
             __tmplbl_140   0x005d50    program     static                          
                 __pa_110   0x005d50    program     static X:\mandm\mandm\mandm8722.c
             __tmplbl_137   0x005d50    program     static                          
             __tmplbl_138   0x005d50    program     static                          
             __tmplbl_139   0x005d50    program     static                          
                 __pa_111   0x005d5a    program     static X:\mandm\mandm\mandm8722.c
                 __pa_112   0x005d64    program     static X:\mandm\mandm\mandm8722.c
                 __pa_113   0x005d72    program     static X:\mandm\mandm\mandm8722.c
                 __pa_114   0x005d7a    program     static X:\mandm\mandm\mandm8722.c
                 __pa_115   0x005d7e    program     static X:\mandm\mandm\mandm8722.c
             __tmplbl_104   0x005d86    program     static                          
             __tmplbl_103   0x005d86    program     static                          
                 __pa_116   0x005d86    program     static X:\mandm\mandm\mandm8722.c
                 __pa_117   0x005d92    program     static X:\mandm\mandm\mandm8722.c
                 __pa_118   0x005da4    program     static X:\mandm\mandm\mandm8722.c
                 __pa_119   0x005dbe    program     static X:\mandm\mandm\mandm8722.c
                 __pa_120   0x005dd2    program     static X:\mandm\mandm\mandm8722.c
                 __pa_121   0x005dd8    program     static X:\mandm\mandm\mandm8722.c
                 __pa_122   0x005de0    program     static X:\mandm\mandm\mandm8722.c
                 __pa_123   0x005de8    program     static X:\mandm\mandm\mandm8722.c
                 __pa_124   0x005df4    program     static X:\mandm\mandm\mandm8722.c
                 __pa_125   0x005e02    program     static X:\mandm\mandm\mandm8722.c
                 __pa_126   0x005e14    program     static X:\mandm\mandm\mandm8722.c
                 __pa_127   0x005e28    program     static X:\mandm\mandm\mandm8722.c
                 __pa_128   0x005e2e    program     static X:\mandm\mandm\mandm8722.c
                 __pa_129   0x005e38    program     static X:\mandm\mandm\mandm8722.c
                 __pa_130   0x005e3e    program     static X:\mandm\mandm\mandm8722.c
                 __pa_131   0x005e54    program     static X:\mandm\mandm\mandm8722.c
                 __pa_132   0x005e68    program     static X:\mandm\mandm\mandm8722.c
                 __pa_133   0x005e72    program     static X:\mandm\mandm\mandm8722.c
                 __pa_134   0x005e7c    program     static X:\mandm\mandm\mandm8722.c
                 __pa_135   0x005e84    program     static X:\mandm\mandm\mandm8722.c
                 __pa_136   0x005e8a    program     static X:\mandm\mandm\mandm8722.c
              __tmplbl_97   0x005e94    program     static                          
              __tmplbl_98   0x005e94    program     static                          
                 __pa_137   0x005e94    program     static X:\mandm\mandm\mandm8722.c
                 __pa_138   0x005ea6    program     static X:\mandm\mandm\mandm8722.c
                 __pa_139   0x005eb8    program     static X:\mandm\mandm\mandm8722.c
                 __pa_140   0x005ec4    program     static X:\mandm\mandm\mandm8722.c
                 __pa_141   0x005ed6    program     static X:\mandm\mandm\mandm8722.c
                 __pa_142   0x005ee4    program     static X:\mandm\mandm\mandm8722.c
                 __pa_143   0x005ef6    program     static X:\mandm\mandm\mandm8722.c
                 __pa_144   0x005f08    program     static X:\mandm\mandm\mandm8722.c
                 __pa_145   0x005f1a    program     static X:\mandm\mandm\mandm8722.c
                 __pa_146   0x005f24    program     static X:\mandm\mandm\mandm8722.c
             __tmplbl_155   0x005f2a    program     static                          
             __tmplbl_156   0x005f2a    program     static                          
             __tmplbl_157   0x005f2a    program     static                          
                 __pa_147   0x005f2a    program     static X:\mandm\mandm\mandm8722.c
                 __pa_148   0x005f34    program     static X:\mandm\mandm\mandm8722.c
                 __pa_149   0x005f40    program     static X:\mandm\mandm\mandm8722.c
                 __pa_150   0x005f4a    program     static X:\mandm\mandm\mandm8722.c
                 __pa_151   0x005f54    program     static X:\mandm\mandm\mandm8722.c
                 __pa_152   0x005f5e    program     static X:\mandm\mandm\mandm8722.c
                 __pa_153   0x005f68    program     static X:\mandm\mandm\mandm8722.c
                 __pa_154   0x005f74    program     static X:\mandm\mandm\mandm8722.c
                 __pa_155   0x005f7a    program     static X:\mandm\mandm\mandm8722.c
                 __pa_156   0x005f80    program     static X:\mandm\mandm\mandm8722.c
                 __pa_157   0x005f8e    program     static X:\mandm\mandm\mandm8722.c
                 __pa_158   0x005f9c    program     static X:\mandm\mandm\mandm8722.c
                 __pa_159   0x005fa6    program     static X:\mandm\mandm\mandm8722.c
                 __pa_160   0x005fb0    program     static X:\mandm\mandm\mandm8722.c
                 __pa_161   0x005fbe    program     static X:\mandm\mandm\mandm8722.c
                 __pa_162   0x005fc8    program     static X:\mandm\mandm\mandm8722.c
                 __pa_163   0x005fd4    program     static X:\mandm\mandm\mandm8722.c
                 __pa_164   0x005fe2    program     static X:\mandm\mandm\mandm8722.c
                 __pa_165   0x005fee    program     static X:\mandm\mandm\mandm8722.c
                 __pa_166   0x005ff8    program     static X:\mandm\mandm\mandm8722.c
                 __pa_167   0x006002    program     static X:\mandm\mandm\mandm8722.c
                 __pa_168   0x00600a    program     static X:\mandm\mandm\mandm8722.c
                 __pa_169   0x006014    program     static X:\mandm\mandm\mandm8722.c
                 __pa_170   0x00601c    program     static X:\mandm\mandm\mandm8722.c
                 __pa_171   0x006026    program     static X:\mandm\mandm\mandm8722.c
                 __pa_172   0x006030    program     static X:\mandm\mandm\mandm8722.c
                 __pa_173   0x00603a    program     static X:\mandm\mandm\mandm8722.c
                 __pa_174   0x006044    program     static X:\mandm\mandm\mandm8722.c
                 __pa_175   0x00604c    program     static X:\mandm\mandm\mandm8722.c
                 __pa_176   0x006054    program     static X:\mandm\mandm\mandm8722.c
                 __pa_177   0x00605c    program     static X:\mandm\mandm\mandm8722.c
                 __pa_178   0x006076    program     static X:\mandm\mandm\mandm8722.c
                 __pa_179   0x006098    program     static X:\mandm\mandm\mandm8722.c
                 __pa_180   0x00609e    program     static X:\mandm\mandm\mandm8722.c
                 __pa_181   0x0060b6    program     static X:\mandm\mandm\mandm8722.c
                 __pa_182   0x0060d2    program     static X:\mandm\mandm\mandm8722.c
                 __pa_183   0x0060ea    program     static X:\mandm\mandm\mandm8722.c
                 __pa_184   0x0060f4    program     static X:\mandm\mandm\mandm8722.c
                 __pa_185   0x0060fa    program     static X:\mandm\mandm\mandm8722.c
                 __pa_186   0x006114    program     static X:\mandm\mandm\mandm8722.c
                 __pa_187   0x00611c    program     static X:\mandm\mandm\mandm8722.c
                 __pa_188   0x006132    program     static X:\mandm\mandm\mandm8722.c
                 __pa_189   0x00613a    program     static X:\mandm\mandm\mandm8722.c
                 __pa_190   0x00614a    program     static X:\mandm\mandm\mandm8722.c
                 __pa_191   0x006152    program     static X:\mandm\mandm\mandm8722.c
                 __pa_192   0x006164    program     static X:\mandm\mandm\mandm8722.c
                 __pa_193   0x00616e    program     static X:\mandm\mandm\mandm8722.c
                 __pa_194   0x006178    program     static X:\mandm\mandm\mandm8722.c
             __tmplbl_101   0x006178    program     static                          
             __tmplbl_102   0x006178    program     static                          
                 __pa_195   0x006186    program     static X:\mandm\mandm\mandm8722.c
                 __pa_196   0x006194    program     static X:\mandm\mandm\mandm8722.c
                 __pa_197   0x0061a0    program     static X:\mandm\mandm\mandm8722.c
                 __pa_198   0x0061ac    program     static X:\mandm\mandm\mandm8722.c
                 __pa_199   0x0061b4    program     static X:\mandm\mandm\mandm8722.c
                 __pa_200   0x0061c0    program     static X:\mandm\mandm\mandm8722.c
                 __pa_201   0x0061c8    program     static X:\mandm\mandm\mandm8722.c
             __tmplbl_158   0x0061ce    program     static                          
                 __pa_202   0x0061ce    program     static X:\mandm\mandm\mandm8722.c
                 __pa_203   0x0061d6    program     static X:\mandm\mandm\mandm8722.c
                 __pa_204   0x0061de    program     static X:\mandm\mandm\mandm8722.c
                 __pa_205   0x0061e4    program     static X:\mandm\mandm\mandm8722.c
                 __pa_206   0x0061ee    program     static X:\mandm\mandm\mandm8722.c
                 __pa_207   0x0061f6    program     static X:\mandm\mandm\mandm8722.c
                 __pa_208   0x006206    program     static X:\mandm\mandm\mandm8722.c
                 __pa_209   0x006218    program     static X:\mandm\mandm\mandm8722.c
                 __pa_210   0x006220    program     static X:\mandm\mandm\mandm8722.c
                 ADC_zero   0x006228    program     extern X:\mandm\mandm\daq.c     
        ___while_lbl00001   0x006242    program     static                          
        ___while_lbl00002   0x00624c    program     static                          
       ___return_lbl00000   0x00624c    program     static                          
       Reset_Change_Count   0x00624e    program     extern X:\mandm\mandm\daq.c     
             Change_Count   0x00628e    program     extern X:\mandm\mandm\daq.c     
                 ADC_read   0x006350    program     extern X:\mandm\mandm\daq.c     
          ___for_lbl00014   0x006378    program     static                          
        ___while_lbl00012   0x006388    program     static                          
        ___while_lbl00013   0x006392    program     static                          
          ___for_lbl00010   0x0063b4    program     static                          
          ___for_lbl00011   0x0063be    program     static                          
               __tmplbl_8   0x0063ea    program     static                          
          ___for_lbl00019   0x006482    program     static                          
        ___while_lbl00017   0x006492    program     static                          
        ___while_lbl00018   0x00649c    program     static                          
          ___for_lbl00015   0x0064be    program     static                          
          ___for_lbl00016   0x0064c8    program     static                          
               __tmplbl_9   0x0064f4    program     static                          
          ___for_lbl00024   0x00658c    program     static                          
        ___while_lbl00022   0x00659c    program     static                          
        ___while_lbl00023   0x0065a6    program     static                          
          ___for_lbl00020   0x0065c8    program     static                          
          ___for_lbl00021   0x0065d2    program     static                          
              __tmplbl_10   0x006640    program     static                          
               __tmplbl_3   0x0066a8    program     static                          
           ___if_lbl00025   0x0066b4    program     static                          
           ___if_lbl00026   0x00679e    program     static                          
          ___for_lbl00031   0x0067c4    program     static                          
        ___while_lbl00029   0x0067d4    program     static                          
        ___while_lbl00030   0x0067de    program     static                          
          ___for_lbl00027   0x006800    program     static                          
          ___for_lbl00028   0x00680a    program     static                          
              __tmplbl_11   0x006878    program     static                          
               __tmplbl_4   0x0068e0    program     static                          
           ___if_lbl00032   0x0068ec    program     static                          
           ___if_lbl00033   0x0069d6    program     static                          
          ___for_lbl00038   0x0069fc    program     static                          
        ___while_lbl00036   0x006a0c    program     static                          
        ___while_lbl00037   0x006a16    program     static                          
          ___for_lbl00034   0x006a38    program     static                          
          ___for_lbl00035   0x006a42    program     static                          
              __tmplbl_12   0x006ab0    program     static                          
               __tmplbl_5   0x006b18    program     static                          
           ___if_lbl00039   0x006b24    program     static                          
           ___if_lbl00040   0x006c0e    program     static                          
          ___for_lbl00045   0x006c36    program     static                          
        ___while_lbl00043   0x006c46    program     static                          
        ___while_lbl00044   0x006c50    program     static                          
          ___for_lbl00041   0x006c72    program     static                          
          ___for_lbl00042   0x006c7c    program     static                          
          ___for_lbl00050   0x006cc6    program     static                          
        ___while_lbl00048   0x006cd6    program     static                          
        ___while_lbl00049   0x006ce0    program     static                          
          ___for_lbl00046   0x006d02    program     static                          
          ___for_lbl00047   0x006d0c    program     static                          
          ___for_lbl00055   0x006d56    program     static                          
        ___while_lbl00053   0x006d66    program     static                          
        ___while_lbl00054   0x006d70    program     static                          
          ___for_lbl00051   0x006d92    program     static                          
          ___for_lbl00052   0x006d9c    program     static                          
          ___for_lbl00066   0x006e5c    program     static                          
              __tmplbl_13   0x006f9c    program     static                          
           ___if_lbl00058   0x007070    program     static                          
               __tmplbl_7   0x0070bc    program     static                          
               __tmplbl_6   0x0070c2    program     static                          
           ___if_lbl00060   0x0070fc    program     static                          
           ___if_lbl00061   0x007164    program     static                          
              __tmplbl_14   0x007254    program     static                          
           ___if_lbl00062   0x0072d0    program     static                          
              __tmplbl_15   0x00734e    program     static                          
           ___if_lbl00063   0x0073ca    program     static                          
           ___if_lbl00064   0x007576    program     static                          
           ___if_lbl00065   0x0078ee    program     static                          
          ___for_lbl00056   0x007a82    program     static                          
          ___for_lbl00057   0x007a8e    program     static                          
           ___if_lbl00067   0x007a8e    program     static                          
       ___return_lbl00009   0x007a94    program     static                          
              zero_amploc   0x007a96    program     extern X:\mandm\mandm\daq.c     
                   __pa_0   0x007b82    program     static X:\mandm\mandm\daq.c     
                   __pa_1   0x007baa    program     static X:\mandm\mandm\daq.c     
                   __pa_2   0x007bce    program     static X:\mandm\mandm\daq.c     
                   __pa_3   0x007be0    program     static X:\mandm\mandm\daq.c     
                   __pa_4   0x007bfc    program     static X:\mandm\mandm\daq.c     
                   __pa_5   0x007c0a    program     static X:\mandm\mandm\daq.c     
                   __pa_6   0x007c18    program     static X:\mandm\mandm\daq.c     
                     spin   0x007c22    program     extern X:\mandm\mandm\mandm_msg.h
        menutext_template   0x007c9a    program     extern X:\mandm\mandm\mandm_msg.h
                 menutext   0x007d63    program     extern X:\mandm\mandm\mandm_msg.h
          menuselect_free   0x007e2a    program     extern X:\mandm\mandm\mandm_msg.h
         menuselect_track   0x007ef0    program     extern X:\mandm\mandm\mandm_msg.h
                 lowbatt0   0x007fb6    program     extern X:\mandm\mandm\mandm_msg.h
                    zero0   0x007ff9    program     extern X:\mandm\mandm\mandm_msg.h
                    zero1   0x008023    program     extern X:\mandm\mandm\mandm_msg.h
                    zero2   0x00805f    program     extern X:\mandm\mandm\mandm_msg.h
                    zero3   0x008093    program     extern X:\mandm\mandm\mandm_msg.h
                    adcg0   0x0080cd    program     extern X:\mandm\mandm\mandm_msg.h
                    adcg1   0x00810d    program     extern X:\mandm\mandm\mandm_msg.h
                    adcg2   0x008138    program     extern X:\mandm\mandm\mandm_msg.h
                    adcg3   0x00816b    program     extern X:\mandm\mandm\mandm_msg.h
                    adcg4   0x0081d7    program     extern X:\mandm\mandm\mandm_msg.h
                   tweak0   0x00820e    program     extern X:\mandm\mandm\mandm_msg.h
                   tweak1   0x0082ab    program     extern X:\mandm\mandm\mandm_msg.h
                   tweak2   0x0082d4    program     extern X:\mandm\mandm\mandm_msg.h
                   tweak3   0x0082f8    program     extern X:\mandm\mandm\mandm_msg.h
                   tweak4   0x008377    program     extern X:\mandm\mandm\mandm_msg.h
                   tweak5   0x0083a7    program     extern X:\mandm\mandm\mandm_msg.h
                 tweak_t1   0x00842d    program     extern X:\mandm\mandm\mandm_msg.h
                 tweak_t2   0x008432    program     extern X:\mandm\mandm\mandm_msg.h
                 tweak_t3   0x008436    program     extern X:\mandm\mandm\mandm_msg.h
                 tweak_t4   0x00843a    program     extern X:\mandm\mandm\mandm_msg.h
                 tweak_tw   0x00843f    program     extern X:\mandm\mandm\mandm_msg.h
                   hello0   0x00844f    program     extern X:\mandm\mandm\mandm_msg.h
                   hello1   0x00849c    program     extern X:\mandm\mandm\mandm_msg.h
                    hold0   0x0084a9    program     extern X:\mandm\mandm\mandm_msg.h
                    hold1   0x008507    program     extern X:\mandm\mandm\mandm_msg.h
                    sync0   0x008540    program     extern X:\mandm\mandm\mandm_msg.h
                    sync1   0x008574    program     extern X:\mandm\mandm\mandm_msg.h
                    sync2   0x008592    program     extern X:\mandm\mandm\mandm_msg.h
                 keycmds0   0x0085b0    program     extern X:\mandm\mandm\mandm_msg.h
                 keycmds1   0x008651    program     extern X:\mandm\mandm\mandm_msg.h
              battheader0   0x0086d8    program     extern X:\mandm\mandm\mandm_msg.h
              battheader1   0x00874c    program     extern X:\mandm\mandm\mandm_msg.h
             modelheader0   0x0087d6    program     extern X:\mandm\mandm\mandm_msg.h
             modelheader1   0x0087f5    program     extern X:\mandm\mandm\mandm_msg.h
              battbuffer0   0x00880d    program     extern X:\mandm\mandm\mandm_msg.h
                  sddump0   0x008835    program     extern X:\mandm\mandm\mandm_msg.h
                  sddump1   0x008863    program     extern X:\mandm\mandm\mandm_msg.h
                  sddump2   0x008899    program     extern X:\mandm\mandm\mandm_msg.h
                  sddump3   0x0088b0    program     extern X:\mandm\mandm\mandm_msg.h
                  divert0   0x0088dd    program     extern X:\mandm\mandm\mandm_msg.h
                  divert1   0x0088fd    program     extern X:\mandm\mandm\mandm_msg.h
                 divert99   0x00891e    program     extern X:\mandm\mandm\mandm_msg.h
                 almcode0   0x00891f    program     extern X:\mandm\mandm\mandm_msg.h
                 almcode1   0x00893f    program     extern X:\mandm\mandm\mandm_msg.h
                 almcode2   0x00896f    program     extern X:\mandm\mandm\mandm_msg.h
                 almcode3   0x008992    program     extern X:\mandm\mandm\mandm_msg.h
                 almcode4   0x0089b5    program     extern X:\mandm\mandm\mandm_msg.h
                 almcode5   0x0089e6    program     extern X:\mandm\mandm\mandm_msg.h
                 almcode6   0x008a1a    program     extern X:\mandm\mandm\mandm_msg.h
                 almcode7   0x008a4f    program     extern X:\mandm\mandm\mandm_msg.h
                 almcode8   0x008a88    program     extern X:\mandm\mandm\mandm_msg.h
                 almcode9   0x008ab6    program     extern X:\mandm\mandm\mandm_msg.h
                almcode10   0x008ae6    program     extern X:\mandm\mandm\mandm_msg.h
                almcode11   0x008b27    program     extern X:\mandm\mandm\mandm_msg.h
                almcode12   0x008b4d    program     extern X:\mandm\mandm\mandm_msg.h
                almcode13   0x008b73    program     extern X:\mandm\mandm\mandm_msg.h
                almcode14   0x008b9f    program     extern X:\mandm\mandm\mandm_msg.h
                almcode15   0x008bb7    program     extern X:\mandm\mandm\mandm_msg.h
                almcode16   0x008bce    program     extern X:\mandm\mandm\mandm_msg.h
                almcode17   0x008bfb    program     extern X:\mandm\mandm\mandm_msg.h
                almcode99   0x008c1a    program     extern X:\mandm\mandm\mandm_msg.h
                chrgcode0   0x008c1b    program     extern X:\mandm\mandm\mandm_msg.h
                chrgcode1   0x008c4c    program     extern X:\mandm\mandm\mandm_msg.h
                chrgcode2   0x008c82    program     extern X:\mandm\mandm\mandm_msg.h
                chrgcode3   0x008cae    program     extern X:\mandm\mandm\mandm_msg.h
                chrgcode4   0x008cdf    program     extern X:\mandm\mandm\mandm_msg.h
                chrgcode5   0x008d17    program     extern X:\mandm\mandm\mandm_msg.h
                chrgcode6   0x008d2a    program     extern X:\mandm\mandm\mandm_msg.h
                chrgcode7   0x008d4a    program     extern X:\mandm\mandm\mandm_msg.h
                chrgcode8   0x008d77    program     extern X:\mandm\mandm\mandm_msg.h
                chrgcode9   0x008da1    program     extern X:\mandm\mandm\mandm_msg.h
               chrgcode10   0x008dc6    program     extern X:\mandm\mandm\mandm_msg.h
               chrgcode11   0x008df3    program     extern X:\mandm\mandm\mandm_msg.h
               chrgcode12   0x008e1e    program     extern X:\mandm\mandm\mandm_msg.h
               chrgcode13   0x008e4c    program     extern X:\mandm\mandm\mandm_msg.h
               chrgcode14   0x008e79    program     extern X:\mandm\mandm\mandm_msg.h
               chrgcode15   0x008ead    program     extern X:\mandm\mandm\mandm_msg.h
               chrgcode16   0x008ed7    program     extern X:\mandm\mandm\mandm_msg.h
                 charger0   0x008f01    program     extern X:\mandm\mandm\mandm_msg.h
                 charger1   0x008f38    program     extern X:\mandm\mandm\mandm_msg.h
                 charger2   0x008f72    program     extern X:\mandm\mandm\mandm_msg.h
                 charger3   0x008fb0    program     extern X:\mandm\mandm\mandm_msg.h
                 charger4   0x008fcf    program     extern X:\mandm\mandm\mandm_msg.h
                charger99   0x008fef    program     extern X:\mandm\mandm\mandm_msg.h
               __string_2   0x008ff0    program     static X:\mandm\mandm\daq.c     
               __string_1   0x00901f    program     static X:\mandm\mandm\daq.c     
               __string_0   0x00904e    program     static X:\mandm\mandm\daq.c     
             __string_239   0x00907d    program     static X:\mandm\mandm\mandm8722.c
             __string_238   0x00909b    program     static X:\mandm\mandm\mandm8722.c
             __string_237   0x0090bd    program     static X:\mandm\mandm\mandm8722.c
             __string_236   0x0090d6    program     static X:\mandm\mandm\mandm8722.c
             __string_235   0x0090ec    program     static X:\mandm\mandm\mandm8722.c
             __string_234   0x009105    program     static X:\mandm\mandm\mandm8722.c
             __string_233   0x00911e    program     static X:\mandm\mandm\mandm8722.c
             __string_232   0x00913a    program     static X:\mandm\mandm\mandm8722.c
             __string_231   0x009153    program     static X:\mandm\mandm\mandm8722.c
             __string_230   0x009173    program     static X:\mandm\mandm\mandm8722.c
             __string_229   0x009196    program     static X:\mandm\mandm\mandm8722.c
             __string_228   0x0091b6    program     static X:\mandm\mandm\mandm8722.c
             __string_227   0x0091d3    program     static X:\mandm\mandm\mandm8722.c
             __string_226   0x0091ec    program     static X:\mandm\mandm\mandm8722.c
             __string_225   0x00920b    program     static X:\mandm\mandm\mandm8722.c
             __string_224   0x009223    program     static X:\mandm\mandm\mandm8722.c
             __string_223   0x00924c    program     static X:\mandm\mandm\mandm8722.c
             __string_222   0x009275    program     static X:\mandm\mandm\mandm8722.c
             __string_221   0x00929f    program     static X:\mandm\mandm\mandm8722.c
             __string_220   0x0092c4    program     static X:\mandm\mandm\mandm8722.c
             __string_219   0x0092d9    program     static X:\mandm\mandm\mandm8722.c
             __string_218   0x009317    program     static X:\mandm\mandm\mandm8722.c
             __string_217   0x00933a    program     static X:\mandm\mandm\mandm8722.c
             __string_216   0x00936f    program     static X:\mandm\mandm\mandm8722.c
             __string_215   0x00939d    program     static X:\mandm\mandm\mandm8722.c
             __string_214   0x0093b0    program     static X:\mandm\mandm\mandm8722.c
             __string_213   0x0093c3    program     static X:\mandm\mandm\mandm8722.c
             __string_212   0x0093d6    program     static X:\mandm\mandm\mandm8722.c
             __string_211   0x0093ec    program     static X:\mandm\mandm\mandm8722.c
             __string_210   0x00940e    program     static X:\mandm\mandm\mandm8722.c
             __string_209   0x009426    program     static X:\mandm\mandm\mandm8722.c
             __string_208   0x00944e    program     static X:\mandm\mandm\mandm8722.c
             __string_207   0x009476    program     static X:\mandm\mandm\mandm8722.c
             __string_206   0x00949e    program     static X:\mandm\mandm\mandm8722.c
             __string_205   0x0094b5    program     static X:\mandm\mandm\mandm8722.c
             __string_204   0x0094da    program     static X:\mandm\mandm\mandm8722.c
             __string_203   0x0094f7    program     static X:\mandm\mandm\mandm8722.c
             __string_202   0x00951d    program     static X:\mandm\mandm\mandm8722.c
             __string_201   0x00953b    program     static X:\mandm\mandm\mandm8722.c
             __string_200   0x009557    program     static X:\mandm\mandm\mandm8722.c
             __string_199   0x00956e    program     static X:\mandm\mandm\mandm8722.c
             __string_198   0x009585    program     static X:\mandm\mandm\mandm8722.c
             __string_197   0x0095a5    program     static X:\mandm\mandm\mandm8722.c
             __string_196   0x0095d0    program     static X:\mandm\mandm\mandm8722.c
             __string_195   0x0095eb    program     static X:\mandm\mandm\mandm8722.c
             __string_194   0x009618    program     static X:\mandm\mandm\mandm8722.c
             __string_193   0x009640    program     static X:\mandm\mandm\mandm8722.c
             __string_192   0x00965f    program     static X:\mandm\mandm\mandm8722.c
             __string_191   0x00968a    program     static X:\mandm\mandm\mandm8722.c
             __string_190   0x0096a6    program     static X:\mandm\mandm\mandm8722.c
             __string_189   0x0096d4    program     static X:\mandm\mandm\mandm8722.c
             __string_188   0x0096f8    program     static X:\mandm\mandm\mandm8722.c
             __string_187   0x009716    program     static X:\mandm\mandm\mandm8722.c
             __string_186   0x009735    program     static X:\mandm\mandm\mandm8722.c
             __string_185   0x009754    program     static X:\mandm\mandm\mandm8722.c
             __string_184   0x009773    program     static X:\mandm\mandm\mandm8722.c
             __string_183   0x009789    program     static X:\mandm\mandm\mandm8722.c
             __string_182   0x00979f    program     static X:\mandm\mandm\mandm8722.c
             __string_181   0x0097b5    program     static X:\mandm\mandm\mandm8722.c
             __string_180   0x0097d6    program     static X:\mandm\mandm\mandm8722.c
             __string_179   0x0097fd    program     static X:\mandm\mandm\mandm8722.c
             __string_178   0x00981f    program     static X:\mandm\mandm\mandm8722.c
             __string_177   0x009848    program     static X:\mandm\mandm\mandm8722.c
             __string_176   0x00985d    program     static X:\mandm\mandm\mandm8722.c
             __string_175   0x009875    program     static X:\mandm\mandm\mandm8722.c
             __string_174   0x00989c    program     static X:\mandm\mandm\mandm8722.c
             __string_173   0x0098c5    program     static X:\mandm\mandm\mandm8722.c
             __string_172   0x0098ee    program     static X:\mandm\mandm\mandm8722.c
             __string_171   0x009917    program     static X:\mandm\mandm\mandm8722.c
             __string_170   0x00993e    program     static X:\mandm\mandm\mandm8722.c
             __string_169   0x009965    program     static X:\mandm\mandm\mandm8722.c
             __string_168   0x00998c    program     static X:\mandm\mandm\mandm8722.c
             __string_167   0x0099a9    program     static X:\mandm\mandm\mandm8722.c
             __string_166   0x0099ca    program     static X:\mandm\mandm\mandm8722.c
             __string_165   0x0099f3    program     static X:\mandm\mandm\mandm8722.c
             __string_164   0x009a09    program     static X:\mandm\mandm\mandm8722.c
             __string_163   0x009a1f    program     static X:\mandm\mandm\mandm8722.c
             __string_162   0x009a35    program     static X:\mandm\mandm\mandm8722.c
             __string_161   0x009a4b    program     static X:\mandm\mandm\mandm8722.c
             __string_160   0x009a70    program     static X:\mandm\mandm\mandm8722.c
             __string_159   0x009a83    program     static X:\mandm\mandm\mandm8722.c
             __string_158   0x009a9a    program     static X:\mandm\mandm\mandm8722.c
             __string_157   0x009ab1    program     static X:\mandm\mandm\mandm8722.c
             __string_156   0x009ac9    program     static X:\mandm\mandm\mandm8722.c
             __string_155   0x009ad8    program     static X:\mandm\mandm\mandm8722.c
             __string_154   0x009af0    program     static X:\mandm\mandm\mandm8722.c
             __string_153   0x009b0b    program     static X:\mandm\mandm\mandm8722.c
             __string_152   0x009b1a    program     static X:\mandm\mandm\mandm8722.c
             __string_151   0x009b35    program     static X:\mandm\mandm\mandm8722.c
             __string_150   0x009b47    program     static X:\mandm\mandm\mandm8722.c
             __string_149   0x009b9a    program     static X:\mandm\mandm\mandm8722.c
             __string_148   0x009bbc    program     static X:\mandm\mandm\mandm8722.c
             __string_147   0x009bfb    program     static X:\mandm\mandm\mandm8722.c
             __string_146   0x009c4f    program     static X:\mandm\mandm\mandm8722.c
             __string_145   0x009c6f    program     static X:\mandm\mandm\mandm8722.c
             __string_144   0x009c8b    program     static X:\mandm\mandm\mandm8722.c
             __string_143   0x009ce1    program     static X:\mandm\mandm\mandm8722.c
             __string_142   0x009d30    program     static X:\mandm\mandm\mandm8722.c
             __string_141   0x009d47    program     static X:\mandm\mandm\mandm8722.c
             __string_140   0x009d5d    program     static X:\mandm\mandm\mandm8722.c
             __string_139   0x009d82    program     static X:\mandm\mandm\mandm8722.c
             __string_138   0x009dad    program     static X:\mandm\mandm\mandm8722.c
             __string_137   0x009dc8    program     static X:\mandm\mandm\mandm8722.c
             __string_136   0x009e00    program     static X:\mandm\mandm\mandm8722.c
             __string_135   0x009e3e    program     static X:\mandm\mandm\mandm8722.c
             __string_134   0x009e61    program     static X:\mandm\mandm\mandm8722.c
             __string_133   0x009e85    program     static X:\mandm\mandm\mandm8722.c
             __string_132   0x009e9e    program     static X:\mandm\mandm\mandm8722.c
             __string_131   0x009eb8    program     static X:\mandm\mandm\mandm8722.c
             __string_130   0x009ed8    program     static X:\mandm\mandm\mandm8722.c
             __string_129   0x009ef2    program     static X:\mandm\mandm\mandm8722.c
             __string_128   0x009f0c    program     static X:\mandm\mandm\mandm8722.c
             __string_127   0x009f1e    program     static X:\mandm\mandm\mandm8722.c
             __string_126   0x009f28    program     static X:\mandm\mandm\mandm8722.c
             __string_125   0x009f35    program     static X:\mandm\mandm\mandm8722.c
             __string_124   0x009f3b    program     static X:\mandm\mandm\mandm8722.c
             __string_123   0x009f43    program     static X:\mandm\mandm\mandm8722.c
             __string_122   0x009f4b    program     static X:\mandm\mandm\mandm8722.c
             __string_121   0x009f57    program     static X:\mandm\mandm\mandm8722.c
             __string_120   0x009f69    program     static X:\mandm\mandm\mandm8722.c
             __string_119   0x009f8a    program     static X:\mandm\mandm\mandm8722.c
             __string_118   0x00a002    program     static X:\mandm\mandm\mandm8722.c
             __string_117   0x00a061    program     static X:\mandm\mandm\mandm8722.c
             __string_116   0x00a120    program     static X:\mandm\mandm\mandm8722.c
             __string_115   0x00a1af    program     static X:\mandm\mandm\mandm8722.c
             __string_114   0x00a1c5    program     static X:\mandm\mandm\mandm8722.c
             __string_113   0x00a1c7    program     static X:\mandm\mandm\mandm8722.c
             __string_112   0x00a1cc    program     static X:\mandm\mandm\mandm8722.c
             __string_111   0x00a1cf    program     static X:\mandm\mandm\mandm8722.c
             __string_110   0x00a1d6    program     static X:\mandm\mandm\mandm8722.c
             __string_109   0x00a1ef    program     static X:\mandm\mandm\mandm8722.c
             __string_108   0x00a1f8    program     static X:\mandm\mandm\mandm8722.c
               __string_8   0x00a204    program     static X:\mandm\mandm\config.c  
               __string_7   0x00a228    program     static X:\mandm\mandm\config.c  
               __string_6   0x00a24c    program     static X:\mandm\mandm\config.c  
               __string_5   0x00a263    program     static X:\mandm\mandm\config.c  
               __string_4   0x00a285    program     static X:\mandm\mandm\config.c  
               __string_3   0x00a2ac    program     static X:\mandm\mandm\config.c  
               __string_2   0x00a2d2    program     static X:\mandm\mandm\config.c  
               __string_1   0x00a2f7    program     static X:\mandm\mandm\config.c  
               __string_0   0x00a314    program     static X:\mandm\mandm\config.c  
             tick_handler   0x00a318    program     extern X:\mandm\mandm\mandm_vector.c
           ___if_lbl00001   0x00a378    program     static                          
         ___else_lbl00003   0x00a3a6    program     static                          
           ___if_lbl00002   0x00a3b6    program     static                          
           ___if_lbl00004   0x00a3c0    program     static                          
           ___if_lbl00005   0x00a3ca    program     static                          
           ___if_lbl00007   0x00a3d4    program     static                          
           ___if_lbl00006   0x00a3d4    program     static                          
         ___else_lbl00009   0x00a462    program     static                          
           ___if_lbl00008   0x00a47e    program     static                          
         ___else_lbl00011   0x00a480    program     static                          
           ___if_lbl00010   0x00a48e    program     static                          
           ___if_lbl00012   0x00a48e    program     static                          
         ___else_lbl00014   0x00a4f0    program     static                          
           ___if_lbl00013   0x00a50c    program     static                          
         ___else_lbl00016   0x00a50e    program     static                          
           ___if_lbl00017   0x00a51c    program     static                          
           ___if_lbl00015   0x00a51c    program     static                          
           ___if_lbl00018   0x00a520    program     static                          
               __tmplbl_1   0x00a526    program     static                          
               __tmplbl_0   0x00a52c    program     static                          
           ___if_lbl00020   0x00a52e    program     static                          
           ___if_lbl00021   0x00a542    program     static                          
               __tmplbl_3   0x00a548    program     static                          
               __tmplbl_2   0x00a54e    program     static                          
           ___if_lbl00023   0x00a55c    program     static                          
           ___if_lbl00024   0x00a58a    program     static                          
               __tmplbl_4   0x00a5bc    program     static                          
           ___if_lbl00025   0x00a5be    program     static                          
         ___else_lbl00027   0x00a5ca    program     static                          
           ___if_lbl00026   0x00a5d2    program     static                          
           ___if_lbl00028   0x00a5fe    program     static                          
       ___case_0_lbl00030   0x00a610    program     static                          
       ___case_1_lbl00031   0x00a616    program     static                          
       ___case_2_lbl00032   0x00a61e    program     static                          
      ___default_lbl00033   0x00a626    program     static                          
           ___if_lbl00035   0x00a62c    program     static                          
           ___if_lbl00034   0x00a62c    program     static                          
   ___switchexit_lbl00029   0x00a62c    program     static                          
           ___if_lbl00036   0x00a632    program     static                          
           ___if_lbl00037   0x00a638    program     static                          
           ___if_lbl00038   0x00a63e    program     static                          
           ___if_lbl00039   0x00a644    program     static                          
           ___if_lbl00040   0x00a644    program     static                          
           ___if_lbl00041   0x00a664    program     static                          
           ___if_lbl00042   0x00a668    program     static                          
           ___if_lbl00043   0x00a680    program     static                          
           ___if_lbl00044   0x00a696    program     static                          
           ___if_lbl00045   0x00a6a4    program     static                          
           ___if_lbl00046   0x00a6b2    program     static                          
           ___if_lbl00047   0x00a6c0    program     static                          
           ___if_lbl00048   0x00a6ce    program     static                          
           ___if_lbl00049   0x00a6dc    program     static                          
               __tmplbl_6   0x00a6e4    program     static                          
               __tmplbl_5   0x00a6ec    program     static                          
           ___if_lbl00051   0x00a6f2    program     static                          
               __tmplbl_8   0x00a6fa    program     static                          
               __tmplbl_7   0x00a702    program     static                          
           ___if_lbl00053   0x00a708    program     static                          
              __tmplbl_10   0x00a710    program     static                          
               __tmplbl_9   0x00a718    program     static                          
           ___if_lbl00055   0x00a71c    program     static                          
        ___while_lbl00056   0x00a724    program     static                          
           ___if_lbl00058   0x00a726    program     static                          
        ___while_lbl00057   0x00a726    program     static                          
              __tmplbl_12   0x00a72e    program     static                          
              __tmplbl_11   0x00a734    program     static                          
           ___if_lbl00060   0x00a738    program     static                          
           ___if_lbl00061   0x00a738    program     static                          
              __tmplbl_14   0x00a750    program     static                          
              __tmplbl_13   0x00a756    program     static                          
           ___if_lbl00063   0x00a75c    program     static                          
           ___if_lbl00064   0x00a760    program     static                          
              __tmplbl_16   0x00a778    program     static                          
              __tmplbl_15   0x00a77e    program     static                          
           ___if_lbl00066   0x00a784    program     static                          
           ___if_lbl00067   0x00a788    program     static                          
              __tmplbl_18   0x00a7a0    program     static                          
              __tmplbl_17   0x00a7a6    program     static                          
           ___if_lbl00069   0x00a7c2    program     static                          
         ___else_lbl00071   0x00a7c4    program     static                          
           ___if_lbl00070   0x00a7cc    program     static                          
           ___if_lbl00073   0x00a7ea    program     static                          
           ___if_lbl00072   0x00a7ea    program     static                          
           ___if_lbl00074   0x00a7ee    program     static                          
              __tmplbl_20   0x00a7f4    program     static                          
              __tmplbl_19   0x00a7fa    program     static                          
           ___if_lbl00076   0x00a80c    program     static                          
              __tmplbl_21   0x00a850    program     static                          
              __tmplbl_22   0x00a87a    program     static                          
           ___if_lbl00077   0x00a888    program     static                          
           ___if_lbl00078   0x00a888    program     static                          
         ___else_lbl00080   0x00a89e    program     static                          
           ___if_lbl00079   0x00a8a2    program     static                          
         ___else_lbl00082   0x00a8ac    program     static                          
           ___if_lbl00081   0x00a8b0    program     static                          
         ___else_lbl00084   0x00a8ba    program     static                          
           ___if_lbl00083   0x00a8be    program     static                          
         ___else_lbl00086   0x00a8f2    program     static                          
           ___if_lbl00085   0x00a922    program     static                          
         ___else_lbl00088   0x00a958    program     static                          
           ___if_lbl00087   0x00a98a    program     static                          
         ___else_lbl00094   0x00a9c0    program     static                          
              __tmplbl_23   0x00aa08    program     static                          
              __tmplbl_24   0x00aa64    program     static                          
           ___if_lbl00089   0x00aa72    program     static                          
              __tmplbl_25   0x00aa8c    program     static                          
           ___if_lbl00090   0x00aa9a    program     static                          
           ___if_lbl00091   0x00aaca    program     static                          
              __tmplbl_26   0x00ab16    program     static                          
           ___if_lbl00092   0x00ab1e    program     static                          
           ___if_lbl00093   0x00ab20    program     static                          
           ___if_lbl00095   0x00ab80    program     static                          
           ___if_lbl00096   0x00abe8    program     static                          
           ___if_lbl00097   0x00ac48    program     static                          
           ___if_lbl00098   0x00acb2    program     static                          
         ___else_lbl00100   0x00ad42    program     static                          
           ___if_lbl00099   0x00ad98    program     static                          
              __tmplbl_28   0x00adde    program     static                          
              __tmplbl_27   0x00ae1a    program     static                          
           ___if_lbl00102   0x00ae42    program     static                          
         ___else_lbl00104   0x00ae44    program     static                          
           ___if_lbl00103   0x00ae64    program     static                          
              __tmplbl_32   0x00ae76    program     static                          
              __tmplbl_31   0x00ae7c    program     static                          
              __tmplbl_30   0x00ae82    program     static                          
              __tmplbl_29   0x00aea4    program     static                          
         ___else_lbl00112   0x00aea8    program     static                          
         ___else_lbl00110   0x00aece    program     static                          
           ___if_lbl00111   0x00aef2    program     static                          
           ___if_lbl00109   0x00aef2    program     static                          
           ___if_lbl00108   0x00aef2    program     static                          
           ___if_lbl00113   0x00aef2    program     static                          
           ___if_lbl00114   0x00aef2    program     static                          
              __tmplbl_33   0x00af2c    program     static                          
           ___if_lbl00115   0x00af44    program     static                          
           ___if_lbl00116   0x00af44    program     static                          
           ___if_lbl00117   0x00af60    program     static                          
           ___if_lbl00118   0x00af6e    program     static                          
              __tmplbl_35   0x00af74    program     static                          
              __tmplbl_34   0x00af7a    program     static                          
           ___if_lbl00120   0x00af8a    program     static                          
           ___if_lbl00121   0x00af8a    program     static                          
       ___return_lbl00000   0x00af8a    program     static                          
             work_handler   0x00afc6    program     extern X:\mandm\mandm\mandm_vector.c
                idle_loop   0x00afe8    program     extern X:\mandm\mandm\mandm_vector.c
       ___return_lbl00123   0x00aff4    program     static                          
                   P1wait   0x00aff6    program     extern X:\mandm\mandm\mandm_vector.c
                   P2wait   0x00affc    program     extern X:\mandm\mandm\mandm_vector.c
        Clear_All_Buttons   0x00b002    program     extern X:\mandm\mandm\mandm_vector.c
             buzzer_ticks   0x00b010    program     extern X:\mandm\mandm\mandm_vector.c
             voice1_ticks   0x00b01c    program     extern X:\mandm\mandm\mandm_vector.c
             voice2_ticks   0x00b02a    program     extern X:\mandm\mandm\mandm_vector.c
         slow_timer_start   0x00b038    program     extern X:\mandm\mandm\mandm_vector.c
                   __pa_0   0x00b046    program     static X:\mandm\mandm\mandm_vector.c
                   __pa_1   0x00b050    program     static X:\mandm\mandm\mandm_vector.c
            s_put_n_chars   0x00b058    program     static C:\Program Files\Microchip\mplabc18\v3.40\src\traditional\stdclib\vfprintf.c
                 vfprintf   0x00b084    program     extern C:\Program Files\Microchip\mplabc18\v3.40\src\traditional\stdclib\vfprintf.c
              __tmplbl_85   0x00b0ae    program     static                          
              __tmplbl_44   0x00b95c    program     static                          
              __tmplbl_43   0x00b976    program     static                          
                   __pa_0   0x00b998    program     static C:\Program Files\Microchip\mplabc18\v3.40\src\traditional\stdclib\vfprintf.c
                   __pa_1   0x00b9a0    program     static C:\Program Files\Microchip\mplabc18\v3.40\src\traditional\stdclib\vfprintf.c
                   __pa_2   0x00b9aa    program     static C:\Program Files\Microchip\mplabc18\v3.40\src\traditional\stdclib\vfprintf.c
                   __pa_3   0x00b9b4    program     static C:\Program Files\Microchip\mplabc18\v3.40\src\traditional\stdclib\vfprintf.c
                   __pa_4   0x00b9cc    program     static C:\Program Files\Microchip\mplabc18\v3.40\src\traditional\stdclib\vfprintf.c
                   __pa_5   0x00b9e0    program     static C:\Program Files\Microchip\mplabc18\v3.40\src\traditional\stdclib\vfprintf.c
                   __pa_6   0x00b9fc    program     static C:\Program Files\Microchip\mplabc18\v3.40\src\traditional\stdclib\vfprintf.c
                   __pa_7   0x00ba06    program     static C:\Program Files\Microchip\mplabc18\v3.40\src\traditional\stdclib\vfprintf.c
                   __pa_8   0x00ba12    program     static C:\Program Files\Microchip\mplabc18\v3.40\src\traditional\stdclib\vfprintf.c
                   __pa_9   0x00ba34    program     static C:\Program Files\Microchip\mplabc18\v3.40\src\traditional\stdclib\vfprintf.c
                  __pa_10   0x00ba54    program     static C:\Program Files\Microchip\mplabc18\v3.40\src\traditional\stdclib\vfprintf.c
                  __pa_11   0x00ba62    program     static C:\Program Files\Microchip\mplabc18\v3.40\src\traditional\stdclib\vfprintf.c
                  __pa_12   0x00ba78    program     static C:\Program Files\Microchip\mplabc18\v3.40\src\traditional\stdclib\vfprintf.c
                  __pa_13   0x00ba92    program     static C:\Program Files\Microchip\mplabc18\v3.40\src\traditional\stdclib\vfprintf.c
                  __pa_14   0x00baaa    program     static C:\Program Files\Microchip\mplabc18\v3.40\src\traditional\stdclib\vfprintf.c
                  __pa_15   0x00baba    program     static C:\Program Files\Microchip\mplabc18\v3.40\src\traditional\stdclib\vfprintf.c
                  __pa_16   0x00bad0    program     static C:\Program Files\Microchip\mplabc18\v3.40\src\traditional\stdclib\vfprintf.c
                  __pa_17   0x00bae2    program     static C:\Program Files\Microchip\mplabc18\v3.40\src\traditional\stdclib\vfprintf.c
                  __pa_18   0x00baf4    program     static C:\Program Files\Microchip\mplabc18\v3.40\src\traditional\stdclib\vfprintf.c
                  __pa_19   0x00bafe    program     static C:\Program Files\Microchip\mplabc18\v3.40\src\traditional\stdclib\vfprintf.c
                  __pa_20   0x00bb0e    program     static C:\Program Files\Microchip\mplabc18\v3.40\src\traditional\stdclib\vfprintf.c
                  __pa_21   0x00bb1e    program     static C:\Program Files\Microchip\mplabc18\v3.40\src\traditional\stdclib\vfprintf.c
                  __pa_22   0x00bb2e    program     static C:\Program Files\Microchip\mplabc18\v3.40\src\traditional\stdclib\vfprintf.c
              __tmplbl_42   0x00bb2e    program     static                          
                  __pa_23   0x00bb3a    program     static C:\Program Files\Microchip\mplabc18\v3.40\src\traditional\stdclib\vfprintf.c
                  __pa_24   0x00bb48    program     static C:\Program Files\Microchip\mplabc18\v3.40\src\traditional\stdclib\vfprintf.c
                  __pa_25   0x00bb50    program     static C:\Program Files\Microchip\mplabc18\v3.40\src\traditional\stdclib\vfprintf.c
                  __pa_26   0x00bb5a    program     static C:\Program Files\Microchip\mplabc18\v3.40\src\traditional\stdclib\vfprintf.c
                  __pa_27   0x00bb64    program     static C:\Program Files\Microchip\mplabc18\v3.40\src\traditional\stdclib\vfprintf.c
                  __pa_28   0x00bb6c    program     static C:\Program Files\Microchip\mplabc18\v3.40\src\traditional\stdclib\vfprintf.c
                  __pa_29   0x00bb7a    program     static C:\Program Files\Microchip\mplabc18\v3.40\src\traditional\stdclib\vfprintf.c
                  __pa_30   0x00bb96    program     static C:\Program Files\Microchip\mplabc18\v3.40\src\traditional\stdclib\vfprintf.c
                  __pa_31   0x00bbb0    program     static C:\Program Files\Microchip\mplabc18\v3.40\src\traditional\stdclib\vfprintf.c
                  __pa_32   0x00bbca    program     static C:\Program Files\Microchip\mplabc18\v3.40\src\traditional\stdclib\vfprintf.c
                  __pa_33   0x00bbe2    program     static C:\Program Files\Microchip\mplabc18\v3.40\src\traditional\stdclib\vfprintf.c
                  __pa_34   0x00bbec    program     static C:\Program Files\Microchip\mplabc18\v3.40\src\traditional\stdclib\vfprintf.c
                  __pa_35   0x00bbfa    program     static C:\Program Files\Microchip\mplabc18\v3.40\src\traditional\stdclib\vfprintf.c
                  __pa_36   0x00bc02    program     static C:\Program Files\Microchip\mplabc18\v3.40\src\traditional\stdclib\vfprintf.c
                  __pa_37   0x00bc0c    program     static C:\Program Files\Microchip\mplabc18\v3.40\src\traditional\stdclib\vfprintf.c
                  __pa_38   0x00bc1c    program     static C:\Program Files\Microchip\mplabc18\v3.40\src\traditional\stdclib\vfprintf.c
                  __pa_39   0x00bc2a    program     static C:\Program Files\Microchip\mplabc18\v3.40\src\traditional\stdclib\vfprintf.c
                  __pa_40   0x00bc36    program     static C:\Program Files\Microchip\mplabc18\v3.40\src\traditional\stdclib\vfprintf.c
                  __pa_41   0x00bc42    program     static C:\Program Files\Microchip\mplabc18\v3.40\src\traditional\stdclib\vfprintf.c
                  __pa_42   0x00bc4a    program     static C:\Program Files\Microchip\mplabc18\v3.40\src\traditional\stdclib\vfprintf.c
                  __pa_43   0x00bc54    program     static C:\Program Files\Microchip\mplabc18\v3.40\src\traditional\stdclib\vfprintf.c
                  __pa_44   0x00bc5a    program     static C:\Program Files\Microchip\mplabc18\v3.40\src\traditional\stdclib\vfprintf.c
                  __pa_45   0x00bc64    program     static C:\Program Files\Microchip\mplabc18\v3.40\src\traditional\stdclib\vfprintf.c
                  __pa_46   0x00bc70    program     static C:\Program Files\Microchip\mplabc18\v3.40\src\traditional\stdclib\vfprintf.c
                 FLO1632U   0x00bc7a    program     extern C:\Program Files\Microchip\mplabc18\v3.40\src\traditional\math\cast16FP.asm
                 FLO1632S   0x00bc7e    program     extern C:\Program Files\Microchip\mplabc18\v3.40\src\traditional\math\cast16FP.asm
                jI2F16Beg   0x00bc8e    program     static C:\Program Files\Microchip\mplabc18\v3.40\src\traditional\math\cast16FP.asm
                 FLO3232U   0x00bca4    program     extern C:\Program Files\Microchip\mplabc18\v3.40\src\traditional\math\cast32FP.asm
                 FLO3232S   0x00bca8    program     extern C:\Program Files\Microchip\mplabc18\v3.40\src\traditional\math\cast32FP.asm
                jI2F32Beg   0x00bcc0    program     static C:\Program Files\Microchip\mplabc18\v3.40\src\traditional\math\cast32FP.asm
                    FPS32   0x00bcda    program     extern C:\Program Files\Microchip\mplabc18\v3.40\src\traditional\math\addFP.asm
                    FPA32   0x00bcdc    program     extern C:\Program Files\Microchip\mplabc18\v3.40\src\traditional\math\addFP.asm
                jBANotInf   0x00bcfa    program     static C:\Program Files\Microchip\mplabc18\v3.40\src\traditional\math\addFP.asm
                 jANotInf   0x00bd04    program     static C:\Program Files\Microchip\mplabc18\v3.40\src\traditional\math\addFP.asm
                 jBNotInf   0x00bd12    program     static C:\Program Files\Microchip\mplabc18\v3.40\src\traditional\math\addFP.asm
            jDifOrPosSign   0x00bd26    program     static C:\Program Files\Microchip\mplabc18\v3.40\src\traditional\math\addFP.asm
             jNotBothZero   0x00bd2a    program     static C:\Program Files\Microchip\mplabc18\v3.40\src\traditional\math\addFP.asm
                 jAltBexp   0x00bd56    program     static C:\Program Files\Microchip\mplabc18\v3.40\src\traditional\math\addFP.asm
              jAandWsetup   0x00bd68    program     static C:\Program Files\Microchip\mplabc18\v3.40\src\traditional\math\addFP.asm
                 jANotNeg   0x00bd98    program     static C:\Program Files\Microchip\mplabc18\v3.40\src\traditional\math\addFP.asm
                 jWNotNeg   0x00bdac    program     static C:\Program Files\Microchip\mplabc18\v3.40\src\traditional\math\addFP.asm
               jShiftLoop   0x00bdb2    program     static C:\Program Files\Microchip\mplabc18\v3.40\src\traditional\math\addFP.asm
               jShiftDone   0x00bdc0    program     static C:\Program Files\Microchip\mplabc18\v3.40\src\traditional\math\addFP.asm
                jSignDone   0x00bdf0    program     static C:\Program Files\Microchip\mplabc18\v3.40\src\traditional\math\addFP.asm
               jFinalSign   0x00be00    program     static C:\Program Files\Microchip\mplabc18\v3.40\src\traditional\math\addFP.asm
                    FPD32   0x00be08    program     extern C:\Program Files\Microchip\mplabc18\v3.40\src\traditional\math\divFP.asm
                 jANotInf   0x00be26    program     static C:\Program Files\Microchip\mplabc18\v3.40\src\traditional\math\divFP.asm
              jSignedZero   0x00be30    program     static C:\Program Files\Microchip\mplabc18\v3.40\src\traditional\math\divFP.asm
                jANotZero   0x00be3a    program     static C:\Program Files\Microchip\mplabc18\v3.40\src\traditional\math\divFP.asm
                    jLoop   0x00be62    program     static C:\Program Files\Microchip\mplabc18\v3.40\src\traditional\math\divFP.asm
                jNoAdjust   0x00be86    program     static C:\Program Files\Microchip\mplabc18\v3.40\src\traditional\math\divFP.asm
                    jNext   0x00be88    program     static C:\Program Files\Microchip\mplabc18\v3.40\src\traditional\math\divFP.asm
                    FPM32   0x00beae    program     extern C:\Program Files\Microchip\mplabc18\v3.40\src\traditional\math\mulFP.asm
                 jANotInf   0x00becc    program     static C:\Program Files\Microchip\mplabc18\v3.40\src\traditional\math\mulFP.asm
              jBothFinite   0x00beda    program     static C:\Program Files\Microchip\mplabc18\v3.40\src\traditional\math\mulFP.asm
                jHaveZero   0x00bee2    program     static C:\Program Files\Microchip\mplabc18\v3.40\src\traditional\math\mulFP.asm
             jBothNotZero   0x00bee6    program     static C:\Program Files\Microchip\mplabc18\v3.40\src\traditional\math\mulFP.asm
                 FXD1616S   0x00bf88    program     extern C:\Program Files\Microchip\mplabc18\v3.40\src\traditional\math\fxd1616s.asm
                  DA1616S   0x00bf9a    program     static C:\Program Files\Microchip\mplabc18\v3.40\src\traditional\math\fxd1616s.asm
                   D1616S   0x00bfaa    program     static C:\Program Files\Microchip\mplabc18\v3.40\src\traditional\math\fxd1616s.asm
                 D1616SOK   0x00bfb4    program     static C:\Program Files\Microchip\mplabc18\v3.40\src\traditional\math\fxd1616s.asm
                D1616SNEG   0x00bfb8    program     static C:\Program Files\Microchip\mplabc18\v3.40\src\traditional\math\fxd1616s.asm
                  D1616SX   0x00bfca    program     static C:\Program Files\Microchip\mplabc18\v3.40\src\traditional\math\fxd1616s.asm
                 FXD3232S   0x00bfd4    program     extern C:\Program Files\Microchip\mplabc18\v3.40\src\traditional\math\fxd3232s.asm
                  DA3232S   0x00bfee    program     static C:\Program Files\Microchip\mplabc18\v3.40\src\traditional\math\fxd3232s.asm
                   D3232S   0x00c004    program     static C:\Program Files\Microchip\mplabc18\v3.40\src\traditional\math\fxd3232s.asm
                 D3232SOK   0x00c00e    program     static C:\Program Files\Microchip\mplabc18\v3.40\src\traditional\math\fxd3232s.asm
                D3232SNEG   0x00c012    program     static C:\Program Files\Microchip\mplabc18\v3.40\src\traditional\math\fxd3232s.asm
                  D3232SX   0x00c032    program     static C:\Program Files\Microchip\mplabc18\v3.40\src\traditional\math\fxd3232s.asm
                 FXM2424U   0x00c03c    program     extern C:\Program Files\Microchip\mplabc18\v3.40\src\traditional\math\fxm2424u.asm
                  INT3216   0x00c0ce    program     extern C:\Program Files\Microchip\mplabc18\v3.40\src\traditional\math\castFP16.asm
                     jMax   0x00c0de    program     static C:\Program Files\Microchip\mplabc18\v3.40\src\traditional\math\castFP16.asm
                  jMaxPos   0x00c0e2    program     static C:\Program Files\Microchip\mplabc18\v3.40\src\traditional\math\castFP16.asm
                  jMaxNeg   0x00c0ec    program     static C:\Program Files\Microchip\mplabc18\v3.40\src\traditional\math\castFP16.asm
                    jZero   0x00c0f4    program     static C:\Program Files\Microchip\mplabc18\v3.40\src\traditional\math\castFP16.asm
                  jNotInf   0x00c0fa    program     static C:\Program Files\Microchip\mplabc18\v3.40\src\traditional\math\castFP16.asm
                    jLoop   0x00c10a    program     static C:\Program Files\Microchip\mplabc18\v3.40\src\traditional\math\castFP16.asm
                jLoopExit   0x00c11a    program     static C:\Program Files\Microchip\mplabc18\v3.40\src\traditional\math\castFP16.asm
                    jExit   0x00c12a    program     static C:\Program Files\Microchip\mplabc18\v3.40\src\traditional\math\castFP16.asm
                  INT3232   0x00c12c    program     extern C:\Program Files\Microchip\mplabc18\v3.40\src\traditional\math\castFP32.asm
                     jMax   0x00c13c    program     static C:\Program Files\Microchip\mplabc18\v3.40\src\traditional\math\castFP32.asm
                  jMaxPos   0x00c140    program     static C:\Program Files\Microchip\mplabc18\v3.40\src\traditional\math\castFP32.asm
                   jWr123   0x00c146    program     static C:\Program Files\Microchip\mplabc18\v3.40\src\traditional\math\castFP32.asm
                  jMaxNeg   0x00c14e    program     static C:\Program Files\Microchip\mplabc18\v3.40\src\traditional\math\castFP32.asm
                    jZero   0x00c154    program     static C:\Program Files\Microchip\mplabc18\v3.40\src\traditional\math\castFP32.asm
                  jWrZ123   0x00c156    program     static C:\Program Files\Microchip\mplabc18\v3.40\src\traditional\math\castFP32.asm
                  jNotInf   0x00c15a    program     static C:\Program Files\Microchip\mplabc18\v3.40\src\traditional\math\castFP32.asm
                    jLoop   0x00c16c    program     static C:\Program Files\Microchip\mplabc18\v3.40\src\traditional\math\castFP32.asm
                jLoopExit   0x00c180    program     static C:\Program Files\Microchip\mplabc18\v3.40\src\traditional\math\castFP32.asm
                    jExit   0x00c198    program     static C:\Program Files\Microchip\mplabc18\v3.40\src\traditional\math\castFP32.asm
            __FpReturnNaN   0x00c19a    program     extern C:\Program Files\Microchip\mplabc18\v3.40\src\traditional\math\packFP.asm
                 __FpExit   0x00c1a6    program     extern C:\Program Files\Microchip\mplabc18\v3.40\src\traditional\math\packFP.asm
        __FpReturnSignInf   0x00c1a8    program     extern C:\Program Files\Microchip\mplabc18\v3.40\src\traditional\math\packFP.asm
         __FpReturnNegInf   0x00c1ac    program     extern C:\Program Files\Microchip\mplabc18\v3.40\src\traditional\math\packFP.asm
         __FpReturnPosInf   0x00c1b2    program     extern C:\Program Files\Microchip\mplabc18\v3.40\src\traditional\math\packFP.asm
           jReturnPosInf0   0x00c1b6    program     static C:\Program Files\Microchip\mplabc18\v3.40\src\traditional\math\packFP.asm
               jZero1and2   0x00c1ba    program     static C:\Program Files\Microchip\mplabc18\v3.40\src\traditional\math\packFP.asm
       __FpReturnSignZero   0x00c1c0    program     extern C:\Program Files\Microchip\mplabc18\v3.40\src\traditional\math\packFP.asm
        __FpReturnNegZero   0x00c1c4    program     extern C:\Program Files\Microchip\mplabc18\v3.40\src\traditional\math\packFP.asm
        __FpReturnPosZero   0x00c1cc    program     extern C:\Program Files\Microchip\mplabc18\v3.40\src\traditional\math\packFP.asm
                 __FpPack   0x00c1d2    program     extern C:\Program Files\Microchip\mplabc18\v3.40\src\traditional\math\packFP.asm
                  jPkLoop   0x00c1e0    program     static C:\Program Files\Microchip\mplabc18\v3.40\src\traditional\math\packFP.asm
             jPkShiftDone   0x00c1fc    program     static C:\Program Files\Microchip\mplabc18\v3.40\src\traditional\math\packFP.asm
               jPkRoundIt   0x00c212    program     static C:\Program Files\Microchip\mplabc18\v3.40\src\traditional\math\packFP.asm
              __FpReturnW   0x00c22a    program     extern C:\Program Files\Microchip\mplabc18\v3.40\src\traditional\math\packFP.asm
             jPkRoundDone   0x00c22a    program     static C:\Program Files\Microchip\mplabc18\v3.40\src\traditional\math\packFP.asm
              __FpUnPackA   0x00c24a    program     extern C:\Program Files\Microchip\mplabc18\v3.40\src\traditional\math\UnpackFP.asm
                  jUnpkA1   0x00c254    program     static C:\Program Files\Microchip\mplabc18\v3.40\src\traditional\math\UnpackFP.asm
                 jUnpkANZ   0x00c262    program     static C:\Program Files\Microchip\mplabc18\v3.40\src\traditional\math\UnpackFP.asm
                  jUnpkA2   0x00c26c    program     static C:\Program Files\Microchip\mplabc18\v3.40\src\traditional\math\UnpackFP.asm
                 jUnpkNaN   0x00c276    program     static C:\Program Files\Microchip\mplabc18\v3.40\src\traditional\math\UnpackFP.asm
              __FpUnPackB   0x00c27a    program     extern C:\Program Files\Microchip\mplabc18\v3.40\src\traditional\math\UnpackFP.asm
                  jUnpkB1   0x00c284    program     static C:\Program Files\Microchip\mplabc18\v3.40\src\traditional\math\UnpackFP.asm
                 jUnpkBNZ   0x00c292    program     static C:\Program Files\Microchip\mplabc18\v3.40\src\traditional\math\UnpackFP.asm
                  jUnpkB2   0x00c29c    program     static C:\Program Files\Microchip\mplabc18\v3.40\src\traditional\math\UnpackFP.asm
                 FXM1616U   0x00c2a6    program     extern C:\Program Files\Microchip\mplabc18\v3.40\src\traditional\math\fxm1616u.asm
                 FXM1616S   0x00c2e2    program     extern C:\Program Files\Microchip\mplabc18\v3.40\src\traditional\math\fxm1616s.asm
               TSIGN1616A   0x00c32e    program     static C:\Program Files\Microchip\mplabc18\v3.40\src\traditional\math\fxm1616s.asm
            my_struct_cmp   0x00c33c    program     extern X:\mandm\mandm\power.c   
            motor_control   0x00c370    program     extern X:\mandm\mandm\power.c   
             emotor_power   0x00c59c    program     extern X:\mandm\mandm\power.c   
            emotor_relays   0x00c5e6    program     extern X:\mandm\mandm\power.c   
        emotor_slow_start   0x00c5ea    program     extern X:\mandm\mandm\power.c   
         emotor_slow_stop   0x00c5fc    program     extern X:\mandm\mandm\power.c   
                emotor_cw   0x00c600    program     extern X:\mandm\mandm\power.c   
        emotor_is_all_off   0x00c628    program     extern X:\mandm\mandm\power.c   
        emotor_switch_ccw   0x00c632    program     extern X:\mandm\mandm\power.c   
         emotor_power_off   0x00c640    program     extern X:\mandm\mandm\power.c   
          emotor_power_on   0x00c646    program     extern X:\mandm\mandm\power.c   
               emotor_v24   0x00c64c    program     extern X:\mandm\mandm\power.c   
                relay_v24   0x00c66a    program     extern X:\mandm\mandm\power.c   
                blink_led   0x00c670    program     extern X:\mandm\mandm\power.c   
          is_led_blinking   0x00c716    program     extern X:\mandm\mandm\power.c   
                   __pa_0   0x00c72e    program     static X:\mandm\mandm\power.c   
                   __pa_1   0x00c73c    program     static X:\mandm\mandm\power.c   
                   __pa_2   0x00c746    program     static X:\mandm\mandm\power.c   
                   __pa_3   0x00c750    program     static X:\mandm\mandm\power.c   
                   __pa_4   0x00c758    program     static X:\mandm\mandm\power.c   
                   __pa_5   0x00c766    program     static X:\mandm\mandm\power.c   
                   __pa_6   0x00c77e    program     static X:\mandm\mandm\power.c   
                   __pa_7   0x00c78c    program     static X:\mandm\mandm\power.c   
                   __pa_8   0x00c796    program     static X:\mandm\mandm\power.c   
                   __pa_9   0x00c79e    program     static X:\mandm\mandm\power.c   
                  __pa_10   0x00c7a6    program     static X:\mandm\mandm\power.c   
                  __pa_11   0x00c7ae    program     static X:\mandm\mandm\power.c   
           init_motordata   0x00c7b6    program     extern X:\mandm\mandm\config.c  
                   __pa_0   0x00ca0a    program     static X:\mandm\mandm\config.c  
                   __pa_1   0x00ca20    program     static X:\mandm\mandm\config.c  
                   __pa_2   0x00ca28    program     static X:\mandm\mandm\config.c  
                   __pa_3   0x00ca36    program     static X:\mandm\mandm\config.c  
                   __pa_4   0x00ca3e    program     static X:\mandm\mandm\config.c  
                   __pa_5   0x00ca4e    program     static X:\mandm\mandm\config.c  
                   __pa_6   0x00ca56    program     static X:\mandm\mandm\config.c  
                   __pa_7   0x00ca5e    program     static X:\mandm\mandm\config.c  
                   __pa_8   0x00ca66    program     static X:\mandm\mandm\config.c  
                   __pa_9   0x00ca72    program     static X:\mandm\mandm\config.c  
                  __pa_10   0x00ca78    program     static X:\mandm\mandm\config.c  
                  __pa_11   0x00ca84    program     static X:\mandm\mandm\config.c  
                  __pa_12   0x00ca8c    program     static X:\mandm\mandm\config.c  
                  __pa_13   0x00ca90    program     static X:\mandm\mandm\config.c  
                  __pa_14   0x00ca98    program     static X:\mandm\mandm\config.c  
                  __pa_15   0x00caa0    program     static X:\mandm\mandm\config.c  
                  __pa_16   0x00caaa    program     static X:\mandm\mandm\config.c  
                  __pa_17   0x00caae    program     static X:\mandm\mandm\config.c  
                  __pa_18   0x00cab4    program     static X:\mandm\mandm\config.c  
                   s_crit   0x00caba    program     extern X:\mandm\mandm\crit.c    
           ___if_lbl00001   0x00cae8    program     static                          
           ___if_lbl00002   0x00cb0c    program     static                          
           ___if_lbl00003   0x00cb2c    program     static                          
       ___return_lbl00000   0x00cb4c    program     static                          
           ___if_lbl00004   0x00cb4c    program     static                          
                   e_crit   0x00cb54    program     extern X:\mandm\mandm\crit.c    
           ___if_lbl00006   0x00cb80    program     static                          
         ___else_lbl00008   0x00cbb2    program     static                          
       ___return_lbl00005   0x00cbba    program     static                          
           ___if_lbl00007   0x00cbba    program     static                          
               clear_crit   0x00cbbc    program     extern X:\mandm\mandm\crit.c    
        write_data_eeprom   0x00cbc6    program     extern X:\mandm\mandm\crit.c    
         read_data_eeprom   0x00cc4c    program     extern X:\mandm\mandm\crit.c    
                   __pa_0   0x00cc76    program     static X:\mandm\mandm\crit.c    
                   __pa_1   0x00cc84    program     static X:\mandm\mandm\crit.c    
                   __pa_2   0x00cc90    program     static X:\mandm\mandm\crit.c    
                   __pa_3   0x00cc9e    program     static X:\mandm\mandm\crit.c    
                   memcmp   0x00ccac    program     extern C:\Program Files\Microchip\mplabc18\v3.40\src\traditional\stdclib\memcmp.asm
                    jLoop   0x00cccc    program     static C:\Program Files\Microchip\mplabc18\v3.40\src\traditional\stdclib\memcmp.asm
              _4jContinue   0x00ccd8    program     static C:\Program Files\Microchip\mplabc18\v3.40\src\traditional\stdclib\memcmp.asm
                   _5jEnd   0x00cce2    program     static C:\Program Files\Microchip\mplabc18\v3.40\src\traditional\stdclib\memcmp.asm
                     jEnd   0x00cce8    program     static C:\Program Files\Microchip\mplabc18\v3.40\src\traditional\stdclib\memcmp.asm
            strcpypgm2ram   0x00ccfe    program     extern C:\Program Files\Microchip\mplabc18\v3.40\src\traditional\stdclib\scpyp2r.asm
                    jLoop   0x00cd24    program     static C:\Program Files\Microchip\mplabc18\v3.40\src\traditional\stdclib\scpyp2r.asm
                     jEnd   0x00cd2e    program     static C:\Program Files\Microchip\mplabc18\v3.40\src\traditional\stdclib\scpyp2r.asm
                strlenpgm   0x00cd30    program     extern C:\Program Files\Microchip\mplabc18\v3.40\src\traditional\stdclib\slenpgm.asm
                    jLoop   0x00cd4e    program     static C:\Program Files\Microchip\mplabc18\v3.40\src\traditional\stdclib\slenpgm.asm
                   _2jEnd   0x00cd64    program     static C:\Program Files\Microchip\mplabc18\v3.40\src\traditional\stdclib\slenpgm.asm
                     jEnd   0x00cd66    program     static C:\Program Files\Microchip\mplabc18\v3.40\src\traditional\stdclib\slenpgm.asm
                  strncpy   0x00cd7a    program     extern C:\Program Files\Microchip\mplabc18\v3.40\src\traditional\stdclib\strncpy.asm
                    jLoop   0x00cda2    program     static C:\Program Files\Microchip\mplabc18\v3.40\src\traditional\stdclib\strncpy.asm
              _4jContinue   0x00cdae    program     static C:\Program Files\Microchip\mplabc18\v3.40\src\traditional\stdclib\strncpy.asm
                   _5jEnd   0x00cdb8    program     static C:\Program Files\Microchip\mplabc18\v3.40\src\traditional\stdclib\strncpy.asm
                     jEnd   0x00cdc4    program     static C:\Program Files\Microchip\mplabc18\v3.40\src\traditional\stdclib\strncpy.asm
           strncpypgm2ram   0x00cdd6    program     extern C:\Program Files\Microchip\mplabc18\v3.40\src\traditional\stdclib\sncpyp2r.asm
                    jLoop   0x00cdfc    program     static C:\Program Files\Microchip\mplabc18\v3.40\src\traditional\stdclib\sncpyp2r.asm
              _3jContinue   0x00ce08    program     static C:\Program Files\Microchip\mplabc18\v3.40\src\traditional\stdclib\sncpyp2r.asm
                   _4jEnd   0x00ce12    program     static C:\Program Files\Microchip\mplabc18\v3.40\src\traditional\stdclib\sncpyp2r.asm
                     jEnd   0x00ce20    program     static C:\Program Files\Microchip\mplabc18\v3.40\src\traditional\stdclib\sncpyp2r.asm
                   strlen   0x00ce22    program     extern C:\Program Files\Microchip\mplabc18\v3.40\src\traditional\stdclib\strlen.asm
                    jLoop   0x00ce32    program     static C:\Program Files\Microchip\mplabc18\v3.40\src\traditional\stdclib\strlen.asm
                     jEnd   0x00ce3c    program     static C:\Program Files\Microchip\mplabc18\v3.40\src\traditional\stdclib\strlen.asm
               config_pic   0x00ce3e    program     extern X:\mandm\mandm\hwconf.c  
           ___if_lbl00001   0x00ce6c    program     static                          
               __tmplbl_1   0x00ce72    program     static                          
               __tmplbl_0   0x00ce78    program     static                          
           ___if_lbl00003   0x00ce7e    program     static                          
        ___while_lbl00004   0x00cedc    program     static                          
        ___while_lbl00005   0x00ceea    program     static                          
           ___if_lbl00006   0x00cf8a    program     static                          
       ___return_lbl00000   0x00cf8a    program     static                          
                start_pic   0x00cf92    program     extern X:\mandm\mandm\hwconf.c  
       start_workerthread   0x00cfb8    program     extern X:\mandm\mandm\hwconf.c  
                  sprintf   0x00cfbc    program     extern C:\Program Files\Microchip\mplabc18\v3.40\src\traditional\stdclib\sprintf.c
                _do_cinit   0x00d068    program     extern C:\Program Files\Microchip\mplabc18\v3.40\src\traditional\startup\c018iz.c
                     test   0x00d082    program     static                          
                copy_loop   0x00d0da    program     static                          
            copy_one_byte   0x00d0e0    program     static                          
             done_copying   0x00d0ee    program     static                          
       ___return_lbl00002   0x00d104    program     static                          
                     done   0x00d104    program     static                          
                 OpenXLCD   0x00d106    program     extern X:\mandm\mandm\xlcd\openxlcd.c
                   __pa_0   0x00d18e    program     static X:\mandm\mandm\xlcd\openxlcd.c
                   __pa_1   0x00d198    program     static X:\mandm\mandm\xlcd\openxlcd.c
               Open2USART   0x00d1a0    program     extern C:\Program Files\Microchip\mplabc18\v3.40\src\pmc_common\USART\u2open.c
                     putc   0x00d22a    program     extern C:\Program Files\Microchip\mplabc18\v3.40\src\traditional\stdclib\putc.c
                  FXM3232   0x00d2ae    program     extern C:\Program Files\Microchip\mplabc18\v3.40\src\traditional\math\fxm3232.c
       ___return_lbl00000   0x00d31c    program     static                          
                  OpenADC   0x00d31e    program     extern C:\Program Files\Microchip\mplabc18\v3.40\src\pmc_common\ADC\adcopen.c
              putrs2USART   0x00d38c    program     extern C:\Program Files\Microchip\mplabc18\v3.40\src\pmc_common\USART\u2putrs.c
              Write_b_eep   0x00d3f0    program     extern C:\Program Files\Microchip\mplabc18\v3.40\src\pmc_common\EEP\write_B.c
               Read_b_eep   0x00d450    program     extern C:\Program Files\Microchip\mplabc18\v3.40\src\pmc_common\EEP\read_B.c
       ___return_lbl00000   0x00d4a0    program     static                          
                putrsXLCD   0x00d4ac    program     extern X:\mandm\mandm\xlcd\putrxlcd.c
                   __pa_0   0x00d4e8    program     static X:\mandm\mandm\xlcd\putrxlcd.c
               puts2USART   0x00d500    program     extern C:\Program Files\Microchip\mplabc18\v3.40\src\pmc_common\USART\u2puts.c
             SetDDRamAddr   0x00d54c    program     extern X:\mandm\mandm\xlcd\setddram.c
                   __pa_0   0x00d586    program     static X:\mandm\mandm\xlcd\setddram.c
             SetCGRamAddr   0x00d594    program     extern X:\mandm\mandm\xlcd\setcgram.c
                   __pa_0   0x00d5ce    program     static X:\mandm\mandm\xlcd\setcgram.c
                 FXD3232U   0x00d5dc    program     extern C:\Program Files\Microchip\mplabc18\v3.40\src\traditional\math\fxd3232u.c
                     loop   0x00d5ea    program     static                          
                   _false   0x00d61e    program     static                          
       ___return_lbl00000   0x00d622    program     static                          
            WriteDataXLCD   0x00d624    program     extern X:\mandm\mandm\xlcd\writdata.c
                   __pa_0   0x00d65c    program     static X:\mandm\mandm\xlcd\writdata.c
             WriteCmdXLCD   0x00d66a    program     extern X:\mandm\mandm\xlcd\wcmdxlcd.c
                   __pa_0   0x00d6a2    program     static X:\mandm\mandm\xlcd\wcmdxlcd.c
             ReadDataXLCD   0x00d6b0    program     extern X:\mandm\mandm\xlcd\readdata.c
             ReadAddrXLCD   0x00d6f4    program     extern X:\mandm\mandm\xlcd\readaddr.c
               OpenTimer3   0x00d738    program     extern C:\Program Files\Microchip\mplabc18\v3.40\src\pmc_common\Timers\t3open.c
                 putsXLCD   0x00d77a    program     extern X:\mandm\mandm\xlcd\putsxlcd.c
                   __pa_0   0x00d7ac    program     static X:\mandm\mandm\xlcd\putsxlcd.c
               Read2USART   0x00d7bc    program     extern C:\Program Files\Microchip\mplabc18\v3.40\src\pmc_common\USART\u2read.c
                    srand   0x00d7fa    program     extern C:\Program Files\Microchip\mplabc18\v3.40\src\traditional\stdclib\rand.asm
                     rand   0x00d808    program     extern C:\Program Files\Microchip\mplabc18\v3.40\src\traditional\stdclib\rand.asm
              WriteTimer3   0x00d836    program     extern C:\Program Files\Microchip\mplabc18\v3.40\src\pmc_common\Timers\t3write.c
              WriteTimer0   0x00d86e    program     extern C:\Program Files\Microchip\mplabc18\v3.40\src\pmc_common\Timers\t0write.c
               OpenTimer0   0x00d8a6    program     extern C:\Program Files\Microchip\mplabc18\v3.40\src\pmc_common\Timers\t0open.c
               OpenTimer4   0x00d8de    program     extern C:\Program Files\Microchip\mplabc18\v3.40\src\pmc_common\Timers\t4open.c
             Delay10KTCYx   0x00d914    program     extern C:\Program Files\Microchip\mplabc18\v3.40\src\traditional\delays\d10ktcyx.asm
                    D10Kx   0x00d91e    program     static C:\Program Files\Microchip\mplabc18\v3.40\src\traditional\delays\d10ktcyx.asm
                   D10K_1   0x00d920    program     static C:\Program Files\Microchip\mplabc18\v3.40\src\traditional\delays\d10ktcyx.asm
       _D10KTCYXCODE_0010   0x00d924    program     static C:\Program Files\Microchip\mplabc18\v3.40\src\traditional\delays\d10ktcyx.asm
                    D10Kl   0x00d92c    program     static C:\Program Files\Microchip\mplabc18\v3.40\src\traditional\delays\d10ktcyx.asm
       _D10KTCYXCODE_001C   0x00d930    program     static C:\Program Files\Microchip\mplabc18\v3.40\src\traditional\delays\d10ktcyx.asm
              Write2USART   0x00d942    program     extern C:\Program Files\Microchip\mplabc18\v3.40\src\pmc_common\USART\u2write.c
               SetChanADC   0x00d970    program     extern C:\Program Files\Microchip\mplabc18\v3.40\src\pmc_common\ADC\adcsetch.c
                 FXD1616U   0x00d99e    program     extern C:\Program Files\Microchip\mplabc18\v3.40\src\traditional\math\fxd1616u.c
                     loop   0x00d9a8    program     static                          
                  endloop   0x00d9c4    program     static                          
       ___return_lbl00000   0x00d9c8    program     static                          
                 BusyXLCD   0x00d9ca    program     extern X:\mandm\mandm\xlcd\busyxlcd.c
                   __pa_0   0x00d9e4    program     static X:\mandm\mandm\xlcd\busyxlcd.c
                  isdigit   0x00d9f6    program     extern C:\Program Files\Microchip\mplabc18\v3.40\src\traditional\stdclib\isdigit.asm
                   jMatch   0x00da16    program     static C:\Program Files\Microchip\mplabc18\v3.40\src\traditional\stdclib\isdigit.asm
                 jNoMatch   0x00da18    program     static C:\Program Files\Microchip\mplabc18\v3.40\src\traditional\stdclib\isdigit.asm
                 _startup   0x00da1a    program     extern C:\Program Files\Microchip\mplabc18\v3.40\src\traditional\startup\c018iz.c
                     loop   0x00da2e    program     static                          
       ___return_lbl00001   0x00da38    program     static                          
            __zero_memory   0x00da3a    program     extern C:\Program Files\Microchip\mplabc18\v3.40\src\traditional\proc\p18F8722.asm
               zero_block   0x00da48    program     static C:\Program Files\Microchip\mplabc18\v3.40\src\traditional\proc\p18F8722.asm
                   loop_h   0x00da48    program     static C:\Program Files\Microchip\mplabc18\v3.40\src\traditional\proc\p18F8722.asm
                compare_l   0x00da50    program     static C:\Program Files\Microchip\mplabc18\v3.40\src\traditional\proc\p18F8722.asm
                   loop_l   0x00da52    program     static C:\Program Files\Microchip\mplabc18\v3.40\src\traditional\proc\p18F8722.asm
              _usart_putc   0x00da5a    program     extern C:\Program Files\Microchip\mplabc18\v3.40\src\pmc_common\USART\_usartpc.asm
                     loop   0x00da6a    program     static C:\Program Files\Microchip\mplabc18\v3.40\src\pmc_common\USART\_usartpc.asm
              Delay10TCYx   0x00da76    program     extern C:\Program Files\Microchip\mplabc18\v3.40\src\traditional\delays\d10tcyx.asm
                     D10x   0x00da7e    program     static C:\Program Files\Microchip\mplabc18\v3.40\src\traditional\delays\d10tcyx.asm
        _D10TCYXCODE_000A   0x00da80    program     static C:\Program Files\Microchip\mplabc18\v3.40\src\traditional\delays\d10tcyx.asm
        _D10TCYXCODE_000C   0x00da82    program     static C:\Program Files\Microchip\mplabc18\v3.40\src\traditional\delays\d10tcyx.asm
        _D10TCYXCODE_000E   0x00da84    program     static C:\Program Files\Microchip\mplabc18\v3.40\src\traditional\delays\d10tcyx.asm
                    D10_1   0x00da86    program     static C:\Program Files\Microchip\mplabc18\v3.40\src\traditional\delays\d10tcyx.asm
                  ReadADC   0x00da8c    program     extern C:\Program Files\Microchip\mplabc18\v3.40\src\pmc_common\ADC\adcread.c
                 s_digits   0x00da9e    program     static C:\Program Files\Microchip\mplabc18\v3.40\src\traditional\stdclib\vfprintf.c
                 Busy_eep   0x00dab0    program     extern C:\Program Files\Microchip\mplabc18\v3.40\src\pmc_common\EEP\busy_eep.c
               ConvertADC   0x00dab6    program     extern C:\Program Files\Microchip\mplabc18\v3.40\src\pmc_common\ADC\adcconv.c
                   __init   0x00daba    program     extern C:\Program Files\Microchip\mplabc18\v3.40\src\traditional\stdclib\__init.c
               __config_0   0x300001    program     static X:\mandm\mandm\mandm8722.c
               __config_1   0x300002    program     static X:\mandm\mandm\mandm8722.c
               __config_2   0x300003    program     static X:\mandm\mandm\mandm8722.c
               __config_3   0x300006    program     static X:\mandm\mandm\mandm8722.c
                  __tmp_0   0x000000       data     static C:\Program Files\Microchip\mplabc18\v3.40\src\pmc_common\USART\u2open.c
                  __tmp_0   0x000000       data     static C:\Program Files\Microchip\mplabc18\v3.40\src\pmc_common\ADC\adcopen.c
                  __tmp_0   0x000000       data     static C:\Program Files\Microchip\mplabc18\v3.40\src\pmc_common\EEP\write_B.c
                  __tmp_0   0x000000       data     static C:\Program Files\Microchip\mplabc18\v3.40\src\traditional\stdclib\putc.c
                  __tmp_0   0x000000       data     static C:\Program Files\Microchip\mplabc18\v3.40\src\pmc_common\ADC\adcread.c
                  __tmp_0   0x000000       data     static C:\Program Files\Microchip\mplabc18\v3.40\src\pmc_common\ADC\adcsetch.c
                  __tmp_0   0x000000       data     static C:\Program Files\Microchip\mplabc18\v3.40\src\pmc_common\EEP\read_B.c
                  __tmp_0   0x000000       data     static X:\mandm\mandm\daq.c     
                  __tmp_0   0x000000       data     static X:\mandm\mandm\crit.c    
                  __tmp_0   0x000000       data     static X:\mandm\mandm\mandm8722.c
                  __tmp_0   0x000000       data     static X:\mandm\mandm\power.c   
                  __tmp_0   0x000000       data     static C:\Program Files\Microchip\mplabc18\v3.40\src\traditional\stdclib\vfprintf.c
                  __tmp_0   0x000000       data     static C:\Program Files\Microchip\mplabc18\v3.40\src\traditional\stdclib\sprintf.c
                     SIGN   0x000024       data     extern C:\Program Files\Microchip\mplabc18\v3.40\src\traditional\math\cmath18.asm
            __FPFLAGSbits   0x000025       data     extern C:\Program Files\Microchip\mplabc18\v3.40\src\traditional\math\cmath18.asm
                __FPFLAGS   0x000025       data     extern C:\Program Files\Microchip\mplabc18\v3.40\src\traditional\math\cmath18.asm
                  __REMB3   0x000026       data     extern C:\Program Files\Microchip\mplabc18\v3.40\src\traditional\math\aarg.asm
                 __AARGB7   0x000026       data     extern C:\Program Files\Microchip\mplabc18\v3.40\src\traditional\math\aarg.asm
                  __REMB2   0x000027       data     extern C:\Program Files\Microchip\mplabc18\v3.40\src\traditional\math\aarg.asm
                 __AARGB6   0x000027       data     extern C:\Program Files\Microchip\mplabc18\v3.40\src\traditional\math\aarg.asm
                 __AARGB5   0x000028       data     extern C:\Program Files\Microchip\mplabc18\v3.40\src\traditional\math\aarg.asm
                  __REMB1   0x000028       data     extern C:\Program Files\Microchip\mplabc18\v3.40\src\traditional\math\aarg.asm
                  __REMB0   0x000029       data     extern C:\Program Files\Microchip\mplabc18\v3.40\src\traditional\math\aarg.asm
                 __AARGB4   0x000029       data     extern C:\Program Files\Microchip\mplabc18\v3.40\src\traditional\math\aarg.asm
                 __AARGB3   0x00002a       data     extern C:\Program Files\Microchip\mplabc18\v3.40\src\traditional\math\aarg.asm
                 __AARGB2   0x00002b       data     extern C:\Program Files\Microchip\mplabc18\v3.40\src\traditional\math\aarg.asm
                 __AARGB1   0x00002c       data     extern C:\Program Files\Microchip\mplabc18\v3.40\src\traditional\math\aarg.asm
                 __AARGB0   0x00002d       data     extern C:\Program Files\Microchip\mplabc18\v3.40\src\traditional\math\aarg.asm
                   __AEXP   0x00002e       data     extern C:\Program Files\Microchip\mplabc18\v3.40\src\traditional\math\aarg.asm
                 __BARGB3   0x00002f       data     extern C:\Program Files\Microchip\mplabc18\v3.40\src\traditional\math\barg.asm
                 __BARGB2   0x000030       data     extern C:\Program Files\Microchip\mplabc18\v3.40\src\traditional\math\barg.asm
                 __BARGB1   0x000031       data     extern C:\Program Files\Microchip\mplabc18\v3.40\src\traditional\math\barg.asm
                 __BARGB0   0x000032       data     extern C:\Program Files\Microchip\mplabc18\v3.40\src\traditional\math\barg.asm
                   __BEXP   0x000033       data     extern C:\Program Files\Microchip\mplabc18\v3.40\src\traditional\math\barg.asm
                 __TEMPB3   0x000034       data     extern C:\Program Files\Microchip\mplabc18\v3.40\src\traditional\math\temparg.asm
                 __TEMPB2   0x000035       data     extern C:\Program Files\Microchip\mplabc18\v3.40\src\traditional\math\temparg.asm
                 __TEMPB1   0x000036       data     extern C:\Program Files\Microchip\mplabc18\v3.40\src\traditional\math\temparg.asm
                   __TEMP   0x000037       data     extern C:\Program Files\Microchip\mplabc18\v3.40\src\traditional\math\temparg.asm
                 __TEMPB0   0x000037       data     extern C:\Program Files\Microchip\mplabc18\v3.40\src\traditional\math\temparg.asm
                  __tmp_1   0x000038       data     static X:\mandm\mandm\mandm_vector.c
            DelayCounter2   0x00003c       data     extern C:\Program Files\Microchip\mplabc18\v3.40\src\traditional\delays\delayd2.asm
            DelayCounter1   0x00003d       data     extern C:\Program Files\Microchip\mplabc18\v3.40\src\traditional\delays\delayd1.asm
                   button   0x000060       data     extern X:\mandm\mandm\mandm8722.c
                        R   0x000061       data     extern X:\mandm\mandm\mandm8722.c
                        C   0x000094       data     extern X:\mandm\mandm\mandm8722.c
                        V   0x00009e       data     extern X:\mandm\mandm\mandm8722.c
                        z   0x0000fb       data     static X:\mandm\mandm\hwconf.c  
                        z   0x0000fc       data     static X:\mandm\mandm\config.c  
                       ds   0x000100       data     extern X:\mandm\mandm\mandm8722.c
             change_count   0x0001fc       data     extern X:\mandm\mandm\daq.c     
                   change   0x0001fe       data     static X:\mandm\mandm\daq.c     
                 bootstr2   0x000200       data     extern X:\mandm\mandm\mandm8722.c
                       p1   0x000300       data     extern X:\mandm\mandm\mandm8722.c
                       p2   0x000310       data     extern X:\mandm\mandm\mandm8722.c
                  termstr   0x000320       data     extern X:\mandm\mandm\mandm8722.c
                      csd   0x000340       data     extern X:\mandm\mandm\mandm8722.c
                      cid   0x000352       data     extern X:\mandm\mandm\mandm8722.c
                    HCRIT   0x000364       data     extern X:\mandm\mandm\mandm8722.c
                    LCRIT   0x00036c       data     extern X:\mandm\mandm\mandm8722.c
                       f1   0x000374       data     extern X:\mandm\mandm\mandm8722.c
                       f2   0x00037b       data     extern X:\mandm\mandm\mandm8722.c
                       f3   0x000382       data     extern X:\mandm\mandm\mandm8722.c
                       f4   0x000389       data     extern X:\mandm\mandm\mandm8722.c
                       p3   0x000390       data     extern X:\mandm\mandm\mandm8722.c
             alarm_buffer   0x0003a0       data     extern X:\mandm\mandm\mandm8722.c
                   smooth   0x0003ae       data     extern X:\mandm\mandm\mandm8722.c
                    lcd18   0x0003ce       data     extern X:\mandm\mandm\mandm8722.c
               slow_timer   0x0003cf       data     extern X:\mandm\mandm\mandm8722.c
               last_shape   0x0003d3       data     static X:\mandm\mandm\mandm8722.c
                       ib   0x0003d4       data     static X:\mandm\mandm\mandm8722.c
                        h   0x0003d5       data     static X:\mandm\mandm\mandm8722.c
                        m   0x0003d9       data     static X:\mandm\mandm\mandm8722.c
                        s   0x0003dd       data     static X:\mandm\mandm\mandm8722.c
                        h   0x0003e1       data     static X:\mandm\mandm\mandm8722.c
                        m   0x0003e5       data     static X:\mandm\mandm\mandm8722.c
                        s   0x0003e9       data     static X:\mandm\mandm\mandm8722.c
                        i   0x0003ed       data     static X:\mandm\mandm\mandm8722.c
                  alm_num   0x0003ee       data     static X:\mandm\mandm\mandm8722.c
                 position   0x0003ef       data     static X:\mandm\mandm\mandm8722.c
                    shape   0x0003f0       data     static X:\mandm\mandm\mandm8722.c
                 deadband   0x0003f1       data     static X:\mandm\mandm\mandm8722.c
              was_running   0x0003f5       data     static X:\mandm\mandm\mandm8722.c
                old_error   0x0003f7       data     static X:\mandm\mandm\mandm8722.c
                 old_menu   0x0003f9       data     static X:\mandm\mandm\mandm8722.c
                 menu_pos   0x0003fa       data     static X:\mandm\mandm\mandm8722.c
                 menu_pos   0x0003fb       data     static X:\mandm\mandm\mandm8722.c
                 eep_char   0x0003fc       data     static X:\mandm\mandm\mandm8722.c
                        z   0x0003fd       data     static X:\mandm\mandm\mandm8722.c
                     Seed   0x0003fe       data     static C:\Program Files\Microchip\mplabc18\v3.40\src\traditional\stdclib\rand.asm
                motordata   0x000400       data     extern X:\mandm\mandm\mandm8722.c
                motor_ptr   0x0004ae       data     extern X:\mandm\mandm\mandm8722.c
                lastmotor   0x0004b0       data     static X:\mandm\mandm\power.c   
                emo_bumps   0x0004ea       data     static X:\mandm\mandm\mandm_vector.c
            HID_IDLE_FLAG   0x0004eb       data     static X:\mandm\mandm\mandm_vector.c
                   b_read   0x0004ec       data     static X:\mandm\mandm\mandm_vector.c
                      ZAP   0x0004ed       data     static X:\mandm\mandm\mandm_vector.c
                 vc_count   0x0004ee       data     static X:\mandm\mandm\mandm_vector.c
             worker_timer   0x0004ef       data     static X:\mandm\mandm\mandm_vector.c
               real_ticks   0x0004f0       data     static X:\mandm\mandm\mandm_vector.c
               fast_ticks   0x0004f1       data     static X:\mandm\mandm\mandm_vector.c
                   rx_tmp   0x0004f2       data     static X:\mandm\mandm\mandm_vector.c
                 band_max   0x0004f4       data     static X:\mandm\mandm\mandm_vector.c
                 hid_idle   0x0004f8       data     static X:\mandm\mandm\mandm_vector.c
                    H_tmp   0x0004fc       data     static X:\mandm\mandm\crit.c    
                    H_tmp   0x0004fd       data     static X:\mandm\mandm\crit.c    
                   almctr   0x0004fe       data     extern X:\mandm\mandm\mandm8722.c
            USART2_Status   0x0004ff       data     extern C:\Program Files\Microchip\mplabc18\v3.40\src\pmc_common\USART\u2defs.c
                    knob1   0x000500       data     extern X:\mandm\mandm\mandm8722.c
                    knob2   0x000510       data     extern X:\mandm\mandm\mandm8722.c
                   Cursor   0x000520       data     extern X:\mandm\mandm\mandm8722.c
                    YNKEY   0x000523       data     extern X:\mandm\mandm\mandm8722.c
               OldEncoder   0x000524       data     extern X:\mandm\mandm\mandm8722.c
                     qei1   0x000529       data     extern X:\mandm\mandm\mandm8722.c
                        s   0x000540       data     static X:\mandm\mandm\mandm8722.c
                   dcount   0x000546       data     static X:\mandm\mandm\mandm8722.c
                   dcount   0x00054a       data     static X:\mandm\mandm\mandm8722.c
                 timetemp   0x00054e       data     static X:\mandm\mandm\mandm8722.c
                clocks_hz   0x000552       data     static X:\mandm\mandm\mandm8722.c
                   dcount   0x000556       data     static X:\mandm\mandm\mandm8722.c
                 timetemp   0x00055a       data     static X:\mandm\mandm\mandm8722.c
                clocks_hz   0x00055e       data     static X:\mandm\mandm\mandm8722.c
                   dcount   0x000562       data     static X:\mandm\mandm\mandm8722.c
                 timetemp   0x000566       data     static X:\mandm\mandm\mandm8722.c
                clocks_hz   0x00056a       data     static X:\mandm\mandm\mandm8722.c
                   dcount   0x00056e       data     static X:\mandm\mandm\mandm8722.c
                 timetemp   0x000572       data     static X:\mandm\mandm\mandm8722.c
                clocks_hz   0x000576       data     static X:\mandm\mandm\mandm8722.c
                   dcount   0x00057a       data     static X:\mandm\mandm\mandm8722.c
                 timetemp   0x00057e       data     static X:\mandm\mandm\mandm8722.c
                clocks_hz   0x000582       data     static X:\mandm\mandm\mandm8722.c
                   dcount   0x000586       data     static X:\mandm\mandm\mandm8722.c
                 timetemp   0x00058a       data     static X:\mandm\mandm\mandm8722.c
                clocks_hz   0x00058e       data     static X:\mandm\mandm\mandm8722.c
                   dcount   0x000592       data     static X:\mandm\mandm\mandm8722.c
                 timetemp   0x000596       data     static X:\mandm\mandm\mandm8722.c
                clocks_hz   0x00059a       data     static X:\mandm\mandm\mandm8722.c
                        n   0x00059e       data     static X:\mandm\mandm\mandm8722.c
                        z   0x00059f       data     static X:\mandm\mandm\mandm8722.c
                     slow   0x0005a0       data     static X:\mandm\mandm\mandm8722.c
                        z   0x0005a1       data     static X:\mandm\mandm\mandm8722.c
                  s_delay   0x0005a2       data     static X:\mandm\mandm\mandm8722.c
                 new_menu   0x0005a3       data     static X:\mandm\mandm\mandm8722.c
               check_menu   0x0005a4       data     static X:\mandm\mandm\mandm8722.c
                  get_out   0x0005a5       data     static X:\mandm\mandm\mandm8722.c
                 menu_pos   0x0005a6       data     static X:\mandm\mandm\mandm8722.c
               hms_string   0x0005a7       data     extern X:\mandm\mandm\mandm8722.c
                    a10_x   0x0005b7       data     extern X:\mandm\mandm\mandm8722.c
                    a10_y   0x0005b9       data     extern X:\mandm\mandm\mandm8722.c
                    a10_z   0x0005bb       data     extern X:\mandm\mandm\mandm8722.c
                 worktick   0x0005bd       data     extern X:\mandm\mandm\mandm8722.c
                    C2RAW   0x0005bf       data     extern X:\mandm\mandm\mandm8722.c
             glitch_count   0x0005c0       data     extern X:\mandm\mandm\mandm8722.c
                   cdelay   0x0005c1       data     extern X:\mandm\mandm\mandm8722.c
              SLOW_STATUS   0x0005c2       data     extern X:\mandm\mandm\mandm8722.c
                        i   0x0005c3       data     static X:\mandm\mandm\daq.c     
                        z   0x0005c5       data     static X:\mandm\mandm\daq.c     
                  a10_x_t   0x0005c7       data     static X:\mandm\mandm\daq.c     
                  a10_y_t   0x0005cb       data     static X:\mandm\mandm\daq.c     
                  a10_z_t   0x0005cf       data     static X:\mandm\mandm\daq.c     
                        z   0x0005d3       data     static X:\mandm\mandm\daq.c     
                     rawp   0x0005d4       data     extern X:\mandm\mandm\mandm8722.c
                     prom   0x0005e0       data     static C:\Program Files\Microchip\mplabc18\v3.40\src\traditional\startup\c018iz.c
                curr_byte   0x0005e3       data     static C:\Program Files\Microchip\mplabc18\v3.40\src\traditional\startup\c018iz.c
               curr_entry   0x0005e5       data     static C:\Program Files\Microchip\mplabc18\v3.40\src\traditional\startup\c018iz.c
                 data_ptr   0x0005e7       data     static C:\Program Files\Microchip\mplabc18\v3.40\src\traditional\startup\c018iz.c
                       c1   0x0005ea       data     static X:\mandm\mandm\mandm_vector.c
                       c2   0x0005eb       data     static X:\mandm\mandm\mandm_vector.c
                    timer   0x0005ec       data     static X:\mandm\mandm\mandm_vector.c
                   timerl   0x0005ee       data     static X:\mandm\mandm\mandm_vector.c
                TIMERFLAG   0x000600       data     extern X:\mandm\mandm\mandm8722.c
               PRIPOWEROK   0x000601       data     extern X:\mandm\mandm\mandm8722.c
                 FORCEOUT   0x000602       data     extern X:\mandm\mandm\mandm8722.c
               WORKERFLAG   0x000603       data     extern X:\mandm\mandm\mandm8722.c
              critc_level   0x000604       data     extern X:\mandm\mandm\mandm8722.c
                   KEYNUM   0x000605       data     extern X:\mandm\mandm\mandm8722.c
                 FAILSAFE   0x000606       data     extern X:\mandm\mandm\mandm8722.c
            SYSTEM_STABLE   0x000607       data     extern X:\mandm\mandm\mandm8722.c
                HOLD_PROC   0x000608       data     extern X:\mandm\mandm\mandm8722.c
             DISPLAY_MODE   0x000609       data     extern X:\mandm\mandm\mandm8722.c
                 D_UPDATE   0x00060a       data     extern X:\mandm\mandm\mandm8722.c
             GLITCH_CHECK   0x00060b       data     extern X:\mandm\mandm\mandm8722.c
                  COOLING   0x00060c       data     extern X:\mandm\mandm\mandm8722.c
               UPDATE_EEP   0x00060d       data     extern X:\mandm\mandm\mandm8722.c
              RESET_ZEROS   0x00060e       data     extern X:\mandm\mandm\mandm8722.c
                 SYS_DATA   0x00060f       data     extern X:\mandm\mandm\mandm8722.c
                 MOD_DATA   0x000610       data     extern X:\mandm\mandm\mandm8722.c
                 SYS_HELP   0x000611       data     extern X:\mandm\mandm\mandm8722.c
                  SET_ADC   0x000612       data     extern X:\mandm\mandm\mandm8722.c
                   WDT_TO   0x000613       data     extern X:\mandm\mandm\mandm8722.c
                   EEP_ER   0x000614       data     extern X:\mandm\mandm\mandm8722.c
                    TWEAK   0x000615       data     extern X:\mandm\mandm\mandm8722.c
            TEST_SPINNERS   0x000616       data     extern X:\mandm\mandm\mandm8722.c
              alarm_codes   0x000617       data     extern X:\mandm\mandm\mandm8722.c
                     mode   0x000619       data     extern X:\mandm\mandm\mandm8722.c
              RS232_DEBUG   0x000628       data     extern X:\mandm\mandm\mandm8722.c
              critc_count   0x000629       data     extern X:\mandm\mandm\mandm8722.c
                     sign   0x00062d       data     extern X:\mandm\mandm\mandm8722.c
                 lp_speed   0x00062e       data     extern X:\mandm\mandm\mandm8722.c
                     lp_x   0x000632       data     extern X:\mandm\mandm\mandm8722.c
               build_date   0x000636       data     extern X:\mandm\mandm\mandm8722.c
               build_time   0x000639       data     extern X:\mandm\mandm\mandm8722.c
                      dsi   0x00063c       data     extern X:\mandm\mandm\mandm8722.c
                      msi   0x00063d       data     extern X:\mandm\mandm\mandm8722.c
                 help_pos   0x00063e       data     extern X:\mandm\mandm\mandm8722.c
                       t1   0x00063f       data     extern X:\mandm\mandm\mandm8722.c
                       t2   0x000643       data     extern X:\mandm\mandm\mandm8722.c
                       t3   0x000647       data     extern X:\mandm\mandm\mandm8722.c
                       t4   0x00064b       data     extern X:\mandm\mandm\mandm8722.c
                       t5   0x00064f       data     extern X:\mandm\mandm\mandm8722.c
                       t6   0x000653       data     extern X:\mandm\mandm\mandm8722.c
                       t7   0x000657       data     extern X:\mandm\mandm\mandm8722.c
                   t_time   0x00065b       data     extern X:\mandm\mandm\mandm8722.c
                 voltfrak   0x00065f       data     extern X:\mandm\mandm\mandm8722.c
                   ahfrak   0x000663       data     extern X:\mandm\mandm\mandm8722.c
                      Vin   0x000667       data     extern X:\mandm\mandm\mandm8722.c
                   chrg_v   0x00066b       data     extern X:\mandm\mandm\mandm8722.c
                 vbatol_t   0x00066f       data     extern X:\mandm\mandm\mandm8722.c
                  solar_t   0x000673       data     extern X:\mandm\mandm\mandm8722.c
                 IDLEFLAG   0x000677       data     extern X:\mandm\mandm\mandm8722.c
              knob_to_pot   0x000678       data     extern X:\mandm\mandm\mandm8722.c
                       iw   0x000679       data     extern X:\mandm\mandm\mandm8722.c
                       ip   0x00067d       data     extern X:\mandm\mandm\mandm8722.c
                  adc_cal   0x000681       data     extern X:\mandm\mandm\mandm8722.c
                    CRITC   0x000691       data     extern X:\mandm\mandm\mandm8722.c
                   LCD_OK   0x000692       data     extern X:\mandm\mandm\mandm8722.c
               cable_type   0x000693       data     extern X:\mandm\mandm\mandm8722.c
             SSP2CON2bits   0x000f62       data     extern C:\Program Files\Microchip\mplabc18\v3.40\src\traditional\proc\p18F8722.asm
                 SSP2CON2   0x000f62       data     extern C:\Program Files\Microchip\mplabc18\v3.40\src\traditional\proc\p18F8722.asm
             SSP2CON1bits   0x000f63       data     extern C:\Program Files\Microchip\mplabc18\v3.40\src\traditional\proc\p18F8722.asm
                 SSP2CON1   0x000f63       data     extern C:\Program Files\Microchip\mplabc18\v3.40\src\traditional\proc\p18F8722.asm
             SSP2STATbits   0x000f64       data     extern C:\Program Files\Microchip\mplabc18\v3.40\src\traditional\proc\p18F8722.asm
                 SSP2STAT   0x000f64       data     extern C:\Program Files\Microchip\mplabc18\v3.40\src\traditional\proc\p18F8722.asm
                  SSP2ADD   0x000f65       data     extern C:\Program Files\Microchip\mplabc18\v3.40\src\traditional\proc\p18F8722.asm
                  SSP2BUF   0x000f66       data     extern C:\Program Files\Microchip\mplabc18\v3.40\src\traditional\proc\p18F8722.asm
                 ECCP2DEL   0x000f67       data     extern C:\Program Files\Microchip\mplabc18\v3.40\src\traditional\proc\p18F8722.asm
             ECCP2DELbits   0x000f67       data     extern C:\Program Files\Microchip\mplabc18\v3.40\src\traditional\proc\p18F8722.asm
                  ECCP2AS   0x000f68       data     extern C:\Program Files\Microchip\mplabc18\v3.40\src\traditional\proc\p18F8722.asm
              ECCP2ASbits   0x000f68       data     extern C:\Program Files\Microchip\mplabc18\v3.40\src\traditional\proc\p18F8722.asm
             ECCP3DELbits   0x000f69       data     extern C:\Program Files\Microchip\mplabc18\v3.40\src\traditional\proc\p18F8722.asm
                 ECCP3DEL   0x000f69       data     extern C:\Program Files\Microchip\mplabc18\v3.40\src\traditional\proc\p18F8722.asm
              ECCP3ASbits   0x000f6a       data     extern C:\Program Files\Microchip\mplabc18\v3.40\src\traditional\proc\p18F8722.asm
                  ECCP3AS   0x000f6a       data     extern C:\Program Files\Microchip\mplabc18\v3.40\src\traditional\proc\p18F8722.asm
               RCSTA2bits   0x000f6b       data     extern C:\Program Files\Microchip\mplabc18\v3.40\src\traditional\proc\p18F8722.asm
                   RCSTA2   0x000f6b       data     extern C:\Program Files\Microchip\mplabc18\v3.40\src\traditional\proc\p18F8722.asm
                   TXSTA2   0x000f6c       data     extern C:\Program Files\Microchip\mplabc18\v3.40\src\traditional\proc\p18F8722.asm
               TXSTA2bits   0x000f6c       data     extern C:\Program Files\Microchip\mplabc18\v3.40\src\traditional\proc\p18F8722.asm
                   TXREG2   0x000f6d       data     extern C:\Program Files\Microchip\mplabc18\v3.40\src\traditional\proc\p18F8722.asm
                   RCREG2   0x000f6e       data     extern C:\Program Files\Microchip\mplabc18\v3.40\src\traditional\proc\p18F8722.asm
                   SPBRG2   0x000f6f       data     extern C:\Program Files\Microchip\mplabc18\v3.40\src\traditional\proc\p18F8722.asm
                  CCP5CON   0x000f70       data     extern C:\Program Files\Microchip\mplabc18\v3.40\src\traditional\proc\p18F8722.asm
              CCP5CONbits   0x000f70       data     extern C:\Program Files\Microchip\mplabc18\v3.40\src\traditional\proc\p18F8722.asm
                    CCPR5   0x000f71       data     extern C:\Program Files\Microchip\mplabc18\v3.40\src\traditional\proc\p18F8722.asm
                   CCPR5L   0x000f71       data     extern C:\Program Files\Microchip\mplabc18\v3.40\src\traditional\proc\p18F8722.asm
                   CCPR5H   0x000f72       data     extern C:\Program Files\Microchip\mplabc18\v3.40\src\traditional\proc\p18F8722.asm
              CCP4CONbits   0x000f73       data     extern C:\Program Files\Microchip\mplabc18\v3.40\src\traditional\proc\p18F8722.asm
                  CCP4CON   0x000f73       data     extern C:\Program Files\Microchip\mplabc18\v3.40\src\traditional\proc\p18F8722.asm
                   CCPR4L   0x000f74       data     extern C:\Program Files\Microchip\mplabc18\v3.40\src\traditional\proc\p18F8722.asm
                    CCPR4   0x000f74       data     extern C:\Program Files\Microchip\mplabc18\v3.40\src\traditional\proc\p18F8722.asm
                   CCPR4H   0x000f75       data     extern C:\Program Files\Microchip\mplabc18\v3.40\src\traditional\proc\p18F8722.asm
                    T4CON   0x000f76       data     extern C:\Program Files\Microchip\mplabc18\v3.40\src\traditional\proc\p18F8722.asm
                T4CONbits   0x000f76       data     extern C:\Program Files\Microchip\mplabc18\v3.40\src\traditional\proc\p18F8722.asm
                      PR4   0x000f77       data     extern C:\Program Files\Microchip\mplabc18\v3.40\src\traditional\proc\p18F8722.asm
                     TMR4   0x000f78       data     extern C:\Program Files\Microchip\mplabc18\v3.40\src\traditional\proc\p18F8722.asm
             ECCP1DELbits   0x000f79       data     extern C:\Program Files\Microchip\mplabc18\v3.40\src\traditional\proc\p18F8722.asm
                 ECCP1DEL   0x000f79       data     extern C:\Program Files\Microchip\mplabc18\v3.40\src\traditional\proc\p18F8722.asm
             BAUDCON2bits   0x000f7c       data     extern C:\Program Files\Microchip\mplabc18\v3.40\src\traditional\proc\p18F8722.asm
                 BAUDCON2   0x000f7c       data     extern C:\Program Files\Microchip\mplabc18\v3.40\src\traditional\proc\p18F8722.asm
                  SPBRGH2   0x000f7d       data     extern C:\Program Files\Microchip\mplabc18\v3.40\src\traditional\proc\p18F8722.asm
                 BAUDCON1   0x000f7e       data     extern C:\Program Files\Microchip\mplabc18\v3.40\src\traditional\proc\p18F8722.asm
             BAUDCON1bits   0x000f7e       data     extern C:\Program Files\Microchip\mplabc18\v3.40\src\traditional\proc\p18F8722.asm
                  BAUDCON   0x000f7e       data     extern C:\Program Files\Microchip\mplabc18\v3.40\src\traditional\proc\p18F8722.asm
              BAUDCONbits   0x000f7e       data     extern C:\Program Files\Microchip\mplabc18\v3.40\src\traditional\proc\p18F8722.asm
                  SPBRGH1   0x000f7f       data     extern C:\Program Files\Microchip\mplabc18\v3.40\src\traditional\proc\p18F8722.asm
                   SPBRGH   0x000f7f       data     extern C:\Program Files\Microchip\mplabc18\v3.40\src\traditional\proc\p18F8722.asm
                PORTAbits   0x000f80       data     extern C:\Program Files\Microchip\mplabc18\v3.40\src\traditional\proc\p18F8722.asm
                    PORTA   0x000f80       data     extern C:\Program Files\Microchip\mplabc18\v3.40\src\traditional\proc\p18F8722.asm
                PORTBbits   0x000f81       data     extern C:\Program Files\Microchip\mplabc18\v3.40\src\traditional\proc\p18F8722.asm
                    PORTB   0x000f81       data     extern C:\Program Files\Microchip\mplabc18\v3.40\src\traditional\proc\p18F8722.asm
                    PORTC   0x000f82       data     extern C:\Program Files\Microchip\mplabc18\v3.40\src\traditional\proc\p18F8722.asm
                PORTCbits   0x000f82       data     extern C:\Program Files\Microchip\mplabc18\v3.40\src\traditional\proc\p18F8722.asm
                    PORTD   0x000f83       data     extern C:\Program Files\Microchip\mplabc18\v3.40\src\traditional\proc\p18F8722.asm
                PORTDbits   0x000f83       data     extern C:\Program Files\Microchip\mplabc18\v3.40\src\traditional\proc\p18F8722.asm
                    PORTE   0x000f84       data     extern C:\Program Files\Microchip\mplabc18\v3.40\src\traditional\proc\p18F8722.asm
                PORTEbits   0x000f84       data     extern C:\Program Files\Microchip\mplabc18\v3.40\src\traditional\proc\p18F8722.asm
                PORTFbits   0x000f85       data     extern C:\Program Files\Microchip\mplabc18\v3.40\src\traditional\proc\p18F8722.asm
                    PORTF   0x000f85       data     extern C:\Program Files\Microchip\mplabc18\v3.40\src\traditional\proc\p18F8722.asm
                    PORTG   0x000f86       data     extern C:\Program Files\Microchip\mplabc18\v3.40\src\traditional\proc\p18F8722.asm
                PORTGbits   0x000f86       data     extern C:\Program Files\Microchip\mplabc18\v3.40\src\traditional\proc\p18F8722.asm
                    PORTH   0x000f87       data     extern C:\Program Files\Microchip\mplabc18\v3.40\src\traditional\proc\p18F8722.asm
                PORTHbits   0x000f87       data     extern C:\Program Files\Microchip\mplabc18\v3.40\src\traditional\proc\p18F8722.asm
                    PORTJ   0x000f88       data     extern C:\Program Files\Microchip\mplabc18\v3.40\src\traditional\proc\p18F8722.asm
                PORTJbits   0x000f88       data     extern C:\Program Files\Microchip\mplabc18\v3.40\src\traditional\proc\p18F8722.asm
                 LATAbits   0x000f89       data     extern C:\Program Files\Microchip\mplabc18\v3.40\src\traditional\proc\p18F8722.asm
                     LATA   0x000f89       data     extern C:\Program Files\Microchip\mplabc18\v3.40\src\traditional\proc\p18F8722.asm
                 LATBbits   0x000f8a       data     extern C:\Program Files\Microchip\mplabc18\v3.40\src\traditional\proc\p18F8722.asm
                     LATB   0x000f8a       data     extern C:\Program Files\Microchip\mplabc18\v3.40\src\traditional\proc\p18F8722.asm
                     LATC   0x000f8b       data     extern C:\Program Files\Microchip\mplabc18\v3.40\src\traditional\proc\p18F8722.asm
                 LATCbits   0x000f8b       data     extern C:\Program Files\Microchip\mplabc18\v3.40\src\traditional\proc\p18F8722.asm
                 LATDbits   0x000f8c       data     extern C:\Program Files\Microchip\mplabc18\v3.40\src\traditional\proc\p18F8722.asm
                     LATD   0x000f8c       data     extern C:\Program Files\Microchip\mplabc18\v3.40\src\traditional\proc\p18F8722.asm
                     LATE   0x000f8d       data     extern C:\Program Files\Microchip\mplabc18\v3.40\src\traditional\proc\p18F8722.asm
                 LATEbits   0x000f8d       data     extern C:\Program Files\Microchip\mplabc18\v3.40\src\traditional\proc\p18F8722.asm
                 LATFbits   0x000f8e       data     extern C:\Program Files\Microchip\mplabc18\v3.40\src\traditional\proc\p18F8722.asm
                     LATF   0x000f8e       data     extern C:\Program Files\Microchip\mplabc18\v3.40\src\traditional\proc\p18F8722.asm
                     LATG   0x000f8f       data     extern C:\Program Files\Microchip\mplabc18\v3.40\src\traditional\proc\p18F8722.asm
                 LATGbits   0x000f8f       data     extern C:\Program Files\Microchip\mplabc18\v3.40\src\traditional\proc\p18F8722.asm
                     LATH   0x000f90       data     extern C:\Program Files\Microchip\mplabc18\v3.40\src\traditional\proc\p18F8722.asm
                 LATHbits   0x000f90       data     extern C:\Program Files\Microchip\mplabc18\v3.40\src\traditional\proc\p18F8722.asm
                     LATJ   0x000f91       data     extern C:\Program Files\Microchip\mplabc18\v3.40\src\traditional\proc\p18F8722.asm
                 LATJbits   0x000f91       data     extern C:\Program Files\Microchip\mplabc18\v3.40\src\traditional\proc\p18F8722.asm
                 DDRAbits   0x000f92       data     extern C:\Program Files\Microchip\mplabc18\v3.40\src\traditional\proc\p18F8722.asm
                     DDRA   0x000f92       data     extern C:\Program Files\Microchip\mplabc18\v3.40\src\traditional\proc\p18F8722.asm
                    TRISA   0x000f92       data     extern C:\Program Files\Microchip\mplabc18\v3.40\src\traditional\proc\p18F8722.asm
                TRISAbits   0x000f92       data     extern C:\Program Files\Microchip\mplabc18\v3.40\src\traditional\proc\p18F8722.asm
                 DDRBbits   0x000f93       data     extern C:\Program Files\Microchip\mplabc18\v3.40\src\traditional\proc\p18F8722.asm
                     DDRB   0x000f93       data     extern C:\Program Files\Microchip\mplabc18\v3.40\src\traditional\proc\p18F8722.asm
                    TRISB   0x000f93       data     extern C:\Program Files\Microchip\mplabc18\v3.40\src\traditional\proc\p18F8722.asm
                TRISBbits   0x000f93       data     extern C:\Program Files\Microchip\mplabc18\v3.40\src\traditional\proc\p18F8722.asm
                     DDRC   0x000f94       data     extern C:\Program Files\Microchip\mplabc18\v3.40\src\traditional\proc\p18F8722.asm
                 DDRCbits   0x000f94       data     extern C:\Program Files\Microchip\mplabc18\v3.40\src\traditional\proc\p18F8722.asm
                    TRISC   0x000f94       data     extern C:\Program Files\Microchip\mplabc18\v3.40\src\traditional\proc\p18F8722.asm
                TRISCbits   0x000f94       data     extern C:\Program Files\Microchip\mplabc18\v3.40\src\traditional\proc\p18F8722.asm
                     DDRD   0x000f95       data     extern C:\Program Files\Microchip\mplabc18\v3.40\src\traditional\proc\p18F8722.asm
                    TRISD   0x000f95       data     extern C:\Program Files\Microchip\mplabc18\v3.40\src\traditional\proc\p18F8722.asm
                 DDRDbits   0x000f95       data     extern C:\Program Files\Microchip\mplabc18\v3.40\src\traditional\proc\p18F8722.asm
                TRISDbits   0x000f95       data     extern C:\Program Files\Microchip\mplabc18\v3.40\src\traditional\proc\p18F8722.asm
                 DDREbits   0x000f96       data     extern C:\Program Files\Microchip\mplabc18\v3.40\src\traditional\proc\p18F8722.asm
                     DDRE   0x000f96       data     extern C:\Program Files\Microchip\mplabc18\v3.40\src\traditional\proc\p18F8722.asm
                    TRISE   0x000f96       data     extern C:\Program Files\Microchip\mplabc18\v3.40\src\traditional\proc\p18F8722.asm
                TRISEbits   0x000f96       data     extern C:\Program Files\Microchip\mplabc18\v3.40\src\traditional\proc\p18F8722.asm
                 DDRFbits   0x000f97       data     extern C:\Program Files\Microchip\mplabc18\v3.40\src\traditional\proc\p18F8722.asm
                     DDRF   0x000f97       data     extern C:\Program Files\Microchip\mplabc18\v3.40\src\traditional\proc\p18F8722.asm
                    TRISF   0x000f97       data     extern C:\Program Files\Microchip\mplabc18\v3.40\src\traditional\proc\p18F8722.asm
                TRISFbits   0x000f97       data     extern C:\Program Files\Microchip\mplabc18\v3.40\src\traditional\proc\p18F8722.asm
                 DDRGbits   0x000f98       data     extern C:\Program Files\Microchip\mplabc18\v3.40\src\traditional\proc\p18F8722.asm
                     DDRG   0x000f98       data     extern C:\Program Files\Microchip\mplabc18\v3.40\src\traditional\proc\p18F8722.asm
                    TRISG   0x000f98       data     extern C:\Program Files\Microchip\mplabc18\v3.40\src\traditional\proc\p18F8722.asm
                TRISGbits   0x000f98       data     extern C:\Program Files\Microchip\mplabc18\v3.40\src\traditional\proc\p18F8722.asm
                     DDRH   0x000f99       data     extern C:\Program Files\Microchip\mplabc18\v3.40\src\traditional\proc\p18F8722.asm
                TRISHbits   0x000f99       data     extern C:\Program Files\Microchip\mplabc18\v3.40\src\traditional\proc\p18F8722.asm
                    TRISH   0x000f99       data     extern C:\Program Files\Microchip\mplabc18\v3.40\src\traditional\proc\p18F8722.asm
                 DDRHbits   0x000f99       data     extern C:\Program Files\Microchip\mplabc18\v3.40\src\traditional\proc\p18F8722.asm
                 DDRJbits   0x000f9a       data     extern C:\Program Files\Microchip\mplabc18\v3.40\src\traditional\proc\p18F8722.asm
                TRISJbits   0x000f9a       data     extern C:\Program Files\Microchip\mplabc18\v3.40\src\traditional\proc\p18F8722.asm
                    TRISJ   0x000f9a       data     extern C:\Program Files\Microchip\mplabc18\v3.40\src\traditional\proc\p18F8722.asm
                     DDRJ   0x000f9a       data     extern C:\Program Files\Microchip\mplabc18\v3.40\src\traditional\proc\p18F8722.asm
                  OSCTUNE   0x000f9b       data     extern C:\Program Files\Microchip\mplabc18\v3.40\src\traditional\proc\p18F8722.asm
              OSCTUNEbits   0x000f9b       data     extern C:\Program Files\Microchip\mplabc18\v3.40\src\traditional\proc\p18F8722.asm
                   MEMCON   0x000f9c       data     extern C:\Program Files\Microchip\mplabc18\v3.40\src\traditional\proc\p18F8722.asm
               MEMCONbits   0x000f9c       data     extern C:\Program Files\Microchip\mplabc18\v3.40\src\traditional\proc\p18F8722.asm
                     PIE1   0x000f9d       data     extern C:\Program Files\Microchip\mplabc18\v3.40\src\traditional\proc\p18F8722.asm
                 PIE1bits   0x000f9d       data     extern C:\Program Files\Microchip\mplabc18\v3.40\src\traditional\proc\p18F8722.asm
                 PIR1bits   0x000f9e       data     extern C:\Program Files\Microchip\mplabc18\v3.40\src\traditional\proc\p18F8722.asm
                     PIR1   0x000f9e       data     extern C:\Program Files\Microchip\mplabc18\v3.40\src\traditional\proc\p18F8722.asm
                 IPR1bits   0x000f9f       data     extern C:\Program Files\Microchip\mplabc18\v3.40\src\traditional\proc\p18F8722.asm
                     IPR1   0x000f9f       data     extern C:\Program Files\Microchip\mplabc18\v3.40\src\traditional\proc\p18F8722.asm
                 PIE2bits   0x000fa0       data     extern C:\Program Files\Microchip\mplabc18\v3.40\src\traditional\proc\p18F8722.asm
                     PIE2   0x000fa0       data     extern C:\Program Files\Microchip\mplabc18\v3.40\src\traditional\proc\p18F8722.asm
                     PIR2   0x000fa1       data     extern C:\Program Files\Microchip\mplabc18\v3.40\src\traditional\proc\p18F8722.asm
                 PIR2bits   0x000fa1       data     extern C:\Program Files\Microchip\mplabc18\v3.40\src\traditional\proc\p18F8722.asm
                     IPR2   0x000fa2       data     extern C:\Program Files\Microchip\mplabc18\v3.40\src\traditional\proc\p18F8722.asm
                 IPR2bits   0x000fa2       data     extern C:\Program Files\Microchip\mplabc18\v3.40\src\traditional\proc\p18F8722.asm
                     PIE3   0x000fa3       data     extern C:\Program Files\Microchip\mplabc18\v3.40\src\traditional\proc\p18F8722.asm
                 PIE3bits   0x000fa3       data     extern C:\Program Files\Microchip\mplabc18\v3.40\src\traditional\proc\p18F8722.asm
                     PIR3   0x000fa4       data     extern C:\Program Files\Microchip\mplabc18\v3.40\src\traditional\proc\p18F8722.asm
                 PIR3bits   0x000fa4       data     extern C:\Program Files\Microchip\mplabc18\v3.40\src\traditional\proc\p18F8722.asm
                 IPR3bits   0x000fa5       data     extern C:\Program Files\Microchip\mplabc18\v3.40\src\traditional\proc\p18F8722.asm
                     IPR3   0x000fa5       data     extern C:\Program Files\Microchip\mplabc18\v3.40\src\traditional\proc\p18F8722.asm
                   EECON1   0x000fa6       data     extern C:\Program Files\Microchip\mplabc18\v3.40\src\traditional\proc\p18F8722.asm
               EECON1bits   0x000fa6       data     extern C:\Program Files\Microchip\mplabc18\v3.40\src\traditional\proc\p18F8722.asm
                   EECON2   0x000fa7       data     extern C:\Program Files\Microchip\mplabc18\v3.40\src\traditional\proc\p18F8722.asm
                   EEDATA   0x000fa8       data     extern C:\Program Files\Microchip\mplabc18\v3.40\src\traditional\proc\p18F8722.asm
                    EEADR   0x000fa9       data     extern C:\Program Files\Microchip\mplabc18\v3.40\src\traditional\proc\p18F8722.asm
                   EEADRH   0x000faa       data     extern C:\Program Files\Microchip\mplabc18\v3.40\src\traditional\proc\p18F8722.asm
                    RCSTA   0x000fab       data     extern C:\Program Files\Microchip\mplabc18\v3.40\src\traditional\proc\p18F8722.asm
                RCSTAbits   0x000fab       data     extern C:\Program Files\Microchip\mplabc18\v3.40\src\traditional\proc\p18F8722.asm
               RCSTA1bits   0x000fab       data     extern C:\Program Files\Microchip\mplabc18\v3.40\src\traditional\proc\p18F8722.asm
                   RCSTA1   0x000fab       data     extern C:\Program Files\Microchip\mplabc18\v3.40\src\traditional\proc\p18F8722.asm
                    TXSTA   0x000fac       data     extern C:\Program Files\Microchip\mplabc18\v3.40\src\traditional\proc\p18F8722.asm
                TXSTAbits   0x000fac       data     extern C:\Program Files\Microchip\mplabc18\v3.40\src\traditional\proc\p18F8722.asm
               TXSTA1bits   0x000fac       data     extern C:\Program Files\Microchip\mplabc18\v3.40\src\traditional\proc\p18F8722.asm
                   TXSTA1   0x000fac       data     extern C:\Program Files\Microchip\mplabc18\v3.40\src\traditional\proc\p18F8722.asm
                    TXREG   0x000fad       data     extern C:\Program Files\Microchip\mplabc18\v3.40\src\traditional\proc\p18F8722.asm
                   TXREG1   0x000fad       data     extern C:\Program Files\Microchip\mplabc18\v3.40\src\traditional\proc\p18F8722.asm
                   RCREG1   0x000fae       data     extern C:\Program Files\Microchip\mplabc18\v3.40\src\traditional\proc\p18F8722.asm
                    RCREG   0x000fae       data     extern C:\Program Files\Microchip\mplabc18\v3.40\src\traditional\proc\p18F8722.asm
                    SPBRG   0x000faf       data     extern C:\Program Files\Microchip\mplabc18\v3.40\src\traditional\proc\p18F8722.asm
                   SPBRG1   0x000faf       data     extern C:\Program Files\Microchip\mplabc18\v3.40\src\traditional\proc\p18F8722.asm
                   PSPCON   0x000fb0       data     extern C:\Program Files\Microchip\mplabc18\v3.40\src\traditional\proc\p18F8722.asm
               PSPCONbits   0x000fb0       data     extern C:\Program Files\Microchip\mplabc18\v3.40\src\traditional\proc\p18F8722.asm
                    T3CON   0x000fb1       data     extern C:\Program Files\Microchip\mplabc18\v3.40\src\traditional\proc\p18F8722.asm
                T3CONbits   0x000fb1       data     extern C:\Program Files\Microchip\mplabc18\v3.40\src\traditional\proc\p18F8722.asm
                    TMR3L   0x000fb2       data     extern C:\Program Files\Microchip\mplabc18\v3.40\src\traditional\proc\p18F8722.asm
                    TMR3H   0x000fb3       data     extern C:\Program Files\Microchip\mplabc18\v3.40\src\traditional\proc\p18F8722.asm
                CMCONbits   0x000fb4       data     extern C:\Program Files\Microchip\mplabc18\v3.40\src\traditional\proc\p18F8722.asm
                    CMCON   0x000fb4       data     extern C:\Program Files\Microchip\mplabc18\v3.40\src\traditional\proc\p18F8722.asm
               CVRCONbits   0x000fb5       data     extern C:\Program Files\Microchip\mplabc18\v3.40\src\traditional\proc\p18F8722.asm
                   CVRCON   0x000fb5       data     extern C:\Program Files\Microchip\mplabc18\v3.40\src\traditional\proc\p18F8722.asm
              ECCP1ASbits   0x000fb6       data     extern C:\Program Files\Microchip\mplabc18\v3.40\src\traditional\proc\p18F8722.asm
                  ECCP1AS   0x000fb6       data     extern C:\Program Files\Microchip\mplabc18\v3.40\src\traditional\proc\p18F8722.asm
                  CCP3CON   0x000fb7       data     extern C:\Program Files\Microchip\mplabc18\v3.40\src\traditional\proc\p18F8722.asm
             ECCP3CONbits   0x000fb7       data     extern C:\Program Files\Microchip\mplabc18\v3.40\src\traditional\proc\p18F8722.asm
                 ECCP3CON   0x000fb7       data     extern C:\Program Files\Microchip\mplabc18\v3.40\src\traditional\proc\p18F8722.asm
              CCP3CONbits   0x000fb7       data     extern C:\Program Files\Microchip\mplabc18\v3.40\src\traditional\proc\p18F8722.asm
                    CCPR3   0x000fb8       data     extern C:\Program Files\Microchip\mplabc18\v3.40\src\traditional\proc\p18F8722.asm
                   CCPR3L   0x000fb8       data     extern C:\Program Files\Microchip\mplabc18\v3.40\src\traditional\proc\p18F8722.asm
                   CCPR3H   0x000fb9       data     extern C:\Program Files\Microchip\mplabc18\v3.40\src\traditional\proc\p18F8722.asm
              CCP2CONbits   0x000fba       data     extern C:\Program Files\Microchip\mplabc18\v3.40\src\traditional\proc\p18F8722.asm
                  CCP2CON   0x000fba       data     extern C:\Program Files\Microchip\mplabc18\v3.40\src\traditional\proc\p18F8722.asm
                 ECCP2CON   0x000fba       data     extern C:\Program Files\Microchip\mplabc18\v3.40\src\traditional\proc\p18F8722.asm
             ECCP2CONbits   0x000fba       data     extern C:\Program Files\Microchip\mplabc18\v3.40\src\traditional\proc\p18F8722.asm
                   CCPR2L   0x000fbb       data     extern C:\Program Files\Microchip\mplabc18\v3.40\src\traditional\proc\p18F8722.asm
                    CCPR2   0x000fbb       data     extern C:\Program Files\Microchip\mplabc18\v3.40\src\traditional\proc\p18F8722.asm
                   CCPR2H   0x000fbc       data     extern C:\Program Files\Microchip\mplabc18\v3.40\src\traditional\proc\p18F8722.asm
             ECCP1CONbits   0x000fbd       data     extern C:\Program Files\Microchip\mplabc18\v3.40\src\traditional\proc\p18F8722.asm
                 ECCP1CON   0x000fbd       data     extern C:\Program Files\Microchip\mplabc18\v3.40\src\traditional\proc\p18F8722.asm
                  CCP1CON   0x000fbd       data     extern C:\Program Files\Microchip\mplabc18\v3.40\src\traditional\proc\p18F8722.asm
              CCP1CONbits   0x000fbd       data     extern C:\Program Files\Microchip\mplabc18\v3.40\src\traditional\proc\p18F8722.asm
                   CCPR1L   0x000fbe       data     extern C:\Program Files\Microchip\mplabc18\v3.40\src\traditional\proc\p18F8722.asm
                    CCPR1   0x000fbe       data     extern C:\Program Files\Microchip\mplabc18\v3.40\src\traditional\proc\p18F8722.asm
                   CCPR1H   0x000fbf       data     extern C:\Program Files\Microchip\mplabc18\v3.40\src\traditional\proc\p18F8722.asm
                   ADCON2   0x000fc0       data     extern C:\Program Files\Microchip\mplabc18\v3.40\src\traditional\proc\p18F8722.asm
               ADCON2bits   0x000fc0       data     extern C:\Program Files\Microchip\mplabc18\v3.40\src\traditional\proc\p18F8722.asm
                   ADCON1   0x000fc1       data     extern C:\Program Files\Microchip\mplabc18\v3.40\src\traditional\proc\p18F8722.asm
               ADCON1bits   0x000fc1       data     extern C:\Program Files\Microchip\mplabc18\v3.40\src\traditional\proc\p18F8722.asm
                   ADCON0   0x000fc2       data     extern C:\Program Files\Microchip\mplabc18\v3.40\src\traditional\proc\p18F8722.asm
               ADCON0bits   0x000fc2       data     extern C:\Program Files\Microchip\mplabc18\v3.40\src\traditional\proc\p18F8722.asm
                    ADRES   0x000fc3       data     extern C:\Program Files\Microchip\mplabc18\v3.40\src\traditional\proc\p18F8722.asm
                   ADRESL   0x000fc3       data     extern C:\Program Files\Microchip\mplabc18\v3.40\src\traditional\proc\p18F8722.asm
                   ADRESH   0x000fc4       data     extern C:\Program Files\Microchip\mplabc18\v3.40\src\traditional\proc\p18F8722.asm
                 SSP1CON2   0x000fc5       data     extern C:\Program Files\Microchip\mplabc18\v3.40\src\traditional\proc\p18F8722.asm
             SSP1CON2bits   0x000fc5       data     extern C:\Program Files\Microchip\mplabc18\v3.40\src\traditional\proc\p18F8722.asm
                  SSPCON2   0x000fc5       data     extern C:\Program Files\Microchip\mplabc18\v3.40\src\traditional\proc\p18F8722.asm
              SSPCON2bits   0x000fc5       data     extern C:\Program Files\Microchip\mplabc18\v3.40\src\traditional\proc\p18F8722.asm
                 SSP1CON1   0x000fc6       data     extern C:\Program Files\Microchip\mplabc18\v3.40\src\traditional\proc\p18F8722.asm
             SSP1CON1bits   0x000fc6       data     extern C:\Program Files\Microchip\mplabc18\v3.40\src\traditional\proc\p18F8722.asm
                  SSPCON1   0x000fc6       data     extern C:\Program Files\Microchip\mplabc18\v3.40\src\traditional\proc\p18F8722.asm
              SSPCON1bits   0x000fc6       data     extern C:\Program Files\Microchip\mplabc18\v3.40\src\traditional\proc\p18F8722.asm
                 SSP1STAT   0x000fc7       data     extern C:\Program Files\Microchip\mplabc18\v3.40\src\traditional\proc\p18F8722.asm
             SSP1STATbits   0x000fc7       data     extern C:\Program Files\Microchip\mplabc18\v3.40\src\traditional\proc\p18F8722.asm
                  SSPSTAT   0x000fc7       data     extern C:\Program Files\Microchip\mplabc18\v3.40\src\traditional\proc\p18F8722.asm
              SSPSTATbits   0x000fc7       data     extern C:\Program Files\Microchip\mplabc18\v3.40\src\traditional\proc\p18F8722.asm
                   SSPADD   0x000fc8       data     extern C:\Program Files\Microchip\mplabc18\v3.40\src\traditional\proc\p18F8722.asm
                  SSP1ADD   0x000fc8       data     extern C:\Program Files\Microchip\mplabc18\v3.40\src\traditional\proc\p18F8722.asm
                   SSPBUF   0x000fc9       data     extern C:\Program Files\Microchip\mplabc18\v3.40\src\traditional\proc\p18F8722.asm
                  SSP1BUF   0x000fc9       data     extern C:\Program Files\Microchip\mplabc18\v3.40\src\traditional\proc\p18F8722.asm
                T2CONbits   0x000fca       data     extern C:\Program Files\Microchip\mplabc18\v3.40\src\traditional\proc\p18F8722.asm
                    T2CON   0x000fca       data     extern C:\Program Files\Microchip\mplabc18\v3.40\src\traditional\proc\p18F8722.asm
                      PR2   0x000fcb       data     extern C:\Program Files\Microchip\mplabc18\v3.40\src\traditional\proc\p18F8722.asm
                     TMR2   0x000fcc       data     extern C:\Program Files\Microchip\mplabc18\v3.40\src\traditional\proc\p18F8722.asm
                    T1CON   0x000fcd       data     extern C:\Program Files\Microchip\mplabc18\v3.40\src\traditional\proc\p18F8722.asm
                T1CONbits   0x000fcd       data     extern C:\Program Files\Microchip\mplabc18\v3.40\src\traditional\proc\p18F8722.asm
                    TMR1L   0x000fce       data     extern C:\Program Files\Microchip\mplabc18\v3.40\src\traditional\proc\p18F8722.asm
                    TMR1H   0x000fcf       data     extern C:\Program Files\Microchip\mplabc18\v3.40\src\traditional\proc\p18F8722.asm
                 RCONbits   0x000fd0       data     extern C:\Program Files\Microchip\mplabc18\v3.40\src\traditional\proc\p18F8722.asm
                     RCON   0x000fd0       data     extern C:\Program Files\Microchip\mplabc18\v3.40\src\traditional\proc\p18F8722.asm
               WDTCONbits   0x000fd1       data     extern C:\Program Files\Microchip\mplabc18\v3.40\src\traditional\proc\p18F8722.asm
                   WDTCON   0x000fd1       data     extern C:\Program Files\Microchip\mplabc18\v3.40\src\traditional\proc\p18F8722.asm
                  HLVDCON   0x000fd2       data     extern C:\Program Files\Microchip\mplabc18\v3.40\src\traditional\proc\p18F8722.asm
              HLVDCONbits   0x000fd2       data     extern C:\Program Files\Microchip\mplabc18\v3.40\src\traditional\proc\p18F8722.asm
                   LVDCON   0x000fd2       data     extern C:\Program Files\Microchip\mplabc18\v3.40\src\traditional\proc\p18F8722.asm
               LVDCONbits   0x000fd2       data     extern C:\Program Files\Microchip\mplabc18\v3.40\src\traditional\proc\p18F8722.asm
                   OSCCON   0x000fd3       data     extern C:\Program Files\Microchip\mplabc18\v3.40\src\traditional\proc\p18F8722.asm
               OSCCONbits   0x000fd3       data     extern C:\Program Files\Microchip\mplabc18\v3.40\src\traditional\proc\p18F8722.asm
                    T0CON   0x000fd5       data     extern C:\Program Files\Microchip\mplabc18\v3.40\src\traditional\proc\p18F8722.asm
                T0CONbits   0x000fd5       data     extern C:\Program Files\Microchip\mplabc18\v3.40\src\traditional\proc\p18F8722.asm
                    TMR0L   0x000fd6       data     extern C:\Program Files\Microchip\mplabc18\v3.40\src\traditional\proc\p18F8722.asm
                    TMR0H   0x000fd7       data     extern C:\Program Files\Microchip\mplabc18\v3.40\src\traditional\proc\p18F8722.asm
                   STATUS   0x000fd8       data     extern C:\Program Files\Microchip\mplabc18\v3.40\src\traditional\proc\p18F8722.asm
               STATUSbits   0x000fd8       data     extern C:\Program Files\Microchip\mplabc18\v3.40\src\traditional\proc\p18F8722.asm
                    FSR2L   0x000fd9       data     extern C:\Program Files\Microchip\mplabc18\v3.40\src\traditional\proc\p18F8722.asm
                     FSR2   0x000fd9       data     extern C:\Program Files\Microchip\mplabc18\v3.40\src\traditional\proc\p18F8722.asm
                    FSR2H   0x000fda       data     extern C:\Program Files\Microchip\mplabc18\v3.40\src\traditional\proc\p18F8722.asm
                   PLUSW2   0x000fdb       data     extern C:\Program Files\Microchip\mplabc18\v3.40\src\traditional\proc\p18F8722.asm
                  PREINC2   0x000fdc       data     extern C:\Program Files\Microchip\mplabc18\v3.40\src\traditional\proc\p18F8722.asm
                 POSTDEC2   0x000fdd       data     extern C:\Program Files\Microchip\mplabc18\v3.40\src\traditional\proc\p18F8722.asm
                 POSTINC2   0x000fde       data     extern C:\Program Files\Microchip\mplabc18\v3.40\src\traditional\proc\p18F8722.asm
                    INDF2   0x000fdf       data     extern C:\Program Files\Microchip\mplabc18\v3.40\src\traditional\proc\p18F8722.asm
                      BSR   0x000fe0       data     extern C:\Program Files\Microchip\mplabc18\v3.40\src\traditional\proc\p18F8722.asm
                    FSR1L   0x000fe1       data     extern C:\Program Files\Microchip\mplabc18\v3.40\src\traditional\proc\p18F8722.asm
                     FSR1   0x000fe1       data     extern C:\Program Files\Microchip\mplabc18\v3.40\src\traditional\proc\p18F8722.asm
                    FSR1H   0x000fe2       data     extern C:\Program Files\Microchip\mplabc18\v3.40\src\traditional\proc\p18F8722.asm
                   PLUSW1   0x000fe3       data     extern C:\Program Files\Microchip\mplabc18\v3.40\src\traditional\proc\p18F8722.asm
                  PREINC1   0x000fe4       data     extern C:\Program Files\Microchip\mplabc18\v3.40\src\traditional\proc\p18F8722.asm
                 POSTDEC1   0x000fe5       data     extern C:\Program Files\Microchip\mplabc18\v3.40\src\traditional\proc\p18F8722.asm
                 POSTINC1   0x000fe6       data     extern C:\Program Files\Microchip\mplabc18\v3.40\src\traditional\proc\p18F8722.asm
                    INDF1   0x000fe7       data     extern C:\Program Files\Microchip\mplabc18\v3.40\src\traditional\proc\p18F8722.asm
                     WREG   0x000fe8       data     extern C:\Program Files\Microchip\mplabc18\v3.40\src\traditional\proc\p18F8722.asm
                     FSR0   0x000fe9       data     extern C:\Program Files\Microchip\mplabc18\v3.40\src\traditional\proc\p18F8722.asm
                    FSR0L   0x000fe9       data     extern C:\Program Files\Microchip\mplabc18\v3.40\src\traditional\proc\p18F8722.asm
                    FSR0H   0x000fea       data     extern C:\Program Files\Microchip\mplabc18\v3.40\src\traditional\proc\p18F8722.asm
                   PLUSW0   0x000feb       data     extern C:\Program Files\Microchip\mplabc18\v3.40\src\traditional\proc\p18F8722.asm
                  PREINC0   0x000fec       data     extern C:\Program Files\Microchip\mplabc18\v3.40\src\traditional\proc\p18F8722.asm
                 POSTDEC0   0x000fed       data     extern C:\Program Files\Microchip\mplabc18\v3.40\src\traditional\proc\p18F8722.asm
                 POSTINC0   0x000fee       data     extern C:\Program Files\Microchip\mplabc18\v3.40\src\traditional\proc\p18F8722.asm
                    INDF0   0x000fef       data     extern C:\Program Files\Microchip\mplabc18\v3.40\src\traditional\proc\p18F8722.asm
                  INTCON3   0x000ff0       data     extern C:\Program Files\Microchip\mplabc18\v3.40\src\traditional\proc\p18F8722.asm
              INTCON3bits   0x000ff0       data     extern C:\Program Files\Microchip\mplabc18\v3.40\src\traditional\proc\p18F8722.asm
              INTCON2bits   0x000ff1       data     extern C:\Program Files\Microchip\mplabc18\v3.40\src\traditional\proc\p18F8722.asm
                  INTCON2   0x000ff1       data     extern C:\Program Files\Microchip\mplabc18\v3.40\src\traditional\proc\p18F8722.asm
                   INTCON   0x000ff2       data     extern C:\Program Files\Microchip\mplabc18\v3.40\src\traditional\proc\p18F8722.asm
               INTCONbits   0x000ff2       data     extern C:\Program Files\Microchip\mplabc18\v3.40\src\traditional\proc\p18F8722.asm
                     PROD   0x000ff3       data     extern C:\Program Files\Microchip\mplabc18\v3.40\src\traditional\proc\p18F8722.asm
                    PRODL   0x000ff3       data     extern C:\Program Files\Microchip\mplabc18\v3.40\src\traditional\proc\p18F8722.asm
                    PRODH   0x000ff4       data     extern C:\Program Files\Microchip\mplabc18\v3.40\src\traditional\proc\p18F8722.asm
                   TABLAT   0x000ff5       data     extern C:\Program Files\Microchip\mplabc18\v3.40\src\traditional\proc\p18F8722.asm
                   TBLPTR   0x000ff6       data     extern C:\Program Files\Microchip\mplabc18\v3.40\src\traditional\proc\p18F8722.asm
                  TBLPTRL   0x000ff6       data     extern C:\Program Files\Microchip\mplabc18\v3.40\src\traditional\proc\p18F8722.asm
                  TBLPTRH   0x000ff7       data     extern C:\Program Files\Microchip\mplabc18\v3.40\src\traditional\proc\p18F8722.asm
                  TBLPTRU   0x000ff8       data     extern C:\Program Files\Microchip\mplabc18\v3.40\src\traditional\proc\p18F8722.asm
                       PC   0x000ff9       data     extern C:\Program Files\Microchip\mplabc18\v3.40\src\traditional\proc\p18F8722.asm
                      PCL   0x000ff9       data     extern C:\Program Files\Microchip\mplabc18\v3.40\src\traditional\proc\p18F8722.asm
                   PCLATH   0x000ffa       data     extern C:\Program Files\Microchip\mplabc18\v3.40\src\traditional\proc\p18F8722.asm
                   PCLATU   0x000ffb       data     extern C:\Program Files\Microchip\mplabc18\v3.40\src\traditional\proc\p18F8722.asm
                   STKPTR   0x000ffc       data     extern C:\Program Files\Microchip\mplabc18\v3.40\src\traditional\proc\p18F8722.asm
               STKPTRbits   0x000ffc       data     extern C:\Program Files\Microchip\mplabc18\v3.40\src\traditional\proc\p18F8722.asm
                      TOS   0x000ffd       data     extern C:\Program Files\Microchip\mplabc18\v3.40\src\traditional\proc\p18F8722.asm
                     TOSL   0x000ffd       data     extern C:\Program Files\Microchip\mplabc18\v3.40\src\traditional\proc\p18F8722.asm
                     TOSH   0x000ffe       data     extern C:\Program Files\Microchip\mplabc18\v3.40\src\traditional\proc\p18F8722.asm
                     TOSU   0x000fff       data     extern C:\Program Files\Microchip\mplabc18\v3.40\src\traditional\proc\p18F8722.asm


