MPLINK 4.40, Linker
Linker Map File - Created Tue Jan 29 21:36:31 2013

                                 Section Info
                  Section       Type    Address   Location Size(Bytes)
                ---------  ---------  ---------  ---------  ---------
               _entry_scn       code   0x000000    program   0x000006
       .code__user_putc.o       code   0x000006    program   0x000002
           tick_interrupt       code   0x000008    program   0x000006
          .code_adcbusy.o       code   0x00000e    program   0x00000a
           work_interrupt       code   0x000018    program   0x000006
                   .cinit    romdata   0x00001e    program   0x00004a
        .code_mandm8722.o       code   0x000068    program   0x006c26
              .code_daq.o       code   0x006c8e    program   0x001a48
             .stringtable    romdata   0x0086d6    program   0x001527
     .romdata_mandm8722.o    romdata   0x009bfd    program   0x00133a
      .romdata_putsxlcd.o    romdata   0x00af37    program   0x000000
        .idata_u2open.o_i    romdata   0x00af37    program   0x000000
       .romdata_fxm3232.o    romdata   0x00af37    program   0x000000
       .idata_fxm3232.o_i    romdata   0x00af37    program   0x000000
      .romdata_fxd1616u.o    romdata   0x00af37    program   0x000000
      .idata_fxd1616u.o_i    romdata   0x00af37    program   0x000000
       .romdata_adcconv.o    romdata   0x00af37    program   0x000000
       .idata_adcconv.o_i    romdata   0x00af37    program   0x000000
      .romdata_busy_eep.o    romdata   0x00af37    program   0x000000
      .idata_busy_eep.o_i    romdata   0x00af37    program   0x000000
      .romdata_readaddr.o    romdata   0x00af37    program   0x000000
      .romdata_wcmdxlcd.o    romdata   0x00af37    program   0x000000
      .idata_wcmdxlcd.o_i    romdata   0x00af37    program   0x000000
      .idata_setddram.o_i    romdata   0x00af37    program   0x000000
      .romdata_setcgram.o    romdata   0x00af37    program   0x000000
      .idata_readdata.o_i    romdata   0x00af37    program   0x000000
    .romdata__user_putc.o    romdata   0x00af37    program   0x000000
    .idata__user_putc.o_i    romdata   0x00af37    program   0x000000
          .romdata_putc.o    romdata   0x00af37    program   0x000000
       .romdata_sprintf.o    romdata   0x00af37    program   0x000000
        .idata_u2puts.o_i    romdata   0x00af37    program   0x000000
       .romdata_u2putrs.o    romdata   0x00af37    program   0x000000
       .romdata_write_B.o    romdata   0x00af37    program   0x000000
       .idata_write_B.o_i    romdata   0x00af37    program   0x000000
       .romdata_t3write.o    romdata   0x00af37    program   0x000000
       .romdata_t0write.o    romdata   0x00af37    program   0x000000
       .idata_u2write.o_i    romdata   0x00af37    program   0x000000
        .romdata_u2defs.o    romdata   0x00af37    program   0x000000
        .idata_read_B.o_i    romdata   0x00af37    program   0x000000
       .romdata_adcread.o    romdata   0x00af37    program   0x000000
       .idata_adcread.o_i    romdata   0x00af37    program   0x000000
        .romdata_u2read.o    romdata   0x00af37    program   0x000000
        .idata_t4open.o_i    romdata   0x00af37    program   0x000000
        .idata_t3open.o_i    romdata   0x00af37    program   0x000000
        .idata_t0open.o_i    romdata   0x00af37    program   0x000000
        .idata_c018iz.o_i    romdata   0x00af37    program   0x000000
        .romdata_c018iz.o    romdata   0x00af37    program   0x000000
         .idata_power.o_i    romdata   0x00af37    program   0x000000
         .idata_model.o_i    romdata   0x00af37    program   0x000000
          .romdata_crit.o    romdata   0x00af37    program   0x000000
  .romdata_mandm_vector.o    romdata   0x00af37    program   0x000000
      .idata_putrxlcd.o_i    romdata   0x00af37    program   0x000000
      .romdata_openxlcd.o    romdata   0x00af37    program   0x000000
           .code_u2defs.o       code   0x00af38    program   0x000000
           .code_c018iz.o       code   0x00af38    program   0x000000
     .code_mandm_vector.o       code   0x00af38    program   0x000dbc
         .code_vfprintf.o       code   0x00bcf4    program   0x000c22
                     PROG       code   0x00c916    program   0x0006c2
            .code_power.o       code   0x00cfd8    program   0x000486
           .code_config.o       code   0x00d45e    program   0x000334
             .code_crit.o       code   0x00d792    program   0x0001f2
                   STRING       code   0x00d984    program   0x000192
           .code_hwconf.o       code   0x00db16    program   0x000180
          .code_sprintf.o       code   0x00dc96    program   0x0000ac
               _cinit_scn       code   0x00dd42    program   0x00009e
         .code_openxlcd.o       code   0x00dde0    program   0x00009a
           .code_u2open.o       code   0x00de7a    program   0x00008a
             .code_putc.o       code   0x00df04    program   0x000084
          .code_fxm3232.o       code   0x00df88    program   0x000070
          .code_adcopen.o       code   0x00dff8    program   0x00006e
          .code_u2putrs.o       code   0x00e066    program   0x000064
          .code_write_B.o       code   0x00e0ca    program   0x000060
           .code_read_B.o       code   0x00e12a    program   0x00005c
         .code_putrxlcd.o       code   0x00e186    program   0x000054
           .code_u2puts.o       code   0x00e1da    program   0x00004c
         .code_setddram.o       code   0x00e226    program   0x000048
         .code_setcgram.o       code   0x00e26e    program   0x000048
         .code_fxd3232u.o       code   0x00e2b6    program   0x000048
         .code_writdata.o       code   0x00e2fe    program   0x000046
         .code_wcmdxlcd.o       code   0x00e344    program   0x000046
         .code_readdata.o       code   0x00e38a    program   0x000044
         .code_readaddr.o       code   0x00e3ce    program   0x000044
           .code_t3open.o       code   0x00e412    program   0x000042
         .code_putsxlcd.o       code   0x00e454    program   0x000042
           .code_u2read.o       code   0x00e496    program   0x00003e
                   STDLIB       code   0x00e4d4    program   0x00003c
          .code_t3write.o       code   0x00e510    program   0x000038
          .code_t0write.o       code   0x00e548    program   0x000038
           .code_t0open.o       code   0x00e580    program   0x000038
           .code_t4open.o       code   0x00e5b8    program   0x000036
             D10KTCYXCODE       code   0x00e5ee    program   0x00002e
          .code_u2write.o       code   0x00e61c    program   0x00002e
         .code_adcsetch.o       code   0x00e64a    program   0x00002e
         .code_fxd1616u.o       code   0x00e678    program   0x00002c
         .code_busyxlcd.o       code   0x00e6a4    program   0x00002c
                    CTYPE       code   0x00e6d0    program   0x000024
             _startup_scn       code   0x00e6f4    program   0x000020
                    .code       code   0x00e714    program   0x000020
                    STDIO       code   0x00e734    program   0x00001c
              D10TCYXCODE       code   0x00e750    program   0x000016
          .code_adcread.o       code   0x00e766    program   0x000012
      .romdata_vfprintf.o    romdata   0x00e778    program   0x000011
        .idata_u2defs.o_i    romdata   0x00e789    program   0x000000
        .romdata_u2puts.o    romdata   0x00e789    program   0x000000
         .romdata_model.o    romdata   0x00e789    program   0x000000
          .idata_putc.o_i    romdata   0x00e789    program   0x000000
       .idata_sprintf.o_i    romdata   0x00e789    program   0x000000
       .romdata_u2write.o    romdata   0x00e789    program   0x000000
       .idata_u2putrs.o_i    romdata   0x00e789    program   0x000000
       .idata_t0write.o_i    romdata   0x00e789    program   0x000000
        .romdata___init.o    romdata   0x00e789    program   0x000000
      .idata_vfprintf.o_i    romdata   0x00e789    program   0x000000
        .idata___init.o_i    romdata   0x00e789    program   0x000000
       .idata_t3write.o_i    romdata   0x00e789    program   0x000000
        .romdata_hwconf.o    romdata   0x00e789    program   0x000000
        .idata_hwconf.o_i    romdata   0x00e789    program   0x000000
      .romdata_fxd3232u.o    romdata   0x00e789    program   0x000000
      .idata_fxd3232u.o_i    romdata   0x00e789    program   0x000000
      .idata_writdata.o_i    romdata   0x00e789    program   0x000000
      .romdata_writdata.o    romdata   0x00e789    program   0x000000
       .romdata_adcbusy.o    romdata   0x00e789    program   0x000000
       .idata_adcbusy.o_i    romdata   0x00e789    program   0x000000
        .romdata_config.o    romdata   0x00e789    program   0x000000
        .idata_config.o_i    romdata   0x00e789    program   0x000000
      .romdata_busyxlcd.o    romdata   0x00e789    program   0x000000
      .idata_busyxlcd.o_i    romdata   0x00e789    program   0x000000
      .idata_openxlcd.o_i    romdata   0x00e789    program   0x000000
      .romdata_setddram.o    romdata   0x00e789    program   0x000000
      .idata_setcgram.o_i    romdata   0x00e789    program   0x000000
      .romdata_readdata.o    romdata   0x00e789    program   0x000000
      .romdata_putrxlcd.o    romdata   0x00e789    program   0x000000
      .idata_readaddr.o_i    romdata   0x00e789    program   0x000000
      .idata_putsxlcd.o_i    romdata   0x00e789    program   0x000000
      .romdata_adcsetch.o    romdata   0x00e789    program   0x000000
      .idata_adcsetch.o_i    romdata   0x00e789    program   0x000000
        .romdata_u2open.o    romdata   0x00e789    program   0x000000
        .romdata_read_B.o    romdata   0x00e789    program   0x000000
         .romdata_power.o    romdata   0x00e789    program   0x000000
       .idata_adcopen.o_i    romdata   0x00e789    program   0x000000
        .idata_u2read.o_i    romdata   0x00e789    program   0x000000
       .romdata_adcopen.o    romdata   0x00e789    program   0x000000
        .romdata_t4open.o    romdata   0x00e789    program   0x000000
           .romdata_daq.o    romdata   0x00e789    program   0x000000
        .romdata_t0open.o    romdata   0x00e789    program   0x000000
        .romdata_t3open.o    romdata   0x00e789    program   0x000000
            .code_model.o       code   0x00e78a    program   0x000000
         .code_busy_eep.o       code   0x00e78a    program   0x000006
          .code_adcconv.o       code   0x00e790    program   0x000004
           .code___init.o       code   0x00e794    program   0x000002
                  gpr10_i    romdata   0x00e796    program   0x000030
              SEED_DATA_i    romdata   0x00e7c6    program   0x000002
  .idata_mandm_vector.o_i    romdata   0x00e7c8    program   0x000012
     .idata_mandm8722.o_i    romdata   0x00e7da    program   0x000095
           .idata_daq.o_i    romdata   0x00e86f    program   0x000004
          .idata_crit.o_i    romdata   0x00e873    program   0x000002
.config_300001_mandm8722.o    romdata   0x300001    program   0x000001
.config_300002_mandm8722.o    romdata   0x300002    program   0x000001
.config_300003_mandm8722.o    romdata   0x300003    program   0x000001
.config_300006_mandm8722.o    romdata   0x300006    program   0x000001
                 .tmpdata      udata   0x000000       data   0x000024
                MATH_DATA      udata   0x000024       data   0x000014
         tick_handler_tmp      udata   0x000038       data   0x000004
                DELAYDAT2      udata   0x00003c       data   0x000001
                DELAYDAT1      udata   0x00003d       data   0x000001
              ISRHtmpdata      udata   0x00003e       data   0x000000
                     gpr5      udata   0x000060       data   0x00009b
          .udata_hwconf.o      udata   0x0000fb       data   0x000001
          .udata_config.o      udata   0x0000fc       data   0x000001
         .idata_adcread.o      idata   0x0000fd       data   0x000000
         .udata_adcread.o      udata   0x0000fd       data   0x000000
          .idata_u2read.o      idata   0x0000fd       data   0x000000
          .udata_u2read.o      udata   0x0000fd       data   0x000000
          .idata_t4open.o      idata   0x0000fd       data   0x000000
          .udata_t4open.o      udata   0x0000fd       data   0x000000
          .idata_t3open.o      idata   0x0000fd       data   0x000000
          .udata_t3open.o      udata   0x0000fd       data   0x000000
          .idata_t0open.o      idata   0x0000fd       data   0x000000
          .udata_t0open.o      udata   0x0000fd       data   0x000000
         .idata_adcopen.o      idata   0x0000fd       data   0x000000
         .udata_adcopen.o      udata   0x0000fd       data   0x000000
          .idata_u2open.o      idata   0x0000fd       data   0x000000
          .udata_u2open.o      udata   0x0000fd       data   0x000000
         .idata_fxm3232.o      idata   0x0000fd       data   0x000000
         .udata_fxm3232.o      udata   0x0000fd       data   0x000000
        .idata_fxd3232u.o      idata   0x0000fd       data   0x000000
        .udata_fxd3232u.o      udata   0x0000fd       data   0x000000
        .idata_fxd1616u.o      idata   0x0000fd       data   0x000000
        .udata_fxd1616u.o      udata   0x0000fd       data   0x000000
      .udata__user_putc.o      udata   0x0000fd       data   0x000000
      .idata__user_putc.o      idata   0x0000fd       data   0x000000
         .idata_adcconv.o      idata   0x0000fd       data   0x000000
         .udata_adcconv.o      udata   0x0000fd       data   0x000000
        .idata_vfprintf.o      idata   0x0000fd       data   0x000000
        .udata_vfprintf.o      udata   0x0000fd       data   0x000000
         .idata_sprintf.o      idata   0x0000fd       data   0x000000
         .udata_sprintf.o      udata   0x0000fd       data   0x000000
          .idata_u2puts.o      idata   0x0000fd       data   0x000000
          .udata_u2puts.o      udata   0x0000fd       data   0x000000
         .idata_u2putrs.o      idata   0x0000fd       data   0x000000
         .udata_u2putrs.o      udata   0x0000fd       data   0x000000
          .idata___init.o      idata   0x0000fd       data   0x000000
          .udata___init.o      udata   0x0000fd       data   0x000000
         .idata_write_B.o      idata   0x0000fd       data   0x000000
         .udata_write_B.o      udata   0x0000fd       data   0x000000
         .idata_t3write.o      idata   0x0000fd       data   0x000000
         .udata_t3write.o      udata   0x0000fd       data   0x000000
         .idata_t0write.o      idata   0x0000fd       data   0x000000
         .udata_t0write.o      udata   0x0000fd       data   0x000000
         .idata_u2write.o      idata   0x0000fd       data   0x000000
         .udata_u2write.o      udata   0x0000fd       data   0x000000
          .idata_u2defs.o      idata   0x0000fd       data   0x000000
        .idata_adcsetch.o      idata   0x0000fd       data   0x000000
        .udata_adcsetch.o      udata   0x0000fd       data   0x000000
            .udata_putc.o      udata   0x0000fd       data   0x000000
            .idata_putc.o      idata   0x0000fd       data   0x000000
          .idata_read_B.o      idata   0x0000fd       data   0x000000
          .udata_read_B.o      udata   0x0000fd       data   0x000000
        .udata_readaddr.o      udata   0x0000fd       data   0x000000
        .idata_putsxlcd.o      idata   0x0000fd       data   0x000000
        .udata_putsxlcd.o      udata   0x0000fd       data   0x000000
        .idata_putrxlcd.o      idata   0x0000fd       data   0x000000
        .udata_putrxlcd.o      udata   0x0000fd       data   0x000000
        .idata_openxlcd.o      idata   0x0000fd       data   0x000000
        .udata_openxlcd.o      udata   0x0000fd       data   0x000000
        .idata_writdata.o      idata   0x0000fd       data   0x000000
        .udata_writdata.o      udata   0x0000fd       data   0x000000
          .idata_c018iz.o      idata   0x0000fd       data   0x000000
                     gpr6      udata   0x0000fd       data   0x000000
            .udata_crit.o      udata   0x0000fd       data   0x000000
       .udata_mandm8722.o      udata   0x0000fd       data   0x000000
           .idata_power.o      idata   0x0000fd       data   0x000000
           .idata_model.o      idata   0x0000fd       data   0x000000
           .udata_model.o      udata   0x0000fd       data   0x000000
          .idata_hwconf.o      idata   0x0000fd       data   0x000000
        .idata_busy_eep.o      idata   0x0000fd       data   0x000000
        .udata_busy_eep.o      udata   0x0000fd       data   0x000000
         .idata_adcbusy.o      idata   0x0000fd       data   0x000000
         .udata_adcbusy.o      udata   0x0000fd       data   0x000000
          .idata_config.o      idata   0x0000fd       data   0x000000
        .idata_busyxlcd.o      idata   0x0000fd       data   0x000000
        .udata_busyxlcd.o      udata   0x0000fd       data   0x000000
        .idata_wcmdxlcd.o      idata   0x0000fd       data   0x000000
        .udata_wcmdxlcd.o      udata   0x0000fd       data   0x000000
        .idata_readaddr.o      idata   0x0000fd       data   0x000000
        .idata_setddram.o      idata   0x0000fd       data   0x000000
        .udata_readdata.o      udata   0x0000fd       data   0x000000
        .idata_readdata.o      idata   0x0000fd       data   0x000000
        .udata_setcgram.o      udata   0x0000fd       data   0x000000
        .idata_setcgram.o      idata   0x0000fd       data   0x000000
        .udata_setddram.o      udata   0x0000fd       data   0x000000
                     gpr2      udata   0x000100       data   0x0000fc
             .idata_daq.o      idata   0x0001fc       data   0x000004
                    gpr13      udata   0x000200       data   0x0000fb
                     gpr1      udata   0x000300       data   0x0000ce
                    gpr10      idata   0x0003ce       data   0x000030
                SEED_DATA      idata   0x0003fe       data   0x000002
                     gpr8      udata   0x000400       data   0x0000b0
           .udata_power.o      udata   0x0004b0       data   0x00003a
    .idata_mandm_vector.o      idata   0x0004ea       data   0x000012
            .idata_crit.o      idata   0x0004fc       data   0x000002
                     gpr4      udata   0x0004fe       data   0x000001
          .udata_u2defs.o      udata   0x0004ff       data   0x000001
                     gpr9      udata   0x000500       data   0x0000a7
                     gpr3      udata   0x0005a7       data   0x00001c
             .udata_daq.o      udata   0x0005c3       data   0x000011
                     gpr7      udata   0x0005d4       data   0x00000c
          .udata_c018iz.o      udata   0x0005e0       data   0x00000a
    .udata_mandm_vector.o      udata   0x0005ea       data   0x000006
       .idata_mandm8722.o      idata   0x000600       data   0x000095
                   .stack      udata   0x000e00       data   0x000100
            SFR_UNBANKED0      udata   0x000f62       data   0x00009e



                              Program Memory Usage 
                               Start         End      
                           ---------   ---------      
                            0x000000    0x00af36      
                            0x00af38    0x00e788      
                            0x00e78a    0x00e874      
                            0x300001    0x300003      
                            0x300006    0x300006      
            59511 out of 132120 program addresses used, program memory utilization is 45%



                              Symbols - Sorted by Name
                     Name    Address   Location    Storage File                     
                ---------  ---------  ---------  --------- ---------                
                     ABSI   0x001180    program     extern L:\mandm\mandm\mandm8722.c
                     ABSL   0x0011ae    program     extern L:\mandm\mandm\mandm8722.c
                 ADC_read   0x006db6    program     extern L:\mandm\mandm\daq.c     
                 ADC_zero   0x006c8e    program     extern L:\mandm\mandm\daq.c     
                  BusyADC   0x00000e    program     extern C:\MCC18\v3_39\src\pmc_common\ADC\adcbusy.c
                 BusyXLCD   0x00e6a4    program     extern L:\mandm\mandm\xlcd\busyxlcd.c
                 Busy_eep   0x00e78a    program     extern C:\MCC18\v3_39\src\pmc_common\EEP\busy_eep.c
             Change_Count   0x006cf4    program     extern L:\mandm\mandm\daq.c     
        Clear_All_Buttons   0x00bc98    program     extern L:\mandm\mandm\mandm_vector.c
               ConvertADC   0x00e790    program     extern C:\MCC18\v3_39\src\pmc_common\ADC\adcconv.c
                   D10K_1   0x00e5fa    program     static C:\MCC18\v3_39\src\traditional\delays\d10ktcyx.asm
                    D10Kl   0x00e606    program     static C:\MCC18\v3_39\src\traditional\delays\d10ktcyx.asm
                    D10Kx   0x00e5f8    program     static C:\MCC18\v3_39\src\traditional\delays\d10ktcyx.asm
                    D10_1   0x00e760    program     static C:\MCC18\v3_39\src\traditional\delays\d10tcyx.asm
                     D10x   0x00e758    program     static C:\MCC18\v3_39\src\traditional\delays\d10tcyx.asm
                   D1616S   0x00cc46    program     static C:\MCC18\v3_39\src\traditional\math\fxd1616s.asm
                D1616SNEG   0x00cc54    program     static C:\MCC18\v3_39\src\traditional\math\fxd1616s.asm
                 D1616SOK   0x00cc50    program     static C:\MCC18\v3_39\src\traditional\math\fxd1616s.asm
                  D1616SX   0x00cc66    program     static C:\MCC18\v3_39\src\traditional\math\fxd1616s.asm
                   D3232S   0x00cca0    program     static C:\MCC18\v3_39\src\traditional\math\fxd3232s.asm
                D3232SNEG   0x00ccae    program     static C:\MCC18\v3_39\src\traditional\math\fxd3232s.asm
                 D3232SOK   0x00ccaa    program     static C:\MCC18\v3_39\src\traditional\math\fxd3232s.asm
                  D3232SX   0x00ccce    program     static C:\MCC18\v3_39\src\traditional\math\fxd3232s.asm
                  DA1616S   0x00cc36    program     static C:\MCC18\v3_39\src\traditional\math\fxd1616s.asm
                  DA3232S   0x00cc8a    program     static C:\MCC18\v3_39\src\traditional\math\fxd3232s.asm
             Delay10KTCYx   0x00e5ee    program     extern C:\MCC18\v3_39\src\traditional\delays\d10ktcyx.asm
              Delay10TCYx   0x00e750    program     extern C:\MCC18\v3_39\src\traditional\delays\d10tcyx.asm
            DelayFor18TCY   0x00063c    program     extern L:\mandm\mandm\mandm8722.c
             DelayPORXLCD   0x000656    program     extern L:\mandm\mandm\mandm8722.c
                DelayXLCD   0x000662    program     extern L:\mandm\mandm\mandm8722.c
                 FLO1632S   0x00c91a    program     extern C:\MCC18\v3_39\src\traditional\math\cast16FP.asm
                 FLO1632U   0x00c916    program     extern C:\MCC18\v3_39\src\traditional\math\cast16FP.asm
                 FLO3232S   0x00c944    program     extern C:\MCC18\v3_39\src\traditional\math\cast32FP.asm
                 FLO3232U   0x00c940    program     extern C:\MCC18\v3_39\src\traditional\math\cast32FP.asm
                    FPA32   0x00c978    program     extern C:\MCC18\v3_39\src\traditional\math\addFP.asm
                    FPD32   0x00caa4    program     extern C:\MCC18\v3_39\src\traditional\math\divFP.asm
                    FPM32   0x00cb4a    program     extern C:\MCC18\v3_39\src\traditional\math\mulFP.asm
                    FPS32   0x00c976    program     extern C:\MCC18\v3_39\src\traditional\math\addFP.asm
                 FXD1616S   0x00cc24    program     extern C:\MCC18\v3_39\src\traditional\math\fxd1616s.asm
                 FXD1616U   0x00e678    program     extern C:\MCC18\v3_39\src\traditional\math\fxd1616u.c
                 FXD3232S   0x00cc70    program     extern C:\MCC18\v3_39\src\traditional\math\fxd3232s.asm
                 FXD3232U   0x00e2b6    program     extern C:\MCC18\v3_39\src\traditional\math\fxd3232u.c
                 FXM1616S   0x00cf7e    program     extern C:\MCC18\v3_39\src\traditional\math\fxm1616s.asm
                 FXM1616U   0x00cf42    program     extern C:\MCC18\v3_39\src\traditional\math\fxm1616u.asm
                 FXM2424U   0x00ccd8    program     extern C:\MCC18\v3_39\src\traditional\math\fxm2424u.asm
                  FXM3232   0x00df88    program     extern C:\MCC18\v3_39\src\traditional\math\fxm3232.c
                  INT3216   0x00cd6a    program     extern C:\MCC18\v3_39\src\traditional\math\castFP16.asm
                  INT3232   0x00cdc8    program     extern C:\MCC18\v3_39\src\traditional\math\castFP32.asm
              LCD_VC_puts   0x00016e    program     extern L:\mandm\mandm\mandm8722.c
               Open2USART   0x00de7a    program     extern C:\MCC18\v3_39\src\pmc_common\USART\u2open.c
                  OpenADC   0x00dff8    program     extern C:\MCC18\v3_39\src\pmc_common\ADC\adcopen.c
               OpenTimer0   0x00e580    program     extern C:\MCC18\v3_39\src\pmc_common\Timers\t0open.c
               OpenTimer3   0x00e412    program     extern C:\MCC18\v3_39\src\pmc_common\Timers\t3open.c
               OpenTimer4   0x00e5b8    program     extern C:\MCC18\v3_39\src\pmc_common\Timers\t4open.c
                 OpenXLCD   0x00dde0    program     extern L:\mandm\mandm\xlcd\openxlcd.c
                   P1wait   0x00bc8c    program     extern L:\mandm\mandm\mandm_vector.c
                   P2wait   0x00bc92    program     extern L:\mandm\mandm\mandm_vector.c
               Read2USART   0x00e496    program     extern C:\MCC18\v3_39\src\pmc_common\USART\u2read.c
                  ReadADC   0x00e766    program     extern C:\MCC18\v3_39\src\pmc_common\ADC\adcread.c
             ReadAddrXLCD   0x00e3ce    program     extern L:\mandm\mandm\xlcd\readaddr.c
             ReadDataXLCD   0x00e38a    program     extern L:\mandm\mandm\xlcd\readdata.c
               Read_b_eep   0x00e12a    program     extern C:\MCC18\v3_39\src\pmc_common\EEP\read_B.c
       Reset_Change_Count   0x006cb4    program     extern L:\mandm\mandm\daq.c     
             SetCGRamAddr   0x00e26e    program     extern L:\mandm\mandm\xlcd\setcgram.c
               SetChanADC   0x00e64a    program     extern C:\MCC18\v3_39\src\pmc_common\ADC\adcsetch.c
             SetDDRamAddr   0x00e226    program     extern L:\mandm\mandm\xlcd\setddram.c
               Set_Cursor   0x0018be    program     extern L:\mandm\mandm\mandm8722.c
               TSIGN1616A   0x00cfca    program     static C:\MCC18\v3_39\src\traditional\math\fxm1616s.asm
              Write2USART   0x00e61c    program     extern C:\MCC18\v3_39\src\pmc_common\USART\u2write.c
             WriteCmdXLCD   0x00e344    program     extern L:\mandm\mandm\xlcd\wcmdxlcd.c
            WriteDataXLCD   0x00e2fe    program     extern L:\mandm\mandm\xlcd\writdata.c
              WriteTimer0   0x00e548    program     extern C:\MCC18\v3_39\src\pmc_common\Timers\t0write.c
              WriteTimer3   0x00e510    program     extern C:\MCC18\v3_39\src\pmc_common\Timers\t3write.c
              Write_b_eep   0x00e0ca    program     extern C:\MCC18\v3_39\src\pmc_common\EEP\write_B.c
                   _2jEnd   0x00da3c    program     static C:\MCC18\v3_39\src\traditional\stdclib\slenpgm.asm
              _3jContinue   0x00dae0    program     static C:\MCC18\v3_39\src\traditional\stdclib\sncpyp2r.asm
              _4jContinue   0x00da86    program     static C:\MCC18\v3_39\src\traditional\stdclib\strncpy.asm
              _4jContinue   0x00d9b0    program     static C:\MCC18\v3_39\src\traditional\stdclib\memcmp.asm
                   _4jEnd   0x00daea    program     static C:\MCC18\v3_39\src\traditional\stdclib\sncpyp2r.asm
                   _5jEnd   0x00da90    program     static C:\MCC18\v3_39\src\traditional\stdclib\strncpy.asm
                   _5jEnd   0x00d9ba    program     static C:\MCC18\v3_39\src\traditional\stdclib\memcmp.asm
       _D10KTCYXCODE_0010   0x00e5fe    program     static C:\MCC18\v3_39\src\traditional\delays\d10ktcyx.asm
       _D10KTCYXCODE_001C   0x00e60a    program     static C:\MCC18\v3_39\src\traditional\delays\d10ktcyx.asm
        _D10TCYXCODE_000A   0x00e75a    program     static C:\MCC18\v3_39\src\traditional\delays\d10tcyx.asm
        _D10TCYXCODE_000C   0x00e75c    program     static C:\MCC18\v3_39\src\traditional\delays\d10tcyx.asm
        _D10TCYXCODE_000E   0x00e75e    program     static C:\MCC18\v3_39\src\traditional\delays\d10tcyx.asm
                 __FpExit   0x00ce42    program     extern C:\MCC18\v3_39\src\traditional\math\packFP.asm
                 __FpPack   0x00ce6e    program     extern C:\MCC18\v3_39\src\traditional\math\packFP.asm
            __FpReturnNaN   0x00ce36    program     extern C:\MCC18\v3_39\src\traditional\math\packFP.asm
         __FpReturnNegInf   0x00ce48    program     extern C:\MCC18\v3_39\src\traditional\math\packFP.asm
        __FpReturnNegZero   0x00ce60    program     extern C:\MCC18\v3_39\src\traditional\math\packFP.asm
         __FpReturnPosInf   0x00ce4e    program     extern C:\MCC18\v3_39\src\traditional\math\packFP.asm
        __FpReturnPosZero   0x00ce68    program     extern C:\MCC18\v3_39\src\traditional\math\packFP.asm
        __FpReturnSignInf   0x00ce44    program     extern C:\MCC18\v3_39\src\traditional\math\packFP.asm
       __FpReturnSignZero   0x00ce5c    program     extern C:\MCC18\v3_39\src\traditional\math\packFP.asm
              __FpReturnW   0x00cec6    program     extern C:\MCC18\v3_39\src\traditional\math\packFP.asm
              __FpUnPackA   0x00cee6    program     extern C:\MCC18\v3_39\src\traditional\math\UnpackFP.asm
              __FpUnPackB   0x00cf16    program     extern C:\MCC18\v3_39\src\traditional\math\UnpackFP.asm
       ___case_0_lbl00030   0x00b230    program     static                          
       ___case_1_lbl00031   0x00b236    program     static                          
       ___case_2_lbl00032   0x00b23e    program     static                          
      ___default_lbl00033   0x00b246    program     static                          
           ___do_lbl00032   0x00034e    program     static                          
           ___do_lbl00033   0x000370    program     static                          
           ___do_lbl00034   0x00032e    program     static                          
           ___do_lbl00430   0x002f24    program     static                          
           ___do_lbl00431   0x002f52    program     static                          
           ___do_lbl00436   0x002c5e    program     static                          
           ___do_lbl00440   0x003298    program     static                          
           ___do_lbl00441   0x0032c6    program     static                          
           ___do_lbl00446   0x002fd2    program     static                          
           ___do_lbl00454   0x0034aa    program     static                          
           ___do_lbl00455   0x0034b0    program     static                          
           ___do_lbl00456   0x00349e    program     static                          
           ___do_lbl00460   0x003b64    program     static                          
           ___do_lbl00461   0x003ba2    program     static                          
           ___do_lbl00476   0x00358e    program     static                          
           ___do_lbl00477   0x0041fa    program     static                          
           ___do_lbl00478   0x004238    program     static                          
           ___do_lbl00493   0x003c24    program     static                          
           ___do_lbl00523   0x00520a    program     static                          
           ___do_lbl00524   0x005210    program     static                          
           ___do_lbl00525   0x0051fe    program     static                          
           ___do_lbl00530   0x0053f2    program     static                          
           ___do_lbl00531   0x005432    program     static                          
           ___do_lbl00534   0x00527c    program     static                          
         ___else_lbl00003   0x00afc6    program     static                          
         ___else_lbl00008   0x00d88a    program     static                          
         ___else_lbl00009   0x00b082    program     static                          
         ___else_lbl00011   0x00b0a0    program     static                          
         ___else_lbl00014   0x00b110    program     static                          
         ___else_lbl00016   0x00b12e    program     static                          
         ___else_lbl00027   0x00b1ea    program     static                          
         ___else_lbl00071   0x00b3e4    program     static                          
         ___else_lbl00084   0x00b534    program     static                          
         ___else_lbl00086   0x00b542    program     static                          
         ___else_lbl00088   0x00b550    program     static                          
         ___else_lbl00090   0x00b588    program     static                          
         ___else_lbl00092   0x00b5ee    program     static                          
         ___else_lbl00098   0x00b656    program     static                          
         ___else_lbl00104   0x00b9d8    program     static                          
         ___else_lbl00108   0x00bada    program     static                          
         ___else_lbl00114   0x00bb64    program     static                          
         ___else_lbl00116   0x00bb3e    program     static                          
         ___else_lbl00472   0x003920    program     static                          
         ___else_lbl00489   0x003fb6    program     static                          
         ___else_lbl00513   0x00423c    program     static                          
         ___else_lbl00522   0x004f8c    program     static                          
         ___else_lbl00528   0x004f3c    program     static                          
         ___else_lbl00536   0x00550a    program     static                          
         ___else_lbl00558   0x005a06    program     static                          
         ___else_lbl00566   0x005ad2    program     static                          
          ___for_lbl00010   0x006e1a    program     static                          
          ___for_lbl00011   0x006e24    program     static                          
          ___for_lbl00014   0x006dde    program     static                          
          ___for_lbl00015   0x006f24    program     static                          
          ___for_lbl00016   0x006f2e    program     static                          
          ___for_lbl00019   0x006ee8    program     static                          
          ___for_lbl00020   0x00702e    program     static                          
          ___for_lbl00021   0x007038    program     static                          
          ___for_lbl00024   0x006ff2    program     static                          
          ___for_lbl00027   0x007268    program     static                          
          ___for_lbl00028   0x007272    program     static                          
          ___for_lbl00028   0x0002be    program     static                          
          ___for_lbl00029   0x0002cc    program     static                          
          ___for_lbl00030   0x000294    program     static                          
          ___for_lbl00031   0x00722c    program     static                          
          ___for_lbl00034   0x0074a0    program     static                          
          ___for_lbl00035   0x0074aa    program     static                          
          ___for_lbl00038   0x007464    program     static                          
          ___for_lbl00041   0x0076da    program     static                          
          ___for_lbl00042   0x0076e4    program     static                          
          ___for_lbl00045   0x00769e    program     static                          
          ___for_lbl00046   0x00776a    program     static                          
          ___for_lbl00047   0x007774    program     static                          
          ___for_lbl00050   0x00772e    program     static                          
          ___for_lbl00051   0x0077fa    program     static                          
          ___for_lbl00052   0x007804    program     static                          
          ___for_lbl00054   0x00064e    program     static                          
          ___for_lbl00055   0x000654    program     static                          
          ___for_lbl00055   0x0077be    program     static                          
          ___for_lbl00056   0x0084ea    program     static                          
          ___for_lbl00056   0x000642    program     static                          
          ___for_lbl00057   0x0084f6    program     static                          
          ___for_lbl00066   0x0078c4    program     static                          
          ___for_lbl00078   0x000fb4    program     static                          
          ___for_lbl00079   0x000fba    program     static                          
          ___for_lbl00081   0x000c84    program     static                          
          ___for_lbl00428   0x00330c    program     static                          
          ___for_lbl00429   0x003318    program     static                          
          ___for_lbl00450   0x002bf2    program     static                          
          ___for_lbl00495   0x0044c0    program     static                          
          ___for_lbl00496   0x0044d4    program     static                          
          ___for_lbl00501   0x004284    program     static                          
          ___for_lbl00502   0x00478c    program     static                          
          ___for_lbl00503   0x0047a0    program     static                          
          ___for_lbl00508   0x004550    program     static                          
          ___for_lbl00509   0x004c04    program     static                          
          ___for_lbl00510   0x004c18    program     static                          
          ___for_lbl00511   0x004bb0    program     static                          
          ___for_lbl00514   0x005222    program     static                          
          ___for_lbl00515   0x005236    program     static                          
          ___for_lbl00529   0x004c24    program     static                          
          ___for_lbl00553   0x0059ac    program     static                          
          ___for_lbl00554   0x0059b2    program     static                          
          ___for_lbl00555   0x005982    program     static                          
          ___for_lbl00559   0x005aca    program     static                          
          ___for_lbl00560   0x005ad0    program     static                          
          ___for_lbl00561   0x005a92    program     static                          
          ___for_lbl00562   0x005b28    program     static                          
          ___for_lbl00563   0x005b2e    program     static                          
          ___for_lbl00564   0x005af0    program     static                          
           ___if_lbl00001   0x00af98    program     static                          
           ___if_lbl00001   0x00d7c0    program     static                          
           ___if_lbl00001   0x00db44    program     static                          
           ___if_lbl00002   0x00d7e4    program     static                          
           ___if_lbl00002   0x00afd6    program     static                          
           ___if_lbl00003   0x00d804    program     static                          
           ___if_lbl00003   0x00db56    program     static                          
           ___if_lbl00004   0x00d824    program     static                          
           ___if_lbl00004   0x00afe0    program     static                          
           ___if_lbl00005   0x00afea    program     static                          
           ___if_lbl00006   0x00dc64    program     static                          
           ___if_lbl00006   0x00d858    program     static                          
           ___if_lbl00006   0x00aff4    program     static                          
           ___if_lbl00007   0x00aff4    program     static                          
           ___if_lbl00007   0x00d892    program     static                          
           ___if_lbl00008   0x00b09e    program     static                          
           ___if_lbl00010   0x00b0ae    program     static                          
           ___if_lbl00012   0x00b0ae    program     static                          
           ___if_lbl00013   0x00b12c    program     static                          
           ___if_lbl00015   0x00b13c    program     static                          
           ___if_lbl00017   0x00b13c    program     static                          
           ___if_lbl00018   0x00b140    program     static                          
           ___if_lbl00020   0x00b14e    program     static                          
           ___if_lbl00021   0x00b162    program     static                          
           ___if_lbl00023   0x00b17c    program     static                          
           ___if_lbl00024   0x00b1aa    program     static                          
           ___if_lbl00025   0x00711a    program     static                          
           ___if_lbl00025   0x00b1de    program     static                          
           ___if_lbl00026   0x007206    program     static                          
           ___if_lbl00026   0x00b1f2    program     static                          
           ___if_lbl00028   0x00b21e    program     static                          
           ___if_lbl00032   0x007354    program     static                          
           ___if_lbl00033   0x00743e    program     static                          
           ___if_lbl00034   0x00b24c    program     static                          
           ___if_lbl00035   0x00b24c    program     static                          
           ___if_lbl00036   0x00b252    program     static                          
           ___if_lbl00037   0x00b258    program     static                          
           ___if_lbl00038   0x00b25e    program     static                          
           ___if_lbl00039   0x00758c    program     static                          
           ___if_lbl00039   0x00b264    program     static                          
           ___if_lbl00040   0x007676    program     static                          
           ___if_lbl00040   0x00b264    program     static                          
           ___if_lbl00041   0x00b284    program     static                          
           ___if_lbl00042   0x00b288    program     static                          
           ___if_lbl00043   0x00b2a0    program     static                          
           ___if_lbl00044   0x00b2b6    program     static                          
           ___if_lbl00045   0x00b2c4    program     static                          
           ___if_lbl00046   0x00b2d2    program     static                          
           ___if_lbl00047   0x00b2e0    program     static                          
           ___if_lbl00048   0x00b2ee    program     static                          
           ___if_lbl00049   0x00b2fc    program     static                          
           ___if_lbl00051   0x00b312    program     static                          
           ___if_lbl00053   0x00b328    program     static                          
           ___if_lbl00055   0x00b33c    program     static                          
           ___if_lbl00058   0x00b346    program     static                          
           ___if_lbl00058   0x007ad8    program     static                          
           ___if_lbl00060   0x00b358    program     static                          
           ___if_lbl00060   0x007b64    program     static                          
           ___if_lbl00061   0x00b358    program     static                          
           ___if_lbl00061   0x007bcc    program     static                          
           ___if_lbl00062   0x007d38    program     static                          
           ___if_lbl00063   0x00b37c    program     static                          
           ___if_lbl00063   0x007e32    program     static                          
           ___if_lbl00064   0x007fde    program     static                          
           ___if_lbl00064   0x00b380    program     static                          
           ___if_lbl00065   0x008356    program     static                          
           ___if_lbl00066   0x00b3a4    program     static                          
           ___if_lbl00067   0x00b3a8    program     static                          
           ___if_lbl00069   0x00b3e2    program     static                          
           ___if_lbl00069   0x008542    program     static                          
           ___if_lbl00070   0x008542    program     static                          
           ___if_lbl00070   0x00b3ec    program     static                          
           ___if_lbl00072   0x00b40a    program     static                          
           ___if_lbl00073   0x00b40a    program     static                          
           ___if_lbl00074   0x00b40e    program     static                          
           ___if_lbl00076   0x00b42c    program     static                          
           ___if_lbl00077   0x00b4ae    program     static                          
           ___if_lbl00078   0x00b4ae    program     static                          
           ___if_lbl00079   0x00b4ae    program     static                          
           ___if_lbl00080   0x000fb4    program     static                          
           ___if_lbl00082   0x00b52a    program     static                          
           ___if_lbl00083   0x00b538    program     static                          
           ___if_lbl00085   0x00b546    program     static                          
           ___if_lbl00087   0x00b554    program     static                          
           ___if_lbl00089   0x00b5b8    program     static                          
           ___if_lbl00091   0x00b620    program     static                          
           ___if_lbl00093   0x00b708    program     static                          
           ___if_lbl00094   0x00b730    program     static                          
           ___if_lbl00095   0x00b760    program     static                          
           ___if_lbl00096   0x00b7b4    program     static                          
           ___if_lbl00097   0x00b7b6    program     static                          
           ___if_lbl00099   0x00b816    program     static                          
           ___if_lbl00100   0x00b87e    program     static                          
           ___if_lbl00101   0x00b8de    program     static                          
           ___if_lbl00102   0x00b948    program     static                          
           ___if_lbl00103   0x00ba2e    program     static                          
           ___if_lbl00106   0x00bad8    program     static                          
           ___if_lbl00107   0x00bafa    program     static                          
           ___if_lbl00112   0x00bb88    program     static                          
           ___if_lbl00113   0x00bb88    program     static                          
           ___if_lbl00115   0x00bb88    program     static                          
           ___if_lbl00117   0x00bb88    program     static                          
           ___if_lbl00118   0x00bb88    program     static                          
           ___if_lbl00119   0x00bbda    program     static                          
           ___if_lbl00120   0x00bbda    program     static                          
           ___if_lbl00121   0x00bbf6    program     static                          
           ___if_lbl00122   0x00bc04    program     static                          
           ___if_lbl00124   0x00bc20    program     static                          
           ___if_lbl00125   0x00bc20    program     static                          
           ___if_lbl00424   0x002b0e    program     static                          
           ___if_lbl00425   0x002b48    program     static                          
           ___if_lbl00426   0x002b5a    program     static                          
           ___if_lbl00427   0x002b94    program     static                          
           ___if_lbl00432   0x002d22    program     static                          
           ___if_lbl00433   0x002e0e    program     static                          
           ___if_lbl00434   0x002efe    program     static                          
           ___if_lbl00435   0x002f12    program     static                          
           ___if_lbl00438   0x002f7e    program     static                          
           ___if_lbl00439   0x002f98    program     static                          
           ___if_lbl00442   0x003096    program     static                          
           ___if_lbl00443   0x003182    program     static                          
           ___if_lbl00444   0x003272    program     static                          
           ___if_lbl00445   0x003286    program     static                          
           ___if_lbl00448   0x0032f2    program     static                          
           ___if_lbl00449   0x00330c    program     static                          
           ___if_lbl00452   0x00341e    program     static                          
           ___if_lbl00453   0x00347a    program     static                          
           ___if_lbl00457   0x003506    program     static                          
           ___if_lbl00458   0x003506    program     static                          
           ___if_lbl00459   0x003520    program     static                          
           ___if_lbl00465   0x003778    program     static                          
           ___if_lbl00466   0x0037a8    program     static                          
           ___if_lbl00467   0x0037ac    program     static                          
           ___if_lbl00468   0x003814    program     static                          
           ___if_lbl00469   0x00391e    program     static                          
           ___if_lbl00470   0x0039b2    program     static                          
           ___if_lbl00471   0x0039b2    program     static                          
           ___if_lbl00473   0x003a78    program     static                          
           ___if_lbl00474   0x003b3e    program     static                          
           ___if_lbl00475   0x003b52    program     static                          
           ___if_lbl00482   0x003e0e    program     static                          
           ___if_lbl00483   0x003e3e    program     static                          
           ___if_lbl00484   0x003e42    program     static                          
           ___if_lbl00485   0x003eaa    program     static                          
           ___if_lbl00486   0x003fb4    program     static                          
           ___if_lbl00487   0x004048    program     static                          
           ___if_lbl00488   0x004048    program     static                          
           ___if_lbl00490   0x00410e    program     static                          
           ___if_lbl00491   0x0041d4    program     static                          
           ___if_lbl00492   0x0041e8    program     static                          
           ___if_lbl00494   0x004238    program     static                          
           ___if_lbl00497   0x004342    program     static                          
           ___if_lbl00498   0x004440    program     static                          
           ___if_lbl00499   0x004458    program     static                          
           ___if_lbl00500   0x0044c0    program     static                          
           ___if_lbl00504   0x00460e    program     static                          
           ___if_lbl00505   0x00470c    program     static                          
           ___if_lbl00506   0x004724    program     static                          
           ___if_lbl00507   0x00478c    program     static                          
           ___if_lbl00512   0x004c18    program     static                          
           ___if_lbl00517   0x004d48    program     static                          
           ___if_lbl00519   0x004e48    program     static                          
           ___if_lbl00520   0x004e48    program     static                          
           ___if_lbl00521   0x004f96    program     static                          
           ___if_lbl00526   0x005222    program     static                          
           ___if_lbl00527   0x005222    program     static                          
           ___if_lbl00533   0x0053f0    program     static                          
           ___if_lbl00535   0x00550a    program     static                          
           ___if_lbl00548   0x00570a    program     static                          
           ___if_lbl00549   0x005740    program     static                          
           ___if_lbl00550   0x005776    program     static                          
           ___if_lbl00551   0x0057ac    program     static                          
           ___if_lbl00552   0x005928    program     static                          
           ___if_lbl00556   0x0059b2    program     static                          
           ___if_lbl00557   0x005a58    program     static                          
           ___if_lbl00565   0x005b48    program     static                          
           ___if_lbl00569   0x005b52    program     static                          
           ___if_lbl00570   0x005ba8    program     static                          
           ___if_lbl00574   0x005e1e    program     static                          
           ___if_lbl00575   0x005e48    program     static                          
           ___if_lbl00576   0x005e5c    program     static                          
       ___return_lbl00000   0x006cb2    program     static                          
       ___return_lbl00000   0x00bc20    program     static                          
       ___return_lbl00000   0x000004    program     static                          
       ___return_lbl00000   0x00000c    program     static                          
       ___return_lbl00000   0x00e17a    program     static                          
       ___return_lbl00000   0x00dff6    program     static                          
       ___return_lbl00000   0x00d824    program     static                          
       ___return_lbl00000   0x00e2fc    program     static                          
       ___return_lbl00000   0x00e6a2    program     static                          
       ___return_lbl00000   0x00dc64    program     static                          
       ___return_lbl00001   0x00001c    program     static                          
       ___return_lbl00001   0x00e712    program     static                          
       ___return_lbl00002   0x00ddde    program     static                          
       ___return_lbl00005   0x00d892    program     static                          
       ___return_lbl00009   0x008548    program     static                          
       ___return_lbl00027   0x0002cc    program     static                          
       ___return_lbl00031   0x000370    program     static                          
       ___return_lbl00053   0x000654    program     static                          
       ___return_lbl00072   0x0008bc    program     static                          
       ___return_lbl00077   0x000fbc    program     static                          
       ___return_lbl00127   0x00bc8a    program     static                          
       ___return_lbl00423   0x00552c    program     static                          
       ___return_lbl00547   0x005e5e    program     static                          
   ___switchexit_lbl00029   0x00b24c    program     static                          
        ___while_lbl00001   0x006ca8    program     static                          
        ___while_lbl00002   0x006cb2    program     static                          
        ___while_lbl00004   0x00dbb4    program     static                          
        ___while_lbl00005   0x00dbc2    program     static                          
        ___while_lbl00012   0x006dee    program     static                          
        ___while_lbl00013   0x006df8    program     static                          
        ___while_lbl00017   0x006ef8    program     static                          
        ___while_lbl00018   0x006f02    program     static                          
        ___while_lbl00022   0x007002    program     static                          
        ___while_lbl00023   0x00700c    program     static                          
        ___while_lbl00029   0x00723c    program     static                          
        ___while_lbl00030   0x007246    program     static                          
        ___while_lbl00036   0x007474    program     static                          
        ___while_lbl00037   0x00747e    program     static                          
        ___while_lbl00043   0x0076ae    program     static                          
        ___while_lbl00044   0x0076b8    program     static                          
        ___while_lbl00048   0x00773e    program     static                          
        ___while_lbl00049   0x007748    program     static                          
        ___while_lbl00053   0x0077ce    program     static                          
        ___while_lbl00054   0x0077d8    program     static                          
        ___while_lbl00056   0x00b344    program     static                          
        ___while_lbl00057   0x00b346    program     static                          
        ___while_lbl00067   0x008530    program     static                          
        ___while_lbl00068   0x008542    program     static                          
        ___while_lbl00567   0x005b50    program     static                          
        ___while_lbl00568   0x005b52    program     static                          
        ___while_lbl00571   0x005e08    program     static                          
        ___while_lbl00572   0x005e5e    program     static                          
               __config_0   0x300001    program     static L:\mandm\mandm\mandm8722.c
               __config_1   0x300002    program     static L:\mandm\mandm\mandm8722.c
               __config_2   0x300003    program     static L:\mandm\mandm\mandm8722.c
               __config_3   0x300006    program     static L:\mandm\mandm\mandm8722.c
                   __init   0x00e794    program     extern C:\MCC18\v3_39\src\traditional\stdclib\__init.c
                   __pa_0   0x00d3d6    program     static L:\mandm\mandm\power.c   
                   __pa_0   0x005e60    program     static L:\mandm\mandm\mandm8722.c
                   __pa_0   0x008636    program     static L:\mandm\mandm\daq.c     
                   __pa_0   0x00de68    program     static L:\mandm\mandm\xlcd\openxlcd.c
                   __pa_0   0x00e1c2    program     static L:\mandm\mandm\xlcd\putrxlcd.c
                   __pa_0   0x00e486    program     static L:\mandm\mandm\xlcd\putsxlcd.c
                   __pa_0   0x00e336    program     static L:\mandm\mandm\xlcd\writdata.c
                   __pa_0   0x00e2a8    program     static L:\mandm\mandm\xlcd\setcgram.c
                   __pa_0   0x00e260    program     static L:\mandm\mandm\xlcd\setddram.c
                   __pa_0   0x00e37c    program     static L:\mandm\mandm\xlcd\wcmdxlcd.c
                   __pa_0   0x00e6be    program     static L:\mandm\mandm\xlcd\busyxlcd.c
                   __pa_0   0x00bce2    program     static L:\mandm\mandm\mandm_vector.c
                   __pa_0   0x00d6d8    program     static L:\mandm\mandm\config.c  
                   __pa_0   0x00c634    program     static C:\MCC18\v3_39\src\traditional\stdclib\vfprintf.c
                   __pa_0   0x00d94e    program     static L:\mandm\mandm\crit.c    
                   __pa_1   0x00bcec    program     static L:\mandm\mandm\mandm_vector.c
                   __pa_1   0x00d6ee    program     static L:\mandm\mandm\config.c  
                   __pa_1   0x00c63c    program     static C:\MCC18\v3_39\src\traditional\stdclib\vfprintf.c
                   __pa_1   0x00d3e4    program     static L:\mandm\mandm\power.c   
                   __pa_1   0x005e74    program     static L:\mandm\mandm\mandm8722.c
                   __pa_1   0x00d95c    program     static L:\mandm\mandm\crit.c    
                   __pa_1   0x00de72    program     static L:\mandm\mandm\xlcd\openxlcd.c
                   __pa_1   0x00865e    program     static L:\mandm\mandm\daq.c     
                  __pa_10   0x005f16    program     static L:\mandm\mandm\mandm8722.c
                  __pa_10   0x00d746    program     static L:\mandm\mandm\config.c  
                  __pa_10   0x00c6f0    program     static C:\MCC18\v3_39\src\traditional\stdclib\vfprintf.c
                  __pa_10   0x00d44e    program     static L:\mandm\mandm\power.c   
                 __pa_100   0x00646a    program     static L:\mandm\mandm\mandm8722.c
                 __pa_101   0x006476    program     static L:\mandm\mandm\mandm8722.c
                 __pa_102   0x00647c    program     static L:\mandm\mandm\mandm8722.c
                 __pa_103   0x006486    program     static L:\mandm\mandm\mandm8722.c
                 __pa_104   0x006490    program     static L:\mandm\mandm\mandm8722.c
                 __pa_105   0x00649a    program     static L:\mandm\mandm\mandm8722.c
                 __pa_106   0x0064a2    program     static L:\mandm\mandm\mandm8722.c
                 __pa_107   0x0064a8    program     static L:\mandm\mandm\mandm8722.c
                 __pa_108   0x0064b2    program     static L:\mandm\mandm\mandm8722.c
                 __pa_109   0x0064c0    program     static L:\mandm\mandm\mandm8722.c
                  __pa_11   0x00d752    program     static L:\mandm\mandm\config.c  
                  __pa_11   0x005f30    program     static L:\mandm\mandm\mandm8722.c
                  __pa_11   0x00c6fe    program     static C:\MCC18\v3_39\src\traditional\stdclib\vfprintf.c
                  __pa_11   0x00d456    program     static L:\mandm\mandm\power.c   
                 __pa_110   0x0064ce    program     static L:\mandm\mandm\mandm8722.c
                 __pa_111   0x0064dc    program     static L:\mandm\mandm\mandm8722.c
                 __pa_112   0x0064e4    program     static L:\mandm\mandm\mandm8722.c
                 __pa_113   0x0064f2    program     static L:\mandm\mandm\mandm8722.c
                 __pa_114   0x0064fc    program     static L:\mandm\mandm\mandm8722.c
                 __pa_115   0x006506    program     static L:\mandm\mandm\mandm8722.c
                 __pa_116   0x006510    program     static L:\mandm\mandm\mandm8722.c
                 __pa_117   0x00651a    program     static L:\mandm\mandm\mandm8722.c
                 __pa_118   0x006524    program     static L:\mandm\mandm\mandm8722.c
                 __pa_119   0x006546    program     static L:\mandm\mandm\mandm8722.c
                  __pa_12   0x00c714    program     static C:\MCC18\v3_39\src\traditional\stdclib\vfprintf.c
                  __pa_12   0x00d75a    program     static L:\mandm\mandm\config.c  
                  __pa_12   0x005f4e    program     static L:\mandm\mandm\mandm8722.c
                 __pa_120   0x006558    program     static L:\mandm\mandm\mandm8722.c
                 __pa_121   0x006572    program     static L:\mandm\mandm\mandm8722.c
                 __pa_122   0x006592    program     static L:\mandm\mandm\mandm8722.c
                 __pa_123   0x0065aa    program     static L:\mandm\mandm\mandm8722.c
                 __pa_124   0x0065b0    program     static L:\mandm\mandm\mandm8722.c
                 __pa_125   0x0065c8    program     static L:\mandm\mandm\mandm8722.c
                 __pa_126   0x0065fa    program     static L:\mandm\mandm\mandm8722.c
                 __pa_127   0x006602    program     static L:\mandm\mandm\mandm8722.c
                 __pa_128   0x006612    program     static L:\mandm\mandm\mandm8722.c
                 __pa_129   0x00662a    program     static L:\mandm\mandm\mandm8722.c
                  __pa_13   0x00d760    program     static L:\mandm\mandm\config.c  
                  __pa_13   0x00c72e    program     static C:\MCC18\v3_39\src\traditional\stdclib\vfprintf.c
                  __pa_13   0x005f5a    program     static L:\mandm\mandm\mandm8722.c
                 __pa_130   0x006632    program     static L:\mandm\mandm\mandm8722.c
                 __pa_131   0x00663a    program     static L:\mandm\mandm\mandm8722.c
                 __pa_132   0x006644    program     static L:\mandm\mandm\mandm8722.c
                 __pa_133   0x00664a    program     static L:\mandm\mandm\mandm8722.c
                 __pa_134   0x006654    program     static L:\mandm\mandm\mandm8722.c
                 __pa_135   0x006664    program     static L:\mandm\mandm\mandm8722.c
                 __pa_136   0x00666c    program     static L:\mandm\mandm\mandm8722.c
                 __pa_137   0x006670    program     static L:\mandm\mandm\mandm8722.c
                 __pa_138   0x00667c    program     static L:\mandm\mandm\mandm8722.c
                 __pa_139   0x00668c    program     static L:\mandm\mandm\mandm8722.c
                  __pa_14   0x00d768    program     static L:\mandm\mandm\config.c  
                  __pa_14   0x00c746    program     static C:\MCC18\v3_39\src\traditional\stdclib\vfprintf.c
                  __pa_14   0x005f60    program     static L:\mandm\mandm\mandm8722.c
                 __pa_140   0x0066a2    program     static L:\mandm\mandm\mandm8722.c
                 __pa_141   0x0066b8    program     static L:\mandm\mandm\mandm8722.c
                 __pa_142   0x0066ca    program     static L:\mandm\mandm\mandm8722.c
                 __pa_143   0x0066d6    program     static L:\mandm\mandm\mandm8722.c
                 __pa_144   0x0066de    program     static L:\mandm\mandm\mandm8722.c
                 __pa_145   0x0066e6    program     static L:\mandm\mandm\mandm8722.c
                 __pa_146   0x0066ec    program     static L:\mandm\mandm\mandm8722.c
                 __pa_147   0x006706    program     static L:\mandm\mandm\mandm8722.c
                 __pa_148   0x00671a    program     static L:\mandm\mandm\mandm8722.c
                 __pa_149   0x006720    program     static L:\mandm\mandm\mandm8722.c
                  __pa_15   0x005f6c    program     static L:\mandm\mandm\mandm8722.c
                  __pa_15   0x00c756    program     static C:\MCC18\v3_39\src\traditional\stdclib\vfprintf.c
                  __pa_15   0x00d772    program     static L:\mandm\mandm\config.c  
                 __pa_150   0x00672a    program     static L:\mandm\mandm\mandm8722.c
                 __pa_151   0x006732    program     static L:\mandm\mandm\mandm8722.c
                 __pa_152   0x00673c    program     static L:\mandm\mandm\mandm8722.c
                 __pa_153   0x00674a    program     static L:\mandm\mandm\mandm8722.c
                 __pa_154   0x00675a    program     static L:\mandm\mandm\mandm8722.c
                 __pa_155   0x006760    program     static L:\mandm\mandm\mandm8722.c
                 __pa_156   0x00676a    program     static L:\mandm\mandm\mandm8722.c
                 __pa_157   0x006780    program     static L:\mandm\mandm\mandm8722.c
                 __pa_158   0x006794    program     static L:\mandm\mandm\mandm8722.c
                 __pa_159   0x0067a8    program     static L:\mandm\mandm\mandm8722.c
                  __pa_16   0x00c76c    program     static C:\MCC18\v3_39\src\traditional\stdclib\vfprintf.c
                  __pa_16   0x005f96    program     static L:\mandm\mandm\mandm8722.c
                  __pa_16   0x00d778    program     static L:\mandm\mandm\config.c  
                 __pa_160   0x0067b0    program     static L:\mandm\mandm\mandm8722.c
                 __pa_161   0x0067ba    program     static L:\mandm\mandm\mandm8722.c
                 __pa_162   0x0067c4    program     static L:\mandm\mandm\mandm8722.c
                 __pa_163   0x0067cc    program     static L:\mandm\mandm\mandm8722.c
                 __pa_164   0x0067e0    program     static L:\mandm\mandm\mandm8722.c
                 __pa_165   0x0067ea    program     static L:\mandm\mandm\mandm8722.c
                 __pa_166   0x0067f6    program     static L:\mandm\mandm\mandm8722.c
                 __pa_167   0x006808    program     static L:\mandm\mandm\mandm8722.c
                 __pa_168   0x00681a    program     static L:\mandm\mandm\mandm8722.c
                 __pa_169   0x00682c    program     static L:\mandm\mandm\mandm8722.c
                  __pa_17   0x00d782    program     static L:\mandm\mandm\config.c  
                  __pa_17   0x00c77e    program     static C:\MCC18\v3_39\src\traditional\stdclib\vfprintf.c
                  __pa_17   0x005f9e    program     static L:\mandm\mandm\mandm8722.c
                 __pa_170   0x00683a    program     static L:\mandm\mandm\mandm8722.c
                 __pa_171   0x00684c    program     static L:\mandm\mandm\mandm8722.c
                 __pa_172   0x00685a    program     static L:\mandm\mandm\mandm8722.c
                 __pa_173   0x00686c    program     static L:\mandm\mandm\mandm8722.c
                 __pa_174   0x00687e    program     static L:\mandm\mandm\mandm8722.c
                 __pa_175   0x006890    program     static L:\mandm\mandm\mandm8722.c
                 __pa_176   0x0068a2    program     static L:\mandm\mandm\mandm8722.c
                 __pa_177   0x0068b4    program     static L:\mandm\mandm\mandm8722.c
                 __pa_178   0x0068c6    program     static L:\mandm\mandm\mandm8722.c
                 __pa_179   0x0068cc    program     static L:\mandm\mandm\mandm8722.c
                  __pa_18   0x00d78c    program     static L:\mandm\mandm\config.c  
                  __pa_18   0x005fa8    program     static L:\mandm\mandm\mandm8722.c
                  __pa_18   0x00c790    program     static C:\MCC18\v3_39\src\traditional\stdclib\vfprintf.c
                 __pa_180   0x0068d6    program     static L:\mandm\mandm\mandm8722.c
                 __pa_181   0x0068e2    program     static L:\mandm\mandm\mandm8722.c
                 __pa_182   0x0068ec    program     static L:\mandm\mandm\mandm8722.c
                 __pa_183   0x0068f6    program     static L:\mandm\mandm\mandm8722.c
                 __pa_184   0x006900    program     static L:\mandm\mandm\mandm8722.c
                 __pa_185   0x006906    program     static L:\mandm\mandm\mandm8722.c
                 __pa_186   0x006910    program     static L:\mandm\mandm\mandm8722.c
                 __pa_187   0x00691a    program     static L:\mandm\mandm\mandm8722.c
                 __pa_188   0x006924    program     static L:\mandm\mandm\mandm8722.c
                 __pa_189   0x006932    program     static L:\mandm\mandm\mandm8722.c
                  __pa_19   0x00c79a    program     static C:\MCC18\v3_39\src\traditional\stdclib\vfprintf.c
                  __pa_19   0x005fb0    program     static L:\mandm\mandm\mandm8722.c
                 __pa_190   0x006938    program     static L:\mandm\mandm\mandm8722.c
                 __pa_191   0x006948    program     static L:\mandm\mandm\mandm8722.c
                 __pa_192   0x006958    program     static L:\mandm\mandm\mandm8722.c
                 __pa_193   0x006966    program     static L:\mandm\mandm\mandm8722.c
                 __pa_194   0x006972    program     static L:\mandm\mandm\mandm8722.c
                 __pa_195   0x00697c    program     static L:\mandm\mandm\mandm8722.c
                 __pa_196   0x00698a    program     static L:\mandm\mandm\mandm8722.c
                 __pa_197   0x006998    program     static L:\mandm\mandm\mandm8722.c
                 __pa_198   0x0069a0    program     static L:\mandm\mandm\mandm8722.c
                 __pa_199   0x0069aa    program     static L:\mandm\mandm\mandm8722.c
                   __pa_2   0x00d6f6    program     static L:\mandm\mandm\config.c  
                   __pa_2   0x005e7e    program     static L:\mandm\mandm\mandm8722.c
                   __pa_2   0x00d968    program     static L:\mandm\mandm\crit.c    
                   __pa_2   0x00c646    program     static C:\MCC18\v3_39\src\traditional\stdclib\vfprintf.c
                   __pa_2   0x00d3ee    program     static L:\mandm\mandm\power.c   
                   __pa_2   0x008682    program     static L:\mandm\mandm\daq.c     
                  __pa_20   0x005fb6    program     static L:\mandm\mandm\mandm8722.c
                  __pa_20   0x00c7aa    program     static C:\MCC18\v3_39\src\traditional\stdclib\vfprintf.c
                 __pa_200   0x0069b0    program     static L:\mandm\mandm\mandm8722.c
                 __pa_201   0x0069bc    program     static L:\mandm\mandm\mandm8722.c
                 __pa_202   0x0069c8    program     static L:\mandm\mandm\mandm8722.c
                 __pa_203   0x0069d0    program     static L:\mandm\mandm\mandm8722.c
                 __pa_204   0x0069dc    program     static L:\mandm\mandm\mandm8722.c
                 __pa_205   0x0069e8    program     static L:\mandm\mandm\mandm8722.c
                 __pa_206   0x0069f2    program     static L:\mandm\mandm\mandm8722.c
                 __pa_207   0x0069fc    program     static L:\mandm\mandm\mandm8722.c
                 __pa_208   0x006a06    program     static L:\mandm\mandm\mandm8722.c
                 __pa_209   0x006a10    program     static L:\mandm\mandm\mandm8722.c
                  __pa_21   0x00c7ba    program     static C:\MCC18\v3_39\src\traditional\stdclib\vfprintf.c
                  __pa_21   0x005fc4    program     static L:\mandm\mandm\mandm8722.c
                 __pa_210   0x006a18    program     static L:\mandm\mandm\mandm8722.c
                 __pa_211   0x006a22    program     static L:\mandm\mandm\mandm8722.c
                 __pa_212   0x006a26    program     static L:\mandm\mandm\mandm8722.c
                 __pa_213   0x006a30    program     static L:\mandm\mandm\mandm8722.c
                 __pa_214   0x006a38    program     static L:\mandm\mandm\mandm8722.c
                 __pa_215   0x006a62    program     static L:\mandm\mandm\mandm8722.c
                 __pa_216   0x006a7c    program     static L:\mandm\mandm\mandm8722.c
                 __pa_217   0x006a88    program     static L:\mandm\mandm\mandm8722.c
                 __pa_218   0x006a8e    program     static L:\mandm\mandm\mandm8722.c
                 __pa_219   0x006a96    program     static L:\mandm\mandm\mandm8722.c
                  __pa_22   0x00c7ca    program     static C:\MCC18\v3_39\src\traditional\stdclib\vfprintf.c
                  __pa_22   0x005fe2    program     static L:\mandm\mandm\mandm8722.c
                 __pa_220   0x006ab8    program     static L:\mandm\mandm\mandm8722.c
                 __pa_221   0x006ad0    program     static L:\mandm\mandm\mandm8722.c
                 __pa_222   0x006ada    program     static L:\mandm\mandm\mandm8722.c
                 __pa_223   0x006af6    program     static L:\mandm\mandm\mandm8722.c
                 __pa_224   0x006b0e    program     static L:\mandm\mandm\mandm8722.c
                 __pa_225   0x006b2a    program     static L:\mandm\mandm\mandm8722.c
                 __pa_226   0x006b44    program     static L:\mandm\mandm\mandm8722.c
                 __pa_227   0x006b52    program     static L:\mandm\mandm\mandm8722.c
                 __pa_228   0x006b5a    program     static L:\mandm\mandm\mandm8722.c
                 __pa_229   0x006b62    program     static L:\mandm\mandm\mandm8722.c
                  __pa_23   0x005fec    program     static L:\mandm\mandm\mandm8722.c
                  __pa_23   0x00c7d6    program     static C:\MCC18\v3_39\src\traditional\stdclib\vfprintf.c
                 __pa_230   0x006b76    program     static L:\mandm\mandm\mandm8722.c
                 __pa_231   0x006b8c    program     static L:\mandm\mandm\mandm8722.c
                 __pa_232   0x006b94    program     static L:\mandm\mandm\mandm8722.c
                 __pa_233   0x006b9a    program     static L:\mandm\mandm\mandm8722.c
                 __pa_234   0x006ba0    program     static L:\mandm\mandm\mandm8722.c
                 __pa_235   0x006bb0    program     static L:\mandm\mandm\mandm8722.c
                 __pa_236   0x006bc2    program     static L:\mandm\mandm\mandm8722.c
                 __pa_237   0x006bca    program     static L:\mandm\mandm\mandm8722.c
                 __pa_238   0x006bd8    program     static L:\mandm\mandm\mandm8722.c
                 __pa_239   0x006be6    program     static L:\mandm\mandm\mandm8722.c
                  __pa_24   0x00c7e4    program     static C:\MCC18\v3_39\src\traditional\stdclib\vfprintf.c
                  __pa_24   0x00600e    program     static L:\mandm\mandm\mandm8722.c
                 __pa_240   0x006bf4    program     static L:\mandm\mandm\mandm8722.c
                 __pa_241   0x006c00    program     static L:\mandm\mandm\mandm8722.c
                 __pa_242   0x006c08    program     static L:\mandm\mandm\mandm8722.c
                 __pa_243   0x006c10    program     static L:\mandm\mandm\mandm8722.c
                 __pa_244   0x006c1a    program     static L:\mandm\mandm\mandm8722.c
                 __pa_245   0x006c22    program     static L:\mandm\mandm\mandm8722.c
                 __pa_246   0x006c2a    program     static L:\mandm\mandm\mandm8722.c
                 __pa_247   0x006c30    program     static L:\mandm\mandm\mandm8722.c
                 __pa_248   0x006c38    program     static L:\mandm\mandm\mandm8722.c
                 __pa_249   0x006c3e    program     static L:\mandm\mandm\mandm8722.c
                  __pa_25   0x00c7ec    program     static C:\MCC18\v3_39\src\traditional\stdclib\vfprintf.c
                  __pa_25   0x00601c    program     static L:\mandm\mandm\mandm8722.c
                 __pa_250   0x006c4e    program     static L:\mandm\mandm\mandm8722.c
                 __pa_251   0x006c60    program     static L:\mandm\mandm\mandm8722.c
                 __pa_252   0x006c6a    program     static L:\mandm\mandm\mandm8722.c
                 __pa_253   0x006c72    program     static L:\mandm\mandm\mandm8722.c
                 __pa_254   0x006c78    program     static L:\mandm\mandm\mandm8722.c
                 __pa_255   0x006c80    program     static L:\mandm\mandm\mandm8722.c
                 __pa_256   0x006c88    program     static L:\mandm\mandm\mandm8722.c
                  __pa_26   0x006028    program     static L:\mandm\mandm\mandm8722.c
                  __pa_26   0x00c7f6    program     static C:\MCC18\v3_39\src\traditional\stdclib\vfprintf.c
                  __pa_27   0x00c800    program     static C:\MCC18\v3_39\src\traditional\stdclib\vfprintf.c
                  __pa_27   0x006036    program     static L:\mandm\mandm\mandm8722.c
                  __pa_28   0x00c808    program     static C:\MCC18\v3_39\src\traditional\stdclib\vfprintf.c
                  __pa_28   0x006042    program     static L:\mandm\mandm\mandm8722.c
                  __pa_29   0x006058    program     static L:\mandm\mandm\mandm8722.c
                  __pa_29   0x00c816    program     static C:\MCC18\v3_39\src\traditional\stdclib\vfprintf.c
                   __pa_3   0x00c650    program     static C:\MCC18\v3_39\src\traditional\stdclib\vfprintf.c
                   __pa_3   0x005e9c    program     static L:\mandm\mandm\mandm8722.c
                   __pa_3   0x00d976    program     static L:\mandm\mandm\crit.c    
                   __pa_3   0x00d6fe    program     static L:\mandm\mandm\config.c  
                   __pa_3   0x008694    program     static L:\mandm\mandm\daq.c     
                   __pa_3   0x00d3f8    program     static L:\mandm\mandm\power.c   
                  __pa_30   0x00c832    program     static C:\MCC18\v3_39\src\traditional\stdclib\vfprintf.c
                  __pa_30   0x00607e    program     static L:\mandm\mandm\mandm8722.c
                  __pa_31   0x006092    program     static L:\mandm\mandm\mandm8722.c
                  __pa_31   0x00c84c    program     static C:\MCC18\v3_39\src\traditional\stdclib\vfprintf.c
                  __pa_32   0x0060a8    program     static L:\mandm\mandm\mandm8722.c
                  __pa_32   0x00c866    program     static C:\MCC18\v3_39\src\traditional\stdclib\vfprintf.c
                  __pa_33   0x00c87e    program     static C:\MCC18\v3_39\src\traditional\stdclib\vfprintf.c
                  __pa_33   0x0060ba    program     static L:\mandm\mandm\mandm8722.c
                  __pa_34   0x0060c4    program     static L:\mandm\mandm\mandm8722.c
                  __pa_34   0x00c888    program     static C:\MCC18\v3_39\src\traditional\stdclib\vfprintf.c
                  __pa_35   0x0060ce    program     static L:\mandm\mandm\mandm8722.c
                  __pa_35   0x00c896    program     static C:\MCC18\v3_39\src\traditional\stdclib\vfprintf.c
                  __pa_36   0x0060d8    program     static L:\mandm\mandm\mandm8722.c
                  __pa_36   0x00c89e    program     static C:\MCC18\v3_39\src\traditional\stdclib\vfprintf.c
                  __pa_37   0x00c8a8    program     static C:\MCC18\v3_39\src\traditional\stdclib\vfprintf.c
                  __pa_37   0x0060f2    program     static L:\mandm\mandm\mandm8722.c
                  __pa_38   0x0060f8    program     static L:\mandm\mandm\mandm8722.c
                  __pa_38   0x00c8b8    program     static C:\MCC18\v3_39\src\traditional\stdclib\vfprintf.c
                  __pa_39   0x00610a    program     static L:\mandm\mandm\mandm8722.c
                  __pa_39   0x00c8c6    program     static C:\MCC18\v3_39\src\traditional\stdclib\vfprintf.c
                   __pa_4   0x005eba    program     static L:\mandm\mandm\mandm8722.c
                   __pa_4   0x0086b0    program     static L:\mandm\mandm\daq.c     
                   __pa_4   0x00d706    program     static L:\mandm\mandm\config.c  
                   __pa_4   0x00c668    program     static C:\MCC18\v3_39\src\traditional\stdclib\vfprintf.c
                   __pa_4   0x00d400    program     static L:\mandm\mandm\power.c   
                  __pa_40   0x00c8d2    program     static C:\MCC18\v3_39\src\traditional\stdclib\vfprintf.c
                  __pa_40   0x006116    program     static L:\mandm\mandm\mandm8722.c
                  __pa_41   0x00c8de    program     static C:\MCC18\v3_39\src\traditional\stdclib\vfprintf.c
                  __pa_41   0x006124    program     static L:\mandm\mandm\mandm8722.c
                  __pa_42   0x00c8e6    program     static C:\MCC18\v3_39\src\traditional\stdclib\vfprintf.c
                  __pa_42   0x00612c    program     static L:\mandm\mandm\mandm8722.c
                  __pa_43   0x006140    program     static L:\mandm\mandm\mandm8722.c
                  __pa_43   0x00c8f0    program     static C:\MCC18\v3_39\src\traditional\stdclib\vfprintf.c
                  __pa_44   0x00c8f6    program     static C:\MCC18\v3_39\src\traditional\stdclib\vfprintf.c
                  __pa_44   0x00615a    program     static L:\mandm\mandm\mandm8722.c
                  __pa_45   0x00c900    program     static C:\MCC18\v3_39\src\traditional\stdclib\vfprintf.c
                  __pa_45   0x00616e    program     static L:\mandm\mandm\mandm8722.c
                  __pa_46   0x00c90c    program     static C:\MCC18\v3_39\src\traditional\stdclib\vfprintf.c
                  __pa_46   0x006176    program     static L:\mandm\mandm\mandm8722.c
                  __pa_47   0x00617e    program     static L:\mandm\mandm\mandm8722.c
                  __pa_48   0x00618c    program     static L:\mandm\mandm\mandm8722.c
                  __pa_49   0x006194    program     static L:\mandm\mandm\mandm8722.c
                   __pa_5   0x005ec2    program     static L:\mandm\mandm\mandm8722.c
                   __pa_5   0x00d716    program     static L:\mandm\mandm\config.c  
                   __pa_5   0x00d40e    program     static L:\mandm\mandm\power.c   
                   __pa_5   0x0086be    program     static L:\mandm\mandm\daq.c     
                   __pa_5   0x00c67c    program     static C:\MCC18\v3_39\src\traditional\stdclib\vfprintf.c
                  __pa_50   0x00619c    program     static L:\mandm\mandm\mandm8722.c
                  __pa_51   0x0061a4    program     static L:\mandm\mandm\mandm8722.c
                  __pa_52   0x0061ce    program     static L:\mandm\mandm\mandm8722.c
                  __pa_53   0x0061d8    program     static L:\mandm\mandm\mandm8722.c
                  __pa_54   0x0061e2    program     static L:\mandm\mandm\mandm8722.c
                  __pa_55   0x0061f0    program     static L:\mandm\mandm\mandm8722.c
                  __pa_56   0x0061f8    program     static L:\mandm\mandm\mandm8722.c
                  __pa_57   0x006218    program     static L:\mandm\mandm\mandm8722.c
                  __pa_58   0x006238    program     static L:\mandm\mandm\mandm8722.c
                  __pa_59   0x006248    program     static L:\mandm\mandm\mandm8722.c
                   __pa_6   0x00d426    program     static L:\mandm\mandm\power.c   
                   __pa_6   0x00c698    program     static C:\MCC18\v3_39\src\traditional\stdclib\vfprintf.c
                   __pa_6   0x005ed4    program     static L:\mandm\mandm\mandm8722.c
                   __pa_6   0x00d71e    program     static L:\mandm\mandm\config.c  
                   __pa_6   0x0086cc    program     static L:\mandm\mandm\daq.c     
                  __pa_60   0x006258    program     static L:\mandm\mandm\mandm8722.c
                  __pa_61   0x006262    program     static L:\mandm\mandm\mandm8722.c
                  __pa_62   0x006268    program     static L:\mandm\mandm\mandm8722.c
                  __pa_63   0x00626e    program     static L:\mandm\mandm\mandm8722.c
                  __pa_64   0x006286    program     static L:\mandm\mandm\mandm8722.c
                  __pa_65   0x00628e    program     static L:\mandm\mandm\mandm8722.c
                  __pa_66   0x006296    program     static L:\mandm\mandm\mandm8722.c
                  __pa_67   0x0062a2    program     static L:\mandm\mandm\mandm8722.c
                  __pa_68   0x0062b0    program     static L:\mandm\mandm\mandm8722.c
                  __pa_69   0x0062be    program     static L:\mandm\mandm\mandm8722.c
                   __pa_7   0x005ede    program     static L:\mandm\mandm\mandm8722.c
                   __pa_7   0x00d434    program     static L:\mandm\mandm\power.c   
                   __pa_7   0x00d726    program     static L:\mandm\mandm\config.c  
                   __pa_7   0x00c6a2    program     static C:\MCC18\v3_39\src\traditional\stdclib\vfprintf.c
                  __pa_70   0x0062ca    program     static L:\mandm\mandm\mandm8722.c
                  __pa_71   0x0062d4    program     static L:\mandm\mandm\mandm8722.c
                  __pa_72   0x0062de    program     static L:\mandm\mandm\mandm8722.c
                  __pa_73   0x0062e8    program     static L:\mandm\mandm\mandm8722.c
                  __pa_74   0x006300    program     static L:\mandm\mandm\mandm8722.c
                  __pa_75   0x006314    program     static L:\mandm\mandm\mandm8722.c
                  __pa_76   0x00631e    program     static L:\mandm\mandm\mandm8722.c
                  __pa_77   0x006328    program     static L:\mandm\mandm\mandm8722.c
                  __pa_78   0x006332    program     static L:\mandm\mandm\mandm8722.c
                  __pa_79   0x00633c    program     static L:\mandm\mandm\mandm8722.c
                   __pa_8   0x00d43e    program     static L:\mandm\mandm\power.c   
                   __pa_8   0x00c6ae    program     static C:\MCC18\v3_39\src\traditional\stdclib\vfprintf.c
                   __pa_8   0x00d734    program     static L:\mandm\mandm\config.c  
                   __pa_8   0x005ee8    program     static L:\mandm\mandm\mandm8722.c
                  __pa_80   0x006352    program     static L:\mandm\mandm\mandm8722.c
                  __pa_81   0x00635e    program     static L:\mandm\mandm\mandm8722.c
                  __pa_82   0x00636a    program     static L:\mandm\mandm\mandm8722.c
                  __pa_83   0x006372    program     static L:\mandm\mandm\mandm8722.c
                  __pa_84   0x00637a    program     static L:\mandm\mandm\mandm8722.c
                  __pa_85   0x006388    program     static L:\mandm\mandm\mandm8722.c
                  __pa_86   0x006396    program     static L:\mandm\mandm\mandm8722.c
                  __pa_87   0x0063a4    program     static L:\mandm\mandm\mandm8722.c
                  __pa_88   0x0063b2    program     static L:\mandm\mandm\mandm8722.c
                  __pa_89   0x0063bc    program     static L:\mandm\mandm\mandm8722.c
                   __pa_9   0x00d446    program     static L:\mandm\mandm\power.c   
                   __pa_9   0x005efa    program     static L:\mandm\mandm\mandm8722.c
                   __pa_9   0x00d740    program     static L:\mandm\mandm\config.c  
                   __pa_9   0x00c6d0    program     static C:\MCC18\v3_39\src\traditional\stdclib\vfprintf.c
                  __pa_90   0x0063c6    program     static L:\mandm\mandm\mandm8722.c
                  __pa_91   0x0063d8    program     static L:\mandm\mandm\mandm8722.c
                  __pa_92   0x0063ea    program     static L:\mandm\mandm\mandm8722.c
                  __pa_93   0x0063fc    program     static L:\mandm\mandm\mandm8722.c
                  __pa_94   0x00640e    program     static L:\mandm\mandm\mandm8722.c
                  __pa_95   0x006420    program     static L:\mandm\mandm\mandm8722.c
                  __pa_96   0x006432    program     static L:\mandm\mandm\mandm8722.c
                  __pa_97   0x00643a    program     static L:\mandm\mandm\mandm8722.c
                  __pa_98   0x00644c    program     static L:\mandm\mandm\mandm8722.c
                  __pa_99   0x00645e    program     static L:\mandm\mandm\mandm8722.c
               __string_0   0x009bfa    program     static L:\mandm\mandm\config.c  
               __string_0   0x008763    program     static L:\mandm\mandm\daq.c     
               __string_1   0x009bdd    program     static L:\mandm\mandm\config.c  
               __string_1   0x008734    program     static L:\mandm\mandm\daq.c     
             __string_108   0x009ade    program     static L:\mandm\mandm\mandm8722.c
             __string_109   0x009ad5    program     static L:\mandm\mandm\mandm8722.c
             __string_110   0x009abc    program     static L:\mandm\mandm\mandm8722.c
             __string_111   0x009ab5    program     static L:\mandm\mandm\mandm8722.c
             __string_112   0x009ab2    program     static L:\mandm\mandm\mandm8722.c
             __string_113   0x009aad    program     static L:\mandm\mandm\mandm8722.c
             __string_114   0x009aab    program     static L:\mandm\mandm\mandm8722.c
             __string_115   0x009a95    program     static L:\mandm\mandm\mandm8722.c
             __string_116   0x009a06    program     static L:\mandm\mandm\mandm8722.c
             __string_117   0x009947    program     static L:\mandm\mandm\mandm8722.c
             __string_118   0x0098e8    program     static L:\mandm\mandm\mandm8722.c
             __string_119   0x009870    program     static L:\mandm\mandm\mandm8722.c
             __string_120   0x00984f    program     static L:\mandm\mandm\mandm8722.c
             __string_121   0x00983d    program     static L:\mandm\mandm\mandm8722.c
             __string_122   0x009831    program     static L:\mandm\mandm\mandm8722.c
             __string_123   0x009829    program     static L:\mandm\mandm\mandm8722.c
             __string_124   0x009821    program     static L:\mandm\mandm\mandm8722.c
             __string_125   0x00981b    program     static L:\mandm\mandm\mandm8722.c
             __string_126   0x00980e    program     static L:\mandm\mandm\mandm8722.c
             __string_127   0x009804    program     static L:\mandm\mandm\mandm8722.c
             __string_128   0x0097f2    program     static L:\mandm\mandm\mandm8722.c
             __string_129   0x0097d8    program     static L:\mandm\mandm\mandm8722.c
             __string_130   0x0097be    program     static L:\mandm\mandm\mandm8722.c
             __string_131   0x00979e    program     static L:\mandm\mandm\mandm8722.c
             __string_132   0x009784    program     static L:\mandm\mandm\mandm8722.c
             __string_133   0x00976b    program     static L:\mandm\mandm\mandm8722.c
             __string_134   0x009747    program     static L:\mandm\mandm\mandm8722.c
             __string_135   0x009724    program     static L:\mandm\mandm\mandm8722.c
             __string_136   0x0096d7    program     static L:\mandm\mandm\mandm8722.c
             __string_137   0x009690    program     static L:\mandm\mandm\mandm8722.c
             __string_138   0x009675    program     static L:\mandm\mandm\mandm8722.c
             __string_139   0x00963b    program     static L:\mandm\mandm\mandm8722.c
             __string_140   0x009607    program     static L:\mandm\mandm\mandm8722.c
             __string_141   0x0095f1    program     static L:\mandm\mandm\mandm8722.c
             __string_142   0x0095da    program     static L:\mandm\mandm\mandm8722.c
             __string_143   0x00958b    program     static L:\mandm\mandm\mandm8722.c
             __string_144   0x009535    program     static L:\mandm\mandm\mandm8722.c
             __string_145   0x009519    program     static L:\mandm\mandm\mandm8722.c
             __string_146   0x0094f9    program     static L:\mandm\mandm\mandm8722.c
             __string_147   0x0094a5    program     static L:\mandm\mandm\mandm8722.c
             __string_148   0x009466    program     static L:\mandm\mandm\mandm8722.c
             __string_149   0x009444    program     static L:\mandm\mandm\mandm8722.c
             __string_150   0x0093f1    program     static L:\mandm\mandm\mandm8722.c
             __string_151   0x0093df    program     static L:\mandm\mandm\mandm8722.c
             __string_152   0x0093c4    program     static L:\mandm\mandm\mandm8722.c
             __string_153   0x0093b5    program     static L:\mandm\mandm\mandm8722.c
             __string_154   0x00939a    program     static L:\mandm\mandm\mandm8722.c
             __string_155   0x009382    program     static L:\mandm\mandm\mandm8722.c
             __string_156   0x009373    program     static L:\mandm\mandm\mandm8722.c
             __string_157   0x00935b    program     static L:\mandm\mandm\mandm8722.c
             __string_158   0x009344    program     static L:\mandm\mandm\mandm8722.c
             __string_159   0x00932d    program     static L:\mandm\mandm\mandm8722.c
             __string_160   0x00931a    program     static L:\mandm\mandm\mandm8722.c
             __string_161   0x0092f5    program     static L:\mandm\mandm\mandm8722.c
             __string_162   0x0092df    program     static L:\mandm\mandm\mandm8722.c
             __string_163   0x0092c9    program     static L:\mandm\mandm\mandm8722.c
             __string_164   0x0092b3    program     static L:\mandm\mandm\mandm8722.c
             __string_165   0x00929d    program     static L:\mandm\mandm\mandm8722.c
             __string_166   0x009274    program     static L:\mandm\mandm\mandm8722.c
             __string_167   0x009253    program     static L:\mandm\mandm\mandm8722.c
             __string_168   0x009236    program     static L:\mandm\mandm\mandm8722.c
             __string_169   0x00920f    program     static L:\mandm\mandm\mandm8722.c
             __string_170   0x0091f5    program     static L:\mandm\mandm\mandm8722.c
             __string_171   0x0091cc    program     static L:\mandm\mandm\mandm8722.c
             __string_172   0x0091a3    program     static L:\mandm\mandm\mandm8722.c
             __string_173   0x00917a    program     static L:\mandm\mandm\mandm8722.c
             __string_174   0x009153    program     static L:\mandm\mandm\mandm8722.c
             __string_175   0x00912c    program     static L:\mandm\mandm\mandm8722.c
             __string_176   0x009105    program     static L:\mandm\mandm\mandm8722.c
             __string_177   0x0090dc    program     static L:\mandm\mandm\mandm8722.c
             __string_178   0x0090c4    program     static L:\mandm\mandm\mandm8722.c
             __string_179   0x00909b    program     static L:\mandm\mandm\mandm8722.c
             __string_180   0x009086    program     static L:\mandm\mandm\mandm8722.c
             __string_181   0x00905d    program     static L:\mandm\mandm\mandm8722.c
             __string_182   0x00903b    program     static L:\mandm\mandm\mandm8722.c
             __string_183   0x009014    program     static L:\mandm\mandm\mandm8722.c
             __string_184   0x008ff3    program     static L:\mandm\mandm\mandm8722.c
             __string_185   0x008fcc    program     static L:\mandm\mandm\mandm8722.c
             __string_186   0x008fa5    program     static L:\mandm\mandm\mandm8722.c
             __string_187   0x008f7e    program     static L:\mandm\mandm\mandm8722.c
             __string_188   0x008f68    program     static L:\mandm\mandm\mandm8722.c
             __string_189   0x008f52    program     static L:\mandm\mandm\mandm8722.c
             __string_190   0x008f3c    program     static L:\mandm\mandm\mandm8722.c
             __string_191   0x008f25    program     static L:\mandm\mandm\mandm8722.c
             __string_192   0x008f0e    program     static L:\mandm\mandm\mandm8722.c
             __string_193   0x008ef7    program     static L:\mandm\mandm\mandm8722.c
             __string_194   0x008ed8    program     static L:\mandm\mandm\mandm8722.c
             __string_195   0x008eb9    program     static L:\mandm\mandm\mandm8722.c
             __string_196   0x008e9a    program     static L:\mandm\mandm\mandm8722.c
             __string_197   0x008e7c    program     static L:\mandm\mandm\mandm8722.c
             __string_198   0x008e58    program     static L:\mandm\mandm\mandm8722.c
             __string_199   0x008e2a    program     static L:\mandm\mandm\mandm8722.c
               __string_2   0x009bb8    program     static L:\mandm\mandm\config.c  
               __string_2   0x008705    program     static L:\mandm\mandm\daq.c     
             __string_200   0x008e0e    program     static L:\mandm\mandm\mandm8722.c
             __string_201   0x008de3    program     static L:\mandm\mandm\mandm8722.c
             __string_202   0x008dc4    program     static L:\mandm\mandm\mandm8722.c
             __string_203   0x008d9c    program     static L:\mandm\mandm\mandm8722.c
             __string_204   0x008d6f    program     static L:\mandm\mandm\mandm8722.c
             __string_205   0x008d54    program     static L:\mandm\mandm\mandm8722.c
             __string_206   0x008d29    program     static L:\mandm\mandm\mandm8722.c
             __string_207   0x008d09    program     static L:\mandm\mandm\mandm8722.c
             __string_208   0x008cf2    program     static L:\mandm\mandm\mandm8722.c
             __string_209   0x008cdb    program     static L:\mandm\mandm\mandm8722.c
             __string_210   0x008cbf    program     static L:\mandm\mandm\mandm8722.c
             __string_211   0x008ca1    program     static L:\mandm\mandm\mandm8722.c
             __string_212   0x008c7b    program     static L:\mandm\mandm\mandm8722.c
             __string_213   0x008c5e    program     static L:\mandm\mandm\mandm8722.c
             __string_214   0x008c39    program     static L:\mandm\mandm\mandm8722.c
             __string_215   0x008c21    program     static L:\mandm\mandm\mandm8722.c
             __string_216   0x008bf9    program     static L:\mandm\mandm\mandm8722.c
             __string_217   0x008bd1    program     static L:\mandm\mandm\mandm8722.c
             __string_218   0x008ba9    program     static L:\mandm\mandm\mandm8722.c
             __string_219   0x008b81    program     static L:\mandm\mandm\mandm8722.c
             __string_220   0x008b6a    program     static L:\mandm\mandm\mandm8722.c
             __string_221   0x008b48    program     static L:\mandm\mandm\mandm8722.c
             __string_222   0x008b32    program     static L:\mandm\mandm\mandm8722.c
             __string_223   0x008b1c    program     static L:\mandm\mandm\mandm8722.c
             __string_224   0x008b06    program     static L:\mandm\mandm\mandm8722.c
             __string_225   0x008aef    program     static L:\mandm\mandm\mandm8722.c
             __string_226   0x008ada    program     static L:\mandm\mandm\mandm8722.c
             __string_227   0x008ac5    program     static L:\mandm\mandm\mandm8722.c
             __string_228   0x008a97    program     static L:\mandm\mandm\mandm8722.c
             __string_229   0x008a62    program     static L:\mandm\mandm\mandm8722.c
             __string_230   0x008a3f    program     static L:\mandm\mandm\mandm8722.c
             __string_231   0x008a01    program     static L:\mandm\mandm\mandm8722.c
             __string_232   0x0089ec    program     static L:\mandm\mandm\mandm8722.c
             __string_233   0x0089c7    program     static L:\mandm\mandm\mandm8722.c
             __string_234   0x00899d    program     static L:\mandm\mandm\mandm8722.c
             __string_235   0x008974    program     static L:\mandm\mandm\mandm8722.c
             __string_236   0x00894b    program     static L:\mandm\mandm\mandm8722.c
             __string_237   0x008933    program     static L:\mandm\mandm\mandm8722.c
             __string_238   0x008914    program     static L:\mandm\mandm\mandm8722.c
             __string_239   0x0088fb    program     static L:\mandm\mandm\mandm8722.c
             __string_240   0x0088de    program     static L:\mandm\mandm\mandm8722.c
             __string_241   0x0088be    program     static L:\mandm\mandm\mandm8722.c
             __string_242   0x00889b    program     static L:\mandm\mandm\mandm8722.c
             __string_243   0x00887b    program     static L:\mandm\mandm\mandm8722.c
             __string_244   0x008862    program     static L:\mandm\mandm\mandm8722.c
             __string_245   0x008846    program     static L:\mandm\mandm\mandm8722.c
             __string_246   0x00882d    program     static L:\mandm\mandm\mandm8722.c
             __string_247   0x008814    program     static L:\mandm\mandm\mandm8722.c
             __string_248   0x0087fe    program     static L:\mandm\mandm\mandm8722.c
             __string_249   0x0087e5    program     static L:\mandm\mandm\mandm8722.c
             __string_250   0x0087c3    program     static L:\mandm\mandm\mandm8722.c
             __string_251   0x0087a5    program     static L:\mandm\mandm\mandm8722.c
               __string_3   0x009b92    program     static L:\mandm\mandm\config.c  
               __string_3   0x0086d6    program     static L:\mandm\mandm\daq.c     
               __string_4   0x009b6b    program     static L:\mandm\mandm\config.c  
               __string_5   0x009b49    program     static L:\mandm\mandm\config.c  
               __string_6   0x009b32    program     static L:\mandm\mandm\config.c  
               __string_7   0x009b0e    program     static L:\mandm\mandm\config.c  
               __string_8   0x009aea    program     static L:\mandm\mandm\config.c  
               __tmplbl_0   0x00db50    program     static                          
               __tmplbl_0   0x00b14c    program     static                          
               __tmplbl_1   0x00b146    program     static                          
               __tmplbl_1   0x00db4a    program     static                          
              __tmplbl_10   0x0070a6    program     static                          
              __tmplbl_10   0x00b330    program     static                          
             __tmplbl_100   0x0053fc    program     static                          
             __tmplbl_101   0x00542e    program     static                          
             __tmplbl_102   0x005e1a    program     static                          
             __tmplbl_103   0x005e14    program     static                          
             __tmplbl_104   0x005fa8    program     static                          
             __tmplbl_105   0x005fa8    program     static                          
             __tmplbl_106   0x005fa8    program     static                          
             __tmplbl_107   0x005fa8    program     static                          
             __tmplbl_108   0x005fa8    program     static                          
             __tmplbl_109   0x005fa8    program     static                          
              __tmplbl_11   0x0072e0    program     static                          
              __tmplbl_11   0x00b354    program     static                          
             __tmplbl_110   0x005fa8    program     static                          
             __tmplbl_111   0x005fa8    program     static                          
             __tmplbl_113   0x005fa8    program     static                          
             __tmplbl_114   0x005fa8    program     static                          
             __tmplbl_115   0x0067cc    program     static                          
             __tmplbl_116   0x0067cc    program     static                          
             __tmplbl_117   0x005fa8    program     static                          
             __tmplbl_118   0x005fa8    program     static                          
             __tmplbl_119   0x006bca    program     static                          
              __tmplbl_12   0x00b34e    program     static                          
              __tmplbl_12   0x007518    program     static                          
             __tmplbl_120   0x006bca    program     static                          
             __tmplbl_121   0x006670    program     static                          
             __tmplbl_122   0x006670    program     static                          
             __tmplbl_126   0x005fa8    program     static                          
             __tmplbl_128   0x005fa8    program     static                          
             __tmplbl_129   0x005fa8    program     static                          
              __tmplbl_13   0x007a04    program     static                          
              __tmplbl_13   0x00b376    program     static                          
              __tmplbl_14   0x00b370    program     static                          
              __tmplbl_14   0x007cbc    program     static                          
             __tmplbl_147   0x005fa8    program     static                          
             __tmplbl_148   0x005fa8    program     static                          
              __tmplbl_15   0x00b39e    program     static                          
              __tmplbl_15   0x007db6    program     static                          
             __tmplbl_150   0x005fa8    program     static                          
             __tmplbl_152   0x005fa8    program     static                          
             __tmplbl_153   0x00663a    program     static                          
             __tmplbl_154   0x0066d6    program     static                          
             __tmplbl_155   0x00663a    program     static                          
             __tmplbl_156   0x00663a    program     static                          
             __tmplbl_157   0x0066d6    program     static                          
             __tmplbl_158   0x00663a    program     static                          
             __tmplbl_159   0x00663a    program     static                          
              __tmplbl_16   0x00b398    program     static                          
             __tmplbl_160   0x0066d6    program     static                          
             __tmplbl_164   0x00663a    program     static                          
             __tmplbl_165   0x005fa8    program     static                          
             __tmplbl_166   0x005fa8    program     static                          
             __tmplbl_167   0x002dbc    program     static                          
             __tmplbl_168   0x002eac    program     static                          
             __tmplbl_169   0x002f5e    program     static                          
              __tmplbl_17   0x00b3c6    program     static                          
             __tmplbl_170   0x002f8a    program     static                          
             __tmplbl_171   0x003130    program     static                          
             __tmplbl_172   0x003220    program     static                          
             __tmplbl_173   0x0032d2    program     static                          
             __tmplbl_174   0x0032fe    program     static                          
             __tmplbl_175   0x004cd0    program     static                          
             __tmplbl_176   0x004dd0    program     static                          
             __tmplbl_177   0x006760    program     static                          
             __tmplbl_178   0x006760    program     static                          
             __tmplbl_179   0x006c30    program     static                          
              __tmplbl_18   0x00b3c0    program     static                          
             __tmplbl_180   0x006a22    program     static                          
             __tmplbl_181   0x006760    program     static                          
             __tmplbl_182   0x006a22    program     static                          
             __tmplbl_183   0x0069d0    program     static                          
             __tmplbl_184   0x0069dc    program     static                          
             __tmplbl_185   0x005fa8    program     static                          
              __tmplbl_19   0x00b41a    program     static                          
               __tmplbl_2   0x00b16e    program     static                          
              __tmplbl_20   0x00b414    program     static                          
              __tmplbl_21   0x00b470    program     static                          
              __tmplbl_22   0x00b49a    program     static                          
              __tmplbl_23   0x00b514    program     static                          
              __tmplbl_24   0x00b4f6    program     static                          
              __tmplbl_25   0x00b4d8    program     static                          
              __tmplbl_26   0x00b4d6    program     static                          
              __tmplbl_27   0x00b4f4    program     static                          
              __tmplbl_28   0x00b512    program     static                          
              __tmplbl_29   0x00b69e    program     static                          
               __tmplbl_3   0x0002b8    program     static                          
               __tmplbl_3   0x00710e    program     static                          
               __tmplbl_3   0x00b168    program     static                          
              __tmplbl_30   0x00b6fa    program     static                          
              __tmplbl_31   0x00b722    program     static                          
              __tmplbl_32   0x00b7ac    program     static                          
              __tmplbl_33   0x00bab0    program     static                          
              __tmplbl_34   0x00ba74    program     static                          
              __tmplbl_35   0x00bb3a    program     static                          
              __tmplbl_36   0x00bb18    program     static                          
              __tmplbl_37   0x00bb12    program     static                          
              __tmplbl_38   0x00bb0c    program     static                          
              __tmplbl_39   0x00bbc2    program     static                          
               __tmplbl_4   0x00b1dc    program     static                          
               __tmplbl_4   0x00036e    program     static                          
               __tmplbl_4   0x007348    program     static                          
              __tmplbl_40   0x00bc10    program     static                          
              __tmplbl_41   0x00bc0a    program     static                          
              __tmplbl_42   0x00c7ca    program     static                          
              __tmplbl_43   0x00c612    program     static                          
              __tmplbl_44   0x00c5f8    program     static                          
               __tmplbl_5   0x007580    program     static                          
               __tmplbl_5   0x00b30c    program     static                          
               __tmplbl_6   0x007b2a    program     static                          
               __tmplbl_6   0x00b304    program     static                          
               __tmplbl_7   0x007b24    program     static                          
               __tmplbl_7   0x00b322    program     static                          
              __tmplbl_73   0x002f76    program     static                          
              __tmplbl_74   0x002f66    program     static                          
              __tmplbl_75   0x0032ea    program     static                          
              __tmplbl_76   0x0032da    program     static                          
              __tmplbl_77   0x003334    program     static                          
              __tmplbl_78   0x00332a    program     static                          
              __tmplbl_79   0x003764    program     static                          
               __tmplbl_8   0x006e50    program     static                          
               __tmplbl_8   0x00b31a    program     static                          
              __tmplbl_80   0x00375e    program     static                          
              __tmplbl_81   0x003758    program     static                          
              __tmplbl_82   0x003ba2    program     static                          
              __tmplbl_83   0x003b90    program     static                          
              __tmplbl_84   0x003dfa    program     static                          
              __tmplbl_85   0x003df4    program     static                          
              __tmplbl_85   0x00bd4a    program     static                          
              __tmplbl_86   0x003dee    program     static                          
              __tmplbl_87   0x004238    program     static                          
              __tmplbl_88   0x004226    program     static                          
              __tmplbl_89   0x00429c    program     static                          
               __tmplbl_9   0x006f5a    program     static                          
               __tmplbl_9   0x00b338    program     static                          
              __tmplbl_90   0x00442e    program     static                          
              __tmplbl_91   0x004568    program     static                          
              __tmplbl_92   0x0046fa    program     static                          
              __tmplbl_93   0x004bc8    program     static                          
              __tmplbl_94   0x004c3c    program     static                          
              __tmplbl_95   0x004d0c    program     static                          
              __tmplbl_96   0x004cda    program     static                          
              __tmplbl_97   0x004e0c    program     static                          
              __tmplbl_98   0x004dda    program     static                          
              __tmplbl_99   0x005432    program     static                          
            __zero_memory   0x00e714    program     extern C:\MCC18\v3_39\src\traditional\proc\p18F8722.asm
                _do_cinit   0x00dd42    program     extern C:\MCC18\v3_39\src\traditional\startup\c018iz.c
                   _entry   0x000000    program     extern C:\MCC18\v3_39\src\traditional\startup\c018iz.c
                   _false   0x00e2f8    program     static                          
                 _startup   0x00e6f4    program     extern C:\MCC18\v3_39\src\traditional\startup\c018iz.c
              _usart_putc   0x00e734    program     extern C:\MCC18\v3_39\src\pmc_common\USART\_usartpc.asm
               _user_putc   0x000006    program     extern C:\MCC18\v3_39\src\traditional\stdclib\_user_putc.c
                    adcg0   0x00a0a8    program     extern L:\mandm\mandm\mandm_msg.h
                    adcg1   0x00a0e8    program     extern L:\mandm\mandm\mandm_msg.h
                    adcg2   0x00a113    program     extern L:\mandm\mandm\mandm_msg.h
                    adcg3   0x00a146    program     extern L:\mandm\mandm\mandm_msg.h
                    adcg4   0x00a1b2    program     extern L:\mandm\mandm\mandm_msg.h
                     ahfp   0x0012f2    program     extern L:\mandm\mandm\mandm8722.c
                 almcode0   0x00a866    program     extern L:\mandm\mandm\mandm_msg.h
                 almcode1   0x00a886    program     extern L:\mandm\mandm\mandm_msg.h
                almcode10   0x00aa2d    program     extern L:\mandm\mandm\mandm_msg.h
                almcode11   0x00aa6e    program     extern L:\mandm\mandm\mandm_msg.h
                almcode12   0x00aa94    program     extern L:\mandm\mandm\mandm_msg.h
                almcode13   0x00aaba    program     extern L:\mandm\mandm\mandm_msg.h
                almcode14   0x00aae6    program     extern L:\mandm\mandm\mandm_msg.h
                almcode15   0x00aafe    program     extern L:\mandm\mandm\mandm_msg.h
                almcode16   0x00ab15    program     extern L:\mandm\mandm\mandm_msg.h
                almcode17   0x00ab42    program     extern L:\mandm\mandm\mandm_msg.h
                 almcode2   0x00a8b6    program     extern L:\mandm\mandm\mandm_msg.h
                 almcode3   0x00a8d9    program     extern L:\mandm\mandm\mandm_msg.h
                 almcode4   0x00a8fc    program     extern L:\mandm\mandm\mandm_msg.h
                 almcode5   0x00a92d    program     extern L:\mandm\mandm\mandm_msg.h
                 almcode6   0x00a961    program     extern L:\mandm\mandm\mandm_msg.h
                 almcode7   0x00a996    program     extern L:\mandm\mandm\mandm_msg.h
                 almcode8   0x00a9cf    program     extern L:\mandm\mandm\mandm_msg.h
                 almcode9   0x00a9fd    program     extern L:\mandm\mandm\mandm_msg.h
                almcode99   0x00ab61    program     extern L:\mandm\mandm\mandm_msg.h
                 ansidraw   0x0017b6    program     extern L:\mandm\mandm\mandm8722.c
              battbuffer0   0x00a754    program     extern L:\mandm\mandm\mandm_msg.h
              battheader0   0x00a61f    program     extern L:\mandm\mandm\mandm_msg.h
              battheader1   0x00a693    program     extern L:\mandm\mandm\mandm_msg.h
                blink_led   0x00d318    program     extern L:\mandm\mandm\power.c   
             buzzer_ticks   0x00bcac    program     extern L:\mandm\mandm\mandm_vector.c
                 charger0   0x00ae48    program     extern L:\mandm\mandm\mandm_msg.h
                 charger1   0x00ae7f    program     extern L:\mandm\mandm\mandm_msg.h
                 charger2   0x00aeb9    program     extern L:\mandm\mandm\mandm_msg.h
                 charger3   0x00aef7    program     extern L:\mandm\mandm\mandm_msg.h
                 charger4   0x00af16    program     extern L:\mandm\mandm\mandm_msg.h
                charger99   0x00af36    program     extern L:\mandm\mandm\mandm_msg.h
              check_alarm   0x00138e    program     extern L:\mandm\mandm\mandm8722.c
              check_cable   0x001e36    program     extern L:\mandm\mandm\mandm8722.c
                checktime   0x000378    program     extern L:\mandm\mandm\mandm8722.c
            checktime_cal   0x0004da    program     extern L:\mandm\mandm\mandm8722.c
            checktime_eep   0x000550    program     extern L:\mandm\mandm\mandm8722.c
          checktime_motor   0x000464    program     extern L:\mandm\mandm\mandm8722.c
         checktime_select   0x0003ee    program     extern L:\mandm\mandm\mandm8722.c
          checktime_track   0x0005c6    program     extern L:\mandm\mandm\mandm8722.c
                chrgcode0   0x00ab62    program     extern L:\mandm\mandm\mandm_msg.h
                chrgcode1   0x00ab93    program     extern L:\mandm\mandm\mandm_msg.h
               chrgcode10   0x00ad0d    program     extern L:\mandm\mandm\mandm_msg.h
               chrgcode11   0x00ad3a    program     extern L:\mandm\mandm\mandm_msg.h
               chrgcode12   0x00ad65    program     extern L:\mandm\mandm\mandm_msg.h
               chrgcode13   0x00ad93    program     extern L:\mandm\mandm\mandm_msg.h
               chrgcode14   0x00adc0    program     extern L:\mandm\mandm\mandm_msg.h
               chrgcode15   0x00adf4    program     extern L:\mandm\mandm\mandm_msg.h
               chrgcode16   0x00ae1e    program     extern L:\mandm\mandm\mandm_msg.h
                chrgcode2   0x00abc9    program     extern L:\mandm\mandm\mandm_msg.h
                chrgcode3   0x00abf5    program     extern L:\mandm\mandm\mandm_msg.h
                chrgcode4   0x00ac26    program     extern L:\mandm\mandm\mandm_msg.h
                chrgcode5   0x00ac5e    program     extern L:\mandm\mandm\mandm_msg.h
                chrgcode6   0x00ac71    program     extern L:\mandm\mandm\mandm_msg.h
                chrgcode7   0x00ac91    program     extern L:\mandm\mandm\mandm_msg.h
                chrgcode8   0x00acbe    program     extern L:\mandm\mandm\mandm_msg.h
                chrgcode9   0x00ace8    program     extern L:\mandm\mandm\mandm_msg.h
               clear_crit   0x00d894    program     extern L:\mandm\mandm\crit.c    
                  clr_lcd   0x00068c    program     extern L:\mandm\mandm\mandm8722.c
                compare_l   0x00e72a    program     static C:\MCC18\v3_39\src\traditional\proc\p18F8722.asm
               config_pic   0x00db16    program     extern L:\mandm\mandm\hwconf.c  
                copy_loop   0x00ddb4    program     static                          
            copy_one_byte   0x00ddba    program     static                          
          default_display   0x002878    program     extern L:\mandm\mandm\mandm8722.c
              display_cal   0x005540    program     extern L:\mandm\mandm\mandm8722.c
                  divert0   0x00a824    program     extern L:\mandm\mandm\mandm_msg.h
                  divert1   0x00a844    program     extern L:\mandm\mandm\mandm_msg.h
                 divert99   0x00a865    program     extern L:\mandm\mandm\mandm_msg.h
                     done   0x00ddde    program     static                          
             done_copying   0x00ddc8    program     static                          
           e220_m_display   0x0025fe    program     extern L:\mandm\mandm\mandm8722.c
         e220_qei_display   0x0027b0    program     extern L:\mandm\mandm\mandm8722.c
            e220_qei_exer   0x002234    program     extern L:\mandm\mandm\mandm8722.c
                   e_crit   0x00d82c    program     extern L:\mandm\mandm\crit.c    
              emo_display   0x0028d4    program     extern L:\mandm\mandm\mandm8722.c
                emotor_cw   0x00d2a2    program     extern L:\mandm\mandm\power.c   
        emotor_is_all_off   0x00d2ca    program     extern L:\mandm\mandm\power.c   
             emotor_power   0x00d238    program     extern L:\mandm\mandm\power.c   
         emotor_power_off   0x00d2e8    program     extern L:\mandm\mandm\power.c   
          emotor_power_on   0x00d2ee    program     extern L:\mandm\mandm\power.c   
            emotor_relays   0x00d282    program     extern L:\mandm\mandm\power.c   
        emotor_slow_start   0x00d286    program     extern L:\mandm\mandm\power.c   
         emotor_slow_stop   0x00d29e    program     extern L:\mandm\mandm\power.c   
        emotor_switch_ccw   0x00d2d4    program     extern L:\mandm\mandm\power.c   
         emotor_switch_cw   0x00d2e2    program     extern L:\mandm\mandm\power.c   
               emotor_v24   0x00d2f4    program     extern L:\mandm\mandm\power.c   
                  endloop   0x00e69e    program     static                          
                exerciser   0x0024ce    program     extern L:\mandm\mandm\mandm8722.c
          fail_all_motors   0x0029d8    program     extern L:\mandm\mandm\mandm8722.c
                fail_safe   0x0016c4    program     extern L:\mandm\mandm\mandm8722.c
                  get_hid   0x001f5c    program     extern L:\mandm\mandm\mandm8722.c
            gsd_m_display   0x002596    program     extern L:\mandm\mandm\mandm8722.c
                   hello0   0x00a42a    program     extern L:\mandm\mandm\mandm_msg.h
                   hello1   0x00a477    program     extern L:\mandm\mandm\mandm_msg.h
           help_m_display   0x002534    program     extern L:\mandm\mandm\mandm8722.c
                 hid_menu   0x002512    program     extern L:\mandm\mandm\mandm8722.c
                       hm   0x0010b4    program     extern L:\mandm\mandm\mandm8722.c
                      hms   0x000fda    program     extern L:\mandm\mandm\mandm8722.c
                    hold0   0x00a484    program     extern L:\mandm\mandm\mandm_msg.h
                    hold1   0x00a4e2    program     extern L:\mandm\mandm\mandm_msg.h
             hold_process   0x0008be    program     extern L:\mandm\mandm\mandm8722.c
                idle_loop   0x00bc7e    program     extern L:\mandm\mandm\mandm_vector.c
                 init_lcd   0x0055dc    program     extern L:\mandm\mandm\mandm8722.c
           init_motordata   0x00d45e    program     extern L:\mandm\mandm\config.c  
          is_led_blinking   0x00d3be    program     extern L:\mandm\mandm\power.c   
                  isdigit   0x00e6d0    program     extern C:\MCC18\v3_39\src\traditional\stdclib\isdigit.asm
                 jANotInf   0x00cb68    program     static C:\MCC18\v3_39\src\traditional\math\mulFP.asm
                 jANotInf   0x00c9a0    program     static C:\MCC18\v3_39\src\traditional\math\addFP.asm
                 jANotInf   0x00cac2    program     static C:\MCC18\v3_39\src\traditional\math\divFP.asm
                 jANotNeg   0x00ca34    program     static C:\MCC18\v3_39\src\traditional\math\addFP.asm
                jANotZero   0x00cad6    program     static C:\MCC18\v3_39\src\traditional\math\divFP.asm
              jAandWsetup   0x00ca04    program     static C:\MCC18\v3_39\src\traditional\math\addFP.asm
                 jAltBexp   0x00c9f2    program     static C:\MCC18\v3_39\src\traditional\math\addFP.asm
                jBANotInf   0x00c996    program     static C:\MCC18\v3_39\src\traditional\math\addFP.asm
                 jBNotInf   0x00c9ae    program     static C:\MCC18\v3_39\src\traditional\math\addFP.asm
              jBothFinite   0x00cb76    program     static C:\MCC18\v3_39\src\traditional\math\mulFP.asm
             jBothNotZero   0x00cb82    program     static C:\MCC18\v3_39\src\traditional\math\mulFP.asm
            jDifOrPosSign   0x00c9c2    program     static C:\MCC18\v3_39\src\traditional\math\addFP.asm
                     jEnd   0x00db14    program     static C:\MCC18\v3_39\src\traditional\stdclib\strlen.asm
                     jEnd   0x00daf8    program     static C:\MCC18\v3_39\src\traditional\stdclib\sncpyp2r.asm
                     jEnd   0x00da9c    program     static C:\MCC18\v3_39\src\traditional\stdclib\strncpy.asm
                     jEnd   0x00da3e    program     static C:\MCC18\v3_39\src\traditional\stdclib\slenpgm.asm
                     jEnd   0x00da06    program     static C:\MCC18\v3_39\src\traditional\stdclib\scpyp2r.asm
                     jEnd   0x00d9c0    program     static C:\MCC18\v3_39\src\traditional\stdclib\memcmp.asm
                    jExit   0x00cdc6    program     static C:\MCC18\v3_39\src\traditional\math\castFP16.asm
                    jExit   0x00ce34    program     static C:\MCC18\v3_39\src\traditional\math\castFP32.asm
               jFinalSign   0x00ca9c    program     static C:\MCC18\v3_39\src\traditional\math\addFP.asm
                jHaveZero   0x00cb7e    program     static C:\MCC18\v3_39\src\traditional\math\mulFP.asm
                jI2F16Beg   0x00c92a    program     static C:\MCC18\v3_39\src\traditional\math\cast16FP.asm
                jI2F32Beg   0x00c95c    program     static C:\MCC18\v3_39\src\traditional\math\cast32FP.asm
                    jLoop   0x00d9a4    program     static C:\MCC18\v3_39\src\traditional\stdclib\memcmp.asm
                    jLoop   0x00db0a    program     static C:\MCC18\v3_39\src\traditional\stdclib\strlen.asm
                    jLoop   0x00dad4    program     static C:\MCC18\v3_39\src\traditional\stdclib\sncpyp2r.asm
                    jLoop   0x00ce08    program     static C:\MCC18\v3_39\src\traditional\math\castFP32.asm
                    jLoop   0x00da7a    program     static C:\MCC18\v3_39\src\traditional\stdclib\strncpy.asm
                    jLoop   0x00da26    program     static C:\MCC18\v3_39\src\traditional\stdclib\slenpgm.asm
                    jLoop   0x00cafe    program     static C:\MCC18\v3_39\src\traditional\math\divFP.asm
                    jLoop   0x00cda6    program     static C:\MCC18\v3_39\src\traditional\math\castFP16.asm
                    jLoop   0x00d9fc    program     static C:\MCC18\v3_39\src\traditional\stdclib\scpyp2r.asm
                jLoopExit   0x00ce1c    program     static C:\MCC18\v3_39\src\traditional\math\castFP32.asm
                jLoopExit   0x00cdb6    program     static C:\MCC18\v3_39\src\traditional\math\castFP16.asm
                   jMatch   0x00e6f0    program     static C:\MCC18\v3_39\src\traditional\stdclib\isdigit.asm
                     jMax   0x00cdd8    program     static C:\MCC18\v3_39\src\traditional\math\castFP32.asm
                     jMax   0x00cd7a    program     static C:\MCC18\v3_39\src\traditional\math\castFP16.asm
                  jMaxNeg   0x00cdea    program     static C:\MCC18\v3_39\src\traditional\math\castFP32.asm
                  jMaxNeg   0x00cd88    program     static C:\MCC18\v3_39\src\traditional\math\castFP16.asm
                  jMaxPos   0x00cd7e    program     static C:\MCC18\v3_39\src\traditional\math\castFP16.asm
                  jMaxPos   0x00cddc    program     static C:\MCC18\v3_39\src\traditional\math\castFP32.asm
                    jNext   0x00cb24    program     static C:\MCC18\v3_39\src\traditional\math\divFP.asm
                jNoAdjust   0x00cb22    program     static C:\MCC18\v3_39\src\traditional\math\divFP.asm
                 jNoMatch   0x00e6f2    program     static C:\MCC18\v3_39\src\traditional\stdclib\isdigit.asm
             jNotBothZero   0x00c9c6    program     static C:\MCC18\v3_39\src\traditional\math\addFP.asm
                  jNotInf   0x00cd96    program     static C:\MCC18\v3_39\src\traditional\math\castFP16.asm
                  jNotInf   0x00cdf6    program     static C:\MCC18\v3_39\src\traditional\math\castFP32.asm
                  jPkLoop   0x00ce7c    program     static C:\MCC18\v3_39\src\traditional\math\packFP.asm
             jPkRoundDone   0x00cec6    program     static C:\MCC18\v3_39\src\traditional\math\packFP.asm
               jPkRoundIt   0x00ceae    program     static C:\MCC18\v3_39\src\traditional\math\packFP.asm
             jPkShiftDone   0x00ce98    program     static C:\MCC18\v3_39\src\traditional\math\packFP.asm
           jReturnPosInf0   0x00ce52    program     static C:\MCC18\v3_39\src\traditional\math\packFP.asm
               jShiftDone   0x00ca5c    program     static C:\MCC18\v3_39\src\traditional\math\addFP.asm
               jShiftLoop   0x00ca4e    program     static C:\MCC18\v3_39\src\traditional\math\addFP.asm
                jSignDone   0x00ca8c    program     static C:\MCC18\v3_39\src\traditional\math\addFP.asm
              jSignedZero   0x00cacc    program     static C:\MCC18\v3_39\src\traditional\math\divFP.asm
                  jUnpkA1   0x00cef0    program     static C:\MCC18\v3_39\src\traditional\math\UnpackFP.asm
                  jUnpkA2   0x00cf08    program     static C:\MCC18\v3_39\src\traditional\math\UnpackFP.asm
                 jUnpkANZ   0x00cefe    program     static C:\MCC18\v3_39\src\traditional\math\UnpackFP.asm
                  jUnpkB1   0x00cf20    program     static C:\MCC18\v3_39\src\traditional\math\UnpackFP.asm
                  jUnpkB2   0x00cf38    program     static C:\MCC18\v3_39\src\traditional\math\UnpackFP.asm
                 jUnpkBNZ   0x00cf2e    program     static C:\MCC18\v3_39\src\traditional\math\UnpackFP.asm
                 jUnpkNaN   0x00cf12    program     static C:\MCC18\v3_39\src\traditional\math\UnpackFP.asm
                 jWNotNeg   0x00ca48    program     static C:\MCC18\v3_39\src\traditional\math\addFP.asm
                   jWr123   0x00cde2    program     static C:\MCC18\v3_39\src\traditional\math\castFP32.asm
                  jWrZ123   0x00cdf2    program     static C:\MCC18\v3_39\src\traditional\math\castFP32.asm
                    jZero   0x00cd90    program     static C:\MCC18\v3_39\src\traditional\math\castFP16.asm
                    jZero   0x00cdf0    program     static C:\MCC18\v3_39\src\traditional\math\castFP32.asm
               jZero1and2   0x00ce56    program     static C:\MCC18\v3_39\src\traditional\math\packFP.asm
                 keycmds0   0x00a58b    program     extern L:\mandm\mandm\mandm_msg.h
                 keycmds1   0x00a5d5    program     extern L:\mandm\mandm\mandm_msg.h
                     loop   0x00e708    program     static                          
                     loop   0x00e682    program     static                          
                     loop   0x00e2c4    program     static                          
                     loop   0x00e744    program     static C:\MCC18\v3_39\src\pmc_common\USART\_usartpc.asm
                   loop_h   0x00e722    program     static C:\MCC18\v3_39\src\traditional\proc\p18F8722.asm
                   loop_l   0x00e72c    program     static C:\MCC18\v3_39\src\traditional\proc\p18F8722.asm
                 lowbatt0   0x009f91    program     extern L:\mandm\mandm\mandm_msg.h
                lp_filter   0x00069c    program     extern L:\mandm\mandm\mandm8722.c
                     main   0x00563c    program     extern L:\mandm\mandm\mandm8722.c
                   memcmp   0x00d984    program     extern C:\MCC18\v3_39\src\traditional\stdclib\memcmp.asm
          menuselect_free   0x009e05    program     extern L:\mandm\mandm\mandm_msg.h
         menuselect_track   0x009ecb    program     extern L:\mandm\mandm\mandm_msg.h
                 menutext   0x009d3e    program     extern L:\mandm\mandm\mandm_msg.h
        menutext_template   0x009c75    program     extern L:\mandm\mandm\mandm_msg.h
             modelheader0   0x00a71d    program     extern L:\mandm\mandm\mandm_msg.h
             modelheader1   0x00a73c    program     extern L:\mandm\mandm\mandm_msg.h
            motor_control   0x00d00c    program     extern L:\mandm\mandm\power.c   
            my_struct_cmp   0x00cfd8    program     extern L:\mandm\mandm\power.c   
                 nav_menu   0x0021f0    program     extern L:\mandm\mandm\mandm8722.c
              nonqei_exer   0x002386    program     extern L:\mandm\mandm\mandm8722.c
                     putc   0x00df04    program     extern C:\MCC18\v3_39\src\traditional\stdclib\putc.c
                    putc2   0x00066e    program     extern L:\mandm\mandm\mandm8722.c
              putrs2USART   0x00e066    program     extern C:\MCC18\v3_39\src\pmc_common\USART\u2putrs.c
                putrsXLCD   0x00e186    program     extern L:\mandm\mandm\xlcd\putrxlcd.c
               puts2USART   0x00e1da    program     extern C:\MCC18\v3_39\src\pmc_common\USART\u2puts.c
                 putsXLCD   0x00e454    program     extern L:\mandm\mandm\xlcd\putsxlcd.c
                     rand   0x00e4e2    program     extern C:\MCC18\v3_39\src\traditional\stdclib\rand.asm
         read_data_eeprom   0x00d924    program     extern L:\mandm\mandm\crit.c    
                relay_v24   0x00d312    program     extern L:\mandm\mandm\power.c   
                  run_cal   0x002a92    program     extern L:\mandm\mandm\mandm8722.c
                   s_crit   0x00d792    program     extern L:\mandm\mandm\crit.c    
                 s_digits   0x00e778    program     static C:\MCC18\v3_39\src\traditional\stdclib\vfprintf.c
            s_put_n_chars   0x00bcf4    program     static C:\MCC18\v3_39\src\traditional\stdclib\vfprintf.c
                  sddump0   0x00a77c    program     extern L:\mandm\mandm\mandm_msg.h
                  sddump1   0x00a7aa    program     extern L:\mandm\mandm\mandm_msg.h
                  sddump2   0x00a7e0    program     extern L:\mandm\mandm\mandm_msg.h
                  sddump3   0x00a7f7    program     extern L:\mandm\mandm\mandm_msg.h
           set_all_motors   0x002a4a    program     extern L:\mandm\mandm\mandm8722.c
         slow_timer_start   0x00bcd4    program     extern L:\mandm\mandm\mandm_vector.c
                     spin   0x009bfd    program     extern L:\mandm\mandm\mandm_msg.h
                 spinners   0x000068    program     extern L:\mandm\mandm\mandm8722.c
                  sprintf   0x00dc96    program     extern C:\MCC18\v3_39\src\traditional\stdclib\sprintf.c
                    srand   0x00e4d4    program     extern C:\MCC18\v3_39\src\traditional\stdclib\rand.asm
              start_delay   0x000686    program     extern L:\mandm\mandm\mandm8722.c
                start_pic   0x00dc6c    program     extern L:\mandm\mandm\hwconf.c  
       start_workerthread   0x00dc92    program     extern L:\mandm\mandm\hwconf.c  
            strcpypgm2ram   0x00d9d6    program     extern C:\MCC18\v3_39\src\traditional\stdclib\scpyp2r.asm
                   strlen   0x00dafa    program     extern C:\MCC18\v3_39\src\traditional\stdclib\strlen.asm
                strlenpgm   0x00da08    program     extern C:\MCC18\v3_39\src\traditional\stdclib\slenpgm.asm
                  strncpy   0x00da52    program     extern C:\MCC18\v3_39\src\traditional\stdclib\strncpy.asm
           strncpypgm2ram   0x00daae    program     extern C:\MCC18\v3_39\src\traditional\stdclib\sncpyp2r.asm
                    sync0   0x00a51b    program     extern L:\mandm\mandm\mandm_msg.h
                    sync1   0x00a54f    program     extern L:\mandm\mandm\mandm_msg.h
                    sync2   0x00a56d    program     extern L:\mandm\mandm\mandm_msg.h
              system_data   0x000902    program     extern L:\mandm\mandm\mandm8722.c
              system_help   0x000fbe    program     extern L:\mandm\mandm\mandm8722.c
                term_time   0x000860    program     extern L:\mandm\mandm\mandm8722.c
                     test   0x00dd5c    program     static                          
             tick_handler   0x00af38    program     extern L:\mandm\mandm\mandm_vector.c
                 tick_int   0x000008    program     extern L:\mandm\mandm\mandm8722.c
              track_motor   0x001936    program     extern L:\mandm\mandm\mandm8722.c
                   tweak0   0x00a1e9    program     extern L:\mandm\mandm\mandm_msg.h
                   tweak1   0x00a286    program     extern L:\mandm\mandm\mandm_msg.h
                   tweak2   0x00a2af    program     extern L:\mandm\mandm\mandm_msg.h
                   tweak3   0x00a2d3    program     extern L:\mandm\mandm\mandm_msg.h
                   tweak4   0x00a352    program     extern L:\mandm\mandm\mandm_msg.h
                   tweak5   0x00a382    program     extern L:\mandm\mandm\mandm_msg.h
                 tweak_t1   0x00a408    program     extern L:\mandm\mandm\mandm_msg.h
                 tweak_t2   0x00a40d    program     extern L:\mandm\mandm\mandm_msg.h
                 tweak_t3   0x00a411    program     extern L:\mandm\mandm\mandm_msg.h
                 tweak_t4   0x00a415    program     extern L:\mandm\mandm\mandm_msg.h
                 tweak_tw   0x00a41a    program     extern L:\mandm\mandm\mandm_msg.h
              update_hist   0x000234    program     extern L:\mandm\mandm\mandm8722.c
          update_lcd_menu   0x0017f2    program     extern L:\mandm\mandm\mandm8722.c
         varian_v_display   0x002902    program     extern L:\mandm\mandm\mandm8722.c
                 vfprintf   0x00bd20    program     extern C:\MCC18\v3_39\src\traditional\stdclib\vfprintf.c
        viision_m_display   0x002698    program     extern L:\mandm\mandm\mandm8722.c
       viision_ms_display   0x002748    program     extern L:\mandm\mandm\mandm8722.c
             voice1_ticks   0x00bcb8    program     extern L:\mandm\mandm\mandm_vector.c
             voice2_ticks   0x00bcc6    program     extern L:\mandm\mandm\mandm_vector.c
                   voltfp   0x0011e0    program     extern L:\mandm\mandm\mandm8722.c
                  voltfpi   0x001220    program     extern L:\mandm\mandm\mandm8722.c
                  voltfps   0x001202    program     extern L:\mandm\mandm\mandm8722.c
                 wdtdelay   0x000282    program     extern L:\mandm\mandm\mandm8722.c
                  wdttime   0x0002d4    program     extern L:\mandm\mandm\mandm8722.c
             work_handler   0x00bc5c    program     extern L:\mandm\mandm\mandm_vector.c
                 work_int   0x000018    program     extern L:\mandm\mandm\mandm8722.c
        write_data_eeprom   0x00d89e    program     extern L:\mandm\mandm\crit.c    
                    zero0   0x009fd4    program     extern L:\mandm\mandm\mandm_msg.h
                    zero1   0x009ffe    program     extern L:\mandm\mandm\mandm_msg.h
                    zero2   0x00a03a    program     extern L:\mandm\mandm\mandm_msg.h
                    zero3   0x00a06e    program     extern L:\mandm\mandm\mandm_msg.h
              zero_amploc   0x00854a    program     extern L:\mandm\mandm\daq.c     
               zero_block   0x00e722    program     static C:\MCC18\v3_39\src\traditional\proc\p18F8722.asm
                   ADCON0   0x000fc2       data     extern C:\MCC18\v3_39\src\traditional\proc\p18F8722.asm
               ADCON0bits   0x000fc2       data     extern C:\MCC18\v3_39\src\traditional\proc\p18F8722.asm
                   ADCON1   0x000fc1       data     extern C:\MCC18\v3_39\src\traditional\proc\p18F8722.asm
               ADCON1bits   0x000fc1       data     extern C:\MCC18\v3_39\src\traditional\proc\p18F8722.asm
                   ADCON2   0x000fc0       data     extern C:\MCC18\v3_39\src\traditional\proc\p18F8722.asm
               ADCON2bits   0x000fc0       data     extern C:\MCC18\v3_39\src\traditional\proc\p18F8722.asm
                    ADRES   0x000fc3       data     extern C:\MCC18\v3_39\src\traditional\proc\p18F8722.asm
                   ADRESH   0x000fc4       data     extern C:\MCC18\v3_39\src\traditional\proc\p18F8722.asm
                   ADRESL   0x000fc3       data     extern C:\MCC18\v3_39\src\traditional\proc\p18F8722.asm
                  BAUDCON   0x000f7e       data     extern C:\MCC18\v3_39\src\traditional\proc\p18F8722.asm
                 BAUDCON1   0x000f7e       data     extern C:\MCC18\v3_39\src\traditional\proc\p18F8722.asm
             BAUDCON1bits   0x000f7e       data     extern C:\MCC18\v3_39\src\traditional\proc\p18F8722.asm
                 BAUDCON2   0x000f7c       data     extern C:\MCC18\v3_39\src\traditional\proc\p18F8722.asm
             BAUDCON2bits   0x000f7c       data     extern C:\MCC18\v3_39\src\traditional\proc\p18F8722.asm
              BAUDCONbits   0x000f7e       data     extern C:\MCC18\v3_39\src\traditional\proc\p18F8722.asm
                      BSR   0x000fe0       data     extern C:\MCC18\v3_39\src\traditional\proc\p18F8722.asm
                        C   0x000094       data     extern L:\mandm\mandm\mandm8722.c
                    C2RAW   0x0005bf       data     extern L:\mandm\mandm\mandm8722.c
                  CCP1CON   0x000fbd       data     extern C:\MCC18\v3_39\src\traditional\proc\p18F8722.asm
              CCP1CONbits   0x000fbd       data     extern C:\MCC18\v3_39\src\traditional\proc\p18F8722.asm
                  CCP2CON   0x000fba       data     extern C:\MCC18\v3_39\src\traditional\proc\p18F8722.asm
              CCP2CONbits   0x000fba       data     extern C:\MCC18\v3_39\src\traditional\proc\p18F8722.asm
                  CCP3CON   0x000fb7       data     extern C:\MCC18\v3_39\src\traditional\proc\p18F8722.asm
              CCP3CONbits   0x000fb7       data     extern C:\MCC18\v3_39\src\traditional\proc\p18F8722.asm
                  CCP4CON   0x000f73       data     extern C:\MCC18\v3_39\src\traditional\proc\p18F8722.asm
              CCP4CONbits   0x000f73       data     extern C:\MCC18\v3_39\src\traditional\proc\p18F8722.asm
                  CCP5CON   0x000f70       data     extern C:\MCC18\v3_39\src\traditional\proc\p18F8722.asm
              CCP5CONbits   0x000f70       data     extern C:\MCC18\v3_39\src\traditional\proc\p18F8722.asm
                    CCPR1   0x000fbe       data     extern C:\MCC18\v3_39\src\traditional\proc\p18F8722.asm
                   CCPR1H   0x000fbf       data     extern C:\MCC18\v3_39\src\traditional\proc\p18F8722.asm
                   CCPR1L   0x000fbe       data     extern C:\MCC18\v3_39\src\traditional\proc\p18F8722.asm
                    CCPR2   0x000fbb       data     extern C:\MCC18\v3_39\src\traditional\proc\p18F8722.asm
                   CCPR2H   0x000fbc       data     extern C:\MCC18\v3_39\src\traditional\proc\p18F8722.asm
                   CCPR2L   0x000fbb       data     extern C:\MCC18\v3_39\src\traditional\proc\p18F8722.asm
                    CCPR3   0x000fb8       data     extern C:\MCC18\v3_39\src\traditional\proc\p18F8722.asm
                   CCPR3H   0x000fb9       data     extern C:\MCC18\v3_39\src\traditional\proc\p18F8722.asm
                   CCPR3L   0x000fb8       data     extern C:\MCC18\v3_39\src\traditional\proc\p18F8722.asm
                    CCPR4   0x000f74       data     extern C:\MCC18\v3_39\src\traditional\proc\p18F8722.asm
                   CCPR4H   0x000f75       data     extern C:\MCC18\v3_39\src\traditional\proc\p18F8722.asm
                   CCPR4L   0x000f74       data     extern C:\MCC18\v3_39\src\traditional\proc\p18F8722.asm
                    CCPR5   0x000f71       data     extern C:\MCC18\v3_39\src\traditional\proc\p18F8722.asm
                   CCPR5H   0x000f72       data     extern C:\MCC18\v3_39\src\traditional\proc\p18F8722.asm
                   CCPR5L   0x000f71       data     extern C:\MCC18\v3_39\src\traditional\proc\p18F8722.asm
                    CMCON   0x000fb4       data     extern C:\MCC18\v3_39\src\traditional\proc\p18F8722.asm
                CMCONbits   0x000fb4       data     extern C:\MCC18\v3_39\src\traditional\proc\p18F8722.asm
                  COOLING   0x00060c       data     extern L:\mandm\mandm\mandm8722.c
                    CRITC   0x000691       data     extern L:\mandm\mandm\mandm8722.c
                   CVRCON   0x000fb5       data     extern C:\MCC18\v3_39\src\traditional\proc\p18F8722.asm
               CVRCONbits   0x000fb5       data     extern C:\MCC18\v3_39\src\traditional\proc\p18F8722.asm
                   Cursor   0x000520       data     extern L:\mandm\mandm\mandm8722.c
                     DDRA   0x000f92       data     extern C:\MCC18\v3_39\src\traditional\proc\p18F8722.asm
                 DDRAbits   0x000f92       data     extern C:\MCC18\v3_39\src\traditional\proc\p18F8722.asm
                     DDRB   0x000f93       data     extern C:\MCC18\v3_39\src\traditional\proc\p18F8722.asm
                 DDRBbits   0x000f93       data     extern C:\MCC18\v3_39\src\traditional\proc\p18F8722.asm
                     DDRC   0x000f94       data     extern C:\MCC18\v3_39\src\traditional\proc\p18F8722.asm
                 DDRCbits   0x000f94       data     extern C:\MCC18\v3_39\src\traditional\proc\p18F8722.asm
                     DDRD   0x000f95       data     extern C:\MCC18\v3_39\src\traditional\proc\p18F8722.asm
                 DDRDbits   0x000f95       data     extern C:\MCC18\v3_39\src\traditional\proc\p18F8722.asm
                     DDRE   0x000f96       data     extern C:\MCC18\v3_39\src\traditional\proc\p18F8722.asm
                 DDREbits   0x000f96       data     extern C:\MCC18\v3_39\src\traditional\proc\p18F8722.asm
                     DDRF   0x000f97       data     extern C:\MCC18\v3_39\src\traditional\proc\p18F8722.asm
                 DDRFbits   0x000f97       data     extern C:\MCC18\v3_39\src\traditional\proc\p18F8722.asm
                     DDRG   0x000f98       data     extern C:\MCC18\v3_39\src\traditional\proc\p18F8722.asm
                 DDRGbits   0x000f98       data     extern C:\MCC18\v3_39\src\traditional\proc\p18F8722.asm
                     DDRH   0x000f99       data     extern C:\MCC18\v3_39\src\traditional\proc\p18F8722.asm
                 DDRHbits   0x000f99       data     extern C:\MCC18\v3_39\src\traditional\proc\p18F8722.asm
                     DDRJ   0x000f9a       data     extern C:\MCC18\v3_39\src\traditional\proc\p18F8722.asm
                 DDRJbits   0x000f9a       data     extern C:\MCC18\v3_39\src\traditional\proc\p18F8722.asm
             DISPLAY_MODE   0x000609       data     extern L:\mandm\mandm\mandm8722.c
                 D_UPDATE   0x00060a       data     extern L:\mandm\mandm\mandm8722.c
            DelayCounter1   0x00003d       data     extern C:\MCC18\v3_39\src\traditional\delays\delayd1.asm
            DelayCounter2   0x00003c       data     extern C:\MCC18\v3_39\src\traditional\delays\delayd2.asm
                  ECCP1AS   0x000fb6       data     extern C:\MCC18\v3_39\src\traditional\proc\p18F8722.asm
              ECCP1ASbits   0x000fb6       data     extern C:\MCC18\v3_39\src\traditional\proc\p18F8722.asm
                 ECCP1CON   0x000fbd       data     extern C:\MCC18\v3_39\src\traditional\proc\p18F8722.asm
             ECCP1CONbits   0x000fbd       data     extern C:\MCC18\v3_39\src\traditional\proc\p18F8722.asm
                 ECCP1DEL   0x000f79       data     extern C:\MCC18\v3_39\src\traditional\proc\p18F8722.asm
             ECCP1DELbits   0x000f79       data     extern C:\MCC18\v3_39\src\traditional\proc\p18F8722.asm
                  ECCP2AS   0x000f68       data     extern C:\MCC18\v3_39\src\traditional\proc\p18F8722.asm
              ECCP2ASbits   0x000f68       data     extern C:\MCC18\v3_39\src\traditional\proc\p18F8722.asm
                 ECCP2CON   0x000fba       data     extern C:\MCC18\v3_39\src\traditional\proc\p18F8722.asm
             ECCP2CONbits   0x000fba       data     extern C:\MCC18\v3_39\src\traditional\proc\p18F8722.asm
                 ECCP2DEL   0x000f67       data     extern C:\MCC18\v3_39\src\traditional\proc\p18F8722.asm
             ECCP2DELbits   0x000f67       data     extern C:\MCC18\v3_39\src\traditional\proc\p18F8722.asm
                  ECCP3AS   0x000f6a       data     extern C:\MCC18\v3_39\src\traditional\proc\p18F8722.asm
              ECCP3ASbits   0x000f6a       data     extern C:\MCC18\v3_39\src\traditional\proc\p18F8722.asm
                 ECCP3CON   0x000fb7       data     extern C:\MCC18\v3_39\src\traditional\proc\p18F8722.asm
             ECCP3CONbits   0x000fb7       data     extern C:\MCC18\v3_39\src\traditional\proc\p18F8722.asm
                 ECCP3DEL   0x000f69       data     extern C:\MCC18\v3_39\src\traditional\proc\p18F8722.asm
             ECCP3DELbits   0x000f69       data     extern C:\MCC18\v3_39\src\traditional\proc\p18F8722.asm
                    EEADR   0x000fa9       data     extern C:\MCC18\v3_39\src\traditional\proc\p18F8722.asm
                   EEADRH   0x000faa       data     extern C:\MCC18\v3_39\src\traditional\proc\p18F8722.asm
                   EECON1   0x000fa6       data     extern C:\MCC18\v3_39\src\traditional\proc\p18F8722.asm
               EECON1bits   0x000fa6       data     extern C:\MCC18\v3_39\src\traditional\proc\p18F8722.asm
                   EECON2   0x000fa7       data     extern C:\MCC18\v3_39\src\traditional\proc\p18F8722.asm
                   EEDATA   0x000fa8       data     extern C:\MCC18\v3_39\src\traditional\proc\p18F8722.asm
                   EEP_ER   0x000614       data     extern L:\mandm\mandm\mandm8722.c
                 FAILSAFE   0x000606       data     extern L:\mandm\mandm\mandm8722.c
                 FORCEOUT   0x000602       data     extern L:\mandm\mandm\mandm8722.c
                     FSR0   0x000fe9       data     extern C:\MCC18\v3_39\src\traditional\proc\p18F8722.asm
                    FSR0H   0x000fea       data     extern C:\MCC18\v3_39\src\traditional\proc\p18F8722.asm
                    FSR0L   0x000fe9       data     extern C:\MCC18\v3_39\src\traditional\proc\p18F8722.asm
                     FSR1   0x000fe1       data     extern C:\MCC18\v3_39\src\traditional\proc\p18F8722.asm
                    FSR1H   0x000fe2       data     extern C:\MCC18\v3_39\src\traditional\proc\p18F8722.asm
                    FSR1L   0x000fe1       data     extern C:\MCC18\v3_39\src\traditional\proc\p18F8722.asm
                     FSR2   0x000fd9       data     extern C:\MCC18\v3_39\src\traditional\proc\p18F8722.asm
                    FSR2H   0x000fda       data     extern C:\MCC18\v3_39\src\traditional\proc\p18F8722.asm
                    FSR2L   0x000fd9       data     extern C:\MCC18\v3_39\src\traditional\proc\p18F8722.asm
             GLITCH_CHECK   0x00060b       data     extern L:\mandm\mandm\mandm8722.c
                    HCRIT   0x000364       data     extern L:\mandm\mandm\mandm8722.c
            HID_IDLE_FLAG   0x0004eb       data     static L:\mandm\mandm\mandm_vector.c
                  HLVDCON   0x000fd2       data     extern C:\MCC18\v3_39\src\traditional\proc\p18F8722.asm
              HLVDCONbits   0x000fd2       data     extern C:\MCC18\v3_39\src\traditional\proc\p18F8722.asm
                HOLD_PROC   0x000608       data     extern L:\mandm\mandm\mandm8722.c
                    H_tmp   0x0004fc       data     static L:\mandm\mandm\crit.c    
                    H_tmp   0x0004fd       data     static L:\mandm\mandm\crit.c    
                 IDLEFLAG   0x000677       data     extern L:\mandm\mandm\mandm8722.c
                    INDF0   0x000fef       data     extern C:\MCC18\v3_39\src\traditional\proc\p18F8722.asm
                    INDF1   0x000fe7       data     extern C:\MCC18\v3_39\src\traditional\proc\p18F8722.asm
                    INDF2   0x000fdf       data     extern C:\MCC18\v3_39\src\traditional\proc\p18F8722.asm
                   INTCON   0x000ff2       data     extern C:\MCC18\v3_39\src\traditional\proc\p18F8722.asm
                  INTCON2   0x000ff1       data     extern C:\MCC18\v3_39\src\traditional\proc\p18F8722.asm
              INTCON2bits   0x000ff1       data     extern C:\MCC18\v3_39\src\traditional\proc\p18F8722.asm
                  INTCON3   0x000ff0       data     extern C:\MCC18\v3_39\src\traditional\proc\p18F8722.asm
              INTCON3bits   0x000ff0       data     extern C:\MCC18\v3_39\src\traditional\proc\p18F8722.asm
               INTCONbits   0x000ff2       data     extern C:\MCC18\v3_39\src\traditional\proc\p18F8722.asm
                     IPR1   0x000f9f       data     extern C:\MCC18\v3_39\src\traditional\proc\p18F8722.asm
                 IPR1bits   0x000f9f       data     extern C:\MCC18\v3_39\src\traditional\proc\p18F8722.asm
                     IPR2   0x000fa2       data     extern C:\MCC18\v3_39\src\traditional\proc\p18F8722.asm
                 IPR2bits   0x000fa2       data     extern C:\MCC18\v3_39\src\traditional\proc\p18F8722.asm
                     IPR3   0x000fa5       data     extern C:\MCC18\v3_39\src\traditional\proc\p18F8722.asm
                 IPR3bits   0x000fa5       data     extern C:\MCC18\v3_39\src\traditional\proc\p18F8722.asm
                   KEYNUM   0x000605       data     extern L:\mandm\mandm\mandm8722.c
                     LATA   0x000f89       data     extern C:\MCC18\v3_39\src\traditional\proc\p18F8722.asm
                 LATAbits   0x000f89       data     extern C:\MCC18\v3_39\src\traditional\proc\p18F8722.asm
                     LATB   0x000f8a       data     extern C:\MCC18\v3_39\src\traditional\proc\p18F8722.asm
                 LATBbits   0x000f8a       data     extern C:\MCC18\v3_39\src\traditional\proc\p18F8722.asm
                     LATC   0x000f8b       data     extern C:\MCC18\v3_39\src\traditional\proc\p18F8722.asm
                 LATCbits   0x000f8b       data     extern C:\MCC18\v3_39\src\traditional\proc\p18F8722.asm
                     LATD   0x000f8c       data     extern C:\MCC18\v3_39\src\traditional\proc\p18F8722.asm
                 LATDbits   0x000f8c       data     extern C:\MCC18\v3_39\src\traditional\proc\p18F8722.asm
                     LATE   0x000f8d       data     extern C:\MCC18\v3_39\src\traditional\proc\p18F8722.asm
                 LATEbits   0x000f8d       data     extern C:\MCC18\v3_39\src\traditional\proc\p18F8722.asm
                     LATF   0x000f8e       data     extern C:\MCC18\v3_39\src\traditional\proc\p18F8722.asm
                 LATFbits   0x000f8e       data     extern C:\MCC18\v3_39\src\traditional\proc\p18F8722.asm
                     LATG   0x000f8f       data     extern C:\MCC18\v3_39\src\traditional\proc\p18F8722.asm
                 LATGbits   0x000f8f       data     extern C:\MCC18\v3_39\src\traditional\proc\p18F8722.asm
                     LATH   0x000f90       data     extern C:\MCC18\v3_39\src\traditional\proc\p18F8722.asm
                 LATHbits   0x000f90       data     extern C:\MCC18\v3_39\src\traditional\proc\p18F8722.asm
                     LATJ   0x000f91       data     extern C:\MCC18\v3_39\src\traditional\proc\p18F8722.asm
                 LATJbits   0x000f91       data     extern C:\MCC18\v3_39\src\traditional\proc\p18F8722.asm
                   LCD_OK   0x000692       data     extern L:\mandm\mandm\mandm8722.c
                    LCRIT   0x00036c       data     extern L:\mandm\mandm\mandm8722.c
                   LVDCON   0x000fd2       data     extern C:\MCC18\v3_39\src\traditional\proc\p18F8722.asm
               LVDCONbits   0x000fd2       data     extern C:\MCC18\v3_39\src\traditional\proc\p18F8722.asm
                   MEMCON   0x000f9c       data     extern C:\MCC18\v3_39\src\traditional\proc\p18F8722.asm
               MEMCONbits   0x000f9c       data     extern C:\MCC18\v3_39\src\traditional\proc\p18F8722.asm
                 MOD_DATA   0x000610       data     extern L:\mandm\mandm\mandm8722.c
                   OSCCON   0x000fd3       data     extern C:\MCC18\v3_39\src\traditional\proc\p18F8722.asm
               OSCCONbits   0x000fd3       data     extern C:\MCC18\v3_39\src\traditional\proc\p18F8722.asm
                  OSCTUNE   0x000f9b       data     extern C:\MCC18\v3_39\src\traditional\proc\p18F8722.asm
              OSCTUNEbits   0x000f9b       data     extern C:\MCC18\v3_39\src\traditional\proc\p18F8722.asm
               OldEncoder   0x000524       data     extern L:\mandm\mandm\mandm8722.c
                       PC   0x000ff9       data     extern C:\MCC18\v3_39\src\traditional\proc\p18F8722.asm
                      PCL   0x000ff9       data     extern C:\MCC18\v3_39\src\traditional\proc\p18F8722.asm
                   PCLATH   0x000ffa       data     extern C:\MCC18\v3_39\src\traditional\proc\p18F8722.asm
                   PCLATU   0x000ffb       data     extern C:\MCC18\v3_39\src\traditional\proc\p18F8722.asm
                     PIE1   0x000f9d       data     extern C:\MCC18\v3_39\src\traditional\proc\p18F8722.asm
                 PIE1bits   0x000f9d       data     extern C:\MCC18\v3_39\src\traditional\proc\p18F8722.asm
                     PIE2   0x000fa0       data     extern C:\MCC18\v3_39\src\traditional\proc\p18F8722.asm
                 PIE2bits   0x000fa0       data     extern C:\MCC18\v3_39\src\traditional\proc\p18F8722.asm
                     PIE3   0x000fa3       data     extern C:\MCC18\v3_39\src\traditional\proc\p18F8722.asm
                 PIE3bits   0x000fa3       data     extern C:\MCC18\v3_39\src\traditional\proc\p18F8722.asm
                     PIR1   0x000f9e       data     extern C:\MCC18\v3_39\src\traditional\proc\p18F8722.asm
                 PIR1bits   0x000f9e       data     extern C:\MCC18\v3_39\src\traditional\proc\p18F8722.asm
                     PIR2   0x000fa1       data     extern C:\MCC18\v3_39\src\traditional\proc\p18F8722.asm
                 PIR2bits   0x000fa1       data     extern C:\MCC18\v3_39\src\traditional\proc\p18F8722.asm
                     PIR3   0x000fa4       data     extern C:\MCC18\v3_39\src\traditional\proc\p18F8722.asm
                 PIR3bits   0x000fa4       data     extern C:\MCC18\v3_39\src\traditional\proc\p18F8722.asm
                   PLUSW0   0x000feb       data     extern C:\MCC18\v3_39\src\traditional\proc\p18F8722.asm
                   PLUSW1   0x000fe3       data     extern C:\MCC18\v3_39\src\traditional\proc\p18F8722.asm
                   PLUSW2   0x000fdb       data     extern C:\MCC18\v3_39\src\traditional\proc\p18F8722.asm
                    PORTA   0x000f80       data     extern C:\MCC18\v3_39\src\traditional\proc\p18F8722.asm
                PORTAbits   0x000f80       data     extern C:\MCC18\v3_39\src\traditional\proc\p18F8722.asm
                    PORTB   0x000f81       data     extern C:\MCC18\v3_39\src\traditional\proc\p18F8722.asm
                PORTBbits   0x000f81       data     extern C:\MCC18\v3_39\src\traditional\proc\p18F8722.asm
                    PORTC   0x000f82       data     extern C:\MCC18\v3_39\src\traditional\proc\p18F8722.asm
                PORTCbits   0x000f82       data     extern C:\MCC18\v3_39\src\traditional\proc\p18F8722.asm
                    PORTD   0x000f83       data     extern C:\MCC18\v3_39\src\traditional\proc\p18F8722.asm
                PORTDbits   0x000f83       data     extern C:\MCC18\v3_39\src\traditional\proc\p18F8722.asm
                    PORTE   0x000f84       data     extern C:\MCC18\v3_39\src\traditional\proc\p18F8722.asm
                PORTEbits   0x000f84       data     extern C:\MCC18\v3_39\src\traditional\proc\p18F8722.asm
                    PORTF   0x000f85       data     extern C:\MCC18\v3_39\src\traditional\proc\p18F8722.asm
                PORTFbits   0x000f85       data     extern C:\MCC18\v3_39\src\traditional\proc\p18F8722.asm
                    PORTG   0x000f86       data     extern C:\MCC18\v3_39\src\traditional\proc\p18F8722.asm
                PORTGbits   0x000f86       data     extern C:\MCC18\v3_39\src\traditional\proc\p18F8722.asm
                    PORTH   0x000f87       data     extern C:\MCC18\v3_39\src\traditional\proc\p18F8722.asm
                PORTHbits   0x000f87       data     extern C:\MCC18\v3_39\src\traditional\proc\p18F8722.asm
                    PORTJ   0x000f88       data     extern C:\MCC18\v3_39\src\traditional\proc\p18F8722.asm
                PORTJbits   0x000f88       data     extern C:\MCC18\v3_39\src\traditional\proc\p18F8722.asm
                 POSTDEC0   0x000fed       data     extern C:\MCC18\v3_39\src\traditional\proc\p18F8722.asm
                 POSTDEC1   0x000fe5       data     extern C:\MCC18\v3_39\src\traditional\proc\p18F8722.asm
                 POSTDEC2   0x000fdd       data     extern C:\MCC18\v3_39\src\traditional\proc\p18F8722.asm
                 POSTINC0   0x000fee       data     extern C:\MCC18\v3_39\src\traditional\proc\p18F8722.asm
                 POSTINC1   0x000fe6       data     extern C:\MCC18\v3_39\src\traditional\proc\p18F8722.asm
                 POSTINC2   0x000fde       data     extern C:\MCC18\v3_39\src\traditional\proc\p18F8722.asm
                      PR2   0x000fcb       data     extern C:\MCC18\v3_39\src\traditional\proc\p18F8722.asm
                      PR4   0x000f77       data     extern C:\MCC18\v3_39\src\traditional\proc\p18F8722.asm
                  PREINC0   0x000fec       data     extern C:\MCC18\v3_39\src\traditional\proc\p18F8722.asm
                  PREINC1   0x000fe4       data     extern C:\MCC18\v3_39\src\traditional\proc\p18F8722.asm
                  PREINC2   0x000fdc       data     extern C:\MCC18\v3_39\src\traditional\proc\p18F8722.asm
               PRIPOWEROK   0x000601       data     extern L:\mandm\mandm\mandm8722.c
                     PROD   0x000ff3       data     extern C:\MCC18\v3_39\src\traditional\proc\p18F8722.asm
                    PRODH   0x000ff4       data     extern C:\MCC18\v3_39\src\traditional\proc\p18F8722.asm
                    PRODL   0x000ff3       data     extern C:\MCC18\v3_39\src\traditional\proc\p18F8722.asm
                   PSPCON   0x000fb0       data     extern C:\MCC18\v3_39\src\traditional\proc\p18F8722.asm
               PSPCONbits   0x000fb0       data     extern C:\MCC18\v3_39\src\traditional\proc\p18F8722.asm
                        R   0x000061       data     extern L:\mandm\mandm\mandm8722.c
                     RCON   0x000fd0       data     extern C:\MCC18\v3_39\src\traditional\proc\p18F8722.asm
                 RCONbits   0x000fd0       data     extern C:\MCC18\v3_39\src\traditional\proc\p18F8722.asm
                    RCREG   0x000fae       data     extern C:\MCC18\v3_39\src\traditional\proc\p18F8722.asm
                   RCREG1   0x000fae       data     extern C:\MCC18\v3_39\src\traditional\proc\p18F8722.asm
                   RCREG2   0x000f6e       data     extern C:\MCC18\v3_39\src\traditional\proc\p18F8722.asm
                    RCSTA   0x000fab       data     extern C:\MCC18\v3_39\src\traditional\proc\p18F8722.asm
                   RCSTA1   0x000fab       data     extern C:\MCC18\v3_39\src\traditional\proc\p18F8722.asm
               RCSTA1bits   0x000fab       data     extern C:\MCC18\v3_39\src\traditional\proc\p18F8722.asm
                   RCSTA2   0x000f6b       data     extern C:\MCC18\v3_39\src\traditional\proc\p18F8722.asm
               RCSTA2bits   0x000f6b       data     extern C:\MCC18\v3_39\src\traditional\proc\p18F8722.asm
                RCSTAbits   0x000fab       data     extern C:\MCC18\v3_39\src\traditional\proc\p18F8722.asm
              RESET_ZEROS   0x00060e       data     extern L:\mandm\mandm\mandm8722.c
              RS232_DEBUG   0x000628       data     extern L:\mandm\mandm\mandm8722.c
                 SET_TLOG   0x000612       data     extern L:\mandm\mandm\mandm8722.c
                     SIGN   0x000024       data     extern C:\MCC18\v3_39\src\traditional\math\cmath18.asm
              SLOW_STATUS   0x0005c2       data     extern L:\mandm\mandm\mandm8722.c
                    SPBRG   0x000faf       data     extern C:\MCC18\v3_39\src\traditional\proc\p18F8722.asm
                   SPBRG1   0x000faf       data     extern C:\MCC18\v3_39\src\traditional\proc\p18F8722.asm
                   SPBRG2   0x000f6f       data     extern C:\MCC18\v3_39\src\traditional\proc\p18F8722.asm
                   SPBRGH   0x000f7f       data     extern C:\MCC18\v3_39\src\traditional\proc\p18F8722.asm
                  SPBRGH1   0x000f7f       data     extern C:\MCC18\v3_39\src\traditional\proc\p18F8722.asm
                  SPBRGH2   0x000f7d       data     extern C:\MCC18\v3_39\src\traditional\proc\p18F8722.asm
                  SSP1ADD   0x000fc8       data     extern C:\MCC18\v3_39\src\traditional\proc\p18F8722.asm
                  SSP1BUF   0x000fc9       data     extern C:\MCC18\v3_39\src\traditional\proc\p18F8722.asm
                 SSP1CON1   0x000fc6       data     extern C:\MCC18\v3_39\src\traditional\proc\p18F8722.asm
             SSP1CON1bits   0x000fc6       data     extern C:\MCC18\v3_39\src\traditional\proc\p18F8722.asm
                 SSP1CON2   0x000fc5       data     extern C:\MCC18\v3_39\src\traditional\proc\p18F8722.asm
             SSP1CON2bits   0x000fc5       data     extern C:\MCC18\v3_39\src\traditional\proc\p18F8722.asm
                 SSP1STAT   0x000fc7       data     extern C:\MCC18\v3_39\src\traditional\proc\p18F8722.asm
             SSP1STATbits   0x000fc7       data     extern C:\MCC18\v3_39\src\traditional\proc\p18F8722.asm
                  SSP2ADD   0x000f65       data     extern C:\MCC18\v3_39\src\traditional\proc\p18F8722.asm
                  SSP2BUF   0x000f66       data     extern C:\MCC18\v3_39\src\traditional\proc\p18F8722.asm
                 SSP2CON1   0x000f63       data     extern C:\MCC18\v3_39\src\traditional\proc\p18F8722.asm
             SSP2CON1bits   0x000f63       data     extern C:\MCC18\v3_39\src\traditional\proc\p18F8722.asm
                 SSP2CON2   0x000f62       data     extern C:\MCC18\v3_39\src\traditional\proc\p18F8722.asm
             SSP2CON2bits   0x000f62       data     extern C:\MCC18\v3_39\src\traditional\proc\p18F8722.asm
                 SSP2STAT   0x000f64       data     extern C:\MCC18\v3_39\src\traditional\proc\p18F8722.asm
             SSP2STATbits   0x000f64       data     extern C:\MCC18\v3_39\src\traditional\proc\p18F8722.asm
                   SSPADD   0x000fc8       data     extern C:\MCC18\v3_39\src\traditional\proc\p18F8722.asm
                   SSPBUF   0x000fc9       data     extern C:\MCC18\v3_39\src\traditional\proc\p18F8722.asm
                  SSPCON1   0x000fc6       data     extern C:\MCC18\v3_39\src\traditional\proc\p18F8722.asm
              SSPCON1bits   0x000fc6       data     extern C:\MCC18\v3_39\src\traditional\proc\p18F8722.asm
                  SSPCON2   0x000fc5       data     extern C:\MCC18\v3_39\src\traditional\proc\p18F8722.asm
              SSPCON2bits   0x000fc5       data     extern C:\MCC18\v3_39\src\traditional\proc\p18F8722.asm
                  SSPSTAT   0x000fc7       data     extern C:\MCC18\v3_39\src\traditional\proc\p18F8722.asm
              SSPSTATbits   0x000fc7       data     extern C:\MCC18\v3_39\src\traditional\proc\p18F8722.asm
                   STATUS   0x000fd8       data     extern C:\MCC18\v3_39\src\traditional\proc\p18F8722.asm
               STATUSbits   0x000fd8       data     extern C:\MCC18\v3_39\src\traditional\proc\p18F8722.asm
                   STKPTR   0x000ffc       data     extern C:\MCC18\v3_39\src\traditional\proc\p18F8722.asm
               STKPTRbits   0x000ffc       data     extern C:\MCC18\v3_39\src\traditional\proc\p18F8722.asm
            SYSTEM_STABLE   0x000607       data     extern L:\mandm\mandm\mandm8722.c
                 SYS_DATA   0x00060f       data     extern L:\mandm\mandm\mandm8722.c
                 SYS_HELP   0x000611       data     extern L:\mandm\mandm\mandm8722.c
                     Seed   0x0003fe       data     static C:\MCC18\v3_39\src\traditional\stdclib\rand.asm
                    T0CON   0x000fd5       data     extern C:\MCC18\v3_39\src\traditional\proc\p18F8722.asm
                T0CONbits   0x000fd5       data     extern C:\MCC18\v3_39\src\traditional\proc\p18F8722.asm
                    T1CON   0x000fcd       data     extern C:\MCC18\v3_39\src\traditional\proc\p18F8722.asm
                T1CONbits   0x000fcd       data     extern C:\MCC18\v3_39\src\traditional\proc\p18F8722.asm
                    T2CON   0x000fca       data     extern C:\MCC18\v3_39\src\traditional\proc\p18F8722.asm
                T2CONbits   0x000fca       data     extern C:\MCC18\v3_39\src\traditional\proc\p18F8722.asm
                    T3CON   0x000fb1       data     extern C:\MCC18\v3_39\src\traditional\proc\p18F8722.asm
                T3CONbits   0x000fb1       data     extern C:\MCC18\v3_39\src\traditional\proc\p18F8722.asm
                    T4CON   0x000f76       data     extern C:\MCC18\v3_39\src\traditional\proc\p18F8722.asm
                T4CONbits   0x000f76       data     extern C:\MCC18\v3_39\src\traditional\proc\p18F8722.asm
                   TABLAT   0x000ff5       data     extern C:\MCC18\v3_39\src\traditional\proc\p18F8722.asm
                   TBLPTR   0x000ff6       data     extern C:\MCC18\v3_39\src\traditional\proc\p18F8722.asm
                  TBLPTRH   0x000ff7       data     extern C:\MCC18\v3_39\src\traditional\proc\p18F8722.asm
                  TBLPTRL   0x000ff6       data     extern C:\MCC18\v3_39\src\traditional\proc\p18F8722.asm
                  TBLPTRU   0x000ff8       data     extern C:\MCC18\v3_39\src\traditional\proc\p18F8722.asm
            TEST_SPINNERS   0x000616       data     extern L:\mandm\mandm\mandm8722.c
                TIMERFLAG   0x000600       data     extern L:\mandm\mandm\mandm8722.c
                     TLOG   0x000694       data     extern L:\mandm\mandm\mandm8722.c
                    TMR0H   0x000fd7       data     extern C:\MCC18\v3_39\src\traditional\proc\p18F8722.asm
                    TMR0L   0x000fd6       data     extern C:\MCC18\v3_39\src\traditional\proc\p18F8722.asm
                    TMR1H   0x000fcf       data     extern C:\MCC18\v3_39\src\traditional\proc\p18F8722.asm
                    TMR1L   0x000fce       data     extern C:\MCC18\v3_39\src\traditional\proc\p18F8722.asm
                     TMR2   0x000fcc       data     extern C:\MCC18\v3_39\src\traditional\proc\p18F8722.asm
                    TMR3H   0x000fb3       data     extern C:\MCC18\v3_39\src\traditional\proc\p18F8722.asm
                    TMR3L   0x000fb2       data     extern C:\MCC18\v3_39\src\traditional\proc\p18F8722.asm
                     TMR4   0x000f78       data     extern C:\MCC18\v3_39\src\traditional\proc\p18F8722.asm
                      TOS   0x000ffd       data     extern C:\MCC18\v3_39\src\traditional\proc\p18F8722.asm
                     TOSH   0x000ffe       data     extern C:\MCC18\v3_39\src\traditional\proc\p18F8722.asm
                     TOSL   0x000ffd       data     extern C:\MCC18\v3_39\src\traditional\proc\p18F8722.asm
                     TOSU   0x000fff       data     extern C:\MCC18\v3_39\src\traditional\proc\p18F8722.asm
                    TRISA   0x000f92       data     extern C:\MCC18\v3_39\src\traditional\proc\p18F8722.asm
                TRISAbits   0x000f92       data     extern C:\MCC18\v3_39\src\traditional\proc\p18F8722.asm
                    TRISB   0x000f93       data     extern C:\MCC18\v3_39\src\traditional\proc\p18F8722.asm
                TRISBbits   0x000f93       data     extern C:\MCC18\v3_39\src\traditional\proc\p18F8722.asm
                    TRISC   0x000f94       data     extern C:\MCC18\v3_39\src\traditional\proc\p18F8722.asm
                TRISCbits   0x000f94       data     extern C:\MCC18\v3_39\src\traditional\proc\p18F8722.asm
                    TRISD   0x000f95       data     extern C:\MCC18\v3_39\src\traditional\proc\p18F8722.asm
                TRISDbits   0x000f95       data     extern C:\MCC18\v3_39\src\traditional\proc\p18F8722.asm
                    TRISE   0x000f96       data     extern C:\MCC18\v3_39\src\traditional\proc\p18F8722.asm
                TRISEbits   0x000f96       data     extern C:\MCC18\v3_39\src\traditional\proc\p18F8722.asm
                    TRISF   0x000f97       data     extern C:\MCC18\v3_39\src\traditional\proc\p18F8722.asm
                TRISFbits   0x000f97       data     extern C:\MCC18\v3_39\src\traditional\proc\p18F8722.asm
                    TRISG   0x000f98       data     extern C:\MCC18\v3_39\src\traditional\proc\p18F8722.asm
                TRISGbits   0x000f98       data     extern C:\MCC18\v3_39\src\traditional\proc\p18F8722.asm
                    TRISH   0x000f99       data     extern C:\MCC18\v3_39\src\traditional\proc\p18F8722.asm
                TRISHbits   0x000f99       data     extern C:\MCC18\v3_39\src\traditional\proc\p18F8722.asm
                    TRISJ   0x000f9a       data     extern C:\MCC18\v3_39\src\traditional\proc\p18F8722.asm
                TRISJbits   0x000f9a       data     extern C:\MCC18\v3_39\src\traditional\proc\p18F8722.asm
                    TWEAK   0x000615       data     extern L:\mandm\mandm\mandm8722.c
                    TXREG   0x000fad       data     extern C:\MCC18\v3_39\src\traditional\proc\p18F8722.asm
                   TXREG1   0x000fad       data     extern C:\MCC18\v3_39\src\traditional\proc\p18F8722.asm
                   TXREG2   0x000f6d       data     extern C:\MCC18\v3_39\src\traditional\proc\p18F8722.asm
                    TXSTA   0x000fac       data     extern C:\MCC18\v3_39\src\traditional\proc\p18F8722.asm
                   TXSTA1   0x000fac       data     extern C:\MCC18\v3_39\src\traditional\proc\p18F8722.asm
               TXSTA1bits   0x000fac       data     extern C:\MCC18\v3_39\src\traditional\proc\p18F8722.asm
                   TXSTA2   0x000f6c       data     extern C:\MCC18\v3_39\src\traditional\proc\p18F8722.asm
               TXSTA2bits   0x000f6c       data     extern C:\MCC18\v3_39\src\traditional\proc\p18F8722.asm
                TXSTAbits   0x000fac       data     extern C:\MCC18\v3_39\src\traditional\proc\p18F8722.asm
               UPDATE_EEP   0x00060d       data     extern L:\mandm\mandm\mandm8722.c
            USART2_Status   0x0004ff       data     extern C:\MCC18\v3_39\src\pmc_common\USART\u2defs.c
                        V   0x00009e       data     extern L:\mandm\mandm\mandm8722.c
                      Vin   0x000667       data     extern L:\mandm\mandm\mandm8722.c
                   WDTCON   0x000fd1       data     extern C:\MCC18\v3_39\src\traditional\proc\p18F8722.asm
               WDTCONbits   0x000fd1       data     extern C:\MCC18\v3_39\src\traditional\proc\p18F8722.asm
                   WDT_TO   0x000613       data     extern L:\mandm\mandm\mandm8722.c
               WORKERFLAG   0x000603       data     extern L:\mandm\mandm\mandm8722.c
                     WREG   0x000fe8       data     extern C:\MCC18\v3_39\src\traditional\proc\p18F8722.asm
                    YNKEY   0x000523       data     extern L:\mandm\mandm\mandm8722.c
                      ZAP   0x0004ed       data     static L:\mandm\mandm\mandm_vector.c
                 __AARGB0   0x00002d       data     extern C:\MCC18\v3_39\src\traditional\math\aarg.asm
                 __AARGB1   0x00002c       data     extern C:\MCC18\v3_39\src\traditional\math\aarg.asm
                 __AARGB2   0x00002b       data     extern C:\MCC18\v3_39\src\traditional\math\aarg.asm
                 __AARGB3   0x00002a       data     extern C:\MCC18\v3_39\src\traditional\math\aarg.asm
                 __AARGB4   0x000029       data     extern C:\MCC18\v3_39\src\traditional\math\aarg.asm
                 __AARGB5   0x000028       data     extern C:\MCC18\v3_39\src\traditional\math\aarg.asm
                 __AARGB6   0x000027       data     extern C:\MCC18\v3_39\src\traditional\math\aarg.asm
                 __AARGB7   0x000026       data     extern C:\MCC18\v3_39\src\traditional\math\aarg.asm
                   __AEXP   0x00002e       data     extern C:\MCC18\v3_39\src\traditional\math\aarg.asm
                 __BARGB0   0x000032       data     extern C:\MCC18\v3_39\src\traditional\math\barg.asm
                 __BARGB1   0x000031       data     extern C:\MCC18\v3_39\src\traditional\math\barg.asm
                 __BARGB2   0x000030       data     extern C:\MCC18\v3_39\src\traditional\math\barg.asm
                 __BARGB3   0x00002f       data     extern C:\MCC18\v3_39\src\traditional\math\barg.asm
                   __BEXP   0x000033       data     extern C:\MCC18\v3_39\src\traditional\math\barg.asm
                __FPFLAGS   0x000025       data     extern C:\MCC18\v3_39\src\traditional\math\cmath18.asm
            __FPFLAGSbits   0x000025       data     extern C:\MCC18\v3_39\src\traditional\math\cmath18.asm
                  __REMB0   0x000029       data     extern C:\MCC18\v3_39\src\traditional\math\aarg.asm
                  __REMB1   0x000028       data     extern C:\MCC18\v3_39\src\traditional\math\aarg.asm
                  __REMB2   0x000027       data     extern C:\MCC18\v3_39\src\traditional\math\aarg.asm
                  __REMB3   0x000026       data     extern C:\MCC18\v3_39\src\traditional\math\aarg.asm
                   __TEMP   0x000037       data     extern C:\MCC18\v3_39\src\traditional\math\temparg.asm
                 __TEMPB0   0x000037       data     extern C:\MCC18\v3_39\src\traditional\math\temparg.asm
                 __TEMPB1   0x000036       data     extern C:\MCC18\v3_39\src\traditional\math\temparg.asm
                 __TEMPB2   0x000035       data     extern C:\MCC18\v3_39\src\traditional\math\temparg.asm
                 __TEMPB3   0x000034       data     extern C:\MCC18\v3_39\src\traditional\math\temparg.asm
                  __tmp_0   0x000000       data     static C:\MCC18\v3_39\src\traditional\stdclib\putc.c
                  __tmp_0   0x000000       data     static C:\MCC18\v3_39\src\traditional\stdclib\vfprintf.c
                  __tmp_0   0x000000       data     static C:\MCC18\v3_39\src\pmc_common\EEP\read_B.c
                  __tmp_0   0x000000       data     static C:\MCC18\v3_39\src\traditional\stdclib\sprintf.c
                  __tmp_0   0x000000       data     static C:\MCC18\v3_39\src\pmc_common\ADC\adcread.c
                  __tmp_0   0x000000       data     static C:\MCC18\v3_39\src\pmc_common\ADC\adcopen.c
                  __tmp_0   0x000000       data     static C:\MCC18\v3_39\src\pmc_common\USART\u2open.c
                  __tmp_0   0x000000       data     static C:\MCC18\v3_39\src\pmc_common\ADC\adcsetch.c
                  __tmp_0   0x000000       data     static C:\MCC18\v3_39\src\pmc_common\EEP\write_B.c
                  __tmp_0   0x000000       data     static L:\mandm\mandm\daq.c     
                  __tmp_0   0x000000       data     static L:\mandm\mandm\crit.c    
                  __tmp_0   0x000000       data     static L:\mandm\mandm\mandm8722.c
                  __tmp_0   0x000000       data     static L:\mandm\mandm\power.c   
                  __tmp_1   0x000038       data     static L:\mandm\mandm\mandm_vector.c
                    a10_x   0x0005b7       data     extern L:\mandm\mandm\mandm8722.c
                  a10_x_t   0x0005c7       data     static L:\mandm\mandm\daq.c     
                    a10_y   0x0005b9       data     extern L:\mandm\mandm\mandm8722.c
                  a10_y_t   0x0005cb       data     static L:\mandm\mandm\daq.c     
                    a10_z   0x0005bb       data     extern L:\mandm\mandm\mandm8722.c
                  a10_z_t   0x0005cf       data     static L:\mandm\mandm\daq.c     
                  adc_cal   0x000681       data     extern L:\mandm\mandm\mandm8722.c
                   ahfrak   0x000663       data     extern L:\mandm\mandm\mandm8722.c
             alarm_buffer   0x0003a0       data     extern L:\mandm\mandm\mandm8722.c
              alarm_codes   0x000617       data     extern L:\mandm\mandm\mandm8722.c
                  alm_num   0x0003ee       data     static L:\mandm\mandm\mandm8722.c
                   almctr   0x0004fe       data     extern L:\mandm\mandm\mandm8722.c
                   b_read   0x0004ec       data     static L:\mandm\mandm\mandm_vector.c
                 band_max   0x0004f4       data     static L:\mandm\mandm\mandm_vector.c
                 bootstr2   0x000200       data     extern L:\mandm\mandm\mandm8722.c
               build_date   0x000636       data     extern L:\mandm\mandm\mandm8722.c
               build_time   0x000639       data     extern L:\mandm\mandm\mandm8722.c
                   button   0x000060       data     extern L:\mandm\mandm\mandm8722.c
                       c1   0x0005ea       data     static L:\mandm\mandm\mandm_vector.c
                       c2   0x0005eb       data     static L:\mandm\mandm\mandm_vector.c
               cable_type   0x000693       data     extern L:\mandm\mandm\mandm8722.c
                   cdelay   0x0005c1       data     extern L:\mandm\mandm\mandm8722.c
                   change   0x0001fe       data     static L:\mandm\mandm\daq.c     
             change_count   0x0001fc       data     extern L:\mandm\mandm\daq.c     
               check_menu   0x0005a4       data     static L:\mandm\mandm\mandm8722.c
                   chrg_v   0x00066b       data     extern L:\mandm\mandm\mandm8722.c
                      cid   0x000352       data     extern L:\mandm\mandm\mandm8722.c
                clocks_hz   0x000582       data     static L:\mandm\mandm\mandm8722.c
                clocks_hz   0x00058e       data     static L:\mandm\mandm\mandm8722.c
                clocks_hz   0x00059a       data     static L:\mandm\mandm\mandm8722.c
                clocks_hz   0x000576       data     static L:\mandm\mandm\mandm8722.c
                clocks_hz   0x00056a       data     static L:\mandm\mandm\mandm8722.c
                clocks_hz   0x00055e       data     static L:\mandm\mandm\mandm8722.c
                clocks_hz   0x000552       data     static L:\mandm\mandm\mandm8722.c
              critc_count   0x000629       data     extern L:\mandm\mandm\mandm8722.c
              critc_level   0x000604       data     extern L:\mandm\mandm\mandm8722.c
                      csd   0x000340       data     extern L:\mandm\mandm\mandm8722.c
                curr_byte   0x0005e3       data     static C:\MCC18\v3_39\src\traditional\startup\c018iz.c
               curr_entry   0x0005e5       data     static C:\MCC18\v3_39\src\traditional\startup\c018iz.c
                 data_ptr   0x0005e7       data     static C:\MCC18\v3_39\src\traditional\startup\c018iz.c
                   dcount   0x000562       data     static L:\mandm\mandm\mandm8722.c
                   dcount   0x00056e       data     static L:\mandm\mandm\mandm8722.c
                   dcount   0x000556       data     static L:\mandm\mandm\mandm8722.c
                   dcount   0x00057a       data     static L:\mandm\mandm\mandm8722.c
                   dcount   0x00054a       data     static L:\mandm\mandm\mandm8722.c
                   dcount   0x000586       data     static L:\mandm\mandm\mandm8722.c
                   dcount   0x000592       data     static L:\mandm\mandm\mandm8722.c
                   dcount   0x000546       data     static L:\mandm\mandm\mandm8722.c
                 deadband   0x0003f1       data     static L:\mandm\mandm\mandm8722.c
                       ds   0x000100       data     extern L:\mandm\mandm\mandm8722.c
                      dsi   0x00063c       data     extern L:\mandm\mandm\mandm8722.c
                 eep_char   0x0003fc       data     static L:\mandm\mandm\mandm8722.c
                emo_bumps   0x0004ea       data     static L:\mandm\mandm\mandm_vector.c
                       f1   0x000374       data     extern L:\mandm\mandm\mandm8722.c
                       f2   0x00037b       data     extern L:\mandm\mandm\mandm8722.c
                       f3   0x000382       data     extern L:\mandm\mandm\mandm8722.c
                       f4   0x000389       data     extern L:\mandm\mandm\mandm8722.c
               fast_ticks   0x0004f1       data     static L:\mandm\mandm\mandm_vector.c
                  get_out   0x0005a5       data     static L:\mandm\mandm\mandm8722.c
             glitch_count   0x0005c0       data     extern L:\mandm\mandm\mandm8722.c
                        h   0x0003d5       data     static L:\mandm\mandm\mandm8722.c
                        h   0x0003e1       data     static L:\mandm\mandm\mandm8722.c
                 help_pos   0x00063e       data     extern L:\mandm\mandm\mandm8722.c
                 hid_idle   0x0004f8       data     static L:\mandm\mandm\mandm_vector.c
               hms_string   0x0005a7       data     extern L:\mandm\mandm\mandm8722.c
                        i   0x0003ed       data     static L:\mandm\mandm\mandm8722.c
                        i   0x0005c3       data     static L:\mandm\mandm\daq.c     
                       ib   0x0003d4       data     static L:\mandm\mandm\mandm8722.c
                       ip   0x00067d       data     extern L:\mandm\mandm\mandm8722.c
                       iw   0x000679       data     extern L:\mandm\mandm\mandm8722.c
                    knob1   0x000500       data     extern L:\mandm\mandm\mandm8722.c
                    knob2   0x000510       data     extern L:\mandm\mandm\mandm8722.c
              knob_to_pot   0x000678       data     extern L:\mandm\mandm\mandm8722.c
               last_shape   0x0003d3       data     static L:\mandm\mandm\mandm8722.c
                lastmotor   0x0004b0       data     static L:\mandm\mandm\power.c   
                    lcd18   0x0003ce       data     extern L:\mandm\mandm\mandm8722.c
                 lp_speed   0x00062e       data     extern L:\mandm\mandm\mandm8722.c
                     lp_x   0x000632       data     extern L:\mandm\mandm\mandm8722.c
                        m   0x0003e5       data     static L:\mandm\mandm\mandm8722.c
                        m   0x0003d9       data     static L:\mandm\mandm\mandm8722.c
                 menu_pos   0x0005a6       data     static L:\mandm\mandm\mandm8722.c
                 menu_pos   0x0003fb       data     static L:\mandm\mandm\mandm8722.c
                 menu_pos   0x0003fa       data     static L:\mandm\mandm\mandm8722.c
                     mode   0x000619       data     extern L:\mandm\mandm\mandm8722.c
                motor_ptr   0x0004ae       data     extern L:\mandm\mandm\mandm8722.c
                motordata   0x000400       data     extern L:\mandm\mandm\mandm8722.c
                      msi   0x00063d       data     extern L:\mandm\mandm\mandm8722.c
                        n   0x00059e       data     static L:\mandm\mandm\mandm8722.c
                 new_menu   0x0005a3       data     static L:\mandm\mandm\mandm8722.c
                old_error   0x0003f7       data     static L:\mandm\mandm\mandm8722.c
                 old_menu   0x0003f9       data     static L:\mandm\mandm\mandm8722.c
                       p1   0x000300       data     extern L:\mandm\mandm\mandm8722.c
                       p2   0x000310       data     extern L:\mandm\mandm\mandm8722.c
                       p3   0x000390       data     extern L:\mandm\mandm\mandm8722.c
                 position   0x0003ef       data     static L:\mandm\mandm\mandm8722.c
                     prom   0x0005e0       data     static C:\MCC18\v3_39\src\traditional\startup\c018iz.c
                     qei1   0x000529       data     extern L:\mandm\mandm\mandm8722.c
                     rawp   0x0005d4       data     extern L:\mandm\mandm\mandm8722.c
               real_ticks   0x0004f0       data     static L:\mandm\mandm\mandm_vector.c
                   rx_tmp   0x0004f2       data     static L:\mandm\mandm\mandm_vector.c
                        s   0x0003dd       data     static L:\mandm\mandm\mandm8722.c
                        s   0x0003e9       data     static L:\mandm\mandm\mandm8722.c
                        s   0x000540       data     static L:\mandm\mandm\mandm8722.c
                  s_delay   0x0005a2       data     static L:\mandm\mandm\mandm8722.c
                    shape   0x0003f0       data     static L:\mandm\mandm\mandm8722.c
                     sign   0x00062d       data     extern L:\mandm\mandm\mandm8722.c
                     slow   0x0005a0       data     static L:\mandm\mandm\mandm8722.c
               slow_timer   0x0003cf       data     extern L:\mandm\mandm\mandm8722.c
                   smooth   0x0003ae       data     extern L:\mandm\mandm\mandm8722.c
                  solar_t   0x000673       data     extern L:\mandm\mandm\mandm8722.c
                       t1   0x00063f       data     extern L:\mandm\mandm\mandm8722.c
                       t2   0x000643       data     extern L:\mandm\mandm\mandm8722.c
                       t3   0x000647       data     extern L:\mandm\mandm\mandm8722.c
                       t4   0x00064b       data     extern L:\mandm\mandm\mandm8722.c
                       t5   0x00064f       data     extern L:\mandm\mandm\mandm8722.c
                       t6   0x000653       data     extern L:\mandm\mandm\mandm8722.c
                       t7   0x000657       data     extern L:\mandm\mandm\mandm8722.c
                   t_time   0x00065b       data     extern L:\mandm\mandm\mandm8722.c
                  termstr   0x000320       data     extern L:\mandm\mandm\mandm8722.c
                    timer   0x0005ec       data     static L:\mandm\mandm\mandm_vector.c
                   timerl   0x0005ee       data     static L:\mandm\mandm\mandm_vector.c
                 timetemp   0x000596       data     static L:\mandm\mandm\mandm8722.c
                 timetemp   0x00058a       data     static L:\mandm\mandm\mandm8722.c
                 timetemp   0x00057e       data     static L:\mandm\mandm\mandm8722.c
                 timetemp   0x000572       data     static L:\mandm\mandm\mandm8722.c
                 timetemp   0x00054e       data     static L:\mandm\mandm\mandm8722.c
                 timetemp   0x000566       data     static L:\mandm\mandm\mandm8722.c
                 timetemp   0x00055a       data     static L:\mandm\mandm\mandm8722.c
                 vbatol_t   0x00066f       data     extern L:\mandm\mandm\mandm8722.c
                 vc_count   0x0004ee       data     static L:\mandm\mandm\mandm_vector.c
                 voltfrak   0x00065f       data     extern L:\mandm\mandm\mandm8722.c
              was_running   0x0003f5       data     static L:\mandm\mandm\mandm8722.c
             worker_timer   0x0004ef       data     static L:\mandm\mandm\mandm_vector.c
                 worktick   0x0005bd       data     extern L:\mandm\mandm\mandm8722.c
                        z   0x0003fd       data     static L:\mandm\mandm\mandm8722.c
                        z   0x0005c5       data     static L:\mandm\mandm\daq.c     
                        z   0x0000fb       data     static L:\mandm\mandm\hwconf.c  
                        z   0x0005a1       data     static L:\mandm\mandm\mandm8722.c
                        z   0x0005d3       data     static L:\mandm\mandm\daq.c     
                        z   0x00059f       data     static L:\mandm\mandm\mandm8722.c
                        z   0x0000fc       data     static L:\mandm\mandm\config.c  



                              Symbols - Sorted by Address
                     Name    Address   Location    Storage File                     
                ---------  ---------  ---------  --------- ---------                
                   _entry   0x000000    program     extern C:\MCC18\v3_39\src\traditional\startup\c018iz.c
       ___return_lbl00000   0x000004    program     static                          
               _user_putc   0x000006    program     extern C:\MCC18\v3_39\src\traditional\stdclib\_user_putc.c
                 tick_int   0x000008    program     extern L:\mandm\mandm\mandm8722.c
       ___return_lbl00000   0x00000c    program     static                          
                  BusyADC   0x00000e    program     extern C:\MCC18\v3_39\src\pmc_common\ADC\adcbusy.c
                 work_int   0x000018    program     extern L:\mandm\mandm\mandm8722.c
       ___return_lbl00001   0x00001c    program     static                          
                 spinners   0x000068    program     extern L:\mandm\mandm\mandm8722.c
              LCD_VC_puts   0x00016e    program     extern L:\mandm\mandm\mandm8722.c
              update_hist   0x000234    program     extern L:\mandm\mandm\mandm8722.c
                 wdtdelay   0x000282    program     extern L:\mandm\mandm\mandm8722.c
          ___for_lbl00030   0x000294    program     static                          
               __tmplbl_3   0x0002b8    program     static                          
          ___for_lbl00028   0x0002be    program     static                          
          ___for_lbl00029   0x0002cc    program     static                          
       ___return_lbl00027   0x0002cc    program     static                          
                  wdttime   0x0002d4    program     extern L:\mandm\mandm\mandm8722.c
           ___do_lbl00034   0x00032e    program     static                          
           ___do_lbl00032   0x00034e    program     static                          
               __tmplbl_4   0x00036e    program     static                          
           ___do_lbl00033   0x000370    program     static                          
       ___return_lbl00031   0x000370    program     static                          
                checktime   0x000378    program     extern L:\mandm\mandm\mandm8722.c
         checktime_select   0x0003ee    program     extern L:\mandm\mandm\mandm8722.c
          checktime_motor   0x000464    program     extern L:\mandm\mandm\mandm8722.c
            checktime_cal   0x0004da    program     extern L:\mandm\mandm\mandm8722.c
            checktime_eep   0x000550    program     extern L:\mandm\mandm\mandm8722.c
          checktime_track   0x0005c6    program     extern L:\mandm\mandm\mandm8722.c
            DelayFor18TCY   0x00063c    program     extern L:\mandm\mandm\mandm8722.c
          ___for_lbl00056   0x000642    program     static                          
          ___for_lbl00054   0x00064e    program     static                          
          ___for_lbl00055   0x000654    program     static                          
       ___return_lbl00053   0x000654    program     static                          
             DelayPORXLCD   0x000656    program     extern L:\mandm\mandm\mandm8722.c
                DelayXLCD   0x000662    program     extern L:\mandm\mandm\mandm8722.c
                    putc2   0x00066e    program     extern L:\mandm\mandm\mandm8722.c
              start_delay   0x000686    program     extern L:\mandm\mandm\mandm8722.c
                  clr_lcd   0x00068c    program     extern L:\mandm\mandm\mandm8722.c
                lp_filter   0x00069c    program     extern L:\mandm\mandm\mandm8722.c
                term_time   0x000860    program     extern L:\mandm\mandm\mandm8722.c
       ___return_lbl00072   0x0008bc    program     static                          
             hold_process   0x0008be    program     extern L:\mandm\mandm\mandm8722.c
              system_data   0x000902    program     extern L:\mandm\mandm\mandm8722.c
          ___for_lbl00081   0x000c84    program     static                          
           ___if_lbl00080   0x000fb4    program     static                          
          ___for_lbl00078   0x000fb4    program     static                          
          ___for_lbl00079   0x000fba    program     static                          
       ___return_lbl00077   0x000fbc    program     static                          
              system_help   0x000fbe    program     extern L:\mandm\mandm\mandm8722.c
                      hms   0x000fda    program     extern L:\mandm\mandm\mandm8722.c
                       hm   0x0010b4    program     extern L:\mandm\mandm\mandm8722.c
                     ABSI   0x001180    program     extern L:\mandm\mandm\mandm8722.c
                     ABSL   0x0011ae    program     extern L:\mandm\mandm\mandm8722.c
                   voltfp   0x0011e0    program     extern L:\mandm\mandm\mandm8722.c
                  voltfps   0x001202    program     extern L:\mandm\mandm\mandm8722.c
                  voltfpi   0x001220    program     extern L:\mandm\mandm\mandm8722.c
                     ahfp   0x0012f2    program     extern L:\mandm\mandm\mandm8722.c
              check_alarm   0x00138e    program     extern L:\mandm\mandm\mandm8722.c
                fail_safe   0x0016c4    program     extern L:\mandm\mandm\mandm8722.c
                 ansidraw   0x0017b6    program     extern L:\mandm\mandm\mandm8722.c
          update_lcd_menu   0x0017f2    program     extern L:\mandm\mandm\mandm8722.c
               Set_Cursor   0x0018be    program     extern L:\mandm\mandm\mandm8722.c
              track_motor   0x001936    program     extern L:\mandm\mandm\mandm8722.c
              check_cable   0x001e36    program     extern L:\mandm\mandm\mandm8722.c
                  get_hid   0x001f5c    program     extern L:\mandm\mandm\mandm8722.c
                 nav_menu   0x0021f0    program     extern L:\mandm\mandm\mandm8722.c
            e220_qei_exer   0x002234    program     extern L:\mandm\mandm\mandm8722.c
              nonqei_exer   0x002386    program     extern L:\mandm\mandm\mandm8722.c
                exerciser   0x0024ce    program     extern L:\mandm\mandm\mandm8722.c
                 hid_menu   0x002512    program     extern L:\mandm\mandm\mandm8722.c
           help_m_display   0x002534    program     extern L:\mandm\mandm\mandm8722.c
            gsd_m_display   0x002596    program     extern L:\mandm\mandm\mandm8722.c
           e220_m_display   0x0025fe    program     extern L:\mandm\mandm\mandm8722.c
        viision_m_display   0x002698    program     extern L:\mandm\mandm\mandm8722.c
       viision_ms_display   0x002748    program     extern L:\mandm\mandm\mandm8722.c
         e220_qei_display   0x0027b0    program     extern L:\mandm\mandm\mandm8722.c
          default_display   0x002878    program     extern L:\mandm\mandm\mandm8722.c
              emo_display   0x0028d4    program     extern L:\mandm\mandm\mandm8722.c
         varian_v_display   0x002902    program     extern L:\mandm\mandm\mandm8722.c
          fail_all_motors   0x0029d8    program     extern L:\mandm\mandm\mandm8722.c
           set_all_motors   0x002a4a    program     extern L:\mandm\mandm\mandm8722.c
                  run_cal   0x002a92    program     extern L:\mandm\mandm\mandm8722.c
           ___if_lbl00424   0x002b0e    program     static                          
           ___if_lbl00425   0x002b48    program     static                          
           ___if_lbl00426   0x002b5a    program     static                          
           ___if_lbl00427   0x002b94    program     static                          
          ___for_lbl00450   0x002bf2    program     static                          
           ___do_lbl00436   0x002c5e    program     static                          
           ___if_lbl00432   0x002d22    program     static                          
             __tmplbl_167   0x002dbc    program     static                          
           ___if_lbl00433   0x002e0e    program     static                          
             __tmplbl_168   0x002eac    program     static                          
           ___if_lbl00434   0x002efe    program     static                          
           ___if_lbl00435   0x002f12    program     static                          
           ___do_lbl00430   0x002f24    program     static                          
           ___do_lbl00431   0x002f52    program     static                          
             __tmplbl_169   0x002f5e    program     static                          
              __tmplbl_74   0x002f66    program     static                          
              __tmplbl_73   0x002f76    program     static                          
           ___if_lbl00438   0x002f7e    program     static                          
             __tmplbl_170   0x002f8a    program     static                          
           ___if_lbl00439   0x002f98    program     static                          
           ___do_lbl00446   0x002fd2    program     static                          
           ___if_lbl00442   0x003096    program     static                          
             __tmplbl_171   0x003130    program     static                          
           ___if_lbl00443   0x003182    program     static                          
             __tmplbl_172   0x003220    program     static                          
           ___if_lbl00444   0x003272    program     static                          
           ___if_lbl00445   0x003286    program     static                          
           ___do_lbl00440   0x003298    program     static                          
           ___do_lbl00441   0x0032c6    program     static                          
             __tmplbl_173   0x0032d2    program     static                          
              __tmplbl_76   0x0032da    program     static                          
              __tmplbl_75   0x0032ea    program     static                          
           ___if_lbl00448   0x0032f2    program     static                          
             __tmplbl_174   0x0032fe    program     static                          
           ___if_lbl00449   0x00330c    program     static                          
          ___for_lbl00428   0x00330c    program     static                          
          ___for_lbl00429   0x003318    program     static                          
              __tmplbl_78   0x00332a    program     static                          
              __tmplbl_77   0x003334    program     static                          
           ___if_lbl00452   0x00341e    program     static                          
           ___if_lbl00453   0x00347a    program     static                          
           ___do_lbl00456   0x00349e    program     static                          
           ___do_lbl00454   0x0034aa    program     static                          
           ___do_lbl00455   0x0034b0    program     static                          
           ___if_lbl00457   0x003506    program     static                          
           ___if_lbl00458   0x003506    program     static                          
           ___if_lbl00459   0x003520    program     static                          
           ___do_lbl00476   0x00358e    program     static                          
              __tmplbl_81   0x003758    program     static                          
              __tmplbl_80   0x00375e    program     static                          
              __tmplbl_79   0x003764    program     static                          
           ___if_lbl00465   0x003778    program     static                          
           ___if_lbl00466   0x0037a8    program     static                          
           ___if_lbl00467   0x0037ac    program     static                          
           ___if_lbl00468   0x003814    program     static                          
           ___if_lbl00469   0x00391e    program     static                          
         ___else_lbl00472   0x003920    program     static                          
           ___if_lbl00470   0x0039b2    program     static                          
           ___if_lbl00471   0x0039b2    program     static                          
           ___if_lbl00473   0x003a78    program     static                          
           ___if_lbl00474   0x003b3e    program     static                          
           ___if_lbl00475   0x003b52    program     static                          
           ___do_lbl00460   0x003b64    program     static                          
              __tmplbl_83   0x003b90    program     static                          
           ___do_lbl00461   0x003ba2    program     static                          
              __tmplbl_82   0x003ba2    program     static                          
           ___do_lbl00493   0x003c24    program     static                          
              __tmplbl_86   0x003dee    program     static                          
              __tmplbl_85   0x003df4    program     static                          
              __tmplbl_84   0x003dfa    program     static                          
           ___if_lbl00482   0x003e0e    program     static                          
           ___if_lbl00483   0x003e3e    program     static                          
           ___if_lbl00484   0x003e42    program     static                          
           ___if_lbl00485   0x003eaa    program     static                          
           ___if_lbl00486   0x003fb4    program     static                          
         ___else_lbl00489   0x003fb6    program     static                          
           ___if_lbl00488   0x004048    program     static                          
           ___if_lbl00487   0x004048    program     static                          
           ___if_lbl00490   0x00410e    program     static                          
           ___if_lbl00491   0x0041d4    program     static                          
           ___if_lbl00492   0x0041e8    program     static                          
           ___do_lbl00477   0x0041fa    program     static                          
              __tmplbl_88   0x004226    program     static                          
           ___if_lbl00494   0x004238    program     static                          
              __tmplbl_87   0x004238    program     static                          
           ___do_lbl00478   0x004238    program     static                          
         ___else_lbl00513   0x00423c    program     static                          
          ___for_lbl00501   0x004284    program     static                          
              __tmplbl_89   0x00429c    program     static                          
           ___if_lbl00497   0x004342    program     static                          
              __tmplbl_90   0x00442e    program     static                          
           ___if_lbl00498   0x004440    program     static                          
           ___if_lbl00499   0x004458    program     static                          
           ___if_lbl00500   0x0044c0    program     static                          
          ___for_lbl00495   0x0044c0    program     static                          
          ___for_lbl00496   0x0044d4    program     static                          
          ___for_lbl00508   0x004550    program     static                          
              __tmplbl_91   0x004568    program     static                          
           ___if_lbl00504   0x00460e    program     static                          
              __tmplbl_92   0x0046fa    program     static                          
           ___if_lbl00505   0x00470c    program     static                          
           ___if_lbl00506   0x004724    program     static                          
           ___if_lbl00507   0x00478c    program     static                          
          ___for_lbl00502   0x00478c    program     static                          
          ___for_lbl00503   0x0047a0    program     static                          
          ___for_lbl00511   0x004bb0    program     static                          
              __tmplbl_93   0x004bc8    program     static                          
          ___for_lbl00509   0x004c04    program     static                          
           ___if_lbl00512   0x004c18    program     static                          
          ___for_lbl00510   0x004c18    program     static                          
          ___for_lbl00529   0x004c24    program     static                          
              __tmplbl_94   0x004c3c    program     static                          
             __tmplbl_175   0x004cd0    program     static                          
              __tmplbl_96   0x004cda    program     static                          
              __tmplbl_95   0x004d0c    program     static                          
           ___if_lbl00517   0x004d48    program     static                          
             __tmplbl_176   0x004dd0    program     static                          
              __tmplbl_98   0x004dda    program     static                          
              __tmplbl_97   0x004e0c    program     static                          
           ___if_lbl00519   0x004e48    program     static                          
           ___if_lbl00520   0x004e48    program     static                          
         ___else_lbl00528   0x004f3c    program     static                          
         ___else_lbl00522   0x004f8c    program     static                          
           ___if_lbl00521   0x004f96    program     static                          
           ___do_lbl00525   0x0051fe    program     static                          
           ___do_lbl00523   0x00520a    program     static                          
           ___do_lbl00524   0x005210    program     static                          
          ___for_lbl00514   0x005222    program     static                          
           ___if_lbl00527   0x005222    program     static                          
           ___if_lbl00526   0x005222    program     static                          
          ___for_lbl00515   0x005236    program     static                          
           ___do_lbl00534   0x00527c    program     static                          
           ___if_lbl00533   0x0053f0    program     static                          
           ___do_lbl00530   0x0053f2    program     static                          
             __tmplbl_100   0x0053fc    program     static                          
             __tmplbl_101   0x00542e    program     static                          
           ___do_lbl00531   0x005432    program     static                          
              __tmplbl_99   0x005432    program     static                          
           ___if_lbl00535   0x00550a    program     static                          
         ___else_lbl00536   0x00550a    program     static                          
       ___return_lbl00423   0x00552c    program     static                          
              display_cal   0x005540    program     extern L:\mandm\mandm\mandm8722.c
                 init_lcd   0x0055dc    program     extern L:\mandm\mandm\mandm8722.c
                     main   0x00563c    program     extern L:\mandm\mandm\mandm8722.c
           ___if_lbl00548   0x00570a    program     static                          
           ___if_lbl00549   0x005740    program     static                          
           ___if_lbl00550   0x005776    program     static                          
           ___if_lbl00551   0x0057ac    program     static                          
           ___if_lbl00552   0x005928    program     static                          
          ___for_lbl00555   0x005982    program     static                          
          ___for_lbl00553   0x0059ac    program     static                          
           ___if_lbl00556   0x0059b2    program     static                          
          ___for_lbl00554   0x0059b2    program     static                          
         ___else_lbl00558   0x005a06    program     static                          
           ___if_lbl00557   0x005a58    program     static                          
          ___for_lbl00561   0x005a92    program     static                          
          ___for_lbl00559   0x005aca    program     static                          
          ___for_lbl00560   0x005ad0    program     static                          
         ___else_lbl00566   0x005ad2    program     static                          
          ___for_lbl00564   0x005af0    program     static                          
          ___for_lbl00562   0x005b28    program     static                          
          ___for_lbl00563   0x005b2e    program     static                          
           ___if_lbl00565   0x005b48    program     static                          
        ___while_lbl00567   0x005b50    program     static                          
           ___if_lbl00569   0x005b52    program     static                          
        ___while_lbl00568   0x005b52    program     static                          
           ___if_lbl00570   0x005ba8    program     static                          
        ___while_lbl00571   0x005e08    program     static                          
             __tmplbl_103   0x005e14    program     static                          
             __tmplbl_102   0x005e1a    program     static                          
           ___if_lbl00574   0x005e1e    program     static                          
           ___if_lbl00575   0x005e48    program     static                          
           ___if_lbl00576   0x005e5c    program     static                          
        ___while_lbl00572   0x005e5e    program     static                          
       ___return_lbl00547   0x005e5e    program     static                          
                   __pa_0   0x005e60    program     static L:\mandm\mandm\mandm8722.c
                   __pa_1   0x005e74    program     static L:\mandm\mandm\mandm8722.c
                   __pa_2   0x005e7e    program     static L:\mandm\mandm\mandm8722.c
                   __pa_3   0x005e9c    program     static L:\mandm\mandm\mandm8722.c
                   __pa_4   0x005eba    program     static L:\mandm\mandm\mandm8722.c
                   __pa_5   0x005ec2    program     static L:\mandm\mandm\mandm8722.c
                   __pa_6   0x005ed4    program     static L:\mandm\mandm\mandm8722.c
                   __pa_7   0x005ede    program     static L:\mandm\mandm\mandm8722.c
                   __pa_8   0x005ee8    program     static L:\mandm\mandm\mandm8722.c
                   __pa_9   0x005efa    program     static L:\mandm\mandm\mandm8722.c
                  __pa_10   0x005f16    program     static L:\mandm\mandm\mandm8722.c
                  __pa_11   0x005f30    program     static L:\mandm\mandm\mandm8722.c
                  __pa_12   0x005f4e    program     static L:\mandm\mandm\mandm8722.c
                  __pa_13   0x005f5a    program     static L:\mandm\mandm\mandm8722.c
                  __pa_14   0x005f60    program     static L:\mandm\mandm\mandm8722.c
                  __pa_15   0x005f6c    program     static L:\mandm\mandm\mandm8722.c
                  __pa_16   0x005f96    program     static L:\mandm\mandm\mandm8722.c
                  __pa_17   0x005f9e    program     static L:\mandm\mandm\mandm8722.c
             __tmplbl_165   0x005fa8    program     static                          
             __tmplbl_166   0x005fa8    program     static                          
             __tmplbl_152   0x005fa8    program     static                          
                  __pa_18   0x005fa8    program     static L:\mandm\mandm\mandm8722.c
             __tmplbl_150   0x005fa8    program     static                          
             __tmplbl_148   0x005fa8    program     static                          
             __tmplbl_147   0x005fa8    program     static                          
             __tmplbl_129   0x005fa8    program     static                          
             __tmplbl_128   0x005fa8    program     static                          
             __tmplbl_126   0x005fa8    program     static                          
             __tmplbl_185   0x005fa8    program     static                          
             __tmplbl_104   0x005fa8    program     static                          
             __tmplbl_105   0x005fa8    program     static                          
             __tmplbl_106   0x005fa8    program     static                          
             __tmplbl_107   0x005fa8    program     static                          
             __tmplbl_108   0x005fa8    program     static                          
             __tmplbl_109   0x005fa8    program     static                          
             __tmplbl_110   0x005fa8    program     static                          
             __tmplbl_111   0x005fa8    program     static                          
             __tmplbl_113   0x005fa8    program     static                          
             __tmplbl_118   0x005fa8    program     static                          
             __tmplbl_117   0x005fa8    program     static                          
             __tmplbl_114   0x005fa8    program     static                          
                  __pa_19   0x005fb0    program     static L:\mandm\mandm\mandm8722.c
                  __pa_20   0x005fb6    program     static L:\mandm\mandm\mandm8722.c
                  __pa_21   0x005fc4    program     static L:\mandm\mandm\mandm8722.c
                  __pa_22   0x005fe2    program     static L:\mandm\mandm\mandm8722.c
                  __pa_23   0x005fec    program     static L:\mandm\mandm\mandm8722.c
                  __pa_24   0x00600e    program     static L:\mandm\mandm\mandm8722.c
                  __pa_25   0x00601c    program     static L:\mandm\mandm\mandm8722.c
                  __pa_26   0x006028    program     static L:\mandm\mandm\mandm8722.c
                  __pa_27   0x006036    program     static L:\mandm\mandm\mandm8722.c
                  __pa_28   0x006042    program     static L:\mandm\mandm\mandm8722.c
                  __pa_29   0x006058    program     static L:\mandm\mandm\mandm8722.c
                  __pa_30   0x00607e    program     static L:\mandm\mandm\mandm8722.c
                  __pa_31   0x006092    program     static L:\mandm\mandm\mandm8722.c
                  __pa_32   0x0060a8    program     static L:\mandm\mandm\mandm8722.c
                  __pa_33   0x0060ba    program     static L:\mandm\mandm\mandm8722.c
                  __pa_34   0x0060c4    program     static L:\mandm\mandm\mandm8722.c
                  __pa_35   0x0060ce    program     static L:\mandm\mandm\mandm8722.c
                  __pa_36   0x0060d8    program     static L:\mandm\mandm\mandm8722.c
                  __pa_37   0x0060f2    program     static L:\mandm\mandm\mandm8722.c
                  __pa_38   0x0060f8    program     static L:\mandm\mandm\mandm8722.c
                  __pa_39   0x00610a    program     static L:\mandm\mandm\mandm8722.c
                  __pa_40   0x006116    program     static L:\mandm\mandm\mandm8722.c
                  __pa_41   0x006124    program     static L:\mandm\mandm\mandm8722.c
                  __pa_42   0x00612c    program     static L:\mandm\mandm\mandm8722.c
                  __pa_43   0x006140    program     static L:\mandm\mandm\mandm8722.c
                  __pa_44   0x00615a    program     static L:\mandm\mandm\mandm8722.c
                  __pa_45   0x00616e    program     static L:\mandm\mandm\mandm8722.c
                  __pa_46   0x006176    program     static L:\mandm\mandm\mandm8722.c
                  __pa_47   0x00617e    program     static L:\mandm\mandm\mandm8722.c
                  __pa_48   0x00618c    program     static L:\mandm\mandm\mandm8722.c
                  __pa_49   0x006194    program     static L:\mandm\mandm\mandm8722.c
                  __pa_50   0x00619c    program     static L:\mandm\mandm\mandm8722.c
                  __pa_51   0x0061a4    program     static L:\mandm\mandm\mandm8722.c
                  __pa_52   0x0061ce    program     static L:\mandm\mandm\mandm8722.c
                  __pa_53   0x0061d8    program     static L:\mandm\mandm\mandm8722.c
                  __pa_54   0x0061e2    program     static L:\mandm\mandm\mandm8722.c
                  __pa_55   0x0061f0    program     static L:\mandm\mandm\mandm8722.c
                  __pa_56   0x0061f8    program     static L:\mandm\mandm\mandm8722.c
                  __pa_57   0x006218    program     static L:\mandm\mandm\mandm8722.c
                  __pa_58   0x006238    program     static L:\mandm\mandm\mandm8722.c
                  __pa_59   0x006248    program     static L:\mandm\mandm\mandm8722.c
                  __pa_60   0x006258    program     static L:\mandm\mandm\mandm8722.c
                  __pa_61   0x006262    program     static L:\mandm\mandm\mandm8722.c
                  __pa_62   0x006268    program     static L:\mandm\mandm\mandm8722.c
                  __pa_63   0x00626e    program     static L:\mandm\mandm\mandm8722.c
                  __pa_64   0x006286    program     static L:\mandm\mandm\mandm8722.c
                  __pa_65   0x00628e    program     static L:\mandm\mandm\mandm8722.c
                  __pa_66   0x006296    program     static L:\mandm\mandm\mandm8722.c
                  __pa_67   0x0062a2    program     static L:\mandm\mandm\mandm8722.c
                  __pa_68   0x0062b0    program     static L:\mandm\mandm\mandm8722.c
                  __pa_69   0x0062be    program     static L:\mandm\mandm\mandm8722.c
                  __pa_70   0x0062ca    program     static L:\mandm\mandm\mandm8722.c
                  __pa_71   0x0062d4    program     static L:\mandm\mandm\mandm8722.c
                  __pa_72   0x0062de    program     static L:\mandm\mandm\mandm8722.c
                  __pa_73   0x0062e8    program     static L:\mandm\mandm\mandm8722.c
                  __pa_74   0x006300    program     static L:\mandm\mandm\mandm8722.c
                  __pa_75   0x006314    program     static L:\mandm\mandm\mandm8722.c
                  __pa_76   0x00631e    program     static L:\mandm\mandm\mandm8722.c
                  __pa_77   0x006328    program     static L:\mandm\mandm\mandm8722.c
                  __pa_78   0x006332    program     static L:\mandm\mandm\mandm8722.c
                  __pa_79   0x00633c    program     static L:\mandm\mandm\mandm8722.c
                  __pa_80   0x006352    program     static L:\mandm\mandm\mandm8722.c
                  __pa_81   0x00635e    program     static L:\mandm\mandm\mandm8722.c
                  __pa_82   0x00636a    program     static L:\mandm\mandm\mandm8722.c
                  __pa_83   0x006372    program     static L:\mandm\mandm\mandm8722.c
                  __pa_84   0x00637a    program     static L:\mandm\mandm\mandm8722.c
                  __pa_85   0x006388    program     static L:\mandm\mandm\mandm8722.c
                  __pa_86   0x006396    program     static L:\mandm\mandm\mandm8722.c
                  __pa_87   0x0063a4    program     static L:\mandm\mandm\mandm8722.c
                  __pa_88   0x0063b2    program     static L:\mandm\mandm\mandm8722.c
                  __pa_89   0x0063bc    program     static L:\mandm\mandm\mandm8722.c
                  __pa_90   0x0063c6    program     static L:\mandm\mandm\mandm8722.c
                  __pa_91   0x0063d8    program     static L:\mandm\mandm\mandm8722.c
                  __pa_92   0x0063ea    program     static L:\mandm\mandm\mandm8722.c
                  __pa_93   0x0063fc    program     static L:\mandm\mandm\mandm8722.c
                  __pa_94   0x00640e    program     static L:\mandm\mandm\mandm8722.c
                  __pa_95   0x006420    program     static L:\mandm\mandm\mandm8722.c
                  __pa_96   0x006432    program     static L:\mandm\mandm\mandm8722.c
                  __pa_97   0x00643a    program     static L:\mandm\mandm\mandm8722.c
                  __pa_98   0x00644c    program     static L:\mandm\mandm\mandm8722.c
                  __pa_99   0x00645e    program     static L:\mandm\mandm\mandm8722.c
                 __pa_100   0x00646a    program     static L:\mandm\mandm\mandm8722.c
                 __pa_101   0x006476    program     static L:\mandm\mandm\mandm8722.c
                 __pa_102   0x00647c    program     static L:\mandm\mandm\mandm8722.c
                 __pa_103   0x006486    program     static L:\mandm\mandm\mandm8722.c
                 __pa_104   0x006490    program     static L:\mandm\mandm\mandm8722.c
                 __pa_105   0x00649a    program     static L:\mandm\mandm\mandm8722.c
                 __pa_106   0x0064a2    program     static L:\mandm\mandm\mandm8722.c
                 __pa_107   0x0064a8    program     static L:\mandm\mandm\mandm8722.c
                 __pa_108   0x0064b2    program     static L:\mandm\mandm\mandm8722.c
                 __pa_109   0x0064c0    program     static L:\mandm\mandm\mandm8722.c
                 __pa_110   0x0064ce    program     static L:\mandm\mandm\mandm8722.c
                 __pa_111   0x0064dc    program     static L:\mandm\mandm\mandm8722.c
                 __pa_112   0x0064e4    program     static L:\mandm\mandm\mandm8722.c
                 __pa_113   0x0064f2    program     static L:\mandm\mandm\mandm8722.c
                 __pa_114   0x0064fc    program     static L:\mandm\mandm\mandm8722.c
                 __pa_115   0x006506    program     static L:\mandm\mandm\mandm8722.c
                 __pa_116   0x006510    program     static L:\mandm\mandm\mandm8722.c
                 __pa_117   0x00651a    program     static L:\mandm\mandm\mandm8722.c
                 __pa_118   0x006524    program     static L:\mandm\mandm\mandm8722.c
                 __pa_119   0x006546    program     static L:\mandm\mandm\mandm8722.c
                 __pa_120   0x006558    program     static L:\mandm\mandm\mandm8722.c
                 __pa_121   0x006572    program     static L:\mandm\mandm\mandm8722.c
                 __pa_122   0x006592    program     static L:\mandm\mandm\mandm8722.c
                 __pa_123   0x0065aa    program     static L:\mandm\mandm\mandm8722.c
                 __pa_124   0x0065b0    program     static L:\mandm\mandm\mandm8722.c
                 __pa_125   0x0065c8    program     static L:\mandm\mandm\mandm8722.c
                 __pa_126   0x0065fa    program     static L:\mandm\mandm\mandm8722.c
                 __pa_127   0x006602    program     static L:\mandm\mandm\mandm8722.c
                 __pa_128   0x006612    program     static L:\mandm\mandm\mandm8722.c
                 __pa_129   0x00662a    program     static L:\mandm\mandm\mandm8722.c
                 __pa_130   0x006632    program     static L:\mandm\mandm\mandm8722.c
             __tmplbl_156   0x00663a    program     static                          
             __tmplbl_155   0x00663a    program     static                          
             __tmplbl_153   0x00663a    program     static                          
                 __pa_131   0x00663a    program     static L:\mandm\mandm\mandm8722.c
             __tmplbl_159   0x00663a    program     static                          
             __tmplbl_158   0x00663a    program     static                          
             __tmplbl_164   0x00663a    program     static                          
                 __pa_132   0x006644    program     static L:\mandm\mandm\mandm8722.c
                 __pa_133   0x00664a    program     static L:\mandm\mandm\mandm8722.c
                 __pa_134   0x006654    program     static L:\mandm\mandm\mandm8722.c
                 __pa_135   0x006664    program     static L:\mandm\mandm\mandm8722.c
                 __pa_136   0x00666c    program     static L:\mandm\mandm\mandm8722.c
                 __pa_137   0x006670    program     static L:\mandm\mandm\mandm8722.c
             __tmplbl_121   0x006670    program     static                          
             __tmplbl_122   0x006670    program     static                          
                 __pa_138   0x00667c    program     static L:\mandm\mandm\mandm8722.c
                 __pa_139   0x00668c    program     static L:\mandm\mandm\mandm8722.c
                 __pa_140   0x0066a2    program     static L:\mandm\mandm\mandm8722.c
                 __pa_141   0x0066b8    program     static L:\mandm\mandm\mandm8722.c
                 __pa_142   0x0066ca    program     static L:\mandm\mandm\mandm8722.c
                 __pa_143   0x0066d6    program     static L:\mandm\mandm\mandm8722.c
             __tmplbl_160   0x0066d6    program     static                          
             __tmplbl_157   0x0066d6    program     static                          
             __tmplbl_154   0x0066d6    program     static                          
                 __pa_144   0x0066de    program     static L:\mandm\mandm\mandm8722.c
                 __pa_145   0x0066e6    program     static L:\mandm\mandm\mandm8722.c
                 __pa_146   0x0066ec    program     static L:\mandm\mandm\mandm8722.c
                 __pa_147   0x006706    program     static L:\mandm\mandm\mandm8722.c
                 __pa_148   0x00671a    program     static L:\mandm\mandm\mandm8722.c
                 __pa_149   0x006720    program     static L:\mandm\mandm\mandm8722.c
                 __pa_150   0x00672a    program     static L:\mandm\mandm\mandm8722.c
                 __pa_151   0x006732    program     static L:\mandm\mandm\mandm8722.c
                 __pa_152   0x00673c    program     static L:\mandm\mandm\mandm8722.c
                 __pa_153   0x00674a    program     static L:\mandm\mandm\mandm8722.c
                 __pa_154   0x00675a    program     static L:\mandm\mandm\mandm8722.c
             __tmplbl_181   0x006760    program     static                          
                 __pa_155   0x006760    program     static L:\mandm\mandm\mandm8722.c
             __tmplbl_178   0x006760    program     static                          
             __tmplbl_177   0x006760    program     static                          
                 __pa_156   0x00676a    program     static L:\mandm\mandm\mandm8722.c
                 __pa_157   0x006780    program     static L:\mandm\mandm\mandm8722.c
                 __pa_158   0x006794    program     static L:\mandm\mandm\mandm8722.c
                 __pa_159   0x0067a8    program     static L:\mandm\mandm\mandm8722.c
                 __pa_160   0x0067b0    program     static L:\mandm\mandm\mandm8722.c
                 __pa_161   0x0067ba    program     static L:\mandm\mandm\mandm8722.c
                 __pa_162   0x0067c4    program     static L:\mandm\mandm\mandm8722.c
             __tmplbl_116   0x0067cc    program     static                          
                 __pa_163   0x0067cc    program     static L:\mandm\mandm\mandm8722.c
             __tmplbl_115   0x0067cc    program     static                          
                 __pa_164   0x0067e0    program     static L:\mandm\mandm\mandm8722.c
                 __pa_165   0x0067ea    program     static L:\mandm\mandm\mandm8722.c
                 __pa_166   0x0067f6    program     static L:\mandm\mandm\mandm8722.c
                 __pa_167   0x006808    program     static L:\mandm\mandm\mandm8722.c
                 __pa_168   0x00681a    program     static L:\mandm\mandm\mandm8722.c
                 __pa_169   0x00682c    program     static L:\mandm\mandm\mandm8722.c
                 __pa_170   0x00683a    program     static L:\mandm\mandm\mandm8722.c
                 __pa_171   0x00684c    program     static L:\mandm\mandm\mandm8722.c
                 __pa_172   0x00685a    program     static L:\mandm\mandm\mandm8722.c
                 __pa_173   0x00686c    program     static L:\mandm\mandm\mandm8722.c
                 __pa_174   0x00687e    program     static L:\mandm\mandm\mandm8722.c
                 __pa_175   0x006890    program     static L:\mandm\mandm\mandm8722.c
                 __pa_176   0x0068a2    program     static L:\mandm\mandm\mandm8722.c
                 __pa_177   0x0068b4    program     static L:\mandm\mandm\mandm8722.c
                 __pa_178   0x0068c6    program     static L:\mandm\mandm\mandm8722.c
                 __pa_179   0x0068cc    program     static L:\mandm\mandm\mandm8722.c
                 __pa_180   0x0068d6    program     static L:\mandm\mandm\mandm8722.c
                 __pa_181   0x0068e2    program     static L:\mandm\mandm\mandm8722.c
                 __pa_182   0x0068ec    program     static L:\mandm\mandm\mandm8722.c
                 __pa_183   0x0068f6    program     static L:\mandm\mandm\mandm8722.c
                 __pa_184   0x006900    program     static L:\mandm\mandm\mandm8722.c
                 __pa_185   0x006906    program     static L:\mandm\mandm\mandm8722.c
                 __pa_186   0x006910    program     static L:\mandm\mandm\mandm8722.c
                 __pa_187   0x00691a    program     static L:\mandm\mandm\mandm8722.c
                 __pa_188   0x006924    program     static L:\mandm\mandm\mandm8722.c
                 __pa_189   0x006932    program     static L:\mandm\mandm\mandm8722.c
                 __pa_190   0x006938    program     static L:\mandm\mandm\mandm8722.c
                 __pa_191   0x006948    program     static L:\mandm\mandm\mandm8722.c
                 __pa_192   0x006958    program     static L:\mandm\mandm\mandm8722.c
                 __pa_193   0x006966    program     static L:\mandm\mandm\mandm8722.c
                 __pa_194   0x006972    program     static L:\mandm\mandm\mandm8722.c
                 __pa_195   0x00697c    program     static L:\mandm\mandm\mandm8722.c
                 __pa_196   0x00698a    program     static L:\mandm\mandm\mandm8722.c
                 __pa_197   0x006998    program     static L:\mandm\mandm\mandm8722.c
                 __pa_198   0x0069a0    program     static L:\mandm\mandm\mandm8722.c
                 __pa_199   0x0069aa    program     static L:\mandm\mandm\mandm8722.c
                 __pa_200   0x0069b0    program     static L:\mandm\mandm\mandm8722.c
                 __pa_201   0x0069bc    program     static L:\mandm\mandm\mandm8722.c
                 __pa_202   0x0069c8    program     static L:\mandm\mandm\mandm8722.c
                 __pa_203   0x0069d0    program     static L:\mandm\mandm\mandm8722.c
             __tmplbl_183   0x0069d0    program     static                          
                 __pa_204   0x0069dc    program     static L:\mandm\mandm\mandm8722.c
             __tmplbl_184   0x0069dc    program     static                          
                 __pa_205   0x0069e8    program     static L:\mandm\mandm\mandm8722.c
                 __pa_206   0x0069f2    program     static L:\mandm\mandm\mandm8722.c
                 __pa_207   0x0069fc    program     static L:\mandm\mandm\mandm8722.c
                 __pa_208   0x006a06    program     static L:\mandm\mandm\mandm8722.c
                 __pa_209   0x006a10    program     static L:\mandm\mandm\mandm8722.c
                 __pa_210   0x006a18    program     static L:\mandm\mandm\mandm8722.c
                 __pa_211   0x006a22    program     static L:\mandm\mandm\mandm8722.c
             __tmplbl_182   0x006a22    program     static                          
             __tmplbl_180   0x006a22    program     static                          
                 __pa_212   0x006a26    program     static L:\mandm\mandm\mandm8722.c
                 __pa_213   0x006a30    program     static L:\mandm\mandm\mandm8722.c
                 __pa_214   0x006a38    program     static L:\mandm\mandm\mandm8722.c
                 __pa_215   0x006a62    program     static L:\mandm\mandm\mandm8722.c
                 __pa_216   0x006a7c    program     static L:\mandm\mandm\mandm8722.c
                 __pa_217   0x006a88    program     static L:\mandm\mandm\mandm8722.c
                 __pa_218   0x006a8e    program     static L:\mandm\mandm\mandm8722.c
                 __pa_219   0x006a96    program     static L:\mandm\mandm\mandm8722.c
                 __pa_220   0x006ab8    program     static L:\mandm\mandm\mandm8722.c
                 __pa_221   0x006ad0    program     static L:\mandm\mandm\mandm8722.c
                 __pa_222   0x006ada    program     static L:\mandm\mandm\mandm8722.c
                 __pa_223   0x006af6    program     static L:\mandm\mandm\mandm8722.c
                 __pa_224   0x006b0e    program     static L:\mandm\mandm\mandm8722.c
                 __pa_225   0x006b2a    program     static L:\mandm\mandm\mandm8722.c
                 __pa_226   0x006b44    program     static L:\mandm\mandm\mandm8722.c
                 __pa_227   0x006b52    program     static L:\mandm\mandm\mandm8722.c
                 __pa_228   0x006b5a    program     static L:\mandm\mandm\mandm8722.c
                 __pa_229   0x006b62    program     static L:\mandm\mandm\mandm8722.c
                 __pa_230   0x006b76    program     static L:\mandm\mandm\mandm8722.c
                 __pa_231   0x006b8c    program     static L:\mandm\mandm\mandm8722.c
                 __pa_232   0x006b94    program     static L:\mandm\mandm\mandm8722.c
                 __pa_233   0x006b9a    program     static L:\mandm\mandm\mandm8722.c
                 __pa_234   0x006ba0    program     static L:\mandm\mandm\mandm8722.c
                 __pa_235   0x006bb0    program     static L:\mandm\mandm\mandm8722.c
                 __pa_236   0x006bc2    program     static L:\mandm\mandm\mandm8722.c
             __tmplbl_120   0x006bca    program     static                          
             __tmplbl_119   0x006bca    program     static                          
                 __pa_237   0x006bca    program     static L:\mandm\mandm\mandm8722.c
                 __pa_238   0x006bd8    program     static L:\mandm\mandm\mandm8722.c
                 __pa_239   0x006be6    program     static L:\mandm\mandm\mandm8722.c
                 __pa_240   0x006bf4    program     static L:\mandm\mandm\mandm8722.c
                 __pa_241   0x006c00    program     static L:\mandm\mandm\mandm8722.c
                 __pa_242   0x006c08    program     static L:\mandm\mandm\mandm8722.c
                 __pa_243   0x006c10    program     static L:\mandm\mandm\mandm8722.c
                 __pa_244   0x006c1a    program     static L:\mandm\mandm\mandm8722.c
                 __pa_245   0x006c22    program     static L:\mandm\mandm\mandm8722.c
                 __pa_246   0x006c2a    program     static L:\mandm\mandm\mandm8722.c
                 __pa_247   0x006c30    program     static L:\mandm\mandm\mandm8722.c
             __tmplbl_179   0x006c30    program     static                          
                 __pa_248   0x006c38    program     static L:\mandm\mandm\mandm8722.c
                 __pa_249   0x006c3e    program     static L:\mandm\mandm\mandm8722.c
                 __pa_250   0x006c4e    program     static L:\mandm\mandm\mandm8722.c
                 __pa_251   0x006c60    program     static L:\mandm\mandm\mandm8722.c
                 __pa_252   0x006c6a    program     static L:\mandm\mandm\mandm8722.c
                 __pa_253   0x006c72    program     static L:\mandm\mandm\mandm8722.c
                 __pa_254   0x006c78    program     static L:\mandm\mandm\mandm8722.c
                 __pa_255   0x006c80    program     static L:\mandm\mandm\mandm8722.c
                 __pa_256   0x006c88    program     static L:\mandm\mandm\mandm8722.c
                 ADC_zero   0x006c8e    program     extern L:\mandm\mandm\daq.c     
        ___while_lbl00001   0x006ca8    program     static                          
       ___return_lbl00000   0x006cb2    program     static                          
        ___while_lbl00002   0x006cb2    program     static                          
       Reset_Change_Count   0x006cb4    program     extern L:\mandm\mandm\daq.c     
             Change_Count   0x006cf4    program     extern L:\mandm\mandm\daq.c     
                 ADC_read   0x006db6    program     extern L:\mandm\mandm\daq.c     
          ___for_lbl00014   0x006dde    program     static                          
        ___while_lbl00012   0x006dee    program     static                          
        ___while_lbl00013   0x006df8    program     static                          
          ___for_lbl00010   0x006e1a    program     static                          
          ___for_lbl00011   0x006e24    program     static                          
               __tmplbl_8   0x006e50    program     static                          
          ___for_lbl00019   0x006ee8    program     static                          
        ___while_lbl00017   0x006ef8    program     static                          
        ___while_lbl00018   0x006f02    program     static                          
          ___for_lbl00015   0x006f24    program     static                          
          ___for_lbl00016   0x006f2e    program     static                          
               __tmplbl_9   0x006f5a    program     static                          
          ___for_lbl00024   0x006ff2    program     static                          
        ___while_lbl00022   0x007002    program     static                          
        ___while_lbl00023   0x00700c    program     static                          
          ___for_lbl00020   0x00702e    program     static                          
          ___for_lbl00021   0x007038    program     static                          
              __tmplbl_10   0x0070a6    program     static                          
               __tmplbl_3   0x00710e    program     static                          
           ___if_lbl00025   0x00711a    program     static                          
           ___if_lbl00026   0x007206    program     static                          
          ___for_lbl00031   0x00722c    program     static                          
        ___while_lbl00029   0x00723c    program     static                          
        ___while_lbl00030   0x007246    program     static                          
          ___for_lbl00027   0x007268    program     static                          
          ___for_lbl00028   0x007272    program     static                          
              __tmplbl_11   0x0072e0    program     static                          
               __tmplbl_4   0x007348    program     static                          
           ___if_lbl00032   0x007354    program     static                          
           ___if_lbl00033   0x00743e    program     static                          
          ___for_lbl00038   0x007464    program     static                          
        ___while_lbl00036   0x007474    program     static                          
        ___while_lbl00037   0x00747e    program     static                          
          ___for_lbl00034   0x0074a0    program     static                          
          ___for_lbl00035   0x0074aa    program     static                          
              __tmplbl_12   0x007518    program     static                          
               __tmplbl_5   0x007580    program     static                          
           ___if_lbl00039   0x00758c    program     static                          
           ___if_lbl00040   0x007676    program     static                          
          ___for_lbl00045   0x00769e    program     static                          
        ___while_lbl00043   0x0076ae    program     static                          
        ___while_lbl00044   0x0076b8    program     static                          
          ___for_lbl00041   0x0076da    program     static                          
          ___for_lbl00042   0x0076e4    program     static                          
          ___for_lbl00050   0x00772e    program     static                          
        ___while_lbl00048   0x00773e    program     static                          
        ___while_lbl00049   0x007748    program     static                          
          ___for_lbl00046   0x00776a    program     static                          
          ___for_lbl00047   0x007774    program     static                          
          ___for_lbl00055   0x0077be    program     static                          
        ___while_lbl00053   0x0077ce    program     static                          
        ___while_lbl00054   0x0077d8    program     static                          
          ___for_lbl00051   0x0077fa    program     static                          
          ___for_lbl00052   0x007804    program     static                          
          ___for_lbl00066   0x0078c4    program     static                          
              __tmplbl_13   0x007a04    program     static                          
           ___if_lbl00058   0x007ad8    program     static                          
               __tmplbl_7   0x007b24    program     static                          
               __tmplbl_6   0x007b2a    program     static                          
           ___if_lbl00060   0x007b64    program     static                          
           ___if_lbl00061   0x007bcc    program     static                          
              __tmplbl_14   0x007cbc    program     static                          
           ___if_lbl00062   0x007d38    program     static                          
              __tmplbl_15   0x007db6    program     static                          
           ___if_lbl00063   0x007e32    program     static                          
           ___if_lbl00064   0x007fde    program     static                          
           ___if_lbl00065   0x008356    program     static                          
          ___for_lbl00056   0x0084ea    program     static                          
          ___for_lbl00057   0x0084f6    program     static                          
        ___while_lbl00067   0x008530    program     static                          
           ___if_lbl00069   0x008542    program     static                          
           ___if_lbl00070   0x008542    program     static                          
        ___while_lbl00068   0x008542    program     static                          
       ___return_lbl00009   0x008548    program     static                          
              zero_amploc   0x00854a    program     extern L:\mandm\mandm\daq.c     
                   __pa_0   0x008636    program     static L:\mandm\mandm\daq.c     
                   __pa_1   0x00865e    program     static L:\mandm\mandm\daq.c     
                   __pa_2   0x008682    program     static L:\mandm\mandm\daq.c     
                   __pa_3   0x008694    program     static L:\mandm\mandm\daq.c     
                   __pa_4   0x0086b0    program     static L:\mandm\mandm\daq.c     
                   __pa_5   0x0086be    program     static L:\mandm\mandm\daq.c     
                   __pa_6   0x0086cc    program     static L:\mandm\mandm\daq.c     
               __string_3   0x0086d6    program     static L:\mandm\mandm\daq.c     
               __string_2   0x008705    program     static L:\mandm\mandm\daq.c     
               __string_1   0x008734    program     static L:\mandm\mandm\daq.c     
               __string_0   0x008763    program     static L:\mandm\mandm\daq.c     
             __string_251   0x0087a5    program     static L:\mandm\mandm\mandm8722.c
             __string_250   0x0087c3    program     static L:\mandm\mandm\mandm8722.c
             __string_249   0x0087e5    program     static L:\mandm\mandm\mandm8722.c
             __string_248   0x0087fe    program     static L:\mandm\mandm\mandm8722.c
             __string_247   0x008814    program     static L:\mandm\mandm\mandm8722.c
             __string_246   0x00882d    program     static L:\mandm\mandm\mandm8722.c
             __string_245   0x008846    program     static L:\mandm\mandm\mandm8722.c
             __string_244   0x008862    program     static L:\mandm\mandm\mandm8722.c
             __string_243   0x00887b    program     static L:\mandm\mandm\mandm8722.c
             __string_242   0x00889b    program     static L:\mandm\mandm\mandm8722.c
             __string_241   0x0088be    program     static L:\mandm\mandm\mandm8722.c
             __string_240   0x0088de    program     static L:\mandm\mandm\mandm8722.c
             __string_239   0x0088fb    program     static L:\mandm\mandm\mandm8722.c
             __string_238   0x008914    program     static L:\mandm\mandm\mandm8722.c
             __string_237   0x008933    program     static L:\mandm\mandm\mandm8722.c
             __string_236   0x00894b    program     static L:\mandm\mandm\mandm8722.c
             __string_235   0x008974    program     static L:\mandm\mandm\mandm8722.c
             __string_234   0x00899d    program     static L:\mandm\mandm\mandm8722.c
             __string_233   0x0089c7    program     static L:\mandm\mandm\mandm8722.c
             __string_232   0x0089ec    program     static L:\mandm\mandm\mandm8722.c
             __string_231   0x008a01    program     static L:\mandm\mandm\mandm8722.c
             __string_230   0x008a3f    program     static L:\mandm\mandm\mandm8722.c
             __string_229   0x008a62    program     static L:\mandm\mandm\mandm8722.c
             __string_228   0x008a97    program     static L:\mandm\mandm\mandm8722.c
             __string_227   0x008ac5    program     static L:\mandm\mandm\mandm8722.c
             __string_226   0x008ada    program     static L:\mandm\mandm\mandm8722.c
             __string_225   0x008aef    program     static L:\mandm\mandm\mandm8722.c
             __string_224   0x008b06    program     static L:\mandm\mandm\mandm8722.c
             __string_223   0x008b1c    program     static L:\mandm\mandm\mandm8722.c
             __string_222   0x008b32    program     static L:\mandm\mandm\mandm8722.c
             __string_221   0x008b48    program     static L:\mandm\mandm\mandm8722.c
             __string_220   0x008b6a    program     static L:\mandm\mandm\mandm8722.c
             __string_219   0x008b81    program     static L:\mandm\mandm\mandm8722.c
             __string_218   0x008ba9    program     static L:\mandm\mandm\mandm8722.c
             __string_217   0x008bd1    program     static L:\mandm\mandm\mandm8722.c
             __string_216   0x008bf9    program     static L:\mandm\mandm\mandm8722.c
             __string_215   0x008c21    program     static L:\mandm\mandm\mandm8722.c
             __string_214   0x008c39    program     static L:\mandm\mandm\mandm8722.c
             __string_213   0x008c5e    program     static L:\mandm\mandm\mandm8722.c
             __string_212   0x008c7b    program     static L:\mandm\mandm\mandm8722.c
             __string_211   0x008ca1    program     static L:\mandm\mandm\mandm8722.c
             __string_210   0x008cbf    program     static L:\mandm\mandm\mandm8722.c
             __string_209   0x008cdb    program     static L:\mandm\mandm\mandm8722.c
             __string_208   0x008cf2    program     static L:\mandm\mandm\mandm8722.c
             __string_207   0x008d09    program     static L:\mandm\mandm\mandm8722.c
             __string_206   0x008d29    program     static L:\mandm\mandm\mandm8722.c
             __string_205   0x008d54    program     static L:\mandm\mandm\mandm8722.c
             __string_204   0x008d6f    program     static L:\mandm\mandm\mandm8722.c
             __string_203   0x008d9c    program     static L:\mandm\mandm\mandm8722.c
             __string_202   0x008dc4    program     static L:\mandm\mandm\mandm8722.c
             __string_201   0x008de3    program     static L:\mandm\mandm\mandm8722.c
             __string_200   0x008e0e    program     static L:\mandm\mandm\mandm8722.c
             __string_199   0x008e2a    program     static L:\mandm\mandm\mandm8722.c
             __string_198   0x008e58    program     static L:\mandm\mandm\mandm8722.c
             __string_197   0x008e7c    program     static L:\mandm\mandm\mandm8722.c
             __string_196   0x008e9a    program     static L:\mandm\mandm\mandm8722.c
             __string_195   0x008eb9    program     static L:\mandm\mandm\mandm8722.c
             __string_194   0x008ed8    program     static L:\mandm\mandm\mandm8722.c
             __string_193   0x008ef7    program     static L:\mandm\mandm\mandm8722.c
             __string_192   0x008f0e    program     static L:\mandm\mandm\mandm8722.c
             __string_191   0x008f25    program     static L:\mandm\mandm\mandm8722.c
             __string_190   0x008f3c    program     static L:\mandm\mandm\mandm8722.c
             __string_189   0x008f52    program     static L:\mandm\mandm\mandm8722.c
             __string_188   0x008f68    program     static L:\mandm\mandm\mandm8722.c
             __string_187   0x008f7e    program     static L:\mandm\mandm\mandm8722.c
             __string_186   0x008fa5    program     static L:\mandm\mandm\mandm8722.c
             __string_185   0x008fcc    program     static L:\mandm\mandm\mandm8722.c
             __string_184   0x008ff3    program     static L:\mandm\mandm\mandm8722.c
             __string_183   0x009014    program     static L:\mandm\mandm\mandm8722.c
             __string_182   0x00903b    program     static L:\mandm\mandm\mandm8722.c
             __string_181   0x00905d    program     static L:\mandm\mandm\mandm8722.c
             __string_180   0x009086    program     static L:\mandm\mandm\mandm8722.c
             __string_179   0x00909b    program     static L:\mandm\mandm\mandm8722.c
             __string_178   0x0090c4    program     static L:\mandm\mandm\mandm8722.c
             __string_177   0x0090dc    program     static L:\mandm\mandm\mandm8722.c
             __string_176   0x009105    program     static L:\mandm\mandm\mandm8722.c
             __string_175   0x00912c    program     static L:\mandm\mandm\mandm8722.c
             __string_174   0x009153    program     static L:\mandm\mandm\mandm8722.c
             __string_173   0x00917a    program     static L:\mandm\mandm\mandm8722.c
             __string_172   0x0091a3    program     static L:\mandm\mandm\mandm8722.c
             __string_171   0x0091cc    program     static L:\mandm\mandm\mandm8722.c
             __string_170   0x0091f5    program     static L:\mandm\mandm\mandm8722.c
             __string_169   0x00920f    program     static L:\mandm\mandm\mandm8722.c
             __string_168   0x009236    program     static L:\mandm\mandm\mandm8722.c
             __string_167   0x009253    program     static L:\mandm\mandm\mandm8722.c
             __string_166   0x009274    program     static L:\mandm\mandm\mandm8722.c
             __string_165   0x00929d    program     static L:\mandm\mandm\mandm8722.c
             __string_164   0x0092b3    program     static L:\mandm\mandm\mandm8722.c
             __string_163   0x0092c9    program     static L:\mandm\mandm\mandm8722.c
             __string_162   0x0092df    program     static L:\mandm\mandm\mandm8722.c
             __string_161   0x0092f5    program     static L:\mandm\mandm\mandm8722.c
             __string_160   0x00931a    program     static L:\mandm\mandm\mandm8722.c
             __string_159   0x00932d    program     static L:\mandm\mandm\mandm8722.c
             __string_158   0x009344    program     static L:\mandm\mandm\mandm8722.c
             __string_157   0x00935b    program     static L:\mandm\mandm\mandm8722.c
             __string_156   0x009373    program     static L:\mandm\mandm\mandm8722.c
             __string_155   0x009382    program     static L:\mandm\mandm\mandm8722.c
             __string_154   0x00939a    program     static L:\mandm\mandm\mandm8722.c
             __string_153   0x0093b5    program     static L:\mandm\mandm\mandm8722.c
             __string_152   0x0093c4    program     static L:\mandm\mandm\mandm8722.c
             __string_151   0x0093df    program     static L:\mandm\mandm\mandm8722.c
             __string_150   0x0093f1    program     static L:\mandm\mandm\mandm8722.c
             __string_149   0x009444    program     static L:\mandm\mandm\mandm8722.c
             __string_148   0x009466    program     static L:\mandm\mandm\mandm8722.c
             __string_147   0x0094a5    program     static L:\mandm\mandm\mandm8722.c
             __string_146   0x0094f9    program     static L:\mandm\mandm\mandm8722.c
             __string_145   0x009519    program     static L:\mandm\mandm\mandm8722.c
             __string_144   0x009535    program     static L:\mandm\mandm\mandm8722.c
             __string_143   0x00958b    program     static L:\mandm\mandm\mandm8722.c
             __string_142   0x0095da    program     static L:\mandm\mandm\mandm8722.c
             __string_141   0x0095f1    program     static L:\mandm\mandm\mandm8722.c
             __string_140   0x009607    program     static L:\mandm\mandm\mandm8722.c
             __string_139   0x00963b    program     static L:\mandm\mandm\mandm8722.c
             __string_138   0x009675    program     static L:\mandm\mandm\mandm8722.c
             __string_137   0x009690    program     static L:\mandm\mandm\mandm8722.c
             __string_136   0x0096d7    program     static L:\mandm\mandm\mandm8722.c
             __string_135   0x009724    program     static L:\mandm\mandm\mandm8722.c
             __string_134   0x009747    program     static L:\mandm\mandm\mandm8722.c
             __string_133   0x00976b    program     static L:\mandm\mandm\mandm8722.c
             __string_132   0x009784    program     static L:\mandm\mandm\mandm8722.c
             __string_131   0x00979e    program     static L:\mandm\mandm\mandm8722.c
             __string_130   0x0097be    program     static L:\mandm\mandm\mandm8722.c
             __string_129   0x0097d8    program     static L:\mandm\mandm\mandm8722.c
             __string_128   0x0097f2    program     static L:\mandm\mandm\mandm8722.c
             __string_127   0x009804    program     static L:\mandm\mandm\mandm8722.c
             __string_126   0x00980e    program     static L:\mandm\mandm\mandm8722.c
             __string_125   0x00981b    program     static L:\mandm\mandm\mandm8722.c
             __string_124   0x009821    program     static L:\mandm\mandm\mandm8722.c
             __string_123   0x009829    program     static L:\mandm\mandm\mandm8722.c
             __string_122   0x009831    program     static L:\mandm\mandm\mandm8722.c
             __string_121   0x00983d    program     static L:\mandm\mandm\mandm8722.c
             __string_120   0x00984f    program     static L:\mandm\mandm\mandm8722.c
             __string_119   0x009870    program     static L:\mandm\mandm\mandm8722.c
             __string_118   0x0098e8    program     static L:\mandm\mandm\mandm8722.c
             __string_117   0x009947    program     static L:\mandm\mandm\mandm8722.c
             __string_116   0x009a06    program     static L:\mandm\mandm\mandm8722.c
             __string_115   0x009a95    program     static L:\mandm\mandm\mandm8722.c
             __string_114   0x009aab    program     static L:\mandm\mandm\mandm8722.c
             __string_113   0x009aad    program     static L:\mandm\mandm\mandm8722.c
             __string_112   0x009ab2    program     static L:\mandm\mandm\mandm8722.c
             __string_111   0x009ab5    program     static L:\mandm\mandm\mandm8722.c
             __string_110   0x009abc    program     static L:\mandm\mandm\mandm8722.c
             __string_109   0x009ad5    program     static L:\mandm\mandm\mandm8722.c
             __string_108   0x009ade    program     static L:\mandm\mandm\mandm8722.c
               __string_8   0x009aea    program     static L:\mandm\mandm\config.c  
               __string_7   0x009b0e    program     static L:\mandm\mandm\config.c  
               __string_6   0x009b32    program     static L:\mandm\mandm\config.c  
               __string_5   0x009b49    program     static L:\mandm\mandm\config.c  
               __string_4   0x009b6b    program     static L:\mandm\mandm\config.c  
               __string_3   0x009b92    program     static L:\mandm\mandm\config.c  
               __string_2   0x009bb8    program     static L:\mandm\mandm\config.c  
               __string_1   0x009bdd    program     static L:\mandm\mandm\config.c  
               __string_0   0x009bfa    program     static L:\mandm\mandm\config.c  
                     spin   0x009bfd    program     extern L:\mandm\mandm\mandm_msg.h
        menutext_template   0x009c75    program     extern L:\mandm\mandm\mandm_msg.h
                 menutext   0x009d3e    program     extern L:\mandm\mandm\mandm_msg.h
          menuselect_free   0x009e05    program     extern L:\mandm\mandm\mandm_msg.h
         menuselect_track   0x009ecb    program     extern L:\mandm\mandm\mandm_msg.h
                 lowbatt0   0x009f91    program     extern L:\mandm\mandm\mandm_msg.h
                    zero0   0x009fd4    program     extern L:\mandm\mandm\mandm_msg.h
                    zero1   0x009ffe    program     extern L:\mandm\mandm\mandm_msg.h
                    zero2   0x00a03a    program     extern L:\mandm\mandm\mandm_msg.h
                    zero3   0x00a06e    program     extern L:\mandm\mandm\mandm_msg.h
                    adcg0   0x00a0a8    program     extern L:\mandm\mandm\mandm_msg.h
                    adcg1   0x00a0e8    program     extern L:\mandm\mandm\mandm_msg.h
                    adcg2   0x00a113    program     extern L:\mandm\mandm\mandm_msg.h
                    adcg3   0x00a146    program     extern L:\mandm\mandm\mandm_msg.h
                    adcg4   0x00a1b2    program     extern L:\mandm\mandm\mandm_msg.h
                   tweak0   0x00a1e9    program     extern L:\mandm\mandm\mandm_msg.h
                   tweak1   0x00a286    program     extern L:\mandm\mandm\mandm_msg.h
                   tweak2   0x00a2af    program     extern L:\mandm\mandm\mandm_msg.h
                   tweak3   0x00a2d3    program     extern L:\mandm\mandm\mandm_msg.h
                   tweak4   0x00a352    program     extern L:\mandm\mandm\mandm_msg.h
                   tweak5   0x00a382    program     extern L:\mandm\mandm\mandm_msg.h
                 tweak_t1   0x00a408    program     extern L:\mandm\mandm\mandm_msg.h
                 tweak_t2   0x00a40d    program     extern L:\mandm\mandm\mandm_msg.h
                 tweak_t3   0x00a411    program     extern L:\mandm\mandm\mandm_msg.h
                 tweak_t4   0x00a415    program     extern L:\mandm\mandm\mandm_msg.h
                 tweak_tw   0x00a41a    program     extern L:\mandm\mandm\mandm_msg.h
                   hello0   0x00a42a    program     extern L:\mandm\mandm\mandm_msg.h
                   hello1   0x00a477    program     extern L:\mandm\mandm\mandm_msg.h
                    hold0   0x00a484    program     extern L:\mandm\mandm\mandm_msg.h
                    hold1   0x00a4e2    program     extern L:\mandm\mandm\mandm_msg.h
                    sync0   0x00a51b    program     extern L:\mandm\mandm\mandm_msg.h
                    sync1   0x00a54f    program     extern L:\mandm\mandm\mandm_msg.h
                    sync2   0x00a56d    program     extern L:\mandm\mandm\mandm_msg.h
                 keycmds0   0x00a58b    program     extern L:\mandm\mandm\mandm_msg.h
                 keycmds1   0x00a5d5    program     extern L:\mandm\mandm\mandm_msg.h
              battheader0   0x00a61f    program     extern L:\mandm\mandm\mandm_msg.h
              battheader1   0x00a693    program     extern L:\mandm\mandm\mandm_msg.h
             modelheader0   0x00a71d    program     extern L:\mandm\mandm\mandm_msg.h
             modelheader1   0x00a73c    program     extern L:\mandm\mandm\mandm_msg.h
              battbuffer0   0x00a754    program     extern L:\mandm\mandm\mandm_msg.h
                  sddump0   0x00a77c    program     extern L:\mandm\mandm\mandm_msg.h
                  sddump1   0x00a7aa    program     extern L:\mandm\mandm\mandm_msg.h
                  sddump2   0x00a7e0    program     extern L:\mandm\mandm\mandm_msg.h
                  sddump3   0x00a7f7    program     extern L:\mandm\mandm\mandm_msg.h
                  divert0   0x00a824    program     extern L:\mandm\mandm\mandm_msg.h
                  divert1   0x00a844    program     extern L:\mandm\mandm\mandm_msg.h
                 divert99   0x00a865    program     extern L:\mandm\mandm\mandm_msg.h
                 almcode0   0x00a866    program     extern L:\mandm\mandm\mandm_msg.h
                 almcode1   0x00a886    program     extern L:\mandm\mandm\mandm_msg.h
                 almcode2   0x00a8b6    program     extern L:\mandm\mandm\mandm_msg.h
                 almcode3   0x00a8d9    program     extern L:\mandm\mandm\mandm_msg.h
                 almcode4   0x00a8fc    program     extern L:\mandm\mandm\mandm_msg.h
                 almcode5   0x00a92d    program     extern L:\mandm\mandm\mandm_msg.h
                 almcode6   0x00a961    program     extern L:\mandm\mandm\mandm_msg.h
                 almcode7   0x00a996    program     extern L:\mandm\mandm\mandm_msg.h
                 almcode8   0x00a9cf    program     extern L:\mandm\mandm\mandm_msg.h
                 almcode9   0x00a9fd    program     extern L:\mandm\mandm\mandm_msg.h
                almcode10   0x00aa2d    program     extern L:\mandm\mandm\mandm_msg.h
                almcode11   0x00aa6e    program     extern L:\mandm\mandm\mandm_msg.h
                almcode12   0x00aa94    program     extern L:\mandm\mandm\mandm_msg.h
                almcode13   0x00aaba    program     extern L:\mandm\mandm\mandm_msg.h
                almcode14   0x00aae6    program     extern L:\mandm\mandm\mandm_msg.h
                almcode15   0x00aafe    program     extern L:\mandm\mandm\mandm_msg.h
                almcode16   0x00ab15    program     extern L:\mandm\mandm\mandm_msg.h
                almcode17   0x00ab42    program     extern L:\mandm\mandm\mandm_msg.h
                almcode99   0x00ab61    program     extern L:\mandm\mandm\mandm_msg.h
                chrgcode0   0x00ab62    program     extern L:\mandm\mandm\mandm_msg.h
                chrgcode1   0x00ab93    program     extern L:\mandm\mandm\mandm_msg.h
                chrgcode2   0x00abc9    program     extern L:\mandm\mandm\mandm_msg.h
                chrgcode3   0x00abf5    program     extern L:\mandm\mandm\mandm_msg.h
                chrgcode4   0x00ac26    program     extern L:\mandm\mandm\mandm_msg.h
                chrgcode5   0x00ac5e    program     extern L:\mandm\mandm\mandm_msg.h
                chrgcode6   0x00ac71    program     extern L:\mandm\mandm\mandm_msg.h
                chrgcode7   0x00ac91    program     extern L:\mandm\mandm\mandm_msg.h
                chrgcode8   0x00acbe    program     extern L:\mandm\mandm\mandm_msg.h
                chrgcode9   0x00ace8    program     extern L:\mandm\mandm\mandm_msg.h
               chrgcode10   0x00ad0d    program     extern L:\mandm\mandm\mandm_msg.h
               chrgcode11   0x00ad3a    program     extern L:\mandm\mandm\mandm_msg.h
               chrgcode12   0x00ad65    program     extern L:\mandm\mandm\mandm_msg.h
               chrgcode13   0x00ad93    program     extern L:\mandm\mandm\mandm_msg.h
               chrgcode14   0x00adc0    program     extern L:\mandm\mandm\mandm_msg.h
               chrgcode15   0x00adf4    program     extern L:\mandm\mandm\mandm_msg.h
               chrgcode16   0x00ae1e    program     extern L:\mandm\mandm\mandm_msg.h
                 charger0   0x00ae48    program     extern L:\mandm\mandm\mandm_msg.h
                 charger1   0x00ae7f    program     extern L:\mandm\mandm\mandm_msg.h
                 charger2   0x00aeb9    program     extern L:\mandm\mandm\mandm_msg.h
                 charger3   0x00aef7    program     extern L:\mandm\mandm\mandm_msg.h
                 charger4   0x00af16    program     extern L:\mandm\mandm\mandm_msg.h
                charger99   0x00af36    program     extern L:\mandm\mandm\mandm_msg.h
             tick_handler   0x00af38    program     extern L:\mandm\mandm\mandm_vector.c
           ___if_lbl00001   0x00af98    program     static                          
         ___else_lbl00003   0x00afc6    program     static                          
           ___if_lbl00002   0x00afd6    program     static                          
           ___if_lbl00004   0x00afe0    program     static                          
           ___if_lbl00005   0x00afea    program     static                          
           ___if_lbl00006   0x00aff4    program     static                          
           ___if_lbl00007   0x00aff4    program     static                          
         ___else_lbl00009   0x00b082    program     static                          
           ___if_lbl00008   0x00b09e    program     static                          
         ___else_lbl00011   0x00b0a0    program     static                          
           ___if_lbl00010   0x00b0ae    program     static                          
           ___if_lbl00012   0x00b0ae    program     static                          
         ___else_lbl00014   0x00b110    program     static                          
           ___if_lbl00013   0x00b12c    program     static                          
         ___else_lbl00016   0x00b12e    program     static                          
           ___if_lbl00015   0x00b13c    program     static                          
           ___if_lbl00017   0x00b13c    program     static                          
           ___if_lbl00018   0x00b140    program     static                          
               __tmplbl_1   0x00b146    program     static                          
               __tmplbl_0   0x00b14c    program     static                          
           ___if_lbl00020   0x00b14e    program     static                          
           ___if_lbl00021   0x00b162    program     static                          
               __tmplbl_3   0x00b168    program     static                          
               __tmplbl_2   0x00b16e    program     static                          
           ___if_lbl00023   0x00b17c    program     static                          
           ___if_lbl00024   0x00b1aa    program     static                          
               __tmplbl_4   0x00b1dc    program     static                          
           ___if_lbl00025   0x00b1de    program     static                          
         ___else_lbl00027   0x00b1ea    program     static                          
           ___if_lbl00026   0x00b1f2    program     static                          
           ___if_lbl00028   0x00b21e    program     static                          
       ___case_0_lbl00030   0x00b230    program     static                          
       ___case_1_lbl00031   0x00b236    program     static                          
       ___case_2_lbl00032   0x00b23e    program     static                          
      ___default_lbl00033   0x00b246    program     static                          
   ___switchexit_lbl00029   0x00b24c    program     static                          
           ___if_lbl00035   0x00b24c    program     static                          
           ___if_lbl00034   0x00b24c    program     static                          
           ___if_lbl00036   0x00b252    program     static                          
           ___if_lbl00037   0x00b258    program     static                          
           ___if_lbl00038   0x00b25e    program     static                          
           ___if_lbl00039   0x00b264    program     static                          
           ___if_lbl00040   0x00b264    program     static                          
           ___if_lbl00041   0x00b284    program     static                          
           ___if_lbl00042   0x00b288    program     static                          
           ___if_lbl00043   0x00b2a0    program     static                          
           ___if_lbl00044   0x00b2b6    program     static                          
           ___if_lbl00045   0x00b2c4    program     static                          
           ___if_lbl00046   0x00b2d2    program     static                          
           ___if_lbl00047   0x00b2e0    program     static                          
           ___if_lbl00048   0x00b2ee    program     static                          
           ___if_lbl00049   0x00b2fc    program     static                          
               __tmplbl_6   0x00b304    program     static                          
               __tmplbl_5   0x00b30c    program     static                          
           ___if_lbl00051   0x00b312    program     static                          
               __tmplbl_8   0x00b31a    program     static                          
               __tmplbl_7   0x00b322    program     static                          
           ___if_lbl00053   0x00b328    program     static                          
              __tmplbl_10   0x00b330    program     static                          
               __tmplbl_9   0x00b338    program     static                          
           ___if_lbl00055   0x00b33c    program     static                          
        ___while_lbl00056   0x00b344    program     static                          
        ___while_lbl00057   0x00b346    program     static                          
           ___if_lbl00058   0x00b346    program     static                          
              __tmplbl_12   0x00b34e    program     static                          
              __tmplbl_11   0x00b354    program     static                          
           ___if_lbl00060   0x00b358    program     static                          
           ___if_lbl00061   0x00b358    program     static                          
              __tmplbl_14   0x00b370    program     static                          
              __tmplbl_13   0x00b376    program     static                          
           ___if_lbl00063   0x00b37c    program     static                          
           ___if_lbl00064   0x00b380    program     static                          
              __tmplbl_16   0x00b398    program     static                          
              __tmplbl_15   0x00b39e    program     static                          
           ___if_lbl00066   0x00b3a4    program     static                          
           ___if_lbl00067   0x00b3a8    program     static                          
              __tmplbl_18   0x00b3c0    program     static                          
              __tmplbl_17   0x00b3c6    program     static                          
           ___if_lbl00069   0x00b3e2    program     static                          
         ___else_lbl00071   0x00b3e4    program     static                          
           ___if_lbl00070   0x00b3ec    program     static                          
           ___if_lbl00072   0x00b40a    program     static                          
           ___if_lbl00073   0x00b40a    program     static                          
           ___if_lbl00074   0x00b40e    program     static                          
              __tmplbl_20   0x00b414    program     static                          
              __tmplbl_19   0x00b41a    program     static                          
           ___if_lbl00076   0x00b42c    program     static                          
              __tmplbl_21   0x00b470    program     static                          
              __tmplbl_22   0x00b49a    program     static                          
           ___if_lbl00077   0x00b4ae    program     static                          
           ___if_lbl00078   0x00b4ae    program     static                          
           ___if_lbl00079   0x00b4ae    program     static                          
              __tmplbl_26   0x00b4d6    program     static                          
              __tmplbl_25   0x00b4d8    program     static                          
              __tmplbl_27   0x00b4f4    program     static                          
              __tmplbl_24   0x00b4f6    program     static                          
              __tmplbl_28   0x00b512    program     static                          
              __tmplbl_23   0x00b514    program     static                          
           ___if_lbl00082   0x00b52a    program     static                          
         ___else_lbl00084   0x00b534    program     static                          
           ___if_lbl00083   0x00b538    program     static                          
         ___else_lbl00086   0x00b542    program     static                          
           ___if_lbl00085   0x00b546    program     static                          
         ___else_lbl00088   0x00b550    program     static                          
           ___if_lbl00087   0x00b554    program     static                          
         ___else_lbl00090   0x00b588    program     static                          
           ___if_lbl00089   0x00b5b8    program     static                          
         ___else_lbl00092   0x00b5ee    program     static                          
           ___if_lbl00091   0x00b620    program     static                          
         ___else_lbl00098   0x00b656    program     static                          
              __tmplbl_29   0x00b69e    program     static                          
              __tmplbl_30   0x00b6fa    program     static                          
           ___if_lbl00093   0x00b708    program     static                          
              __tmplbl_31   0x00b722    program     static                          
           ___if_lbl00094   0x00b730    program     static                          
           ___if_lbl00095   0x00b760    program     static                          
              __tmplbl_32   0x00b7ac    program     static                          
           ___if_lbl00096   0x00b7b4    program     static                          
           ___if_lbl00097   0x00b7b6    program     static                          
           ___if_lbl00099   0x00b816    program     static                          
           ___if_lbl00100   0x00b87e    program     static                          
           ___if_lbl00101   0x00b8de    program     static                          
           ___if_lbl00102   0x00b948    program     static                          
         ___else_lbl00104   0x00b9d8    program     static                          
           ___if_lbl00103   0x00ba2e    program     static                          
              __tmplbl_34   0x00ba74    program     static                          
              __tmplbl_33   0x00bab0    program     static                          
           ___if_lbl00106   0x00bad8    program     static                          
         ___else_lbl00108   0x00bada    program     static                          
           ___if_lbl00107   0x00bafa    program     static                          
              __tmplbl_38   0x00bb0c    program     static                          
              __tmplbl_37   0x00bb12    program     static                          
              __tmplbl_36   0x00bb18    program     static                          
              __tmplbl_35   0x00bb3a    program     static                          
         ___else_lbl00116   0x00bb3e    program     static                          
         ___else_lbl00114   0x00bb64    program     static                          
           ___if_lbl00112   0x00bb88    program     static                          
           ___if_lbl00113   0x00bb88    program     static                          
           ___if_lbl00115   0x00bb88    program     static                          
           ___if_lbl00118   0x00bb88    program     static                          
           ___if_lbl00117   0x00bb88    program     static                          
              __tmplbl_39   0x00bbc2    program     static                          
           ___if_lbl00120   0x00bbda    program     static                          
           ___if_lbl00119   0x00bbda    program     static                          
           ___if_lbl00121   0x00bbf6    program     static                          
           ___if_lbl00122   0x00bc04    program     static                          
              __tmplbl_41   0x00bc0a    program     static                          
              __tmplbl_40   0x00bc10    program     static                          
       ___return_lbl00000   0x00bc20    program     static                          
           ___if_lbl00124   0x00bc20    program     static                          
           ___if_lbl00125   0x00bc20    program     static                          
             work_handler   0x00bc5c    program     extern L:\mandm\mandm\mandm_vector.c
                idle_loop   0x00bc7e    program     extern L:\mandm\mandm\mandm_vector.c
       ___return_lbl00127   0x00bc8a    program     static                          
                   P1wait   0x00bc8c    program     extern L:\mandm\mandm\mandm_vector.c
                   P2wait   0x00bc92    program     extern L:\mandm\mandm\mandm_vector.c
        Clear_All_Buttons   0x00bc98    program     extern L:\mandm\mandm\mandm_vector.c
             buzzer_ticks   0x00bcac    program     extern L:\mandm\mandm\mandm_vector.c
             voice1_ticks   0x00bcb8    program     extern L:\mandm\mandm\mandm_vector.c
             voice2_ticks   0x00bcc6    program     extern L:\mandm\mandm\mandm_vector.c
         slow_timer_start   0x00bcd4    program     extern L:\mandm\mandm\mandm_vector.c
                   __pa_0   0x00bce2    program     static L:\mandm\mandm\mandm_vector.c
                   __pa_1   0x00bcec    program     static L:\mandm\mandm\mandm_vector.c
            s_put_n_chars   0x00bcf4    program     static C:\MCC18\v3_39\src\traditional\stdclib\vfprintf.c
                 vfprintf   0x00bd20    program     extern C:\MCC18\v3_39\src\traditional\stdclib\vfprintf.c
              __tmplbl_85   0x00bd4a    program     static                          
              __tmplbl_44   0x00c5f8    program     static                          
              __tmplbl_43   0x00c612    program     static                          
                   __pa_0   0x00c634    program     static C:\MCC18\v3_39\src\traditional\stdclib\vfprintf.c
                   __pa_1   0x00c63c    program     static C:\MCC18\v3_39\src\traditional\stdclib\vfprintf.c
                   __pa_2   0x00c646    program     static C:\MCC18\v3_39\src\traditional\stdclib\vfprintf.c
                   __pa_3   0x00c650    program     static C:\MCC18\v3_39\src\traditional\stdclib\vfprintf.c
                   __pa_4   0x00c668    program     static C:\MCC18\v3_39\src\traditional\stdclib\vfprintf.c
                   __pa_5   0x00c67c    program     static C:\MCC18\v3_39\src\traditional\stdclib\vfprintf.c
                   __pa_6   0x00c698    program     static C:\MCC18\v3_39\src\traditional\stdclib\vfprintf.c
                   __pa_7   0x00c6a2    program     static C:\MCC18\v3_39\src\traditional\stdclib\vfprintf.c
                   __pa_8   0x00c6ae    program     static C:\MCC18\v3_39\src\traditional\stdclib\vfprintf.c
                   __pa_9   0x00c6d0    program     static C:\MCC18\v3_39\src\traditional\stdclib\vfprintf.c
                  __pa_10   0x00c6f0    program     static C:\MCC18\v3_39\src\traditional\stdclib\vfprintf.c
                  __pa_11   0x00c6fe    program     static C:\MCC18\v3_39\src\traditional\stdclib\vfprintf.c
                  __pa_12   0x00c714    program     static C:\MCC18\v3_39\src\traditional\stdclib\vfprintf.c
                  __pa_13   0x00c72e    program     static C:\MCC18\v3_39\src\traditional\stdclib\vfprintf.c
                  __pa_14   0x00c746    program     static C:\MCC18\v3_39\src\traditional\stdclib\vfprintf.c
                  __pa_15   0x00c756    program     static C:\MCC18\v3_39\src\traditional\stdclib\vfprintf.c
                  __pa_16   0x00c76c    program     static C:\MCC18\v3_39\src\traditional\stdclib\vfprintf.c
                  __pa_17   0x00c77e    program     static C:\MCC18\v3_39\src\traditional\stdclib\vfprintf.c
                  __pa_18   0x00c790    program     static C:\MCC18\v3_39\src\traditional\stdclib\vfprintf.c
                  __pa_19   0x00c79a    program     static C:\MCC18\v3_39\src\traditional\stdclib\vfprintf.c
                  __pa_20   0x00c7aa    program     static C:\MCC18\v3_39\src\traditional\stdclib\vfprintf.c
                  __pa_21   0x00c7ba    program     static C:\MCC18\v3_39\src\traditional\stdclib\vfprintf.c
              __tmplbl_42   0x00c7ca    program     static                          
                  __pa_22   0x00c7ca    program     static C:\MCC18\v3_39\src\traditional\stdclib\vfprintf.c
                  __pa_23   0x00c7d6    program     static C:\MCC18\v3_39\src\traditional\stdclib\vfprintf.c
                  __pa_24   0x00c7e4    program     static C:\MCC18\v3_39\src\traditional\stdclib\vfprintf.c
                  __pa_25   0x00c7ec    program     static C:\MCC18\v3_39\src\traditional\stdclib\vfprintf.c
                  __pa_26   0x00c7f6    program     static C:\MCC18\v3_39\src\traditional\stdclib\vfprintf.c
                  __pa_27   0x00c800    program     static C:\MCC18\v3_39\src\traditional\stdclib\vfprintf.c
                  __pa_28   0x00c808    program     static C:\MCC18\v3_39\src\traditional\stdclib\vfprintf.c
                  __pa_29   0x00c816    program     static C:\MCC18\v3_39\src\traditional\stdclib\vfprintf.c
                  __pa_30   0x00c832    program     static C:\MCC18\v3_39\src\traditional\stdclib\vfprintf.c
                  __pa_31   0x00c84c    program     static C:\MCC18\v3_39\src\traditional\stdclib\vfprintf.c
                  __pa_32   0x00c866    program     static C:\MCC18\v3_39\src\traditional\stdclib\vfprintf.c
                  __pa_33   0x00c87e    program     static C:\MCC18\v3_39\src\traditional\stdclib\vfprintf.c
                  __pa_34   0x00c888    program     static C:\MCC18\v3_39\src\traditional\stdclib\vfprintf.c
                  __pa_35   0x00c896    program     static C:\MCC18\v3_39\src\traditional\stdclib\vfprintf.c
                  __pa_36   0x00c89e    program     static C:\MCC18\v3_39\src\traditional\stdclib\vfprintf.c
                  __pa_37   0x00c8a8    program     static C:\MCC18\v3_39\src\traditional\stdclib\vfprintf.c
                  __pa_38   0x00c8b8    program     static C:\MCC18\v3_39\src\traditional\stdclib\vfprintf.c
                  __pa_39   0x00c8c6    program     static C:\MCC18\v3_39\src\traditional\stdclib\vfprintf.c
                  __pa_40   0x00c8d2    program     static C:\MCC18\v3_39\src\traditional\stdclib\vfprintf.c
                  __pa_41   0x00c8de    program     static C:\MCC18\v3_39\src\traditional\stdclib\vfprintf.c
                  __pa_42   0x00c8e6    program     static C:\MCC18\v3_39\src\traditional\stdclib\vfprintf.c
                  __pa_43   0x00c8f0    program     static C:\MCC18\v3_39\src\traditional\stdclib\vfprintf.c
                  __pa_44   0x00c8f6    program     static C:\MCC18\v3_39\src\traditional\stdclib\vfprintf.c
                  __pa_45   0x00c900    program     static C:\MCC18\v3_39\src\traditional\stdclib\vfprintf.c
                  __pa_46   0x00c90c    program     static C:\MCC18\v3_39\src\traditional\stdclib\vfprintf.c
                 FLO1632U   0x00c916    program     extern C:\MCC18\v3_39\src\traditional\math\cast16FP.asm
                 FLO1632S   0x00c91a    program     extern C:\MCC18\v3_39\src\traditional\math\cast16FP.asm
                jI2F16Beg   0x00c92a    program     static C:\MCC18\v3_39\src\traditional\math\cast16FP.asm
                 FLO3232U   0x00c940    program     extern C:\MCC18\v3_39\src\traditional\math\cast32FP.asm
                 FLO3232S   0x00c944    program     extern C:\MCC18\v3_39\src\traditional\math\cast32FP.asm
                jI2F32Beg   0x00c95c    program     static C:\MCC18\v3_39\src\traditional\math\cast32FP.asm
                    FPS32   0x00c976    program     extern C:\MCC18\v3_39\src\traditional\math\addFP.asm
                    FPA32   0x00c978    program     extern C:\MCC18\v3_39\src\traditional\math\addFP.asm
                jBANotInf   0x00c996    program     static C:\MCC18\v3_39\src\traditional\math\addFP.asm
                 jANotInf   0x00c9a0    program     static C:\MCC18\v3_39\src\traditional\math\addFP.asm
                 jBNotInf   0x00c9ae    program     static C:\MCC18\v3_39\src\traditional\math\addFP.asm
            jDifOrPosSign   0x00c9c2    program     static C:\MCC18\v3_39\src\traditional\math\addFP.asm
             jNotBothZero   0x00c9c6    program     static C:\MCC18\v3_39\src\traditional\math\addFP.asm
                 jAltBexp   0x00c9f2    program     static C:\MCC18\v3_39\src\traditional\math\addFP.asm
              jAandWsetup   0x00ca04    program     static C:\MCC18\v3_39\src\traditional\math\addFP.asm
                 jANotNeg   0x00ca34    program     static C:\MCC18\v3_39\src\traditional\math\addFP.asm
                 jWNotNeg   0x00ca48    program     static C:\MCC18\v3_39\src\traditional\math\addFP.asm
               jShiftLoop   0x00ca4e    program     static C:\MCC18\v3_39\src\traditional\math\addFP.asm
               jShiftDone   0x00ca5c    program     static C:\MCC18\v3_39\src\traditional\math\addFP.asm
                jSignDone   0x00ca8c    program     static C:\MCC18\v3_39\src\traditional\math\addFP.asm
               jFinalSign   0x00ca9c    program     static C:\MCC18\v3_39\src\traditional\math\addFP.asm
                    FPD32   0x00caa4    program     extern C:\MCC18\v3_39\src\traditional\math\divFP.asm
                 jANotInf   0x00cac2    program     static C:\MCC18\v3_39\src\traditional\math\divFP.asm
              jSignedZero   0x00cacc    program     static C:\MCC18\v3_39\src\traditional\math\divFP.asm
                jANotZero   0x00cad6    program     static C:\MCC18\v3_39\src\traditional\math\divFP.asm
                    jLoop   0x00cafe    program     static C:\MCC18\v3_39\src\traditional\math\divFP.asm
                jNoAdjust   0x00cb22    program     static C:\MCC18\v3_39\src\traditional\math\divFP.asm
                    jNext   0x00cb24    program     static C:\MCC18\v3_39\src\traditional\math\divFP.asm
                    FPM32   0x00cb4a    program     extern C:\MCC18\v3_39\src\traditional\math\mulFP.asm
                 jANotInf   0x00cb68    program     static C:\MCC18\v3_39\src\traditional\math\mulFP.asm
              jBothFinite   0x00cb76    program     static C:\MCC18\v3_39\src\traditional\math\mulFP.asm
                jHaveZero   0x00cb7e    program     static C:\MCC18\v3_39\src\traditional\math\mulFP.asm
             jBothNotZero   0x00cb82    program     static C:\MCC18\v3_39\src\traditional\math\mulFP.asm
                 FXD1616S   0x00cc24    program     extern C:\MCC18\v3_39\src\traditional\math\fxd1616s.asm
                  DA1616S   0x00cc36    program     static C:\MCC18\v3_39\src\traditional\math\fxd1616s.asm
                   D1616S   0x00cc46    program     static C:\MCC18\v3_39\src\traditional\math\fxd1616s.asm
                 D1616SOK   0x00cc50    program     static C:\MCC18\v3_39\src\traditional\math\fxd1616s.asm
                D1616SNEG   0x00cc54    program     static C:\MCC18\v3_39\src\traditional\math\fxd1616s.asm
                  D1616SX   0x00cc66    program     static C:\MCC18\v3_39\src\traditional\math\fxd1616s.asm
                 FXD3232S   0x00cc70    program     extern C:\MCC18\v3_39\src\traditional\math\fxd3232s.asm
                  DA3232S   0x00cc8a    program     static C:\MCC18\v3_39\src\traditional\math\fxd3232s.asm
                   D3232S   0x00cca0    program     static C:\MCC18\v3_39\src\traditional\math\fxd3232s.asm
                 D3232SOK   0x00ccaa    program     static C:\MCC18\v3_39\src\traditional\math\fxd3232s.asm
                D3232SNEG   0x00ccae    program     static C:\MCC18\v3_39\src\traditional\math\fxd3232s.asm
                  D3232SX   0x00ccce    program     static C:\MCC18\v3_39\src\traditional\math\fxd3232s.asm
                 FXM2424U   0x00ccd8    program     extern C:\MCC18\v3_39\src\traditional\math\fxm2424u.asm
                  INT3216   0x00cd6a    program     extern C:\MCC18\v3_39\src\traditional\math\castFP16.asm
                     jMax   0x00cd7a    program     static C:\MCC18\v3_39\src\traditional\math\castFP16.asm
                  jMaxPos   0x00cd7e    program     static C:\MCC18\v3_39\src\traditional\math\castFP16.asm
                  jMaxNeg   0x00cd88    program     static C:\MCC18\v3_39\src\traditional\math\castFP16.asm
                    jZero   0x00cd90    program     static C:\MCC18\v3_39\src\traditional\math\castFP16.asm
                  jNotInf   0x00cd96    program     static C:\MCC18\v3_39\src\traditional\math\castFP16.asm
                    jLoop   0x00cda6    program     static C:\MCC18\v3_39\src\traditional\math\castFP16.asm
                jLoopExit   0x00cdb6    program     static C:\MCC18\v3_39\src\traditional\math\castFP16.asm
                    jExit   0x00cdc6    program     static C:\MCC18\v3_39\src\traditional\math\castFP16.asm
                  INT3232   0x00cdc8    program     extern C:\MCC18\v3_39\src\traditional\math\castFP32.asm
                     jMax   0x00cdd8    program     static C:\MCC18\v3_39\src\traditional\math\castFP32.asm
                  jMaxPos   0x00cddc    program     static C:\MCC18\v3_39\src\traditional\math\castFP32.asm
                   jWr123   0x00cde2    program     static C:\MCC18\v3_39\src\traditional\math\castFP32.asm
                  jMaxNeg   0x00cdea    program     static C:\MCC18\v3_39\src\traditional\math\castFP32.asm
                    jZero   0x00cdf0    program     static C:\MCC18\v3_39\src\traditional\math\castFP32.asm
                  jWrZ123   0x00cdf2    program     static C:\MCC18\v3_39\src\traditional\math\castFP32.asm
                  jNotInf   0x00cdf6    program     static C:\MCC18\v3_39\src\traditional\math\castFP32.asm
                    jLoop   0x00ce08    program     static C:\MCC18\v3_39\src\traditional\math\castFP32.asm
                jLoopExit   0x00ce1c    program     static C:\MCC18\v3_39\src\traditional\math\castFP32.asm
                    jExit   0x00ce34    program     static C:\MCC18\v3_39\src\traditional\math\castFP32.asm
            __FpReturnNaN   0x00ce36    program     extern C:\MCC18\v3_39\src\traditional\math\packFP.asm
                 __FpExit   0x00ce42    program     extern C:\MCC18\v3_39\src\traditional\math\packFP.asm
        __FpReturnSignInf   0x00ce44    program     extern C:\MCC18\v3_39\src\traditional\math\packFP.asm
         __FpReturnNegInf   0x00ce48    program     extern C:\MCC18\v3_39\src\traditional\math\packFP.asm
         __FpReturnPosInf   0x00ce4e    program     extern C:\MCC18\v3_39\src\traditional\math\packFP.asm
           jReturnPosInf0   0x00ce52    program     static C:\MCC18\v3_39\src\traditional\math\packFP.asm
               jZero1and2   0x00ce56    program     static C:\MCC18\v3_39\src\traditional\math\packFP.asm
       __FpReturnSignZero   0x00ce5c    program     extern C:\MCC18\v3_39\src\traditional\math\packFP.asm
        __FpReturnNegZero   0x00ce60    program     extern C:\MCC18\v3_39\src\traditional\math\packFP.asm
        __FpReturnPosZero   0x00ce68    program     extern C:\MCC18\v3_39\src\traditional\math\packFP.asm
                 __FpPack   0x00ce6e    program     extern C:\MCC18\v3_39\src\traditional\math\packFP.asm
                  jPkLoop   0x00ce7c    program     static C:\MCC18\v3_39\src\traditional\math\packFP.asm
             jPkShiftDone   0x00ce98    program     static C:\MCC18\v3_39\src\traditional\math\packFP.asm
               jPkRoundIt   0x00ceae    program     static C:\MCC18\v3_39\src\traditional\math\packFP.asm
              __FpReturnW   0x00cec6    program     extern C:\MCC18\v3_39\src\traditional\math\packFP.asm
             jPkRoundDone   0x00cec6    program     static C:\MCC18\v3_39\src\traditional\math\packFP.asm
              __FpUnPackA   0x00cee6    program     extern C:\MCC18\v3_39\src\traditional\math\UnpackFP.asm
                  jUnpkA1   0x00cef0    program     static C:\MCC18\v3_39\src\traditional\math\UnpackFP.asm
                 jUnpkANZ   0x00cefe    program     static C:\MCC18\v3_39\src\traditional\math\UnpackFP.asm
                  jUnpkA2   0x00cf08    program     static C:\MCC18\v3_39\src\traditional\math\UnpackFP.asm
                 jUnpkNaN   0x00cf12    program     static C:\MCC18\v3_39\src\traditional\math\UnpackFP.asm
              __FpUnPackB   0x00cf16    program     extern C:\MCC18\v3_39\src\traditional\math\UnpackFP.asm
                  jUnpkB1   0x00cf20    program     static C:\MCC18\v3_39\src\traditional\math\UnpackFP.asm
                 jUnpkBNZ   0x00cf2e    program     static C:\MCC18\v3_39\src\traditional\math\UnpackFP.asm
                  jUnpkB2   0x00cf38    program     static C:\MCC18\v3_39\src\traditional\math\UnpackFP.asm
                 FXM1616U   0x00cf42    program     extern C:\MCC18\v3_39\src\traditional\math\fxm1616u.asm
                 FXM1616S   0x00cf7e    program     extern C:\MCC18\v3_39\src\traditional\math\fxm1616s.asm
               TSIGN1616A   0x00cfca    program     static C:\MCC18\v3_39\src\traditional\math\fxm1616s.asm
            my_struct_cmp   0x00cfd8    program     extern L:\mandm\mandm\power.c   
            motor_control   0x00d00c    program     extern L:\mandm\mandm\power.c   
             emotor_power   0x00d238    program     extern L:\mandm\mandm\power.c   
            emotor_relays   0x00d282    program     extern L:\mandm\mandm\power.c   
        emotor_slow_start   0x00d286    program     extern L:\mandm\mandm\power.c   
         emotor_slow_stop   0x00d29e    program     extern L:\mandm\mandm\power.c   
                emotor_cw   0x00d2a2    program     extern L:\mandm\mandm\power.c   
        emotor_is_all_off   0x00d2ca    program     extern L:\mandm\mandm\power.c   
        emotor_switch_ccw   0x00d2d4    program     extern L:\mandm\mandm\power.c   
         emotor_switch_cw   0x00d2e2    program     extern L:\mandm\mandm\power.c   
         emotor_power_off   0x00d2e8    program     extern L:\mandm\mandm\power.c   
          emotor_power_on   0x00d2ee    program     extern L:\mandm\mandm\power.c   
               emotor_v24   0x00d2f4    program     extern L:\mandm\mandm\power.c   
                relay_v24   0x00d312    program     extern L:\mandm\mandm\power.c   
                blink_led   0x00d318    program     extern L:\mandm\mandm\power.c   
          is_led_blinking   0x00d3be    program     extern L:\mandm\mandm\power.c   
                   __pa_0   0x00d3d6    program     static L:\mandm\mandm\power.c   
                   __pa_1   0x00d3e4    program     static L:\mandm\mandm\power.c   
                   __pa_2   0x00d3ee    program     static L:\mandm\mandm\power.c   
                   __pa_3   0x00d3f8    program     static L:\mandm\mandm\power.c   
                   __pa_4   0x00d400    program     static L:\mandm\mandm\power.c   
                   __pa_5   0x00d40e    program     static L:\mandm\mandm\power.c   
                   __pa_6   0x00d426    program     static L:\mandm\mandm\power.c   
                   __pa_7   0x00d434    program     static L:\mandm\mandm\power.c   
                   __pa_8   0x00d43e    program     static L:\mandm\mandm\power.c   
                   __pa_9   0x00d446    program     static L:\mandm\mandm\power.c   
                  __pa_10   0x00d44e    program     static L:\mandm\mandm\power.c   
                  __pa_11   0x00d456    program     static L:\mandm\mandm\power.c   
           init_motordata   0x00d45e    program     extern L:\mandm\mandm\config.c  
                   __pa_0   0x00d6d8    program     static L:\mandm\mandm\config.c  
                   __pa_1   0x00d6ee    program     static L:\mandm\mandm\config.c  
                   __pa_2   0x00d6f6    program     static L:\mandm\mandm\config.c  
                   __pa_3   0x00d6fe    program     static L:\mandm\mandm\config.c  
                   __pa_4   0x00d706    program     static L:\mandm\mandm\config.c  
                   __pa_5   0x00d716    program     static L:\mandm\mandm\config.c  
                   __pa_6   0x00d71e    program     static L:\mandm\mandm\config.c  
                   __pa_7   0x00d726    program     static L:\mandm\mandm\config.c  
                   __pa_8   0x00d734    program     static L:\mandm\mandm\config.c  
                   __pa_9   0x00d740    program     static L:\mandm\mandm\config.c  
                  __pa_10   0x00d746    program     static L:\mandm\mandm\config.c  
                  __pa_11   0x00d752    program     static L:\mandm\mandm\config.c  
                  __pa_12   0x00d75a    program     static L:\mandm\mandm\config.c  
                  __pa_13   0x00d760    program     static L:\mandm\mandm\config.c  
                  __pa_14   0x00d768    program     static L:\mandm\mandm\config.c  
                  __pa_15   0x00d772    program     static L:\mandm\mandm\config.c  
                  __pa_16   0x00d778    program     static L:\mandm\mandm\config.c  
                  __pa_17   0x00d782    program     static L:\mandm\mandm\config.c  
                  __pa_18   0x00d78c    program     static L:\mandm\mandm\config.c  
                   s_crit   0x00d792    program     extern L:\mandm\mandm\crit.c    
           ___if_lbl00001   0x00d7c0    program     static                          
           ___if_lbl00002   0x00d7e4    program     static                          
           ___if_lbl00003   0x00d804    program     static                          
       ___return_lbl00000   0x00d824    program     static                          
           ___if_lbl00004   0x00d824    program     static                          
                   e_crit   0x00d82c    program     extern L:\mandm\mandm\crit.c    
           ___if_lbl00006   0x00d858    program     static                          
         ___else_lbl00008   0x00d88a    program     static                          
           ___if_lbl00007   0x00d892    program     static                          
       ___return_lbl00005   0x00d892    program     static                          
               clear_crit   0x00d894    program     extern L:\mandm\mandm\crit.c    
        write_data_eeprom   0x00d89e    program     extern L:\mandm\mandm\crit.c    
         read_data_eeprom   0x00d924    program     extern L:\mandm\mandm\crit.c    
                   __pa_0   0x00d94e    program     static L:\mandm\mandm\crit.c    
                   __pa_1   0x00d95c    program     static L:\mandm\mandm\crit.c    
                   __pa_2   0x00d968    program     static L:\mandm\mandm\crit.c    
                   __pa_3   0x00d976    program     static L:\mandm\mandm\crit.c    
                   memcmp   0x00d984    program     extern C:\MCC18\v3_39\src\traditional\stdclib\memcmp.asm
                    jLoop   0x00d9a4    program     static C:\MCC18\v3_39\src\traditional\stdclib\memcmp.asm
              _4jContinue   0x00d9b0    program     static C:\MCC18\v3_39\src\traditional\stdclib\memcmp.asm
                   _5jEnd   0x00d9ba    program     static C:\MCC18\v3_39\src\traditional\stdclib\memcmp.asm
                     jEnd   0x00d9c0    program     static C:\MCC18\v3_39\src\traditional\stdclib\memcmp.asm
            strcpypgm2ram   0x00d9d6    program     extern C:\MCC18\v3_39\src\traditional\stdclib\scpyp2r.asm
                    jLoop   0x00d9fc    program     static C:\MCC18\v3_39\src\traditional\stdclib\scpyp2r.asm
                     jEnd   0x00da06    program     static C:\MCC18\v3_39\src\traditional\stdclib\scpyp2r.asm
                strlenpgm   0x00da08    program     extern C:\MCC18\v3_39\src\traditional\stdclib\slenpgm.asm
                    jLoop   0x00da26    program     static C:\MCC18\v3_39\src\traditional\stdclib\slenpgm.asm
                   _2jEnd   0x00da3c    program     static C:\MCC18\v3_39\src\traditional\stdclib\slenpgm.asm
                     jEnd   0x00da3e    program     static C:\MCC18\v3_39\src\traditional\stdclib\slenpgm.asm
                  strncpy   0x00da52    program     extern C:\MCC18\v3_39\src\traditional\stdclib\strncpy.asm
                    jLoop   0x00da7a    program     static C:\MCC18\v3_39\src\traditional\stdclib\strncpy.asm
              _4jContinue   0x00da86    program     static C:\MCC18\v3_39\src\traditional\stdclib\strncpy.asm
                   _5jEnd   0x00da90    program     static C:\MCC18\v3_39\src\traditional\stdclib\strncpy.asm
                     jEnd   0x00da9c    program     static C:\MCC18\v3_39\src\traditional\stdclib\strncpy.asm
           strncpypgm2ram   0x00daae    program     extern C:\MCC18\v3_39\src\traditional\stdclib\sncpyp2r.asm
                    jLoop   0x00dad4    program     static C:\MCC18\v3_39\src\traditional\stdclib\sncpyp2r.asm
              _3jContinue   0x00dae0    program     static C:\MCC18\v3_39\src\traditional\stdclib\sncpyp2r.asm
                   _4jEnd   0x00daea    program     static C:\MCC18\v3_39\src\traditional\stdclib\sncpyp2r.asm
                     jEnd   0x00daf8    program     static C:\MCC18\v3_39\src\traditional\stdclib\sncpyp2r.asm
                   strlen   0x00dafa    program     extern C:\MCC18\v3_39\src\traditional\stdclib\strlen.asm
                    jLoop   0x00db0a    program     static C:\MCC18\v3_39\src\traditional\stdclib\strlen.asm
                     jEnd   0x00db14    program     static C:\MCC18\v3_39\src\traditional\stdclib\strlen.asm
               config_pic   0x00db16    program     extern L:\mandm\mandm\hwconf.c  
           ___if_lbl00001   0x00db44    program     static                          
               __tmplbl_1   0x00db4a    program     static                          
               __tmplbl_0   0x00db50    program     static                          
           ___if_lbl00003   0x00db56    program     static                          
        ___while_lbl00004   0x00dbb4    program     static                          
        ___while_lbl00005   0x00dbc2    program     static                          
           ___if_lbl00006   0x00dc64    program     static                          
       ___return_lbl00000   0x00dc64    program     static                          
                start_pic   0x00dc6c    program     extern L:\mandm\mandm\hwconf.c  
       start_workerthread   0x00dc92    program     extern L:\mandm\mandm\hwconf.c  
                  sprintf   0x00dc96    program     extern C:\MCC18\v3_39\src\traditional\stdclib\sprintf.c
                _do_cinit   0x00dd42    program     extern C:\MCC18\v3_39\src\traditional\startup\c018iz.c
                     test   0x00dd5c    program     static                          
                copy_loop   0x00ddb4    program     static                          
            copy_one_byte   0x00ddba    program     static                          
             done_copying   0x00ddc8    program     static                          
       ___return_lbl00002   0x00ddde    program     static                          
                     done   0x00ddde    program     static                          
                 OpenXLCD   0x00dde0    program     extern L:\mandm\mandm\xlcd\openxlcd.c
                   __pa_0   0x00de68    program     static L:\mandm\mandm\xlcd\openxlcd.c
                   __pa_1   0x00de72    program     static L:\mandm\mandm\xlcd\openxlcd.c
               Open2USART   0x00de7a    program     extern C:\MCC18\v3_39\src\pmc_common\USART\u2open.c
                     putc   0x00df04    program     extern C:\MCC18\v3_39\src\traditional\stdclib\putc.c
                  FXM3232   0x00df88    program     extern C:\MCC18\v3_39\src\traditional\math\fxm3232.c
       ___return_lbl00000   0x00dff6    program     static                          
                  OpenADC   0x00dff8    program     extern C:\MCC18\v3_39\src\pmc_common\ADC\adcopen.c
              putrs2USART   0x00e066    program     extern C:\MCC18\v3_39\src\pmc_common\USART\u2putrs.c
              Write_b_eep   0x00e0ca    program     extern C:\MCC18\v3_39\src\pmc_common\EEP\write_B.c
               Read_b_eep   0x00e12a    program     extern C:\MCC18\v3_39\src\pmc_common\EEP\read_B.c
       ___return_lbl00000   0x00e17a    program     static                          
                putrsXLCD   0x00e186    program     extern L:\mandm\mandm\xlcd\putrxlcd.c
                   __pa_0   0x00e1c2    program     static L:\mandm\mandm\xlcd\putrxlcd.c
               puts2USART   0x00e1da    program     extern C:\MCC18\v3_39\src\pmc_common\USART\u2puts.c
             SetDDRamAddr   0x00e226    program     extern L:\mandm\mandm\xlcd\setddram.c
                   __pa_0   0x00e260    program     static L:\mandm\mandm\xlcd\setddram.c
             SetCGRamAddr   0x00e26e    program     extern L:\mandm\mandm\xlcd\setcgram.c
                   __pa_0   0x00e2a8    program     static L:\mandm\mandm\xlcd\setcgram.c
                 FXD3232U   0x00e2b6    program     extern C:\MCC18\v3_39\src\traditional\math\fxd3232u.c
                     loop   0x00e2c4    program     static                          
                   _false   0x00e2f8    program     static                          
       ___return_lbl00000   0x00e2fc    program     static                          
            WriteDataXLCD   0x00e2fe    program     extern L:\mandm\mandm\xlcd\writdata.c
                   __pa_0   0x00e336    program     static L:\mandm\mandm\xlcd\writdata.c
             WriteCmdXLCD   0x00e344    program     extern L:\mandm\mandm\xlcd\wcmdxlcd.c
                   __pa_0   0x00e37c    program     static L:\mandm\mandm\xlcd\wcmdxlcd.c
             ReadDataXLCD   0x00e38a    program     extern L:\mandm\mandm\xlcd\readdata.c
             ReadAddrXLCD   0x00e3ce    program     extern L:\mandm\mandm\xlcd\readaddr.c
               OpenTimer3   0x00e412    program     extern C:\MCC18\v3_39\src\pmc_common\Timers\t3open.c
                 putsXLCD   0x00e454    program     extern L:\mandm\mandm\xlcd\putsxlcd.c
                   __pa_0   0x00e486    program     static L:\mandm\mandm\xlcd\putsxlcd.c
               Read2USART   0x00e496    program     extern C:\MCC18\v3_39\src\pmc_common\USART\u2read.c
                    srand   0x00e4d4    program     extern C:\MCC18\v3_39\src\traditional\stdclib\rand.asm
                     rand   0x00e4e2    program     extern C:\MCC18\v3_39\src\traditional\stdclib\rand.asm
              WriteTimer3   0x00e510    program     extern C:\MCC18\v3_39\src\pmc_common\Timers\t3write.c
              WriteTimer0   0x00e548    program     extern C:\MCC18\v3_39\src\pmc_common\Timers\t0write.c
               OpenTimer0   0x00e580    program     extern C:\MCC18\v3_39\src\pmc_common\Timers\t0open.c
               OpenTimer4   0x00e5b8    program     extern C:\MCC18\v3_39\src\pmc_common\Timers\t4open.c
             Delay10KTCYx   0x00e5ee    program     extern C:\MCC18\v3_39\src\traditional\delays\d10ktcyx.asm
                    D10Kx   0x00e5f8    program     static C:\MCC18\v3_39\src\traditional\delays\d10ktcyx.asm
                   D10K_1   0x00e5fa    program     static C:\MCC18\v3_39\src\traditional\delays\d10ktcyx.asm
       _D10KTCYXCODE_0010   0x00e5fe    program     static C:\MCC18\v3_39\src\traditional\delays\d10ktcyx.asm
                    D10Kl   0x00e606    program     static C:\MCC18\v3_39\src\traditional\delays\d10ktcyx.asm
       _D10KTCYXCODE_001C   0x00e60a    program     static C:\MCC18\v3_39\src\traditional\delays\d10ktcyx.asm
              Write2USART   0x00e61c    program     extern C:\MCC18\v3_39\src\pmc_common\USART\u2write.c
               SetChanADC   0x00e64a    program     extern C:\MCC18\v3_39\src\pmc_common\ADC\adcsetch.c
                 FXD1616U   0x00e678    program     extern C:\MCC18\v3_39\src\traditional\math\fxd1616u.c
                     loop   0x00e682    program     static                          
                  endloop   0x00e69e    program     static                          
       ___return_lbl00000   0x00e6a2    program     static                          
                 BusyXLCD   0x00e6a4    program     extern L:\mandm\mandm\xlcd\busyxlcd.c
                   __pa_0   0x00e6be    program     static L:\mandm\mandm\xlcd\busyxlcd.c
                  isdigit   0x00e6d0    program     extern C:\MCC18\v3_39\src\traditional\stdclib\isdigit.asm
                   jMatch   0x00e6f0    program     static C:\MCC18\v3_39\src\traditional\stdclib\isdigit.asm
                 jNoMatch   0x00e6f2    program     static C:\MCC18\v3_39\src\traditional\stdclib\isdigit.asm
                 _startup   0x00e6f4    program     extern C:\MCC18\v3_39\src\traditional\startup\c018iz.c
                     loop   0x00e708    program     static                          
       ___return_lbl00001   0x00e712    program     static                          
            __zero_memory   0x00e714    program     extern C:\MCC18\v3_39\src\traditional\proc\p18F8722.asm
               zero_block   0x00e722    program     static C:\MCC18\v3_39\src\traditional\proc\p18F8722.asm
                   loop_h   0x00e722    program     static C:\MCC18\v3_39\src\traditional\proc\p18F8722.asm
                compare_l   0x00e72a    program     static C:\MCC18\v3_39\src\traditional\proc\p18F8722.asm
                   loop_l   0x00e72c    program     static C:\MCC18\v3_39\src\traditional\proc\p18F8722.asm
              _usart_putc   0x00e734    program     extern C:\MCC18\v3_39\src\pmc_common\USART\_usartpc.asm
                     loop   0x00e744    program     static C:\MCC18\v3_39\src\pmc_common\USART\_usartpc.asm
              Delay10TCYx   0x00e750    program     extern C:\MCC18\v3_39\src\traditional\delays\d10tcyx.asm
                     D10x   0x00e758    program     static C:\MCC18\v3_39\src\traditional\delays\d10tcyx.asm
        _D10TCYXCODE_000A   0x00e75a    program     static C:\MCC18\v3_39\src\traditional\delays\d10tcyx.asm
        _D10TCYXCODE_000C   0x00e75c    program     static C:\MCC18\v3_39\src\traditional\delays\d10tcyx.asm
        _D10TCYXCODE_000E   0x00e75e    program     static C:\MCC18\v3_39\src\traditional\delays\d10tcyx.asm
                    D10_1   0x00e760    program     static C:\MCC18\v3_39\src\traditional\delays\d10tcyx.asm
                  ReadADC   0x00e766    program     extern C:\MCC18\v3_39\src\pmc_common\ADC\adcread.c
                 s_digits   0x00e778    program     static C:\MCC18\v3_39\src\traditional\stdclib\vfprintf.c
                 Busy_eep   0x00e78a    program     extern C:\MCC18\v3_39\src\pmc_common\EEP\busy_eep.c
               ConvertADC   0x00e790    program     extern C:\MCC18\v3_39\src\pmc_common\ADC\adcconv.c
                   __init   0x00e794    program     extern C:\MCC18\v3_39\src\traditional\stdclib\__init.c
               __config_0   0x300001    program     static L:\mandm\mandm\mandm8722.c
               __config_1   0x300002    program     static L:\mandm\mandm\mandm8722.c
               __config_2   0x300003    program     static L:\mandm\mandm\mandm8722.c
               __config_3   0x300006    program     static L:\mandm\mandm\mandm8722.c
                  __tmp_0   0x000000       data     static C:\MCC18\v3_39\src\traditional\stdclib\putc.c
                  __tmp_0   0x000000       data     static C:\MCC18\v3_39\src\traditional\stdclib\vfprintf.c
                  __tmp_0   0x000000       data     static C:\MCC18\v3_39\src\pmc_common\EEP\read_B.c
                  __tmp_0   0x000000       data     static C:\MCC18\v3_39\src\traditional\stdclib\sprintf.c
                  __tmp_0   0x000000       data     static C:\MCC18\v3_39\src\pmc_common\ADC\adcread.c
                  __tmp_0   0x000000       data     static L:\mandm\mandm\power.c   
                  __tmp_0   0x000000       data     static L:\mandm\mandm\mandm8722.c
                  __tmp_0   0x000000       data     static C:\MCC18\v3_39\src\pmc_common\ADC\adcopen.c
                  __tmp_0   0x000000       data     static L:\mandm\mandm\crit.c    
                  __tmp_0   0x000000       data     static L:\mandm\mandm\daq.c     
                  __tmp_0   0x000000       data     static C:\MCC18\v3_39\src\pmc_common\EEP\write_B.c
                  __tmp_0   0x000000       data     static C:\MCC18\v3_39\src\pmc_common\ADC\adcsetch.c
                  __tmp_0   0x000000       data     static C:\MCC18\v3_39\src\pmc_common\USART\u2open.c
                     SIGN   0x000024       data     extern C:\MCC18\v3_39\src\traditional\math\cmath18.asm
            __FPFLAGSbits   0x000025       data     extern C:\MCC18\v3_39\src\traditional\math\cmath18.asm
                __FPFLAGS   0x000025       data     extern C:\MCC18\v3_39\src\traditional\math\cmath18.asm
                 __AARGB7   0x000026       data     extern C:\MCC18\v3_39\src\traditional\math\aarg.asm
                  __REMB3   0x000026       data     extern C:\MCC18\v3_39\src\traditional\math\aarg.asm
                 __AARGB6   0x000027       data     extern C:\MCC18\v3_39\src\traditional\math\aarg.asm
                  __REMB2   0x000027       data     extern C:\MCC18\v3_39\src\traditional\math\aarg.asm
                  __REMB1   0x000028       data     extern C:\MCC18\v3_39\src\traditional\math\aarg.asm
                 __AARGB5   0x000028       data     extern C:\MCC18\v3_39\src\traditional\math\aarg.asm
                  __REMB0   0x000029       data     extern C:\MCC18\v3_39\src\traditional\math\aarg.asm
                 __AARGB4   0x000029       data     extern C:\MCC18\v3_39\src\traditional\math\aarg.asm
                 __AARGB3   0x00002a       data     extern C:\MCC18\v3_39\src\traditional\math\aarg.asm
                 __AARGB2   0x00002b       data     extern C:\MCC18\v3_39\src\traditional\math\aarg.asm
                 __AARGB1   0x00002c       data     extern C:\MCC18\v3_39\src\traditional\math\aarg.asm
                 __AARGB0   0x00002d       data     extern C:\MCC18\v3_39\src\traditional\math\aarg.asm
                   __AEXP   0x00002e       data     extern C:\MCC18\v3_39\src\traditional\math\aarg.asm
                 __BARGB3   0x00002f       data     extern C:\MCC18\v3_39\src\traditional\math\barg.asm
                 __BARGB2   0x000030       data     extern C:\MCC18\v3_39\src\traditional\math\barg.asm
                 __BARGB1   0x000031       data     extern C:\MCC18\v3_39\src\traditional\math\barg.asm
                 __BARGB0   0x000032       data     extern C:\MCC18\v3_39\src\traditional\math\barg.asm
                   __BEXP   0x000033       data     extern C:\MCC18\v3_39\src\traditional\math\barg.asm
                 __TEMPB3   0x000034       data     extern C:\MCC18\v3_39\src\traditional\math\temparg.asm
                 __TEMPB2   0x000035       data     extern C:\MCC18\v3_39\src\traditional\math\temparg.asm
                 __TEMPB1   0x000036       data     extern C:\MCC18\v3_39\src\traditional\math\temparg.asm
                   __TEMP   0x000037       data     extern C:\MCC18\v3_39\src\traditional\math\temparg.asm
                 __TEMPB0   0x000037       data     extern C:\MCC18\v3_39\src\traditional\math\temparg.asm
                  __tmp_1   0x000038       data     static L:\mandm\mandm\mandm_vector.c
            DelayCounter2   0x00003c       data     extern C:\MCC18\v3_39\src\traditional\delays\delayd2.asm
            DelayCounter1   0x00003d       data     extern C:\MCC18\v3_39\src\traditional\delays\delayd1.asm
                   button   0x000060       data     extern L:\mandm\mandm\mandm8722.c
                        R   0x000061       data     extern L:\mandm\mandm\mandm8722.c
                        C   0x000094       data     extern L:\mandm\mandm\mandm8722.c
                        V   0x00009e       data     extern L:\mandm\mandm\mandm8722.c
                        z   0x0000fb       data     static L:\mandm\mandm\hwconf.c  
                        z   0x0000fc       data     static L:\mandm\mandm\config.c  
                       ds   0x000100       data     extern L:\mandm\mandm\mandm8722.c
             change_count   0x0001fc       data     extern L:\mandm\mandm\daq.c     
                   change   0x0001fe       data     static L:\mandm\mandm\daq.c     
                 bootstr2   0x000200       data     extern L:\mandm\mandm\mandm8722.c
                       p1   0x000300       data     extern L:\mandm\mandm\mandm8722.c
                       p2   0x000310       data     extern L:\mandm\mandm\mandm8722.c
                  termstr   0x000320       data     extern L:\mandm\mandm\mandm8722.c
                      csd   0x000340       data     extern L:\mandm\mandm\mandm8722.c
                      cid   0x000352       data     extern L:\mandm\mandm\mandm8722.c
                    HCRIT   0x000364       data     extern L:\mandm\mandm\mandm8722.c
                    LCRIT   0x00036c       data     extern L:\mandm\mandm\mandm8722.c
                       f1   0x000374       data     extern L:\mandm\mandm\mandm8722.c
                       f2   0x00037b       data     extern L:\mandm\mandm\mandm8722.c
                       f3   0x000382       data     extern L:\mandm\mandm\mandm8722.c
                       f4   0x000389       data     extern L:\mandm\mandm\mandm8722.c
                       p3   0x000390       data     extern L:\mandm\mandm\mandm8722.c
             alarm_buffer   0x0003a0       data     extern L:\mandm\mandm\mandm8722.c
                   smooth   0x0003ae       data     extern L:\mandm\mandm\mandm8722.c
                    lcd18   0x0003ce       data     extern L:\mandm\mandm\mandm8722.c
               slow_timer   0x0003cf       data     extern L:\mandm\mandm\mandm8722.c
               last_shape   0x0003d3       data     static L:\mandm\mandm\mandm8722.c
                       ib   0x0003d4       data     static L:\mandm\mandm\mandm8722.c
                        h   0x0003d5       data     static L:\mandm\mandm\mandm8722.c
                        m   0x0003d9       data     static L:\mandm\mandm\mandm8722.c
                        s   0x0003dd       data     static L:\mandm\mandm\mandm8722.c
                        h   0x0003e1       data     static L:\mandm\mandm\mandm8722.c
                        m   0x0003e5       data     static L:\mandm\mandm\mandm8722.c
                        s   0x0003e9       data     static L:\mandm\mandm\mandm8722.c
                        i   0x0003ed       data     static L:\mandm\mandm\mandm8722.c
                  alm_num   0x0003ee       data     static L:\mandm\mandm\mandm8722.c
                 position   0x0003ef       data     static L:\mandm\mandm\mandm8722.c
                    shape   0x0003f0       data     static L:\mandm\mandm\mandm8722.c
                 deadband   0x0003f1       data     static L:\mandm\mandm\mandm8722.c
              was_running   0x0003f5       data     static L:\mandm\mandm\mandm8722.c
                old_error   0x0003f7       data     static L:\mandm\mandm\mandm8722.c
                 old_menu   0x0003f9       data     static L:\mandm\mandm\mandm8722.c
                 menu_pos   0x0003fa       data     static L:\mandm\mandm\mandm8722.c
                 menu_pos   0x0003fb       data     static L:\mandm\mandm\mandm8722.c
                 eep_char   0x0003fc       data     static L:\mandm\mandm\mandm8722.c
                        z   0x0003fd       data     static L:\mandm\mandm\mandm8722.c
                     Seed   0x0003fe       data     static C:\MCC18\v3_39\src\traditional\stdclib\rand.asm
                motordata   0x000400       data     extern L:\mandm\mandm\mandm8722.c
                motor_ptr   0x0004ae       data     extern L:\mandm\mandm\mandm8722.c
                lastmotor   0x0004b0       data     static L:\mandm\mandm\power.c   
                emo_bumps   0x0004ea       data     static L:\mandm\mandm\mandm_vector.c
            HID_IDLE_FLAG   0x0004eb       data     static L:\mandm\mandm\mandm_vector.c
                   b_read   0x0004ec       data     static L:\mandm\mandm\mandm_vector.c
                      ZAP   0x0004ed       data     static L:\mandm\mandm\mandm_vector.c
                 vc_count   0x0004ee       data     static L:\mandm\mandm\mandm_vector.c
             worker_timer   0x0004ef       data     static L:\mandm\mandm\mandm_vector.c
               real_ticks   0x0004f0       data     static L:\mandm\mandm\mandm_vector.c
               fast_ticks   0x0004f1       data     static L:\mandm\mandm\mandm_vector.c
                   rx_tmp   0x0004f2       data     static L:\mandm\mandm\mandm_vector.c
                 band_max   0x0004f4       data     static L:\mandm\mandm\mandm_vector.c
                 hid_idle   0x0004f8       data     static L:\mandm\mandm\mandm_vector.c
                    H_tmp   0x0004fc       data     static L:\mandm\mandm\crit.c    
                    H_tmp   0x0004fd       data     static L:\mandm\mandm\crit.c    
                   almctr   0x0004fe       data     extern L:\mandm\mandm\mandm8722.c
            USART2_Status   0x0004ff       data     extern C:\MCC18\v3_39\src\pmc_common\USART\u2defs.c
                    knob1   0x000500       data     extern L:\mandm\mandm\mandm8722.c
                    knob2   0x000510       data     extern L:\mandm\mandm\mandm8722.c
                   Cursor   0x000520       data     extern L:\mandm\mandm\mandm8722.c
                    YNKEY   0x000523       data     extern L:\mandm\mandm\mandm8722.c
               OldEncoder   0x000524       data     extern L:\mandm\mandm\mandm8722.c
                     qei1   0x000529       data     extern L:\mandm\mandm\mandm8722.c
                        s   0x000540       data     static L:\mandm\mandm\mandm8722.c
                   dcount   0x000546       data     static L:\mandm\mandm\mandm8722.c
                   dcount   0x00054a       data     static L:\mandm\mandm\mandm8722.c
                 timetemp   0x00054e       data     static L:\mandm\mandm\mandm8722.c
                clocks_hz   0x000552       data     static L:\mandm\mandm\mandm8722.c
                   dcount   0x000556       data     static L:\mandm\mandm\mandm8722.c
                 timetemp   0x00055a       data     static L:\mandm\mandm\mandm8722.c
                clocks_hz   0x00055e       data     static L:\mandm\mandm\mandm8722.c
                   dcount   0x000562       data     static L:\mandm\mandm\mandm8722.c
                 timetemp   0x000566       data     static L:\mandm\mandm\mandm8722.c
                clocks_hz   0x00056a       data     static L:\mandm\mandm\mandm8722.c
                   dcount   0x00056e       data     static L:\mandm\mandm\mandm8722.c
                 timetemp   0x000572       data     static L:\mandm\mandm\mandm8722.c
                clocks_hz   0x000576       data     static L:\mandm\mandm\mandm8722.c
                   dcount   0x00057a       data     static L:\mandm\mandm\mandm8722.c
                 timetemp   0x00057e       data     static L:\mandm\mandm\mandm8722.c
                clocks_hz   0x000582       data     static L:\mandm\mandm\mandm8722.c
                   dcount   0x000586       data     static L:\mandm\mandm\mandm8722.c
                 timetemp   0x00058a       data     static L:\mandm\mandm\mandm8722.c
                clocks_hz   0x00058e       data     static L:\mandm\mandm\mandm8722.c
                   dcount   0x000592       data     static L:\mandm\mandm\mandm8722.c
                 timetemp   0x000596       data     static L:\mandm\mandm\mandm8722.c
                clocks_hz   0x00059a       data     static L:\mandm\mandm\mandm8722.c
                        n   0x00059e       data     static L:\mandm\mandm\mandm8722.c
                        z   0x00059f       data     static L:\mandm\mandm\mandm8722.c
                     slow   0x0005a0       data     static L:\mandm\mandm\mandm8722.c
                        z   0x0005a1       data     static L:\mandm\mandm\mandm8722.c
                  s_delay   0x0005a2       data     static L:\mandm\mandm\mandm8722.c
                 new_menu   0x0005a3       data     static L:\mandm\mandm\mandm8722.c
               check_menu   0x0005a4       data     static L:\mandm\mandm\mandm8722.c
                  get_out   0x0005a5       data     static L:\mandm\mandm\mandm8722.c
                 menu_pos   0x0005a6       data     static L:\mandm\mandm\mandm8722.c
               hms_string   0x0005a7       data     extern L:\mandm\mandm\mandm8722.c
                    a10_x   0x0005b7       data     extern L:\mandm\mandm\mandm8722.c
                    a10_y   0x0005b9       data     extern L:\mandm\mandm\mandm8722.c
                    a10_z   0x0005bb       data     extern L:\mandm\mandm\mandm8722.c
                 worktick   0x0005bd       data     extern L:\mandm\mandm\mandm8722.c
                    C2RAW   0x0005bf       data     extern L:\mandm\mandm\mandm8722.c
             glitch_count   0x0005c0       data     extern L:\mandm\mandm\mandm8722.c
                   cdelay   0x0005c1       data     extern L:\mandm\mandm\mandm8722.c
              SLOW_STATUS   0x0005c2       data     extern L:\mandm\mandm\mandm8722.c
                        i   0x0005c3       data     static L:\mandm\mandm\daq.c     
                        z   0x0005c5       data     static L:\mandm\mandm\daq.c     
                  a10_x_t   0x0005c7       data     static L:\mandm\mandm\daq.c     
                  a10_y_t   0x0005cb       data     static L:\mandm\mandm\daq.c     
                  a10_z_t   0x0005cf       data     static L:\mandm\mandm\daq.c     
                        z   0x0005d3       data     static L:\mandm\mandm\daq.c     
                     rawp   0x0005d4       data     extern L:\mandm\mandm\mandm8722.c
                     prom   0x0005e0       data     static C:\MCC18\v3_39\src\traditional\startup\c018iz.c
                curr_byte   0x0005e3       data     static C:\MCC18\v3_39\src\traditional\startup\c018iz.c
               curr_entry   0x0005e5       data     static C:\MCC18\v3_39\src\traditional\startup\c018iz.c
                 data_ptr   0x0005e7       data     static C:\MCC18\v3_39\src\traditional\startup\c018iz.c
                       c1   0x0005ea       data     static L:\mandm\mandm\mandm_vector.c
                       c2   0x0005eb       data     static L:\mandm\mandm\mandm_vector.c
                    timer   0x0005ec       data     static L:\mandm\mandm\mandm_vector.c
                   timerl   0x0005ee       data     static L:\mandm\mandm\mandm_vector.c
                TIMERFLAG   0x000600       data     extern L:\mandm\mandm\mandm8722.c
               PRIPOWEROK   0x000601       data     extern L:\mandm\mandm\mandm8722.c
                 FORCEOUT   0x000602       data     extern L:\mandm\mandm\mandm8722.c
               WORKERFLAG   0x000603       data     extern L:\mandm\mandm\mandm8722.c
              critc_level   0x000604       data     extern L:\mandm\mandm\mandm8722.c
                   KEYNUM   0x000605       data     extern L:\mandm\mandm\mandm8722.c
                 FAILSAFE   0x000606       data     extern L:\mandm\mandm\mandm8722.c
            SYSTEM_STABLE   0x000607       data     extern L:\mandm\mandm\mandm8722.c
                HOLD_PROC   0x000608       data     extern L:\mandm\mandm\mandm8722.c
             DISPLAY_MODE   0x000609       data     extern L:\mandm\mandm\mandm8722.c
                 D_UPDATE   0x00060a       data     extern L:\mandm\mandm\mandm8722.c
             GLITCH_CHECK   0x00060b       data     extern L:\mandm\mandm\mandm8722.c
                  COOLING   0x00060c       data     extern L:\mandm\mandm\mandm8722.c
               UPDATE_EEP   0x00060d       data     extern L:\mandm\mandm\mandm8722.c
              RESET_ZEROS   0x00060e       data     extern L:\mandm\mandm\mandm8722.c
                 SYS_DATA   0x00060f       data     extern L:\mandm\mandm\mandm8722.c
                 MOD_DATA   0x000610       data     extern L:\mandm\mandm\mandm8722.c
                 SYS_HELP   0x000611       data     extern L:\mandm\mandm\mandm8722.c
                 SET_TLOG   0x000612       data     extern L:\mandm\mandm\mandm8722.c
                   WDT_TO   0x000613       data     extern L:\mandm\mandm\mandm8722.c
                   EEP_ER   0x000614       data     extern L:\mandm\mandm\mandm8722.c
                    TWEAK   0x000615       data     extern L:\mandm\mandm\mandm8722.c
            TEST_SPINNERS   0x000616       data     extern L:\mandm\mandm\mandm8722.c
              alarm_codes   0x000617       data     extern L:\mandm\mandm\mandm8722.c
                     mode   0x000619       data     extern L:\mandm\mandm\mandm8722.c
              RS232_DEBUG   0x000628       data     extern L:\mandm\mandm\mandm8722.c
              critc_count   0x000629       data     extern L:\mandm\mandm\mandm8722.c
                     sign   0x00062d       data     extern L:\mandm\mandm\mandm8722.c
                 lp_speed   0x00062e       data     extern L:\mandm\mandm\mandm8722.c
                     lp_x   0x000632       data     extern L:\mandm\mandm\mandm8722.c
               build_date   0x000636       data     extern L:\mandm\mandm\mandm8722.c
               build_time   0x000639       data     extern L:\mandm\mandm\mandm8722.c
                      dsi   0x00063c       data     extern L:\mandm\mandm\mandm8722.c
                      msi   0x00063d       data     extern L:\mandm\mandm\mandm8722.c
                 help_pos   0x00063e       data     extern L:\mandm\mandm\mandm8722.c
                       t1   0x00063f       data     extern L:\mandm\mandm\mandm8722.c
                       t2   0x000643       data     extern L:\mandm\mandm\mandm8722.c
                       t3   0x000647       data     extern L:\mandm\mandm\mandm8722.c
                       t4   0x00064b       data     extern L:\mandm\mandm\mandm8722.c
                       t5   0x00064f       data     extern L:\mandm\mandm\mandm8722.c
                       t6   0x000653       data     extern L:\mandm\mandm\mandm8722.c
                       t7   0x000657       data     extern L:\mandm\mandm\mandm8722.c
                   t_time   0x00065b       data     extern L:\mandm\mandm\mandm8722.c
                 voltfrak   0x00065f       data     extern L:\mandm\mandm\mandm8722.c
                   ahfrak   0x000663       data     extern L:\mandm\mandm\mandm8722.c
                      Vin   0x000667       data     extern L:\mandm\mandm\mandm8722.c
                   chrg_v   0x00066b       data     extern L:\mandm\mandm\mandm8722.c
                 vbatol_t   0x00066f       data     extern L:\mandm\mandm\mandm8722.c
                  solar_t   0x000673       data     extern L:\mandm\mandm\mandm8722.c
                 IDLEFLAG   0x000677       data     extern L:\mandm\mandm\mandm8722.c
              knob_to_pot   0x000678       data     extern L:\mandm\mandm\mandm8722.c
                       iw   0x000679       data     extern L:\mandm\mandm\mandm8722.c
                       ip   0x00067d       data     extern L:\mandm\mandm\mandm8722.c
                  adc_cal   0x000681       data     extern L:\mandm\mandm\mandm8722.c
                    CRITC   0x000691       data     extern L:\mandm\mandm\mandm8722.c
                   LCD_OK   0x000692       data     extern L:\mandm\mandm\mandm8722.c
               cable_type   0x000693       data     extern L:\mandm\mandm\mandm8722.c
                     TLOG   0x000694       data     extern L:\mandm\mandm\mandm8722.c
             SSP2CON2bits   0x000f62       data     extern C:\MCC18\v3_39\src\traditional\proc\p18F8722.asm
                 SSP2CON2   0x000f62       data     extern C:\MCC18\v3_39\src\traditional\proc\p18F8722.asm
             SSP2CON1bits   0x000f63       data     extern C:\MCC18\v3_39\src\traditional\proc\p18F8722.asm
                 SSP2CON1   0x000f63       data     extern C:\MCC18\v3_39\src\traditional\proc\p18F8722.asm
             SSP2STATbits   0x000f64       data     extern C:\MCC18\v3_39\src\traditional\proc\p18F8722.asm
                 SSP2STAT   0x000f64       data     extern C:\MCC18\v3_39\src\traditional\proc\p18F8722.asm
                  SSP2ADD   0x000f65       data     extern C:\MCC18\v3_39\src\traditional\proc\p18F8722.asm
                  SSP2BUF   0x000f66       data     extern C:\MCC18\v3_39\src\traditional\proc\p18F8722.asm
                 ECCP2DEL   0x000f67       data     extern C:\MCC18\v3_39\src\traditional\proc\p18F8722.asm
             ECCP2DELbits   0x000f67       data     extern C:\MCC18\v3_39\src\traditional\proc\p18F8722.asm
              ECCP2ASbits   0x000f68       data     extern C:\MCC18\v3_39\src\traditional\proc\p18F8722.asm
                  ECCP2AS   0x000f68       data     extern C:\MCC18\v3_39\src\traditional\proc\p18F8722.asm
             ECCP3DELbits   0x000f69       data     extern C:\MCC18\v3_39\src\traditional\proc\p18F8722.asm
                 ECCP3DEL   0x000f69       data     extern C:\MCC18\v3_39\src\traditional\proc\p18F8722.asm
              ECCP3ASbits   0x000f6a       data     extern C:\MCC18\v3_39\src\traditional\proc\p18F8722.asm
                  ECCP3AS   0x000f6a       data     extern C:\MCC18\v3_39\src\traditional\proc\p18F8722.asm
               RCSTA2bits   0x000f6b       data     extern C:\MCC18\v3_39\src\traditional\proc\p18F8722.asm
                   RCSTA2   0x000f6b       data     extern C:\MCC18\v3_39\src\traditional\proc\p18F8722.asm
               TXSTA2bits   0x000f6c       data     extern C:\MCC18\v3_39\src\traditional\proc\p18F8722.asm
                   TXSTA2   0x000f6c       data     extern C:\MCC18\v3_39\src\traditional\proc\p18F8722.asm
                   TXREG2   0x000f6d       data     extern C:\MCC18\v3_39\src\traditional\proc\p18F8722.asm
                   RCREG2   0x000f6e       data     extern C:\MCC18\v3_39\src\traditional\proc\p18F8722.asm
                   SPBRG2   0x000f6f       data     extern C:\MCC18\v3_39\src\traditional\proc\p18F8722.asm
                  CCP5CON   0x000f70       data     extern C:\MCC18\v3_39\src\traditional\proc\p18F8722.asm
              CCP5CONbits   0x000f70       data     extern C:\MCC18\v3_39\src\traditional\proc\p18F8722.asm
                   CCPR5L   0x000f71       data     extern C:\MCC18\v3_39\src\traditional\proc\p18F8722.asm
                    CCPR5   0x000f71       data     extern C:\MCC18\v3_39\src\traditional\proc\p18F8722.asm
                   CCPR5H   0x000f72       data     extern C:\MCC18\v3_39\src\traditional\proc\p18F8722.asm
                  CCP4CON   0x000f73       data     extern C:\MCC18\v3_39\src\traditional\proc\p18F8722.asm
              CCP4CONbits   0x000f73       data     extern C:\MCC18\v3_39\src\traditional\proc\p18F8722.asm
                    CCPR4   0x000f74       data     extern C:\MCC18\v3_39\src\traditional\proc\p18F8722.asm
                   CCPR4L   0x000f74       data     extern C:\MCC18\v3_39\src\traditional\proc\p18F8722.asm
                   CCPR4H   0x000f75       data     extern C:\MCC18\v3_39\src\traditional\proc\p18F8722.asm
                T4CONbits   0x000f76       data     extern C:\MCC18\v3_39\src\traditional\proc\p18F8722.asm
                    T4CON   0x000f76       data     extern C:\MCC18\v3_39\src\traditional\proc\p18F8722.asm
                      PR4   0x000f77       data     extern C:\MCC18\v3_39\src\traditional\proc\p18F8722.asm
                     TMR4   0x000f78       data     extern C:\MCC18\v3_39\src\traditional\proc\p18F8722.asm
             ECCP1DELbits   0x000f79       data     extern C:\MCC18\v3_39\src\traditional\proc\p18F8722.asm
                 ECCP1DEL   0x000f79       data     extern C:\MCC18\v3_39\src\traditional\proc\p18F8722.asm
                 BAUDCON2   0x000f7c       data     extern C:\MCC18\v3_39\src\traditional\proc\p18F8722.asm
             BAUDCON2bits   0x000f7c       data     extern C:\MCC18\v3_39\src\traditional\proc\p18F8722.asm
                  SPBRGH2   0x000f7d       data     extern C:\MCC18\v3_39\src\traditional\proc\p18F8722.asm
                  BAUDCON   0x000f7e       data     extern C:\MCC18\v3_39\src\traditional\proc\p18F8722.asm
              BAUDCONbits   0x000f7e       data     extern C:\MCC18\v3_39\src\traditional\proc\p18F8722.asm
             BAUDCON1bits   0x000f7e       data     extern C:\MCC18\v3_39\src\traditional\proc\p18F8722.asm
                 BAUDCON1   0x000f7e       data     extern C:\MCC18\v3_39\src\traditional\proc\p18F8722.asm
                  SPBRGH1   0x000f7f       data     extern C:\MCC18\v3_39\src\traditional\proc\p18F8722.asm
                   SPBRGH   0x000f7f       data     extern C:\MCC18\v3_39\src\traditional\proc\p18F8722.asm
                    PORTA   0x000f80       data     extern C:\MCC18\v3_39\src\traditional\proc\p18F8722.asm
                PORTAbits   0x000f80       data     extern C:\MCC18\v3_39\src\traditional\proc\p18F8722.asm
                PORTBbits   0x000f81       data     extern C:\MCC18\v3_39\src\traditional\proc\p18F8722.asm
                    PORTB   0x000f81       data     extern C:\MCC18\v3_39\src\traditional\proc\p18F8722.asm
                PORTCbits   0x000f82       data     extern C:\MCC18\v3_39\src\traditional\proc\p18F8722.asm
                    PORTC   0x000f82       data     extern C:\MCC18\v3_39\src\traditional\proc\p18F8722.asm
                PORTDbits   0x000f83       data     extern C:\MCC18\v3_39\src\traditional\proc\p18F8722.asm
                    PORTD   0x000f83       data     extern C:\MCC18\v3_39\src\traditional\proc\p18F8722.asm
                PORTEbits   0x000f84       data     extern C:\MCC18\v3_39\src\traditional\proc\p18F8722.asm
                    PORTE   0x000f84       data     extern C:\MCC18\v3_39\src\traditional\proc\p18F8722.asm
                    PORTF   0x000f85       data     extern C:\MCC18\v3_39\src\traditional\proc\p18F8722.asm
                PORTFbits   0x000f85       data     extern C:\MCC18\v3_39\src\traditional\proc\p18F8722.asm
                PORTGbits   0x000f86       data     extern C:\MCC18\v3_39\src\traditional\proc\p18F8722.asm
                    PORTG   0x000f86       data     extern C:\MCC18\v3_39\src\traditional\proc\p18F8722.asm
                PORTHbits   0x000f87       data     extern C:\MCC18\v3_39\src\traditional\proc\p18F8722.asm
                    PORTH   0x000f87       data     extern C:\MCC18\v3_39\src\traditional\proc\p18F8722.asm
                PORTJbits   0x000f88       data     extern C:\MCC18\v3_39\src\traditional\proc\p18F8722.asm
                    PORTJ   0x000f88       data     extern C:\MCC18\v3_39\src\traditional\proc\p18F8722.asm
                 LATAbits   0x000f89       data     extern C:\MCC18\v3_39\src\traditional\proc\p18F8722.asm
                     LATA   0x000f89       data     extern C:\MCC18\v3_39\src\traditional\proc\p18F8722.asm
                     LATB   0x000f8a       data     extern C:\MCC18\v3_39\src\traditional\proc\p18F8722.asm
                 LATBbits   0x000f8a       data     extern C:\MCC18\v3_39\src\traditional\proc\p18F8722.asm
                 LATCbits   0x000f8b       data     extern C:\MCC18\v3_39\src\traditional\proc\p18F8722.asm
                     LATC   0x000f8b       data     extern C:\MCC18\v3_39\src\traditional\proc\p18F8722.asm
                 LATDbits   0x000f8c       data     extern C:\MCC18\v3_39\src\traditional\proc\p18F8722.asm
                     LATD   0x000f8c       data     extern C:\MCC18\v3_39\src\traditional\proc\p18F8722.asm
                 LATEbits   0x000f8d       data     extern C:\MCC18\v3_39\src\traditional\proc\p18F8722.asm
                     LATE   0x000f8d       data     extern C:\MCC18\v3_39\src\traditional\proc\p18F8722.asm
                     LATF   0x000f8e       data     extern C:\MCC18\v3_39\src\traditional\proc\p18F8722.asm
                 LATFbits   0x000f8e       data     extern C:\MCC18\v3_39\src\traditional\proc\p18F8722.asm
                     LATG   0x000f8f       data     extern C:\MCC18\v3_39\src\traditional\proc\p18F8722.asm
                 LATGbits   0x000f8f       data     extern C:\MCC18\v3_39\src\traditional\proc\p18F8722.asm
                     LATH   0x000f90       data     extern C:\MCC18\v3_39\src\traditional\proc\p18F8722.asm
                 LATHbits   0x000f90       data     extern C:\MCC18\v3_39\src\traditional\proc\p18F8722.asm
                     LATJ   0x000f91       data     extern C:\MCC18\v3_39\src\traditional\proc\p18F8722.asm
                 LATJbits   0x000f91       data     extern C:\MCC18\v3_39\src\traditional\proc\p18F8722.asm
                    TRISA   0x000f92       data     extern C:\MCC18\v3_39\src\traditional\proc\p18F8722.asm
                TRISAbits   0x000f92       data     extern C:\MCC18\v3_39\src\traditional\proc\p18F8722.asm
                     DDRA   0x000f92       data     extern C:\MCC18\v3_39\src\traditional\proc\p18F8722.asm
                 DDRAbits   0x000f92       data     extern C:\MCC18\v3_39\src\traditional\proc\p18F8722.asm
                    TRISB   0x000f93       data     extern C:\MCC18\v3_39\src\traditional\proc\p18F8722.asm
                TRISBbits   0x000f93       data     extern C:\MCC18\v3_39\src\traditional\proc\p18F8722.asm
                     DDRB   0x000f93       data     extern C:\MCC18\v3_39\src\traditional\proc\p18F8722.asm
                 DDRBbits   0x000f93       data     extern C:\MCC18\v3_39\src\traditional\proc\p18F8722.asm
                     DDRC   0x000f94       data     extern C:\MCC18\v3_39\src\traditional\proc\p18F8722.asm
                    TRISC   0x000f94       data     extern C:\MCC18\v3_39\src\traditional\proc\p18F8722.asm
                TRISCbits   0x000f94       data     extern C:\MCC18\v3_39\src\traditional\proc\p18F8722.asm
                 DDRCbits   0x000f94       data     extern C:\MCC18\v3_39\src\traditional\proc\p18F8722.asm
                TRISDbits   0x000f95       data     extern C:\MCC18\v3_39\src\traditional\proc\p18F8722.asm
                    TRISD   0x000f95       data     extern C:\MCC18\v3_39\src\traditional\proc\p18F8722.asm
                     DDRD   0x000f95       data     extern C:\MCC18\v3_39\src\traditional\proc\p18F8722.asm
                 DDRDbits   0x000f95       data     extern C:\MCC18\v3_39\src\traditional\proc\p18F8722.asm
                TRISEbits   0x000f96       data     extern C:\MCC18\v3_39\src\traditional\proc\p18F8722.asm
                    TRISE   0x000f96       data     extern C:\MCC18\v3_39\src\traditional\proc\p18F8722.asm
                     DDRE   0x000f96       data     extern C:\MCC18\v3_39\src\traditional\proc\p18F8722.asm
                 DDREbits   0x000f96       data     extern C:\MCC18\v3_39\src\traditional\proc\p18F8722.asm
                    TRISF   0x000f97       data     extern C:\MCC18\v3_39\src\traditional\proc\p18F8722.asm
                TRISFbits   0x000f97       data     extern C:\MCC18\v3_39\src\traditional\proc\p18F8722.asm
                     DDRF   0x000f97       data     extern C:\MCC18\v3_39\src\traditional\proc\p18F8722.asm
                 DDRFbits   0x000f97       data     extern C:\MCC18\v3_39\src\traditional\proc\p18F8722.asm
                TRISGbits   0x000f98       data     extern C:\MCC18\v3_39\src\traditional\proc\p18F8722.asm
                     DDRG   0x000f98       data     extern C:\MCC18\v3_39\src\traditional\proc\p18F8722.asm
                 DDRGbits   0x000f98       data     extern C:\MCC18\v3_39\src\traditional\proc\p18F8722.asm
                    TRISG   0x000f98       data     extern C:\MCC18\v3_39\src\traditional\proc\p18F8722.asm
                     DDRH   0x000f99       data     extern C:\MCC18\v3_39\src\traditional\proc\p18F8722.asm
                 DDRHbits   0x000f99       data     extern C:\MCC18\v3_39\src\traditional\proc\p18F8722.asm
                    TRISH   0x000f99       data     extern C:\MCC18\v3_39\src\traditional\proc\p18F8722.asm
                TRISHbits   0x000f99       data     extern C:\MCC18\v3_39\src\traditional\proc\p18F8722.asm
                     DDRJ   0x000f9a       data     extern C:\MCC18\v3_39\src\traditional\proc\p18F8722.asm
                 DDRJbits   0x000f9a       data     extern C:\MCC18\v3_39\src\traditional\proc\p18F8722.asm
                    TRISJ   0x000f9a       data     extern C:\MCC18\v3_39\src\traditional\proc\p18F8722.asm
                TRISJbits   0x000f9a       data     extern C:\MCC18\v3_39\src\traditional\proc\p18F8722.asm
              OSCTUNEbits   0x000f9b       data     extern C:\MCC18\v3_39\src\traditional\proc\p18F8722.asm
                  OSCTUNE   0x000f9b       data     extern C:\MCC18\v3_39\src\traditional\proc\p18F8722.asm
               MEMCONbits   0x000f9c       data     extern C:\MCC18\v3_39\src\traditional\proc\p18F8722.asm
                   MEMCON   0x000f9c       data     extern C:\MCC18\v3_39\src\traditional\proc\p18F8722.asm
                     PIE1   0x000f9d       data     extern C:\MCC18\v3_39\src\traditional\proc\p18F8722.asm
                 PIE1bits   0x000f9d       data     extern C:\MCC18\v3_39\src\traditional\proc\p18F8722.asm
                     PIR1   0x000f9e       data     extern C:\MCC18\v3_39\src\traditional\proc\p18F8722.asm
                 PIR1bits   0x000f9e       data     extern C:\MCC18\v3_39\src\traditional\proc\p18F8722.asm
                 IPR1bits   0x000f9f       data     extern C:\MCC18\v3_39\src\traditional\proc\p18F8722.asm
                     IPR1   0x000f9f       data     extern C:\MCC18\v3_39\src\traditional\proc\p18F8722.asm
                 PIE2bits   0x000fa0       data     extern C:\MCC18\v3_39\src\traditional\proc\p18F8722.asm
                     PIE2   0x000fa0       data     extern C:\MCC18\v3_39\src\traditional\proc\p18F8722.asm
                     PIR2   0x000fa1       data     extern C:\MCC18\v3_39\src\traditional\proc\p18F8722.asm
                 PIR2bits   0x000fa1       data     extern C:\MCC18\v3_39\src\traditional\proc\p18F8722.asm
                 IPR2bits   0x000fa2       data     extern C:\MCC18\v3_39\src\traditional\proc\p18F8722.asm
                     IPR2   0x000fa2       data     extern C:\MCC18\v3_39\src\traditional\proc\p18F8722.asm
                 PIE3bits   0x000fa3       data     extern C:\MCC18\v3_39\src\traditional\proc\p18F8722.asm
                     PIE3   0x000fa3       data     extern C:\MCC18\v3_39\src\traditional\proc\p18F8722.asm
                     PIR3   0x000fa4       data     extern C:\MCC18\v3_39\src\traditional\proc\p18F8722.asm
                 PIR3bits   0x000fa4       data     extern C:\MCC18\v3_39\src\traditional\proc\p18F8722.asm
                 IPR3bits   0x000fa5       data     extern C:\MCC18\v3_39\src\traditional\proc\p18F8722.asm
                     IPR3   0x000fa5       data     extern C:\MCC18\v3_39\src\traditional\proc\p18F8722.asm
               EECON1bits   0x000fa6       data     extern C:\MCC18\v3_39\src\traditional\proc\p18F8722.asm
                   EECON1   0x000fa6       data     extern C:\MCC18\v3_39\src\traditional\proc\p18F8722.asm
                   EECON2   0x000fa7       data     extern C:\MCC18\v3_39\src\traditional\proc\p18F8722.asm
                   EEDATA   0x000fa8       data     extern C:\MCC18\v3_39\src\traditional\proc\p18F8722.asm
                    EEADR   0x000fa9       data     extern C:\MCC18\v3_39\src\traditional\proc\p18F8722.asm
                   EEADRH   0x000faa       data     extern C:\MCC18\v3_39\src\traditional\proc\p18F8722.asm
               RCSTA1bits   0x000fab       data     extern C:\MCC18\v3_39\src\traditional\proc\p18F8722.asm
                RCSTAbits   0x000fab       data     extern C:\MCC18\v3_39\src\traditional\proc\p18F8722.asm
                   RCSTA1   0x000fab       data     extern C:\MCC18\v3_39\src\traditional\proc\p18F8722.asm
                    RCSTA   0x000fab       data     extern C:\MCC18\v3_39\src\traditional\proc\p18F8722.asm
                TXSTAbits   0x000fac       data     extern C:\MCC18\v3_39\src\traditional\proc\p18F8722.asm
               TXSTA1bits   0x000fac       data     extern C:\MCC18\v3_39\src\traditional\proc\p18F8722.asm
                   TXSTA1   0x000fac       data     extern C:\MCC18\v3_39\src\traditional\proc\p18F8722.asm
                    TXSTA   0x000fac       data     extern C:\MCC18\v3_39\src\traditional\proc\p18F8722.asm
                    TXREG   0x000fad       data     extern C:\MCC18\v3_39\src\traditional\proc\p18F8722.asm
                   TXREG1   0x000fad       data     extern C:\MCC18\v3_39\src\traditional\proc\p18F8722.asm
                    RCREG   0x000fae       data     extern C:\MCC18\v3_39\src\traditional\proc\p18F8722.asm
                   RCREG1   0x000fae       data     extern C:\MCC18\v3_39\src\traditional\proc\p18F8722.asm
                   SPBRG1   0x000faf       data     extern C:\MCC18\v3_39\src\traditional\proc\p18F8722.asm
                    SPBRG   0x000faf       data     extern C:\MCC18\v3_39\src\traditional\proc\p18F8722.asm
                   PSPCON   0x000fb0       data     extern C:\MCC18\v3_39\src\traditional\proc\p18F8722.asm
               PSPCONbits   0x000fb0       data     extern C:\MCC18\v3_39\src\traditional\proc\p18F8722.asm
                T3CONbits   0x000fb1       data     extern C:\MCC18\v3_39\src\traditional\proc\p18F8722.asm
                    T3CON   0x000fb1       data     extern C:\MCC18\v3_39\src\traditional\proc\p18F8722.asm
                    TMR3L   0x000fb2       data     extern C:\MCC18\v3_39\src\traditional\proc\p18F8722.asm
                    TMR3H   0x000fb3       data     extern C:\MCC18\v3_39\src\traditional\proc\p18F8722.asm
                CMCONbits   0x000fb4       data     extern C:\MCC18\v3_39\src\traditional\proc\p18F8722.asm
                    CMCON   0x000fb4       data     extern C:\MCC18\v3_39\src\traditional\proc\p18F8722.asm
                   CVRCON   0x000fb5       data     extern C:\MCC18\v3_39\src\traditional\proc\p18F8722.asm
               CVRCONbits   0x000fb5       data     extern C:\MCC18\v3_39\src\traditional\proc\p18F8722.asm
                  ECCP1AS   0x000fb6       data     extern C:\MCC18\v3_39\src\traditional\proc\p18F8722.asm
              ECCP1ASbits   0x000fb6       data     extern C:\MCC18\v3_39\src\traditional\proc\p18F8722.asm
                 ECCP3CON   0x000fb7       data     extern C:\MCC18\v3_39\src\traditional\proc\p18F8722.asm
             ECCP3CONbits   0x000fb7       data     extern C:\MCC18\v3_39\src\traditional\proc\p18F8722.asm
              CCP3CONbits   0x000fb7       data     extern C:\MCC18\v3_39\src\traditional\proc\p18F8722.asm
                  CCP3CON   0x000fb7       data     extern C:\MCC18\v3_39\src\traditional\proc\p18F8722.asm
                    CCPR3   0x000fb8       data     extern C:\MCC18\v3_39\src\traditional\proc\p18F8722.asm
                   CCPR3L   0x000fb8       data     extern C:\MCC18\v3_39\src\traditional\proc\p18F8722.asm
                   CCPR3H   0x000fb9       data     extern C:\MCC18\v3_39\src\traditional\proc\p18F8722.asm
              CCP2CONbits   0x000fba       data     extern C:\MCC18\v3_39\src\traditional\proc\p18F8722.asm
                  CCP2CON   0x000fba       data     extern C:\MCC18\v3_39\src\traditional\proc\p18F8722.asm
                 ECCP2CON   0x000fba       data     extern C:\MCC18\v3_39\src\traditional\proc\p18F8722.asm
             ECCP2CONbits   0x000fba       data     extern C:\MCC18\v3_39\src\traditional\proc\p18F8722.asm
                    CCPR2   0x000fbb       data     extern C:\MCC18\v3_39\src\traditional\proc\p18F8722.asm
                   CCPR2L   0x000fbb       data     extern C:\MCC18\v3_39\src\traditional\proc\p18F8722.asm
                   CCPR2H   0x000fbc       data     extern C:\MCC18\v3_39\src\traditional\proc\p18F8722.asm
              CCP1CONbits   0x000fbd       data     extern C:\MCC18\v3_39\src\traditional\proc\p18F8722.asm
                  CCP1CON   0x000fbd       data     extern C:\MCC18\v3_39\src\traditional\proc\p18F8722.asm
             ECCP1CONbits   0x000fbd       data     extern C:\MCC18\v3_39\src\traditional\proc\p18F8722.asm
                 ECCP1CON   0x000fbd       data     extern C:\MCC18\v3_39\src\traditional\proc\p18F8722.asm
                   CCPR1L   0x000fbe       data     extern C:\MCC18\v3_39\src\traditional\proc\p18F8722.asm
                    CCPR1   0x000fbe       data     extern C:\MCC18\v3_39\src\traditional\proc\p18F8722.asm
                   CCPR1H   0x000fbf       data     extern C:\MCC18\v3_39\src\traditional\proc\p18F8722.asm
               ADCON2bits   0x000fc0       data     extern C:\MCC18\v3_39\src\traditional\proc\p18F8722.asm
                   ADCON2   0x000fc0       data     extern C:\MCC18\v3_39\src\traditional\proc\p18F8722.asm
                   ADCON1   0x000fc1       data     extern C:\MCC18\v3_39\src\traditional\proc\p18F8722.asm
               ADCON1bits   0x000fc1       data     extern C:\MCC18\v3_39\src\traditional\proc\p18F8722.asm
                   ADCON0   0x000fc2       data     extern C:\MCC18\v3_39\src\traditional\proc\p18F8722.asm
               ADCON0bits   0x000fc2       data     extern C:\MCC18\v3_39\src\traditional\proc\p18F8722.asm
                    ADRES   0x000fc3       data     extern C:\MCC18\v3_39\src\traditional\proc\p18F8722.asm
                   ADRESL   0x000fc3       data     extern C:\MCC18\v3_39\src\traditional\proc\p18F8722.asm
                   ADRESH   0x000fc4       data     extern C:\MCC18\v3_39\src\traditional\proc\p18F8722.asm
                 SSP1CON2   0x000fc5       data     extern C:\MCC18\v3_39\src\traditional\proc\p18F8722.asm
             SSP1CON2bits   0x000fc5       data     extern C:\MCC18\v3_39\src\traditional\proc\p18F8722.asm
                  SSPCON2   0x000fc5       data     extern C:\MCC18\v3_39\src\traditional\proc\p18F8722.asm
              SSPCON2bits   0x000fc5       data     extern C:\MCC18\v3_39\src\traditional\proc\p18F8722.asm
                 SSP1CON1   0x000fc6       data     extern C:\MCC18\v3_39\src\traditional\proc\p18F8722.asm
             SSP1CON1bits   0x000fc6       data     extern C:\MCC18\v3_39\src\traditional\proc\p18F8722.asm
                  SSPCON1   0x000fc6       data     extern C:\MCC18\v3_39\src\traditional\proc\p18F8722.asm
              SSPCON1bits   0x000fc6       data     extern C:\MCC18\v3_39\src\traditional\proc\p18F8722.asm
                 SSP1STAT   0x000fc7       data     extern C:\MCC18\v3_39\src\traditional\proc\p18F8722.asm
             SSP1STATbits   0x000fc7       data     extern C:\MCC18\v3_39\src\traditional\proc\p18F8722.asm
                  SSPSTAT   0x000fc7       data     extern C:\MCC18\v3_39\src\traditional\proc\p18F8722.asm
              SSPSTATbits   0x000fc7       data     extern C:\MCC18\v3_39\src\traditional\proc\p18F8722.asm
                   SSPADD   0x000fc8       data     extern C:\MCC18\v3_39\src\traditional\proc\p18F8722.asm
                  SSP1ADD   0x000fc8       data     extern C:\MCC18\v3_39\src\traditional\proc\p18F8722.asm
                   SSPBUF   0x000fc9       data     extern C:\MCC18\v3_39\src\traditional\proc\p18F8722.asm
                  SSP1BUF   0x000fc9       data     extern C:\MCC18\v3_39\src\traditional\proc\p18F8722.asm
                T2CONbits   0x000fca       data     extern C:\MCC18\v3_39\src\traditional\proc\p18F8722.asm
                    T2CON   0x000fca       data     extern C:\MCC18\v3_39\src\traditional\proc\p18F8722.asm
                      PR2   0x000fcb       data     extern C:\MCC18\v3_39\src\traditional\proc\p18F8722.asm
                     TMR2   0x000fcc       data     extern C:\MCC18\v3_39\src\traditional\proc\p18F8722.asm
                    T1CON   0x000fcd       data     extern C:\MCC18\v3_39\src\traditional\proc\p18F8722.asm
                T1CONbits   0x000fcd       data     extern C:\MCC18\v3_39\src\traditional\proc\p18F8722.asm
                    TMR1L   0x000fce       data     extern C:\MCC18\v3_39\src\traditional\proc\p18F8722.asm
                    TMR1H   0x000fcf       data     extern C:\MCC18\v3_39\src\traditional\proc\p18F8722.asm
                 RCONbits   0x000fd0       data     extern C:\MCC18\v3_39\src\traditional\proc\p18F8722.asm
                     RCON   0x000fd0       data     extern C:\MCC18\v3_39\src\traditional\proc\p18F8722.asm
               WDTCONbits   0x000fd1       data     extern C:\MCC18\v3_39\src\traditional\proc\p18F8722.asm
                   WDTCON   0x000fd1       data     extern C:\MCC18\v3_39\src\traditional\proc\p18F8722.asm
                  HLVDCON   0x000fd2       data     extern C:\MCC18\v3_39\src\traditional\proc\p18F8722.asm
              HLVDCONbits   0x000fd2       data     extern C:\MCC18\v3_39\src\traditional\proc\p18F8722.asm
                   LVDCON   0x000fd2       data     extern C:\MCC18\v3_39\src\traditional\proc\p18F8722.asm
               LVDCONbits   0x000fd2       data     extern C:\MCC18\v3_39\src\traditional\proc\p18F8722.asm
                   OSCCON   0x000fd3       data     extern C:\MCC18\v3_39\src\traditional\proc\p18F8722.asm
               OSCCONbits   0x000fd3       data     extern C:\MCC18\v3_39\src\traditional\proc\p18F8722.asm
                    T0CON   0x000fd5       data     extern C:\MCC18\v3_39\src\traditional\proc\p18F8722.asm
                T0CONbits   0x000fd5       data     extern C:\MCC18\v3_39\src\traditional\proc\p18F8722.asm
                    TMR0L   0x000fd6       data     extern C:\MCC18\v3_39\src\traditional\proc\p18F8722.asm
                    TMR0H   0x000fd7       data     extern C:\MCC18\v3_39\src\traditional\proc\p18F8722.asm
                   STATUS   0x000fd8       data     extern C:\MCC18\v3_39\src\traditional\proc\p18F8722.asm
               STATUSbits   0x000fd8       data     extern C:\MCC18\v3_39\src\traditional\proc\p18F8722.asm
                    FSR2L   0x000fd9       data     extern C:\MCC18\v3_39\src\traditional\proc\p18F8722.asm
                     FSR2   0x000fd9       data     extern C:\MCC18\v3_39\src\traditional\proc\p18F8722.asm
                    FSR2H   0x000fda       data     extern C:\MCC18\v3_39\src\traditional\proc\p18F8722.asm
                   PLUSW2   0x000fdb       data     extern C:\MCC18\v3_39\src\traditional\proc\p18F8722.asm
                  PREINC2   0x000fdc       data     extern C:\MCC18\v3_39\src\traditional\proc\p18F8722.asm
                 POSTDEC2   0x000fdd       data     extern C:\MCC18\v3_39\src\traditional\proc\p18F8722.asm
                 POSTINC2   0x000fde       data     extern C:\MCC18\v3_39\src\traditional\proc\p18F8722.asm
                    INDF2   0x000fdf       data     extern C:\MCC18\v3_39\src\traditional\proc\p18F8722.asm
                      BSR   0x000fe0       data     extern C:\MCC18\v3_39\src\traditional\proc\p18F8722.asm
                    FSR1L   0x000fe1       data     extern C:\MCC18\v3_39\src\traditional\proc\p18F8722.asm
                     FSR1   0x000fe1       data     extern C:\MCC18\v3_39\src\traditional\proc\p18F8722.asm
                    FSR1H   0x000fe2       data     extern C:\MCC18\v3_39\src\traditional\proc\p18F8722.asm
                   PLUSW1   0x000fe3       data     extern C:\MCC18\v3_39\src\traditional\proc\p18F8722.asm
                  PREINC1   0x000fe4       data     extern C:\MCC18\v3_39\src\traditional\proc\p18F8722.asm
                 POSTDEC1   0x000fe5       data     extern C:\MCC18\v3_39\src\traditional\proc\p18F8722.asm
                 POSTINC1   0x000fe6       data     extern C:\MCC18\v3_39\src\traditional\proc\p18F8722.asm
                    INDF1   0x000fe7       data     extern C:\MCC18\v3_39\src\traditional\proc\p18F8722.asm
                     WREG   0x000fe8       data     extern C:\MCC18\v3_39\src\traditional\proc\p18F8722.asm
                     FSR0   0x000fe9       data     extern C:\MCC18\v3_39\src\traditional\proc\p18F8722.asm
                    FSR0L   0x000fe9       data     extern C:\MCC18\v3_39\src\traditional\proc\p18F8722.asm
                    FSR0H   0x000fea       data     extern C:\MCC18\v3_39\src\traditional\proc\p18F8722.asm
                   PLUSW0   0x000feb       data     extern C:\MCC18\v3_39\src\traditional\proc\p18F8722.asm
                  PREINC0   0x000fec       data     extern C:\MCC18\v3_39\src\traditional\proc\p18F8722.asm
                 POSTDEC0   0x000fed       data     extern C:\MCC18\v3_39\src\traditional\proc\p18F8722.asm
                 POSTINC0   0x000fee       data     extern C:\MCC18\v3_39\src\traditional\proc\p18F8722.asm
                    INDF0   0x000fef       data     extern C:\MCC18\v3_39\src\traditional\proc\p18F8722.asm
                  INTCON3   0x000ff0       data     extern C:\MCC18\v3_39\src\traditional\proc\p18F8722.asm
              INTCON3bits   0x000ff0       data     extern C:\MCC18\v3_39\src\traditional\proc\p18F8722.asm
              INTCON2bits   0x000ff1       data     extern C:\MCC18\v3_39\src\traditional\proc\p18F8722.asm
                  INTCON2   0x000ff1       data     extern C:\MCC18\v3_39\src\traditional\proc\p18F8722.asm
                   INTCON   0x000ff2       data     extern C:\MCC18\v3_39\src\traditional\proc\p18F8722.asm
               INTCONbits   0x000ff2       data     extern C:\MCC18\v3_39\src\traditional\proc\p18F8722.asm
                     PROD   0x000ff3       data     extern C:\MCC18\v3_39\src\traditional\proc\p18F8722.asm
                    PRODL   0x000ff3       data     extern C:\MCC18\v3_39\src\traditional\proc\p18F8722.asm
                    PRODH   0x000ff4       data     extern C:\MCC18\v3_39\src\traditional\proc\p18F8722.asm
                   TABLAT   0x000ff5       data     extern C:\MCC18\v3_39\src\traditional\proc\p18F8722.asm
                   TBLPTR   0x000ff6       data     extern C:\MCC18\v3_39\src\traditional\proc\p18F8722.asm
                  TBLPTRL   0x000ff6       data     extern C:\MCC18\v3_39\src\traditional\proc\p18F8722.asm
                  TBLPTRH   0x000ff7       data     extern C:\MCC18\v3_39\src\traditional\proc\p18F8722.asm
                  TBLPTRU   0x000ff8       data     extern C:\MCC18\v3_39\src\traditional\proc\p18F8722.asm
                       PC   0x000ff9       data     extern C:\MCC18\v3_39\src\traditional\proc\p18F8722.asm
                      PCL   0x000ff9       data     extern C:\MCC18\v3_39\src\traditional\proc\p18F8722.asm
                   PCLATH   0x000ffa       data     extern C:\MCC18\v3_39\src\traditional\proc\p18F8722.asm
                   PCLATU   0x000ffb       data     extern C:\MCC18\v3_39\src\traditional\proc\p18F8722.asm
                   STKPTR   0x000ffc       data     extern C:\MCC18\v3_39\src\traditional\proc\p18F8722.asm
               STKPTRbits   0x000ffc       data     extern C:\MCC18\v3_39\src\traditional\proc\p18F8722.asm
                      TOS   0x000ffd       data     extern C:\MCC18\v3_39\src\traditional\proc\p18F8722.asm
                     TOSL   0x000ffd       data     extern C:\MCC18\v3_39\src\traditional\proc\p18F8722.asm
                     TOSH   0x000ffe       data     extern C:\MCC18\v3_39\src\traditional\proc\p18F8722.asm
                     TOSU   0x000fff       data     extern C:\MCC18\v3_39\src\traditional\proc\p18F8722.asm


