MPLINK 4.40, Linker
Linker Map File - Created Mon May 27 12:39:33 2013

                                 Section Info
                  Section       Type    Address   Location Size(Bytes)
                ---------  ---------  ---------  ---------  ---------
               _entry_scn       code   0x000000    program   0x000006
       .code__user_putc.o       code   0x000006    program   0x000002
           tick_interrupt       code   0x000008    program   0x000006
          .code_adcbusy.o       code   0x00000e    program   0x00000a
           work_interrupt       code   0x000018    program   0x000006
                   .cinit    romdata   0x00001e    program   0x00004a
        .code_mandm8722.o       code   0x000068    program   0x0070f6
              .code_daq.o       code   0x00715e    program   0x001cbc
             .stringtable    romdata   0x008e1a    program   0x0015a9
     .romdata_mandm8722.o    romdata   0x00a3c3    program   0x00133a
       .romdata_fxm3232.o    romdata   0x00b6fd    program   0x000000
       .idata_fxm3232.o_i    romdata   0x00b6fd    program   0x000000
      .romdata_fxd1616u.o    romdata   0x00b6fd    program   0x000000
      .idata_fxd1616u.o_i    romdata   0x00b6fd    program   0x000000
       .romdata_adcconv.o    romdata   0x00b6fd    program   0x000000
       .idata_adcconv.o_i    romdata   0x00b6fd    program   0x000000
      .romdata_busy_eep.o    romdata   0x00b6fd    program   0x000000
      .idata_busy_eep.o_i    romdata   0x00b6fd    program   0x000000
    .romdata__user_putc.o    romdata   0x00b6fd    program   0x000000
      .romdata_wcmdxlcd.o    romdata   0x00b6fd    program   0x000000
      .idata_wcmdxlcd.o_i    romdata   0x00b6fd    program   0x000000
      .idata_setddram.o_i    romdata   0x00b6fd    program   0x000000
      .romdata_setcgram.o    romdata   0x00b6fd    program   0x000000
      .idata_readdata.o_i    romdata   0x00b6fd    program   0x000000
      .romdata_readaddr.o    romdata   0x00b6fd    program   0x000000
      .romdata_putsxlcd.o    romdata   0x00b6fd    program   0x000000
      .idata_putrxlcd.o_i    romdata   0x00b6fd    program   0x000000
      .romdata_openxlcd.o    romdata   0x00b6fd    program   0x000000
       .idata_write_B.o_i    romdata   0x00b6fd    program   0x000000
       .romdata_t3write.o    romdata   0x00b6fd    program   0x000000
       .romdata_t0write.o    romdata   0x00b6fd    program   0x000000
       .idata_u2write.o_i    romdata   0x00b6fd    program   0x000000
        .romdata_u2defs.o    romdata   0x00b6fd    program   0x000000
        .idata_read_B.o_i    romdata   0x00b6fd    program   0x000000
       .romdata_adcread.o    romdata   0x00b6fd    program   0x000000
       .idata_adcread.o_i    romdata   0x00b6fd    program   0x000000
        .romdata_u2read.o    romdata   0x00b6fd    program   0x000000
        .idata_t4open.o_i    romdata   0x00b6fd    program   0x000000
       .romdata_write_B.o    romdata   0x00b6fd    program   0x000000
       .romdata_u2putrs.o    romdata   0x00b6fd    program   0x000000
        .idata_t3open.o_i    romdata   0x00b6fd    program   0x000000
        .idata_u2puts.o_i    romdata   0x00b6fd    program   0x000000
       .romdata_sprintf.o    romdata   0x00b6fd    program   0x000000
        .idata_t0open.o_i    romdata   0x00b6fd    program   0x000000
          .romdata_putc.o    romdata   0x00b6fd    program   0x000000
    .idata__user_putc.o_i    romdata   0x00b6fd    program   0x000000
        .idata_u2open.o_i    romdata   0x00b6fd    program   0x000000
         .idata_power.o_i    romdata   0x00b6fd    program   0x000000
  .romdata_mandm_vector.o    romdata   0x00b6fd    program   0x000000
          .romdata_crit.o    romdata   0x00b6fd    program   0x000000
         .idata_model.o_i    romdata   0x00b6fd    program   0x000000
        .romdata_c018iz.o    romdata   0x00b6fd    program   0x000000
        .idata_c018iz.o_i    romdata   0x00b6fd    program   0x000000
           .code_c018iz.o       code   0x00b6fe    program   0x000000
           .code_u2defs.o       code   0x00b6fe    program   0x000000
     .code_mandm_vector.o       code   0x00b6fe    program   0x000e26
         .code_vfprintf.o       code   0x00c524    program   0x000c22
                     PROG       code   0x00d146    program   0x0006c2
            .code_power.o       code   0x00d808    program   0x000486
           .code_config.o       code   0x00dc8e    program   0x000338
             .code_crit.o       code   0x00dfc6    program   0x0001f2
                   STRING       code   0x00e1b8    program   0x000192
           .code_hwconf.o       code   0x00e34a    program   0x000180
          .code_sprintf.o       code   0x00e4ca    program   0x0000ac
               _cinit_scn       code   0x00e576    program   0x00009e
         .code_openxlcd.o       code   0x00e614    program   0x00009a
           .code_u2open.o       code   0x00e6ae    program   0x00008a
             .code_putc.o       code   0x00e738    program   0x000084
          .code_fxm3232.o       code   0x00e7bc    program   0x000070
          .code_adcopen.o       code   0x00e82c    program   0x00006e
          .code_u2putrs.o       code   0x00e89a    program   0x000064
          .code_write_B.o       code   0x00e8fe    program   0x000060
           .code_read_B.o       code   0x00e95e    program   0x00005c
         .code_putrxlcd.o       code   0x00e9ba    program   0x000054
           .code_u2puts.o       code   0x00ea0e    program   0x00004c
         .code_setddram.o       code   0x00ea5a    program   0x000048
         .code_setcgram.o       code   0x00eaa2    program   0x000048
         .code_fxd3232u.o       code   0x00eaea    program   0x000048
         .code_writdata.o       code   0x00eb32    program   0x000046
         .code_wcmdxlcd.o       code   0x00eb78    program   0x000046
         .code_readdata.o       code   0x00ebbe    program   0x000044
         .code_readaddr.o       code   0x00ec02    program   0x000044
           .code_t3open.o       code   0x00ec46    program   0x000042
         .code_putsxlcd.o       code   0x00ec88    program   0x000042
           .code_u2read.o       code   0x00ecca    program   0x00003e
                   STDLIB       code   0x00ed08    program   0x00003c
          .code_t3write.o       code   0x00ed44    program   0x000038
          .code_t0write.o       code   0x00ed7c    program   0x000038
           .code_t0open.o       code   0x00edb4    program   0x000038
           .code_t4open.o       code   0x00edec    program   0x000036
             D10KTCYXCODE       code   0x00ee22    program   0x00002e
          .code_u2write.o       code   0x00ee50    program   0x00002e
         .code_adcsetch.o       code   0x00ee7e    program   0x00002e
         .code_fxd1616u.o       code   0x00eeac    program   0x00002c
         .code_busyxlcd.o       code   0x00eed8    program   0x00002c
                    CTYPE       code   0x00ef04    program   0x000024
             _startup_scn       code   0x00ef28    program   0x000020
                    .code       code   0x00ef48    program   0x000020
                    STDIO       code   0x00ef68    program   0x00001c
              D10TCYXCODE       code   0x00ef84    program   0x000016
          .code_adcread.o       code   0x00ef9a    program   0x000012
      .romdata_vfprintf.o    romdata   0x00efac    program   0x000011
          .idata_putc.o_i    romdata   0x00efbd    program   0x000000
      .idata_vfprintf.o_i    romdata   0x00efbd    program   0x000000
       .idata_sprintf.o_i    romdata   0x00efbd    program   0x000000
        .romdata_read_B.o    romdata   0x00efbd    program   0x000000
        .romdata_u2puts.o    romdata   0x00efbd    program   0x000000
       .idata_u2putrs.o_i    romdata   0x00efbd    program   0x000000
      .idata_adcsetch.o_i    romdata   0x00efbd    program   0x000000
      .romdata_adcsetch.o    romdata   0x00efbd    program   0x000000
        .romdata___init.o    romdata   0x00efbd    program   0x000000
        .idata___init.o_i    romdata   0x00efbd    program   0x000000
        .idata_u2defs.o_i    romdata   0x00efbd    program   0x000000
        .idata_hwconf.o_i    romdata   0x00efbd    program   0x000000
        .romdata_hwconf.o    romdata   0x00efbd    program   0x000000
         .romdata_model.o    romdata   0x00efbd    program   0x000000
       .idata_t3write.o_i    romdata   0x00efbd    program   0x000000
       .romdata_u2write.o    romdata   0x00efbd    program   0x000000
       .idata_t0write.o_i    romdata   0x00efbd    program   0x000000
      .idata_openxlcd.o_i    romdata   0x00efbd    program   0x000000
      .romdata_putrxlcd.o    romdata   0x00efbd    program   0x000000
      .idata_putsxlcd.o_i    romdata   0x00efbd    program   0x000000
      .romdata_writdata.o    romdata   0x00efbd    program   0x000000
      .idata_readaddr.o_i    romdata   0x00efbd    program   0x000000
      .idata_writdata.o_i    romdata   0x00efbd    program   0x000000
      .romdata_readdata.o    romdata   0x00efbd    program   0x000000
      .idata_setcgram.o_i    romdata   0x00efbd    program   0x000000
      .romdata_setddram.o    romdata   0x00efbd    program   0x000000
      .idata_busyxlcd.o_i    romdata   0x00efbd    program   0x000000
      .romdata_busyxlcd.o    romdata   0x00efbd    program   0x000000
        .idata_config.o_i    romdata   0x00efbd    program   0x000000
        .romdata_config.o    romdata   0x00efbd    program   0x000000
       .idata_adcbusy.o_i    romdata   0x00efbd    program   0x000000
       .romdata_adcbusy.o    romdata   0x00efbd    program   0x000000
      .idata_fxd3232u.o_i    romdata   0x00efbd    program   0x000000
         .romdata_power.o    romdata   0x00efbd    program   0x000000
        .idata_u2read.o_i    romdata   0x00efbd    program   0x000000
        .romdata_t4open.o    romdata   0x00efbd    program   0x000000
           .romdata_daq.o    romdata   0x00efbd    program   0x000000
        .romdata_t3open.o    romdata   0x00efbd    program   0x000000
        .romdata_t0open.o    romdata   0x00efbd    program   0x000000
       .romdata_adcopen.o    romdata   0x00efbd    program   0x000000
       .idata_adcopen.o_i    romdata   0x00efbd    program   0x000000
        .romdata_u2open.o    romdata   0x00efbd    program   0x000000
      .romdata_fxd3232u.o    romdata   0x00efbd    program   0x000000
            .code_model.o       code   0x00efbe    program   0x000000
         .code_busy_eep.o       code   0x00efbe    program   0x000006
          .code_adcconv.o       code   0x00efc4    program   0x000004
           .code___init.o       code   0x00efc8    program   0x000002
                  gpr10_i    romdata   0x00efca    program   0x000030
              SEED_DATA_i    romdata   0x00effa    program   0x000002
  .idata_mandm_vector.o_i    romdata   0x00effc    program   0x000012
     .idata_mandm8722.o_i    romdata   0x00f00e    program   0x000095
           .idata_daq.o_i    romdata   0x00f0a3    program   0x000004
          .idata_crit.o_i    romdata   0x00f0a7    program   0x000002
.config_300001_mandm8722.o    romdata   0x300001    program   0x000001
.config_300002_mandm8722.o    romdata   0x300002    program   0x000001
.config_300003_mandm8722.o    romdata   0x300003    program   0x000001
.config_300004_mandm8722.o    romdata   0x300004    program   0x000001
.config_300005_mandm8722.o    romdata   0x300005    program   0x000001
.config_300006_mandm8722.o    romdata   0x300006    program   0x000001
.config_300008_mandm8722.o    romdata   0x300008    program   0x000001
.config_300009_mandm8722.o    romdata   0x300009    program   0x000001
.config_30000a_mandm8722.o    romdata   0x30000a    program   0x000001
.config_30000b_mandm8722.o    romdata   0x30000b    program   0x000001
.config_30000c_mandm8722.o    romdata   0x30000c    program   0x000001
.config_30000d_mandm8722.o    romdata   0x30000d    program   0x000001
                 .tmpdata      udata   0x000000       data   0x000024
                MATH_DATA      udata   0x000024       data   0x000014
         tick_handler_tmp      udata   0x000038       data   0x000004
                DELAYDAT2      udata   0x00003c       data   0x000001
                DELAYDAT1      udata   0x00003d       data   0x000001
              ISRHtmpdata      udata   0x00003e       data   0x000000
       .idata_mandm8722.o      idata   0x000060       data   0x000095
          .udata_c018iz.o      udata   0x0000f5       data   0x00000a
                     gpr4      udata   0x0000ff       data   0x000001
                     gpr2      udata   0x000100       data   0x0000fc
             .idata_daq.o      idata   0x0001fc       data   0x000004
                    gpr13      udata   0x000200       data   0x0000fb
          .udata_u2defs.o      udata   0x0002fb       data   0x000001
          .udata_hwconf.o      udata   0x0002fc       data   0x000001
          .udata_config.o      udata   0x0002fd       data   0x000001
          .idata_read_B.o      idata   0x0002fe       data   0x000000
          .udata_read_B.o      udata   0x0002fe       data   0x000000
         .idata_adcread.o      idata   0x0002fe       data   0x000000
         .udata_adcread.o      udata   0x0002fe       data   0x000000
          .idata_u2read.o      idata   0x0002fe       data   0x000000
          .udata_u2read.o      udata   0x0002fe       data   0x000000
          .idata_t4open.o      idata   0x0002fe       data   0x000000
          .udata_t4open.o      udata   0x0002fe       data   0x000000
          .idata_t3open.o      idata   0x0002fe       data   0x000000
          .udata_t3open.o      udata   0x0002fe       data   0x000000
          .idata_t0open.o      idata   0x0002fe       data   0x000000
          .udata_t0open.o      udata   0x0002fe       data   0x000000
         .idata_adcopen.o      idata   0x0002fe       data   0x000000
         .udata_adcopen.o      udata   0x0002fe       data   0x000000
        .udata_fxd1616u.o      udata   0x0002fe       data   0x000000
          .idata_u2open.o      idata   0x0002fe       data   0x000000
        .idata_fxd1616u.o      idata   0x0002fe       data   0x000000
          .udata_u2open.o      udata   0x0002fe       data   0x000000
         .idata_fxm3232.o      idata   0x0002fe       data   0x000000
         .udata_fxm3232.o      udata   0x0002fe       data   0x000000
        .idata_fxd3232u.o      idata   0x0002fe       data   0x000000
        .udata_fxd3232u.o      udata   0x0002fe       data   0x000000
      .udata__user_putc.o      udata   0x0002fe       data   0x000000
            .idata_putc.o      idata   0x0002fe       data   0x000000
            .udata_putc.o      udata   0x0002fe       data   0x000000
        .idata_vfprintf.o      idata   0x0002fe       data   0x000000
        .udata_vfprintf.o      udata   0x0002fe       data   0x000000
         .idata_sprintf.o      idata   0x0002fe       data   0x000000
         .udata_sprintf.o      udata   0x0002fe       data   0x000000
          .idata_u2puts.o      idata   0x0002fe       data   0x000000
          .udata_u2puts.o      udata   0x0002fe       data   0x000000
         .idata_u2putrs.o      idata   0x0002fe       data   0x000000
         .udata_u2putrs.o      udata   0x0002fe       data   0x000000
          .idata___init.o      idata   0x0002fe       data   0x000000
          .udata___init.o      udata   0x0002fe       data   0x000000
         .idata_write_B.o      idata   0x0002fe       data   0x000000
         .udata_write_B.o      udata   0x0002fe       data   0x000000
         .idata_t3write.o      idata   0x0002fe       data   0x000000
         .udata_t3write.o      udata   0x0002fe       data   0x000000
         .idata_t0write.o      idata   0x0002fe       data   0x000000
         .udata_t0write.o      udata   0x0002fe       data   0x000000
      .idata__user_putc.o      idata   0x0002fe       data   0x000000
         .idata_u2write.o      idata   0x0002fe       data   0x000000
         .udata_u2write.o      udata   0x0002fe       data   0x000000
          .idata_u2defs.o      idata   0x0002fe       data   0x000000
        .idata_adcsetch.o      idata   0x0002fe       data   0x000000
        .udata_adcsetch.o      udata   0x0002fe       data   0x000000
        .idata_readaddr.o      idata   0x0002fe       data   0x000000
        .udata_readaddr.o      udata   0x0002fe       data   0x000000
        .idata_putsxlcd.o      idata   0x0002fe       data   0x000000
        .udata_putsxlcd.o      udata   0x0002fe       data   0x000000
        .idata_putrxlcd.o      idata   0x0002fe       data   0x000000
        .udata_putrxlcd.o      udata   0x0002fe       data   0x000000
        .idata_openxlcd.o      idata   0x0002fe       data   0x000000
        .udata_openxlcd.o      udata   0x0002fe       data   0x000000
        .idata_writdata.o      idata   0x0002fe       data   0x000000
        .udata_writdata.o      udata   0x0002fe       data   0x000000
                     gpr6      udata   0x0002fe       data   0x000000
       .udata_mandm8722.o      udata   0x0002fe       data   0x000000
           .idata_power.o      idata   0x0002fe       data   0x000000
           .idata_model.o      idata   0x0002fe       data   0x000000
           .udata_model.o      udata   0x0002fe       data   0x000000
          .idata_hwconf.o      idata   0x0002fe       data   0x000000
            .udata_crit.o      udata   0x0002fe       data   0x000000
          .idata_c018iz.o      idata   0x0002fe       data   0x000000
         .idata_adcconv.o      idata   0x0002fe       data   0x000000
         .udata_adcconv.o      udata   0x0002fe       data   0x000000
        .idata_busy_eep.o      idata   0x0002fe       data   0x000000
        .udata_busy_eep.o      udata   0x0002fe       data   0x000000
         .idata_adcbusy.o      idata   0x0002fe       data   0x000000
         .udata_adcbusy.o      udata   0x0002fe       data   0x000000
          .idata_config.o      idata   0x0002fe       data   0x000000
        .idata_busyxlcd.o      idata   0x0002fe       data   0x000000
        .udata_readdata.o      udata   0x0002fe       data   0x000000
        .idata_readdata.o      idata   0x0002fe       data   0x000000
        .udata_setcgram.o      udata   0x0002fe       data   0x000000
        .idata_setcgram.o      idata   0x0002fe       data   0x000000
        .udata_setddram.o      udata   0x0002fe       data   0x000000
        .idata_setddram.o      idata   0x0002fe       data   0x000000
        .udata_wcmdxlcd.o      udata   0x0002fe       data   0x000000
        .idata_wcmdxlcd.o      idata   0x0002fe       data   0x000000
        .udata_busyxlcd.o      udata   0x0002fe       data   0x000000
                     gpr1      udata   0x000300       data   0x0000ea
    .idata_mandm_vector.o      idata   0x0003ea       data   0x000012
                SEED_DATA      idata   0x0003fc       data   0x000002
            .idata_crit.o      idata   0x0003fe       data   0x000002
                     gpr9      udata   0x000400       data   0x0000d8
                     gpr3      udata   0x0004d8       data   0x00001c
    .udata_mandm_vector.o      udata   0x0004f4       data   0x000006
                     gpr8      udata   0x000500       data   0x0000b0
           .udata_power.o      udata   0x0005b0       data   0x00003a
                     gpr5      udata   0x000600       data   0x0000a7
                    gpr10      idata   0x0006a7       data   0x000030
                     gpr7      udata   0x0006d7       data   0x000018
             .udata_daq.o      udata   0x0006ef       data   0x000011
                   .stack      udata   0x000e00       data   0x000100
            SFR_UNBANKED0      udata   0x000f62       data   0x00009e



                              Program Memory Usage 
                               Start         End      
                           ---------   ---------      
                            0x000000    0x00b6fc      
                            0x00b6fe    0x00efbc      
                            0x00efbe    0x00f0a8      
                            0x300001    0x300006      
                            0x300008    0x30000d      
            61619 out of 132120 program addresses used, program memory utilization is 46%



                              Symbols - Sorted by Name
                     Name    Address   Location    Storage File                     
                ---------  ---------  ---------  --------- ---------                
                     ABSI   0x001180    program     extern /fred/mandm/mandm/mandm8722.c
                     ABSL   0x0011ae    program     extern /fred/mandm/mandm/mandm8722.c
                 ADC_read   0x007286    program     extern /fred/mandm/mandm/daq.c  
                 ADC_zero   0x00715e    program     extern /fred/mandm/mandm/daq.c  
                  BusyADC   0x00000e    program     extern C:\MCC18\v3_39\src\pmc_common\ADC\adcbusy.c
                 BusyXLCD   0x00eed8    program     extern /fred/mandm/mandm/xlcd/busyxlcd.c
                 Busy_eep   0x00efbe    program     extern C:\MCC18\v3_39\src\pmc_common\EEP\busy_eep.c
             Change_Count   0x0071c4    program     extern /fred/mandm/mandm/daq.c  
        Clear_All_Buttons   0x00c4c8    program     extern /fred/mandm/mandm/mandm_vector.c
               ConvertADC   0x00efc4    program     extern C:\MCC18\v3_39\src\pmc_common\ADC\adcconv.c
                   D10K_1   0x00ee2e    program     static C:\MCC18\v3_39\src\traditional\delays\d10ktcyx.asm
                    D10Kl   0x00ee3a    program     static C:\MCC18\v3_39\src\traditional\delays\d10ktcyx.asm
                    D10Kx   0x00ee2c    program     static C:\MCC18\v3_39\src\traditional\delays\d10ktcyx.asm
                    D10_1   0x00ef94    program     static C:\MCC18\v3_39\src\traditional\delays\d10tcyx.asm
                     D10x   0x00ef8c    program     static C:\MCC18\v3_39\src\traditional\delays\d10tcyx.asm
                   D1616S   0x00d476    program     static C:\MCC18\v3_39\src\traditional\math\fxd1616s.asm
                D1616SNEG   0x00d484    program     static C:\MCC18\v3_39\src\traditional\math\fxd1616s.asm
                 D1616SOK   0x00d480    program     static C:\MCC18\v3_39\src\traditional\math\fxd1616s.asm
                  D1616SX   0x00d496    program     static C:\MCC18\v3_39\src\traditional\math\fxd1616s.asm
                   D3232S   0x00d4d0    program     static C:\MCC18\v3_39\src\traditional\math\fxd3232s.asm
                D3232SNEG   0x00d4de    program     static C:\MCC18\v3_39\src\traditional\math\fxd3232s.asm
                 D3232SOK   0x00d4da    program     static C:\MCC18\v3_39\src\traditional\math\fxd3232s.asm
                  D3232SX   0x00d4fe    program     static C:\MCC18\v3_39\src\traditional\math\fxd3232s.asm
                  DA1616S   0x00d466    program     static C:\MCC18\v3_39\src\traditional\math\fxd1616s.asm
                  DA3232S   0x00d4ba    program     static C:\MCC18\v3_39\src\traditional\math\fxd3232s.asm
             Delay10KTCYx   0x00ee22    program     extern C:\MCC18\v3_39\src\traditional\delays\d10ktcyx.asm
              Delay10TCYx   0x00ef84    program     extern C:\MCC18\v3_39\src\traditional\delays\d10tcyx.asm
            DelayFor18TCY   0x00063c    program     extern /fred/mandm/mandm/mandm8722.c
             DelayPORXLCD   0x000656    program     extern /fred/mandm/mandm/mandm8722.c
                DelayXLCD   0x000662    program     extern /fred/mandm/mandm/mandm8722.c
                 FLO1632S   0x00d14a    program     extern C:\MCC18\v3_39\src\traditional\math\cast16FP.asm
                 FLO1632U   0x00d146    program     extern C:\MCC18\v3_39\src\traditional\math\cast16FP.asm
                 FLO3232S   0x00d174    program     extern C:\MCC18\v3_39\src\traditional\math\cast32FP.asm
                 FLO3232U   0x00d170    program     extern C:\MCC18\v3_39\src\traditional\math\cast32FP.asm
                    FPA32   0x00d1a8    program     extern C:\MCC18\v3_39\src\traditional\math\addFP.asm
                    FPD32   0x00d2d4    program     extern C:\MCC18\v3_39\src\traditional\math\divFP.asm
                    FPM32   0x00d37a    program     extern C:\MCC18\v3_39\src\traditional\math\mulFP.asm
                    FPS32   0x00d1a6    program     extern C:\MCC18\v3_39\src\traditional\math\addFP.asm
                 FXD1616S   0x00d454    program     extern C:\MCC18\v3_39\src\traditional\math\fxd1616s.asm
                 FXD1616U   0x00eeac    program     extern C:\MCC18\v3_39\src\traditional\math\fxd1616u.c
                 FXD3232S   0x00d4a0    program     extern C:\MCC18\v3_39\src\traditional\math\fxd3232s.asm
                 FXD3232U   0x00eaea    program     extern C:\MCC18\v3_39\src\traditional\math\fxd3232u.c
                 FXM1616S   0x00d7ae    program     extern C:\MCC18\v3_39\src\traditional\math\fxm1616s.asm
                 FXM1616U   0x00d772    program     extern C:\MCC18\v3_39\src\traditional\math\fxm1616u.asm
                 FXM2424U   0x00d508    program     extern C:\MCC18\v3_39\src\traditional\math\fxm2424u.asm
                  FXM3232   0x00e7bc    program     extern C:\MCC18\v3_39\src\traditional\math\fxm3232.c
                  INT3216   0x00d59a    program     extern C:\MCC18\v3_39\src\traditional\math\castFP16.asm
                  INT3232   0x00d5f8    program     extern C:\MCC18\v3_39\src\traditional\math\castFP32.asm
              LCD_VC_puts   0x00016e    program     extern /fred/mandm/mandm/mandm8722.c
               Open2USART   0x00e6ae    program     extern C:\MCC18\v3_39\src\pmc_common\USART\u2open.c
                  OpenADC   0x00e82c    program     extern C:\MCC18\v3_39\src\pmc_common\ADC\adcopen.c
               OpenTimer0   0x00edb4    program     extern C:\MCC18\v3_39\src\pmc_common\Timers\t0open.c
               OpenTimer3   0x00ec46    program     extern C:\MCC18\v3_39\src\pmc_common\Timers\t3open.c
               OpenTimer4   0x00edec    program     extern C:\MCC18\v3_39\src\pmc_common\Timers\t4open.c
                 OpenXLCD   0x00e614    program     extern /fred/mandm/mandm/xlcd/openxlcd.c
                   P1wait   0x00c4bc    program     extern /fred/mandm/mandm/mandm_vector.c
                   P2wait   0x00c4c2    program     extern /fred/mandm/mandm/mandm_vector.c
               Read2USART   0x00ecca    program     extern C:\MCC18\v3_39\src\pmc_common\USART\u2read.c
                  ReadADC   0x00ef9a    program     extern C:\MCC18\v3_39\src\pmc_common\ADC\adcread.c
             ReadAddrXLCD   0x00ec02    program     extern /fred/mandm/mandm/xlcd/readaddr.c
             ReadDataXLCD   0x00ebbe    program     extern /fred/mandm/mandm/xlcd/readdata.c
               Read_b_eep   0x00e95e    program     extern C:\MCC18\v3_39\src\pmc_common\EEP\read_B.c
       Reset_Change_Count   0x007184    program     extern /fred/mandm/mandm/daq.c  
             SetCGRamAddr   0x00eaa2    program     extern /fred/mandm/mandm/xlcd/setcgram.c
               SetChanADC   0x00ee7e    program     extern C:\MCC18\v3_39\src\pmc_common\ADC\adcsetch.c
             SetDDRamAddr   0x00ea5a    program     extern /fred/mandm/mandm/xlcd/setddram.c
               Set_Cursor   0x0018e2    program     extern /fred/mandm/mandm/mandm8722.c
               TSIGN1616A   0x00d7fa    program     static C:\MCC18\v3_39\src\traditional\math\fxm1616s.asm
              Write2USART   0x00ee50    program     extern C:\MCC18\v3_39\src\pmc_common\USART\u2write.c
             WriteCmdXLCD   0x00eb78    program     extern /fred/mandm/mandm/xlcd/wcmdxlcd.c
            WriteDataXLCD   0x00eb32    program     extern /fred/mandm/mandm/xlcd/writdata.c
              WriteTimer0   0x00ed7c    program     extern C:\MCC18\v3_39\src\pmc_common\Timers\t0write.c
              WriteTimer3   0x00ed44    program     extern C:\MCC18\v3_39\src\pmc_common\Timers\t3write.c
              Write_b_eep   0x00e8fe    program     extern C:\MCC18\v3_39\src\pmc_common\EEP\write_B.c
                   _2jEnd   0x00e270    program     static C:\MCC18\v3_39\src\traditional\stdclib\slenpgm.asm
              _3jContinue   0x00e314    program     static C:\MCC18\v3_39\src\traditional\stdclib\sncpyp2r.asm
              _4jContinue   0x00e2ba    program     static C:\MCC18\v3_39\src\traditional\stdclib\strncpy.asm
              _4jContinue   0x00e1e4    program     static C:\MCC18\v3_39\src\traditional\stdclib\memcmp.asm
                   _4jEnd   0x00e31e    program     static C:\MCC18\v3_39\src\traditional\stdclib\sncpyp2r.asm
                   _5jEnd   0x00e2c4    program     static C:\MCC18\v3_39\src\traditional\stdclib\strncpy.asm
                   _5jEnd   0x00e1ee    program     static C:\MCC18\v3_39\src\traditional\stdclib\memcmp.asm
       _D10KTCYXCODE_0010   0x00ee32    program     static C:\MCC18\v3_39\src\traditional\delays\d10ktcyx.asm
       _D10KTCYXCODE_001C   0x00ee3e    program     static C:\MCC18\v3_39\src\traditional\delays\d10ktcyx.asm
        _D10TCYXCODE_000A   0x00ef8e    program     static C:\MCC18\v3_39\src\traditional\delays\d10tcyx.asm
        _D10TCYXCODE_000C   0x00ef90    program     static C:\MCC18\v3_39\src\traditional\delays\d10tcyx.asm
        _D10TCYXCODE_000E   0x00ef92    program     static C:\MCC18\v3_39\src\traditional\delays\d10tcyx.asm
                 __FpExit   0x00d672    program     extern C:\MCC18\v3_39\src\traditional\math\packFP.asm
                 __FpPack   0x00d69e    program     extern C:\MCC18\v3_39\src\traditional\math\packFP.asm
            __FpReturnNaN   0x00d666    program     extern C:\MCC18\v3_39\src\traditional\math\packFP.asm
         __FpReturnNegInf   0x00d678    program     extern C:\MCC18\v3_39\src\traditional\math\packFP.asm
        __FpReturnNegZero   0x00d690    program     extern C:\MCC18\v3_39\src\traditional\math\packFP.asm
         __FpReturnPosInf   0x00d67e    program     extern C:\MCC18\v3_39\src\traditional\math\packFP.asm
        __FpReturnPosZero   0x00d698    program     extern C:\MCC18\v3_39\src\traditional\math\packFP.asm
        __FpReturnSignInf   0x00d674    program     extern C:\MCC18\v3_39\src\traditional\math\packFP.asm
       __FpReturnSignZero   0x00d68c    program     extern C:\MCC18\v3_39\src\traditional\math\packFP.asm
              __FpReturnW   0x00d6f6    program     extern C:\MCC18\v3_39\src\traditional\math\packFP.asm
              __FpUnPackA   0x00d716    program     extern C:\MCC18\v3_39\src\traditional\math\UnpackFP.asm
              __FpUnPackB   0x00d746    program     extern C:\MCC18\v3_39\src\traditional\math\UnpackFP.asm
       ___case_0_lbl00030   0x00b9fe    program     static                          
       ___case_1_lbl00031   0x00ba04    program     static                          
       ___case_2_lbl00032   0x00ba0c    program     static                          
      ___default_lbl00033   0x00ba14    program     static                          
           ___do_lbl00032   0x00034e    program     static                          
           ___do_lbl00033   0x000370    program     static                          
           ___do_lbl00034   0x00032e    program     static                          
           ___do_lbl00431   0x002f74    program     static                          
           ___do_lbl00432   0x002fa2    program     static                          
           ___do_lbl00437   0x002cae    program     static                          
           ___do_lbl00441   0x0032e8    program     static                          
           ___do_lbl00442   0x003316    program     static                          
           ___do_lbl00447   0x003022    program     static                          
           ___do_lbl00455   0x003592    program     static                          
           ___do_lbl00456   0x003598    program     static                          
           ___do_lbl00457   0x003586    program     static                          
           ___do_lbl00461   0x003c4c    program     static                          
           ___do_lbl00462   0x003c8a    program     static                          
           ___do_lbl00477   0x003676    program     static                          
           ___do_lbl00478   0x0042e2    program     static                          
           ___do_lbl00479   0x004320    program     static                          
           ___do_lbl00494   0x003d0c    program     static                          
           ___do_lbl00534   0x005696    program     static                          
           ___do_lbl00535   0x00569c    program     static                          
           ___do_lbl00536   0x00568a    program     static                          
           ___do_lbl00541   0x005880    program     static                          
           ___do_lbl00542   0x0058c0    program     static                          
           ___do_lbl00545   0x00570a    program     static                          
         ___else_lbl00003   0x00b78c    program     static                          
         ___else_lbl00008   0x00e0be    program     static                          
         ___else_lbl00009   0x00b84a    program     static                          
         ___else_lbl00011   0x00b86a    program     static                          
         ___else_lbl00014   0x00b8dc    program     static                          
         ___else_lbl00016   0x00b8fc    program     static                          
         ___else_lbl00027   0x00b9b8    program     static                          
         ___else_lbl00071   0x00bbb2    program     static                          
         ___else_lbl00084   0x00bd64    program     static                          
         ___else_lbl00086   0x00bd72    program     static                          
         ___else_lbl00088   0x00bd80    program     static                          
         ___else_lbl00090   0x00bdb8    program     static                          
         ___else_lbl00092   0x00be1e    program     static                          
         ___else_lbl00098   0x00be86    program     static                          
         ___else_lbl00104   0x00c208    program     static                          
         ___else_lbl00108   0x00c30a    program     static                          
         ___else_lbl00114   0x00c394    program     static                          
         ___else_lbl00116   0x00c36e    program     static                          
         ___else_lbl00473   0x003a08    program     static                          
         ___else_lbl00490   0x00409e    program     static                          
         ___else_lbl00514   0x004324    program     static                          
         ___else_lbl00528   0x00527a    program     static                          
         ___else_lbl00531   0x00531a    program     static                          
         ___else_lbl00533   0x00563c    program     static                          
         ___else_lbl00539   0x0052ca    program     static                          
         ___else_lbl00547   0x005998    program     static                          
         ___else_lbl00569   0x005eb6    program     static                          
         ___else_lbl00577   0x005f82    program     static                          
          ___for_lbl00010   0x0072ea    program     static                          
          ___for_lbl00011   0x0072f4    program     static                          
          ___for_lbl00014   0x0072ae    program     static                          
          ___for_lbl00015   0x0073f4    program     static                          
          ___for_lbl00016   0x0073fe    program     static                          
          ___for_lbl00019   0x0073b8    program     static                          
          ___for_lbl00020   0x0074fe    program     static                          
          ___for_lbl00021   0x007508    program     static                          
          ___for_lbl00024   0x0074c2    program     static                          
          ___for_lbl00027   0x007738    program     static                          
          ___for_lbl00028   0x007742    program     static                          
          ___for_lbl00028   0x0002be    program     static                          
          ___for_lbl00029   0x0002cc    program     static                          
          ___for_lbl00030   0x000294    program     static                          
          ___for_lbl00031   0x0076fc    program     static                          
          ___for_lbl00034   0x007970    program     static                          
          ___for_lbl00035   0x00797a    program     static                          
          ___for_lbl00038   0x007934    program     static                          
          ___for_lbl00041   0x007baa    program     static                          
          ___for_lbl00042   0x007bb4    program     static                          
          ___for_lbl00045   0x007b6e    program     static                          
          ___for_lbl00046   0x007c3a    program     static                          
          ___for_lbl00047   0x007c44    program     static                          
          ___for_lbl00050   0x007bfe    program     static                          
          ___for_lbl00051   0x007cca    program     static                          
          ___for_lbl00052   0x007cd4    program     static                          
          ___for_lbl00054   0x00064e    program     static                          
          ___for_lbl00055   0x007c8e    program     static                          
          ___for_lbl00055   0x000654    program     static                          
          ___for_lbl00056   0x000642    program     static                          
          ___for_lbl00056   0x007d5a    program     static                          
          ___for_lbl00057   0x007d64    program     static                          
          ___for_lbl00060   0x007d1e    program     static                          
          ___for_lbl00061   0x007dea    program     static                          
          ___for_lbl00062   0x007df4    program     static                          
          ___for_lbl00065   0x007dae    program     static                          
          ___for_lbl00066   0x007e7a    program     static                          
          ___for_lbl00067   0x007e84    program     static                          
          ___for_lbl00070   0x007e3e    program     static                          
          ___for_lbl00071   0x008b9a    program     static                          
          ___for_lbl00072   0x008ba6    program     static                          
          ___for_lbl00078   0x000fb4    program     static                          
          ___for_lbl00079   0x000fba    program     static                          
          ___for_lbl00081   0x007f74    program     static                          
          ___for_lbl00081   0x000c84    program     static                          
          ___for_lbl00429   0x00335c    program     static                          
          ___for_lbl00430   0x003368    program     static                          
          ___for_lbl00451   0x002c42    program     static                          
          ___for_lbl00496   0x0045a8    program     static                          
          ___for_lbl00497   0x0045bc    program     static                          
          ___for_lbl00502   0x00436c    program     static                          
          ___for_lbl00503   0x004874    program     static                          
          ___for_lbl00504   0x004888    program     static                          
          ___for_lbl00509   0x004638    program     static                          
          ___for_lbl00510   0x004cec    program     static                          
          ___for_lbl00511   0x004d00    program     static                          
          ___for_lbl00512   0x004c98    program     static                          
          ___for_lbl00515   0x0056ae    program     static                          
          ___for_lbl00516   0x0056c4    program     static                          
          ___for_lbl00540   0x004d0c    program     static                          
          ___for_lbl00564   0x005e5c    program     static                          
          ___for_lbl00565   0x005e62    program     static                          
          ___for_lbl00566   0x005e32    program     static                          
          ___for_lbl00570   0x005f7a    program     static                          
          ___for_lbl00571   0x005f80    program     static                          
          ___for_lbl00572   0x005f42    program     static                          
          ___for_lbl00573   0x005fd8    program     static                          
          ___for_lbl00574   0x005fde    program     static                          
          ___for_lbl00575   0x005fa0    program     static                          
           ___if_lbl00001   0x00e378    program     static                          
           ___if_lbl00001   0x00dff4    program     static                          
           ___if_lbl00001   0x00b75e    program     static                          
           ___if_lbl00002   0x00e018    program     static                          
           ___if_lbl00002   0x00b79c    program     static                          
           ___if_lbl00003   0x00e38a    program     static                          
           ___if_lbl00003   0x00e038    program     static                          
           ___if_lbl00004   0x00b7a6    program     static                          
           ___if_lbl00004   0x00e058    program     static                          
           ___if_lbl00005   0x00b7b0    program     static                          
           ___if_lbl00006   0x00e498    program     static                          
           ___if_lbl00006   0x00e08c    program     static                          
           ___if_lbl00006   0x00b7ba    program     static                          
           ___if_lbl00007   0x00e0c6    program     static                          
           ___if_lbl00007   0x00b7ba    program     static                          
           ___if_lbl00008   0x00b868    program     static                          
           ___if_lbl00010   0x00b878    program     static                          
           ___if_lbl00012   0x00b878    program     static                          
           ___if_lbl00013   0x00b8fa    program     static                          
           ___if_lbl00015   0x00b90a    program     static                          
           ___if_lbl00017   0x00b90a    program     static                          
           ___if_lbl00018   0x00b90e    program     static                          
           ___if_lbl00020   0x00b91c    program     static                          
           ___if_lbl00021   0x00b930    program     static                          
           ___if_lbl00023   0x00b94a    program     static                          
           ___if_lbl00024   0x00b978    program     static                          
           ___if_lbl00025   0x00b9ac    program     static                          
           ___if_lbl00025   0x0075ea    program     static                          
           ___if_lbl00026   0x0076d6    program     static                          
           ___if_lbl00026   0x00b9c0    program     static                          
           ___if_lbl00028   0x00b9ec    program     static                          
           ___if_lbl00032   0x007824    program     static                          
           ___if_lbl00033   0x00790e    program     static                          
           ___if_lbl00034   0x00ba1a    program     static                          
           ___if_lbl00035   0x00ba1a    program     static                          
           ___if_lbl00036   0x00ba20    program     static                          
           ___if_lbl00037   0x00ba26    program     static                          
           ___if_lbl00038   0x00ba2c    program     static                          
           ___if_lbl00039   0x00ba32    program     static                          
           ___if_lbl00039   0x007a5c    program     static                          
           ___if_lbl00040   0x00ba32    program     static                          
           ___if_lbl00040   0x007b46    program     static                          
           ___if_lbl00041   0x00ba52    program     static                          
           ___if_lbl00042   0x00ba56    program     static                          
           ___if_lbl00043   0x00ba6e    program     static                          
           ___if_lbl00044   0x00ba84    program     static                          
           ___if_lbl00045   0x00ba92    program     static                          
           ___if_lbl00046   0x00baa0    program     static                          
           ___if_lbl00047   0x00baae    program     static                          
           ___if_lbl00048   0x00babc    program     static                          
           ___if_lbl00049   0x00baca    program     static                          
           ___if_lbl00051   0x00bae0    program     static                          
           ___if_lbl00053   0x00baf6    program     static                          
           ___if_lbl00055   0x00bb0a    program     static                          
           ___if_lbl00058   0x00bb14    program     static                          
           ___if_lbl00060   0x00bb26    program     static                          
           ___if_lbl00061   0x00bb26    program     static                          
           ___if_lbl00063   0x00bb4a    program     static                          
           ___if_lbl00064   0x00bb4e    program     static                          
           ___if_lbl00066   0x00bb72    program     static                          
           ___if_lbl00067   0x00bb76    program     static                          
           ___if_lbl00069   0x00bbb0    program     static                          
           ___if_lbl00070   0x00bbba    program     static                          
           ___if_lbl00072   0x00bbd8    program     static                          
           ___if_lbl00073   0x00bbd8    program     static                          
           ___if_lbl00073   0x008188    program     static                          
           ___if_lbl00074   0x00bbdc    program     static                          
           ___if_lbl00075   0x008214    program     static                          
           ___if_lbl00076   0x00827c    program     static                          
           ___if_lbl00076   0x00bbfa    program     static                          
           ___if_lbl00077   0x00bc7e    program     static                          
           ___if_lbl00077   0x0083e8    program     static                          
           ___if_lbl00078   0x0084e2    program     static                          
           ___if_lbl00078   0x00bc7e    program     static                          
           ___if_lbl00079   0x00868e    program     static                          
           ___if_lbl00079   0x00bc7e    program     static                          
           ___if_lbl00080   0x008a06    program     static                          
           ___if_lbl00080   0x000fb4    program     static                          
           ___if_lbl00082   0x00bd5a    program     static                          
           ___if_lbl00083   0x00bd68    program     static                          
           ___if_lbl00084   0x008c86    program     static                          
           ___if_lbl00085   0x008c86    program     static                          
           ___if_lbl00085   0x00bd76    program     static                          
           ___if_lbl00087   0x00bd84    program     static                          
           ___if_lbl00089   0x00bde8    program     static                          
           ___if_lbl00091   0x00be50    program     static                          
           ___if_lbl00093   0x00bf38    program     static                          
           ___if_lbl00094   0x00bf60    program     static                          
           ___if_lbl00095   0x00bf90    program     static                          
           ___if_lbl00096   0x00bfe4    program     static                          
           ___if_lbl00097   0x00bfe6    program     static                          
           ___if_lbl00099   0x00c046    program     static                          
           ___if_lbl00100   0x00c0ae    program     static                          
           ___if_lbl00101   0x00c10e    program     static                          
           ___if_lbl00102   0x00c178    program     static                          
           ___if_lbl00103   0x00c25e    program     static                          
           ___if_lbl00106   0x00c308    program     static                          
           ___if_lbl00107   0x00c32a    program     static                          
           ___if_lbl00112   0x00c3b8    program     static                          
           ___if_lbl00113   0x00c3b8    program     static                          
           ___if_lbl00115   0x00c3b8    program     static                          
           ___if_lbl00117   0x00c3b8    program     static                          
           ___if_lbl00118   0x00c3b8    program     static                          
           ___if_lbl00119   0x00c40a    program     static                          
           ___if_lbl00120   0x00c40a    program     static                          
           ___if_lbl00121   0x00c426    program     static                          
           ___if_lbl00122   0x00c434    program     static                          
           ___if_lbl00124   0x00c450    program     static                          
           ___if_lbl00125   0x00c450    program     static                          
           ___if_lbl00425   0x002b5e    program     static                          
           ___if_lbl00426   0x002b98    program     static                          
           ___if_lbl00427   0x002baa    program     static                          
           ___if_lbl00428   0x002be4    program     static                          
           ___if_lbl00433   0x002d72    program     static                          
           ___if_lbl00434   0x002e5e    program     static                          
           ___if_lbl00435   0x002f4e    program     static                          
           ___if_lbl00436   0x002f62    program     static                          
           ___if_lbl00439   0x002fce    program     static                          
           ___if_lbl00440   0x002fe8    program     static                          
           ___if_lbl00443   0x0030e6    program     static                          
           ___if_lbl00444   0x0031d2    program     static                          
           ___if_lbl00445   0x0032c2    program     static                          
           ___if_lbl00446   0x0032d6    program     static                          
           ___if_lbl00449   0x003342    program     static                          
           ___if_lbl00450   0x00335c    program     static                          
           ___if_lbl00453   0x0034ba    program     static                          
           ___if_lbl00454   0x00353c    program     static                          
           ___if_lbl00458   0x0035ee    program     static                          
           ___if_lbl00459   0x0035ee    program     static                          
           ___if_lbl00460   0x003608    program     static                          
           ___if_lbl00466   0x003860    program     static                          
           ___if_lbl00467   0x003890    program     static                          
           ___if_lbl00468   0x003894    program     static                          
           ___if_lbl00469   0x0038fc    program     static                          
           ___if_lbl00470   0x003a06    program     static                          
           ___if_lbl00471   0x003a9a    program     static                          
           ___if_lbl00472   0x003a9a    program     static                          
           ___if_lbl00474   0x003b60    program     static                          
           ___if_lbl00475   0x003c26    program     static                          
           ___if_lbl00476   0x003c3a    program     static                          
           ___if_lbl00483   0x003ef6    program     static                          
           ___if_lbl00484   0x003f26    program     static                          
           ___if_lbl00485   0x003f2a    program     static                          
           ___if_lbl00486   0x003f92    program     static                          
           ___if_lbl00487   0x00409c    program     static                          
           ___if_lbl00488   0x004130    program     static                          
           ___if_lbl00489   0x004130    program     static                          
           ___if_lbl00491   0x0041f6    program     static                          
           ___if_lbl00492   0x0042bc    program     static                          
           ___if_lbl00493   0x0042d0    program     static                          
           ___if_lbl00495   0x004320    program     static                          
           ___if_lbl00498   0x00442a    program     static                          
           ___if_lbl00499   0x004528    program     static                          
           ___if_lbl00500   0x004540    program     static                          
           ___if_lbl00501   0x0045a8    program     static                          
           ___if_lbl00505   0x0046f6    program     static                          
           ___if_lbl00506   0x0047f4    program     static                          
           ___if_lbl00507   0x00480c    program     static                          
           ___if_lbl00508   0x004874    program     static                          
           ___if_lbl00513   0x004d00    program     static                          
           ___if_lbl00518   0x004e32    program     static                          
           ___if_lbl00520   0x004f32    program     static                          
           ___if_lbl00521   0x004f32    program     static                          
           ___if_lbl00523   0x00503c    program     static                          
           ___if_lbl00525   0x00513c    program     static                          
           ___if_lbl00526   0x00513c    program     static                          
           ___if_lbl00527   0x005284    program     static                          
           ___if_lbl00529   0x0052c8    program     static                          
           ___if_lbl00530   0x005324    program     static                          
           ___if_lbl00532   0x005646    program     static                          
           ___if_lbl00537   0x0056ae    program     static                          
           ___if_lbl00538   0x0056ae    program     static                          
           ___if_lbl00544   0x00587e    program     static                          
           ___if_lbl00546   0x005998    program     static                          
           ___if_lbl00559   0x005ba4    program     static                          
           ___if_lbl00560   0x005bda    program     static                          
           ___if_lbl00561   0x005c10    program     static                          
           ___if_lbl00562   0x005c46    program     static                          
           ___if_lbl00563   0x005dd8    program     static                          
           ___if_lbl00567   0x005e62    program     static                          
           ___if_lbl00568   0x005f08    program     static                          
           ___if_lbl00576   0x005ff8    program     static                          
           ___if_lbl00580   0x006002    program     static                          
           ___if_lbl00581   0x006058    program     static                          
           ___if_lbl00585   0x0062ce    program     static                          
           ___if_lbl00586   0x0062f8    program     static                          
           ___if_lbl00587   0x00630c    program     static                          
       ___return_lbl00000   0x007182    program     static                          
       ___return_lbl00000   0x00c450    program     static                          
       ___return_lbl00000   0x00000c    program     static                          
       ___return_lbl00000   0x00e058    program     static                          
       ___return_lbl00000   0x00e498    program     static                          
       ___return_lbl00000   0x00eed6    program     static                          
       ___return_lbl00000   0x00eb30    program     static                          
       ___return_lbl00000   0x00e82a    program     static                          
       ___return_lbl00000   0x00e9ae    program     static                          
       ___return_lbl00000   0x000004    program     static                          
       ___return_lbl00001   0x00001c    program     static                          
       ___return_lbl00001   0x00ef46    program     static                          
       ___return_lbl00002   0x00e612    program     static                          
       ___return_lbl00005   0x00e0c6    program     static                          
       ___return_lbl00009   0x008c8c    program     static                          
       ___return_lbl00027   0x0002cc    program     static                          
       ___return_lbl00031   0x000370    program     static                          
       ___return_lbl00053   0x000654    program     static                          
       ___return_lbl00072   0x0008bc    program     static                          
       ___return_lbl00077   0x000fbc    program     static                          
       ___return_lbl00127   0x00c4ba    program     static                          
       ___return_lbl00424   0x0059ba    program     static                          
       ___return_lbl00558   0x00630e    program     static                          
   ___switchexit_lbl00029   0x00ba1a    program     static                          
        ___while_lbl00001   0x007178    program     static                          
        ___while_lbl00002   0x007182    program     static                          
        ___while_lbl00004   0x00e3e8    program     static                          
        ___while_lbl00005   0x00e3f6    program     static                          
        ___while_lbl00012   0x0072be    program     static                          
        ___while_lbl00013   0x0072c8    program     static                          
        ___while_lbl00017   0x0073c8    program     static                          
        ___while_lbl00018   0x0073d2    program     static                          
        ___while_lbl00022   0x0074d2    program     static                          
        ___while_lbl00023   0x0074dc    program     static                          
        ___while_lbl00029   0x00770c    program     static                          
        ___while_lbl00030   0x007716    program     static                          
        ___while_lbl00036   0x007944    program     static                          
        ___while_lbl00037   0x00794e    program     static                          
        ___while_lbl00043   0x007b7e    program     static                          
        ___while_lbl00044   0x007b88    program     static                          
        ___while_lbl00048   0x007c0e    program     static                          
        ___while_lbl00049   0x007c18    program     static                          
        ___while_lbl00053   0x007c9e    program     static                          
        ___while_lbl00054   0x007ca8    program     static                          
        ___while_lbl00056   0x00bb12    program     static                          
        ___while_lbl00057   0x00bb14    program     static                          
        ___while_lbl00058   0x007d2e    program     static                          
        ___while_lbl00059   0x007d38    program     static                          
        ___while_lbl00063   0x007dbe    program     static                          
        ___while_lbl00064   0x007dc8    program     static                          
        ___while_lbl00068   0x007e4e    program     static                          
        ___while_lbl00069   0x007e58    program     static                          
        ___while_lbl00082   0x008c74    program     static                          
        ___while_lbl00083   0x008c86    program     static                          
        ___while_lbl00578   0x006000    program     static                          
        ___while_lbl00579   0x006002    program     static                          
        ___while_lbl00582   0x0062b8    program     static                          
        ___while_lbl00583   0x00630e    program     static                          
               __config_0   0x300001    program     static /fred/mandm/mandm/mandm8722.c
               __config_1   0x300002    program     static /fred/mandm/mandm/mandm8722.c
              __config_10   0x30000c    program     static /fred/mandm/mandm/mandm8722.c
              __config_11   0x30000d    program     static /fred/mandm/mandm/mandm8722.c
               __config_2   0x300003    program     static /fred/mandm/mandm/mandm8722.c
               __config_3   0x300004    program     static /fred/mandm/mandm/mandm8722.c
               __config_4   0x300005    program     static /fred/mandm/mandm/mandm8722.c
               __config_5   0x300006    program     static /fred/mandm/mandm/mandm8722.c
               __config_6   0x300008    program     static /fred/mandm/mandm/mandm8722.c
               __config_7   0x300009    program     static /fred/mandm/mandm/mandm8722.c
               __config_8   0x30000a    program     static /fred/mandm/mandm/mandm8722.c
               __config_9   0x30000b    program     static /fred/mandm/mandm/mandm8722.c
                   __init   0x00efc8    program     extern C:\MCC18\v3_39\src\traditional\stdclib\__init.c
                   __pa_0   0x00dc06    program     static /fred/mandm/mandm/power.c
                   __pa_0   0x00df04    program     static /fred/mandm/mandm/config.c
                   __pa_0   0x00e182    program     static /fred/mandm/mandm/crit.c 
                   __pa_0   0x00eef2    program     static /fred/mandm/mandm/xlcd/busyxlcd.c
                   __pa_0   0x00ebb0    program     static /fred/mandm/mandm/xlcd/wcmdxlcd.c
                   __pa_0   0x00ea94    program     static /fred/mandm/mandm/xlcd/setddram.c
                   __pa_0   0x00eadc    program     static /fred/mandm/mandm/xlcd/setcgram.c
                   __pa_0   0x00ecba    program     static /fred/mandm/mandm/xlcd/putsxlcd.c
                   __pa_0   0x00e9f6    program     static /fred/mandm/mandm/xlcd/putrxlcd.c
                   __pa_0   0x00c512    program     static /fred/mandm/mandm/mandm_vector.c
                   __pa_0   0x00eb6a    program     static /fred/mandm/mandm/xlcd/writdata.c
                   __pa_0   0x00e69c    program     static /fred/mandm/mandm/xlcd/openxlcd.c
                   __pa_0   0x008d7a    program     static /fred/mandm/mandm/daq.c  
                   __pa_0   0x006310    program     static /fred/mandm/mandm/mandm8722.c
                   __pa_0   0x00ce64    program     static C:\MCC18\v3_39\src\traditional\stdclib\vfprintf.c
                   __pa_1   0x00e6a6    program     static /fred/mandm/mandm/xlcd/openxlcd.c
                   __pa_1   0x006320    program     static /fred/mandm/mandm/mandm8722.c
                   __pa_1   0x00df1a    program     static /fred/mandm/mandm/config.c
                   __pa_1   0x00dc14    program     static /fred/mandm/mandm/power.c
                   __pa_1   0x00ce6c    program     static C:\MCC18\v3_39\src\traditional\stdclib\vfprintf.c
                   __pa_1   0x00e190    program     static /fred/mandm/mandm/crit.c 
                   __pa_1   0x008da2    program     static /fred/mandm/mandm/daq.c  
                   __pa_1   0x00c51c    program     static /fred/mandm/mandm/mandm_vector.c
                  __pa_10   0x00cf20    program     static C:\MCC18\v3_39\src\traditional\stdclib\vfprintf.c
                  __pa_10   0x00dc7e    program     static /fred/mandm/mandm/power.c
                  __pa_10   0x00df74    program     static /fred/mandm/mandm/config.c
                  __pa_10   0x0063c8    program     static /fred/mandm/mandm/mandm8722.c
                 __pa_100   0x006900    program     static /fred/mandm/mandm/mandm8722.c
                 __pa_101   0x006908    program     static /fred/mandm/mandm/mandm8722.c
                 __pa_102   0x00691a    program     static /fred/mandm/mandm/mandm8722.c
                 __pa_103   0x00692c    program     static /fred/mandm/mandm/mandm8722.c
                 __pa_104   0x006938    program     static /fred/mandm/mandm/mandm8722.c
                 __pa_105   0x006944    program     static /fred/mandm/mandm/mandm8722.c
                 __pa_106   0x00694e    program     static /fred/mandm/mandm/mandm8722.c
                 __pa_107   0x006958    program     static /fred/mandm/mandm/mandm8722.c
                 __pa_108   0x006962    program     static /fred/mandm/mandm/mandm8722.c
                 __pa_109   0x00696a    program     static /fred/mandm/mandm/mandm8722.c
                  __pa_11   0x00dc86    program     static /fred/mandm/mandm/power.c
                  __pa_11   0x0063e2    program     static /fred/mandm/mandm/mandm8722.c
                  __pa_11   0x00cf2e    program     static C:\MCC18\v3_39\src\traditional\stdclib\vfprintf.c
                  __pa_11   0x00df7e    program     static /fred/mandm/mandm/config.c
                 __pa_110   0x00696e    program     static /fred/mandm/mandm/mandm8722.c
                 __pa_111   0x006974    program     static /fred/mandm/mandm/mandm8722.c
                 __pa_112   0x00697e    program     static /fred/mandm/mandm/mandm8722.c
                 __pa_113   0x00698c    program     static /fred/mandm/mandm/mandm8722.c
                 __pa_114   0x00699a    program     static /fred/mandm/mandm/mandm8722.c
                 __pa_115   0x0069a8    program     static /fred/mandm/mandm/mandm8722.c
                 __pa_116   0x0069b0    program     static /fred/mandm/mandm/mandm8722.c
                 __pa_117   0x0069ba    program     static /fred/mandm/mandm/mandm8722.c
                 __pa_118   0x0069c4    program     static /fred/mandm/mandm/mandm8722.c
                 __pa_119   0x0069ce    program     static /fred/mandm/mandm/mandm8722.c
                  __pa_12   0x00df84    program     static /fred/mandm/mandm/config.c
                  __pa_12   0x0063fe    program     static /fred/mandm/mandm/mandm8722.c
                  __pa_12   0x00cf44    program     static C:\MCC18\v3_39\src\traditional\stdclib\vfprintf.c
                 __pa_120   0x0069d8    program     static /fred/mandm/mandm/mandm8722.c
                 __pa_121   0x0069e2    program     static /fred/mandm/mandm/mandm8722.c
                 __pa_122   0x0069ec    program     static /fred/mandm/mandm/mandm8722.c
                 __pa_123   0x0069f4    program     static /fred/mandm/mandm/mandm8722.c
                 __pa_124   0x006a16    program     static /fred/mandm/mandm/mandm8722.c
                 __pa_125   0x006a26    program     static /fred/mandm/mandm/mandm8722.c
                 __pa_126   0x006a46    program     static /fred/mandm/mandm/mandm8722.c
                 __pa_127   0x006a4c    program     static /fred/mandm/mandm/mandm8722.c
                 __pa_128   0x006a64    program     static /fred/mandm/mandm/mandm8722.c
                 __pa_129   0x006a6a    program     static /fred/mandm/mandm/mandm8722.c
                  __pa_13   0x00df88    program     static /fred/mandm/mandm/config.c
                  __pa_13   0x00640a    program     static /fred/mandm/mandm/mandm8722.c
                  __pa_13   0x00cf5e    program     static C:\MCC18\v3_39\src\traditional\stdclib\vfprintf.c
                 __pa_130   0x006a82    program     static /fred/mandm/mandm/mandm8722.c
                 __pa_131   0x006a88    program     static /fred/mandm/mandm/mandm8722.c
                 __pa_132   0x006aba    program     static /fred/mandm/mandm/mandm8722.c
                 __pa_133   0x006ac4    program     static /fred/mandm/mandm/mandm8722.c
                 __pa_134   0x006ad4    program     static /fred/mandm/mandm/mandm8722.c
                 __pa_135   0x006aec    program     static /fred/mandm/mandm/mandm8722.c
                 __pa_136   0x006af4    program     static /fred/mandm/mandm/mandm8722.c
                 __pa_137   0x006afc    program     static /fred/mandm/mandm/mandm8722.c
                 __pa_138   0x006b02    program     static /fred/mandm/mandm/mandm8722.c
                 __pa_139   0x006b10    program     static /fred/mandm/mandm/mandm8722.c
                  __pa_14   0x00cf76    program     static C:\MCC18\v3_39\src\traditional\stdclib\vfprintf.c
                  __pa_14   0x006416    program     static /fred/mandm/mandm/mandm8722.c
                  __pa_14   0x00df8c    program     static /fred/mandm/mandm/config.c
                 __pa_140   0x006b1e    program     static /fred/mandm/mandm/mandm8722.c
                 __pa_141   0x006b22    program     static /fred/mandm/mandm/mandm8722.c
                 __pa_142   0x006b2e    program     static /fred/mandm/mandm/mandm8722.c
                 __pa_143   0x006b44    program     static /fred/mandm/mandm/mandm8722.c
                 __pa_144   0x006b5a    program     static /fred/mandm/mandm/mandm8722.c
                 __pa_145   0x006b6c    program     static /fred/mandm/mandm/mandm8722.c
                 __pa_146   0x006b78    program     static /fred/mandm/mandm/mandm8722.c
                 __pa_147   0x006b80    program     static /fred/mandm/mandm/mandm8722.c
                 __pa_148   0x006b84    program     static /fred/mandm/mandm/mandm8722.c
                 __pa_149   0x006b8a    program     static /fred/mandm/mandm/mandm8722.c
                  __pa_15   0x00df96    program     static /fred/mandm/mandm/config.c
                  __pa_15   0x00cf86    program     static C:\MCC18\v3_39\src\traditional\stdclib\vfprintf.c
                  __pa_15   0x00641c    program     static /fred/mandm/mandm/mandm8722.c
                 __pa_150   0x006b94    program     static /fred/mandm/mandm/mandm8722.c
                 __pa_151   0x006bae    program     static /fred/mandm/mandm/mandm8722.c
                 __pa_152   0x006bc2    program     static /fred/mandm/mandm/mandm8722.c
                 __pa_153   0x006bca    program     static /fred/mandm/mandm/mandm8722.c
                 __pa_154   0x006bd4    program     static /fred/mandm/mandm/mandm8722.c
                 __pa_155   0x006bda    program     static /fred/mandm/mandm/mandm8722.c
                 __pa_156   0x006bea    program     static /fred/mandm/mandm/mandm8722.c
                 __pa_157   0x006bf0    program     static /fred/mandm/mandm/mandm8722.c
                 __pa_158   0x006bfa    program     static /fred/mandm/mandm/mandm8722.c
                 __pa_159   0x006bfe    program     static /fred/mandm/mandm/mandm8722.c
                  __pa_16   0x00df9e    program     static /fred/mandm/mandm/config.c
                  __pa_16   0x006428    program     static /fred/mandm/mandm/mandm8722.c
                  __pa_16   0x00cf9c    program     static C:\MCC18\v3_39\src\traditional\stdclib\vfprintf.c
                 __pa_160   0x006c0e    program     static /fred/mandm/mandm/mandm8722.c
                 __pa_161   0x006c22    program     static /fred/mandm/mandm/mandm8722.c
                 __pa_162   0x006c36    program     static /fred/mandm/mandm/mandm8722.c
                 __pa_163   0x006c40    program     static /fred/mandm/mandm/mandm8722.c
                 __pa_164   0x006c4a    program     static /fred/mandm/mandm/mandm8722.c
                 __pa_165   0x006c54    program     static /fred/mandm/mandm/mandm8722.c
                 __pa_166   0x006c5c    program     static /fred/mandm/mandm/mandm8722.c
                 __pa_167   0x006c70    program     static /fred/mandm/mandm/mandm8722.c
                 __pa_168   0x006c82    program     static /fred/mandm/mandm/mandm8722.c
                 __pa_169   0x006c8a    program     static /fred/mandm/mandm/mandm8722.c
                  __pa_17   0x00dfa8    program     static /fred/mandm/mandm/config.c
                  __pa_17   0x006452    program     static /fred/mandm/mandm/mandm8722.c
                  __pa_17   0x00cfae    program     static C:\MCC18\v3_39\src\traditional\stdclib\vfprintf.c
                 __pa_170   0x006c9c    program     static /fred/mandm/mandm/mandm8722.c
                 __pa_171   0x006cae    program     static /fred/mandm/mandm/mandm8722.c
                 __pa_172   0x006cbc    program     static /fred/mandm/mandm/mandm8722.c
                 __pa_173   0x006cce    program     static /fred/mandm/mandm/mandm8722.c
                 __pa_174   0x006cdc    program     static /fred/mandm/mandm/mandm8722.c
                 __pa_175   0x006cee    program     static /fred/mandm/mandm/mandm8722.c
                 __pa_176   0x006d00    program     static /fred/mandm/mandm/mandm8722.c
                 __pa_177   0x006d12    program     static /fred/mandm/mandm/mandm8722.c
                 __pa_178   0x006d24    program     static /fred/mandm/mandm/mandm8722.c
                 __pa_179   0x006d36    program     static /fred/mandm/mandm/mandm8722.c
                  __pa_18   0x00dfb8    program     static /fred/mandm/mandm/config.c
                  __pa_18   0x00645c    program     static /fred/mandm/mandm/mandm8722.c
                  __pa_18   0x00cfc0    program     static C:\MCC18\v3_39\src\traditional\stdclib\vfprintf.c
                 __pa_180   0x006d48    program     static /fred/mandm/mandm/mandm8722.c
                 __pa_181   0x006d52    program     static /fred/mandm/mandm/mandm8722.c
                 __pa_182   0x006d5e    program     static /fred/mandm/mandm/mandm8722.c
                 __pa_183   0x006d68    program     static /fred/mandm/mandm/mandm8722.c
                 __pa_184   0x006d72    program     static /fred/mandm/mandm/mandm8722.c
                 __pa_185   0x006d78    program     static /fred/mandm/mandm/mandm8722.c
                 __pa_186   0x006d7e    program     static /fred/mandm/mandm/mandm8722.c
                 __pa_187   0x006d88    program     static /fred/mandm/mandm/mandm8722.c
                 __pa_188   0x006d92    program     static /fred/mandm/mandm/mandm8722.c
                 __pa_189   0x006d9c    program     static /fred/mandm/mandm/mandm8722.c
                  __pa_19   0x00cfca    program     static C:\MCC18\v3_39\src\traditional\stdclib\vfprintf.c
                  __pa_19   0x00dfc0    program     static /fred/mandm/mandm/config.c
                  __pa_19   0x006464    program     static /fred/mandm/mandm/mandm8722.c
                 __pa_190   0x006da6    program     static /fred/mandm/mandm/mandm8722.c
                 __pa_191   0x006db4    program     static /fred/mandm/mandm/mandm8722.c
                 __pa_192   0x006dc4    program     static /fred/mandm/mandm/mandm8722.c
                 __pa_193   0x006dca    program     static /fred/mandm/mandm/mandm8722.c
                 __pa_194   0x006dd8    program     static /fred/mandm/mandm/mandm8722.c
                 __pa_195   0x006de4    program     static /fred/mandm/mandm/mandm8722.c
                 __pa_196   0x006dee    program     static /fred/mandm/mandm/mandm8722.c
                 __pa_197   0x006dfc    program     static /fred/mandm/mandm/mandm8722.c
                 __pa_198   0x006e0a    program     static /fred/mandm/mandm/mandm8722.c
                 __pa_199   0x006e16    program     static /fred/mandm/mandm/mandm8722.c
                   __pa_2   0x00632a    program     static /fred/mandm/mandm/mandm8722.c
                   __pa_2   0x00ce76    program     static C:\MCC18\v3_39\src\traditional\stdclib\vfprintf.c
                   __pa_2   0x008dc6    program     static /fred/mandm/mandm/daq.c  
                   __pa_2   0x00dc1e    program     static /fred/mandm/mandm/power.c
                   __pa_2   0x00df22    program     static /fred/mandm/mandm/config.c
                   __pa_2   0x00e19c    program     static /fred/mandm/mandm/crit.c 
                  __pa_20   0x00646a    program     static /fred/mandm/mandm/mandm8722.c
                  __pa_20   0x00cfda    program     static C:\MCC18\v3_39\src\traditional\stdclib\vfprintf.c
                 __pa_200   0x006e22    program     static /fred/mandm/mandm/mandm8722.c
                 __pa_201   0x006e2e    program     static /fred/mandm/mandm/mandm8722.c
                 __pa_202   0x006e3a    program     static /fred/mandm/mandm/mandm8722.c
                 __pa_203   0x006e44    program     static /fred/mandm/mandm/mandm8722.c
                 __pa_204   0x006e4e    program     static /fred/mandm/mandm/mandm8722.c
                 __pa_205   0x006e58    program     static /fred/mandm/mandm/mandm8722.c
                 __pa_206   0x006e60    program     static /fred/mandm/mandm/mandm8722.c
                 __pa_207   0x006e6a    program     static /fred/mandm/mandm/mandm8722.c
                 __pa_208   0x006e72    program     static /fred/mandm/mandm/mandm8722.c
                 __pa_209   0x006e76    program     static /fred/mandm/mandm/mandm8722.c
                  __pa_21   0x00cfea    program     static C:\MCC18\v3_39\src\traditional\stdclib\vfprintf.c
                  __pa_21   0x006474    program     static /fred/mandm/mandm/mandm8722.c
                 __pa_210   0x006e80    program     static /fred/mandm/mandm/mandm8722.c
                 __pa_211   0x006e88    program     static /fred/mandm/mandm/mandm8722.c
                 __pa_212   0x006e8e    program     static /fred/mandm/mandm/mandm8722.c
                 __pa_213   0x006e9c    program     static /fred/mandm/mandm/mandm8722.c
                 __pa_214   0x006eb6    program     static /fred/mandm/mandm/mandm8722.c
                 __pa_215   0x006ee0    program     static /fred/mandm/mandm/mandm8722.c
                 __pa_216   0x006ee8    program     static /fred/mandm/mandm/mandm8722.c
                 __pa_217   0x006f0a    program     static /fred/mandm/mandm/mandm8722.c
                 __pa_218   0x006f22    program     static /fred/mandm/mandm/mandm8722.c
                 __pa_219   0x006f2c    program     static /fred/mandm/mandm/mandm8722.c
                  __pa_22   0x006492    program     static /fred/mandm/mandm/mandm8722.c
                  __pa_22   0x00cffa    program     static C:\MCC18\v3_39\src\traditional\stdclib\vfprintf.c
                 __pa_220   0x006f34    program     static /fred/mandm/mandm/mandm8722.c
                 __pa_221   0x006f4c    program     static /fred/mandm/mandm/mandm8722.c
                 __pa_222   0x006f68    program     static /fred/mandm/mandm/mandm8722.c
                 __pa_223   0x006f82    program     static /fred/mandm/mandm/mandm8722.c
                 __pa_224   0x006f9c    program     static /fred/mandm/mandm/mandm8722.c
                 __pa_225   0x006fa4    program     static /fred/mandm/mandm/mandm8722.c
                 __pa_226   0x006fb8    program     static /fred/mandm/mandm/mandm8722.c
                 __pa_227   0x006fcc    program     static /fred/mandm/mandm/mandm8722.c
                 __pa_228   0x006fda    program     static /fred/mandm/mandm/mandm8722.c
                 __pa_229   0x006fe2    program     static /fred/mandm/mandm/mandm8722.c
                  __pa_23   0x00d006    program     static C:\MCC18\v3_39\src\traditional\stdclib\vfprintf.c
                  __pa_23   0x00649c    program     static /fred/mandm/mandm/mandm8722.c
                 __pa_230   0x006fe8    program     static /fred/mandm/mandm/mandm8722.c
                 __pa_231   0x006ffe    program     static /fred/mandm/mandm/mandm8722.c
                 __pa_232   0x007006    program     static /fred/mandm/mandm/mandm8722.c
                 __pa_233   0x007014    program     static /fred/mandm/mandm/mandm8722.c
                 __pa_234   0x007026    program     static /fred/mandm/mandm/mandm8722.c
                 __pa_235   0x00702e    program     static /fred/mandm/mandm/mandm8722.c
                 __pa_236   0x007036    program     static /fred/mandm/mandm/mandm8722.c
                 __pa_237   0x007042    program     static /fred/mandm/mandm/mandm8722.c
                 __pa_238   0x00704c    program     static /fred/mandm/mandm/mandm8722.c
                 __pa_239   0x007054    program     static /fred/mandm/mandm/mandm8722.c
                  __pa_24   0x0064be    program     static /fred/mandm/mandm/mandm8722.c
                  __pa_24   0x00d014    program     static C:\MCC18\v3_39\src\traditional\stdclib\vfprintf.c
                 __pa_240   0x00705c    program     static /fred/mandm/mandm/mandm8722.c
                 __pa_241   0x007066    program     static /fred/mandm/mandm/mandm8722.c
                 __pa_242   0x007074    program     static /fred/mandm/mandm/mandm8722.c
                 __pa_243   0x007082    program     static /fred/mandm/mandm/mandm8722.c
                 __pa_244   0x00708e    program     static /fred/mandm/mandm/mandm8722.c
                 __pa_245   0x00709a    program     static /fred/mandm/mandm/mandm8722.c
                 __pa_246   0x0070a6    program     static /fred/mandm/mandm/mandm8722.c
                 __pa_247   0x0070b2    program     static /fred/mandm/mandm/mandm8722.c
                 __pa_248   0x0070be    program     static /fred/mandm/mandm/mandm8722.c
                 __pa_249   0x0070ca    program     static /fred/mandm/mandm/mandm8722.c
                  __pa_25   0x00d01c    program     static C:\MCC18\v3_39\src\traditional\stdclib\vfprintf.c
                  __pa_25   0x0064cc    program     static /fred/mandm/mandm/mandm8722.c
                 __pa_250   0x0070d2    program     static /fred/mandm/mandm/mandm8722.c
                 __pa_251   0x0070dc    program     static /fred/mandm/mandm/mandm8722.c
                 __pa_252   0x0070e2    program     static /fred/mandm/mandm/mandm8722.c
                 __pa_253   0x0070e8    program     static /fred/mandm/mandm/mandm8722.c
                 __pa_254   0x0070ee    program     static /fred/mandm/mandm/mandm8722.c
                 __pa_255   0x0070f6    program     static /fred/mandm/mandm/mandm8722.c
                 __pa_256   0x0070fe    program     static /fred/mandm/mandm/mandm8722.c
                 __pa_257   0x007108    program     static /fred/mandm/mandm/mandm8722.c
                 __pa_258   0x00710e    program     static /fred/mandm/mandm/mandm8722.c
                 __pa_259   0x007114    program     static /fred/mandm/mandm/mandm8722.c
                  __pa_26   0x0064d8    program     static /fred/mandm/mandm/mandm8722.c
                  __pa_26   0x00d026    program     static C:\MCC18\v3_39\src\traditional\stdclib\vfprintf.c
                 __pa_260   0x007124    program     static /fred/mandm/mandm/mandm8722.c
                 __pa_261   0x007136    program     static /fred/mandm/mandm/mandm8722.c
                 __pa_262   0x00713c    program     static /fred/mandm/mandm/mandm8722.c
                 __pa_263   0x007148    program     static /fred/mandm/mandm/mandm8722.c
                 __pa_264   0x007150    program     static /fred/mandm/mandm/mandm8722.c
                 __pa_265   0x007158    program     static /fred/mandm/mandm/mandm8722.c
                  __pa_27   0x0064e4    program     static /fred/mandm/mandm/mandm8722.c
                  __pa_27   0x00d030    program     static C:\MCC18\v3_39\src\traditional\stdclib\vfprintf.c
                  __pa_28   0x0064f6    program     static /fred/mandm/mandm/mandm8722.c
                  __pa_28   0x00d038    program     static C:\MCC18\v3_39\src\traditional\stdclib\vfprintf.c
                  __pa_29   0x006504    program     static /fred/mandm/mandm/mandm8722.c
                  __pa_29   0x00d046    program     static C:\MCC18\v3_39\src\traditional\stdclib\vfprintf.c
                   __pa_3   0x00dc28    program     static /fred/mandm/mandm/power.c
                   __pa_3   0x00df2a    program     static /fred/mandm/mandm/config.c
                   __pa_3   0x006348    program     static /fred/mandm/mandm/mandm8722.c
                   __pa_3   0x00ce80    program     static C:\MCC18\v3_39\src\traditional\stdclib\vfprintf.c
                   __pa_3   0x008dd8    program     static /fred/mandm/mandm/daq.c  
                   __pa_3   0x00e1aa    program     static /fred/mandm/mandm/crit.c 
                  __pa_30   0x00d062    program     static C:\MCC18\v3_39\src\traditional\stdclib\vfprintf.c
                  __pa_30   0x006510    program     static /fred/mandm/mandm/mandm8722.c
                  __pa_31   0x006526    program     static /fred/mandm/mandm/mandm8722.c
                  __pa_31   0x00d07c    program     static C:\MCC18\v3_39\src\traditional\stdclib\vfprintf.c
                  __pa_32   0x00654c    program     static /fred/mandm/mandm/mandm8722.c
                  __pa_32   0x00d096    program     static C:\MCC18\v3_39\src\traditional\stdclib\vfprintf.c
                  __pa_33   0x006560    program     static /fred/mandm/mandm/mandm8722.c
                  __pa_33   0x00d0ae    program     static C:\MCC18\v3_39\src\traditional\stdclib\vfprintf.c
                  __pa_34   0x00656e    program     static /fred/mandm/mandm/mandm8722.c
                  __pa_34   0x00d0b8    program     static C:\MCC18\v3_39\src\traditional\stdclib\vfprintf.c
                  __pa_35   0x006578    program     static /fred/mandm/mandm/mandm8722.c
                  __pa_35   0x00d0c6    program     static C:\MCC18\v3_39\src\traditional\stdclib\vfprintf.c
                  __pa_36   0x006582    program     static /fred/mandm/mandm/mandm8722.c
                  __pa_36   0x00d0ce    program     static C:\MCC18\v3_39\src\traditional\stdclib\vfprintf.c
                  __pa_37   0x00d0d8    program     static C:\MCC18\v3_39\src\traditional\stdclib\vfprintf.c
                  __pa_37   0x00658c    program     static /fred/mandm/mandm/mandm8722.c
                  __pa_38   0x0065a4    program     static /fred/mandm/mandm/mandm8722.c
                  __pa_38   0x00d0e8    program     static C:\MCC18\v3_39\src\traditional\stdclib\vfprintf.c
                  __pa_39   0x0065aa    program     static /fred/mandm/mandm/mandm8722.c
                  __pa_39   0x00d0f6    program     static C:\MCC18\v3_39\src\traditional\stdclib\vfprintf.c
                   __pa_4   0x00ce98    program     static C:\MCC18\v3_39\src\traditional\stdclib\vfprintf.c
                   __pa_4   0x00635e    program     static /fred/mandm/mandm/mandm8722.c
                   __pa_4   0x00df34    program     static /fred/mandm/mandm/config.c
                   __pa_4   0x00dc30    program     static /fred/mandm/mandm/power.c
                   __pa_4   0x008df4    program     static /fred/mandm/mandm/daq.c  
                  __pa_40   0x00d102    program     static C:\MCC18\v3_39\src\traditional\stdclib\vfprintf.c
                  __pa_40   0x0065bc    program     static /fred/mandm/mandm/mandm8722.c
                  __pa_41   0x00d10e    program     static C:\MCC18\v3_39\src\traditional\stdclib\vfprintf.c
                  __pa_41   0x0065c6    program     static /fred/mandm/mandm/mandm8722.c
                  __pa_42   0x0065d0    program     static /fred/mandm/mandm/mandm8722.c
                  __pa_42   0x00d116    program     static C:\MCC18\v3_39\src\traditional\stdclib\vfprintf.c
                  __pa_43   0x00d120    program     static C:\MCC18\v3_39\src\traditional\stdclib\vfprintf.c
                  __pa_43   0x0065de    program     static /fred/mandm/mandm/mandm8722.c
                  __pa_44   0x0065e6    program     static /fred/mandm/mandm/mandm8722.c
                  __pa_44   0x00d126    program     static C:\MCC18\v3_39\src\traditional\stdclib\vfprintf.c
                  __pa_45   0x0065fa    program     static /fred/mandm/mandm/mandm8722.c
                  __pa_45   0x00d130    program     static C:\MCC18\v3_39\src\traditional\stdclib\vfprintf.c
                  __pa_46   0x006614    program     static /fred/mandm/mandm/mandm8722.c
                  __pa_46   0x00d13c    program     static C:\MCC18\v3_39\src\traditional\stdclib\vfprintf.c
                  __pa_47   0x006626    program     static /fred/mandm/mandm/mandm8722.c
                  __pa_48   0x006632    program     static /fred/mandm/mandm/mandm8722.c
                  __pa_49   0x006638    program     static /fred/mandm/mandm/mandm8722.c
                   __pa_5   0x00637c    program     static /fred/mandm/mandm/mandm8722.c
                   __pa_5   0x008e02    program     static /fred/mandm/mandm/daq.c  
                   __pa_5   0x00dc3e    program     static /fred/mandm/mandm/power.c
                   __pa_5   0x00df3c    program     static /fred/mandm/mandm/config.c
                   __pa_5   0x00ceac    program     static C:\MCC18\v3_39\src\traditional\stdclib\vfprintf.c
                  __pa_50   0x006646    program     static /fred/mandm/mandm/mandm8722.c
                  __pa_51   0x006650    program     static /fred/mandm/mandm/mandm8722.c
                  __pa_52   0x00665a    program     static /fred/mandm/mandm/mandm8722.c
                  __pa_53   0x006664    program     static /fred/mandm/mandm/mandm8722.c
                  __pa_54   0x00668e    program     static /fred/mandm/mandm/mandm8722.c
                  __pa_55   0x006696    program     static /fred/mandm/mandm/mandm8722.c
                  __pa_56   0x0066a4    program     static /fred/mandm/mandm/mandm8722.c
                  __pa_57   0x0066ae    program     static /fred/mandm/mandm/mandm8722.c
                  __pa_58   0x0066ce    program     static /fred/mandm/mandm/mandm8722.c
                  __pa_59   0x0066ee    program     static /fred/mandm/mandm/mandm8722.c
                   __pa_6   0x008e10    program     static /fred/mandm/mandm/daq.c  
                   __pa_6   0x00df4c    program     static /fred/mandm/mandm/config.c
                   __pa_6   0x00dc56    program     static /fred/mandm/mandm/power.c
                   __pa_6   0x00cec8    program     static C:\MCC18\v3_39\src\traditional\stdclib\vfprintf.c
                   __pa_6   0x006384    program     static /fred/mandm/mandm/mandm8722.c
                  __pa_60   0x0066fe    program     static /fred/mandm/mandm/mandm8722.c
                  __pa_61   0x00670e    program     static /fred/mandm/mandm/mandm8722.c
                  __pa_62   0x006718    program     static /fred/mandm/mandm/mandm8722.c
                  __pa_63   0x00671e    program     static /fred/mandm/mandm/mandm8722.c
                  __pa_64   0x006724    program     static /fred/mandm/mandm/mandm8722.c
                  __pa_65   0x00673c    program     static /fred/mandm/mandm/mandm8722.c
                  __pa_66   0x006744    program     static /fred/mandm/mandm/mandm8722.c
                  __pa_67   0x00674c    program     static /fred/mandm/mandm/mandm8722.c
                  __pa_68   0x006758    program     static /fred/mandm/mandm/mandm8722.c
                  __pa_69   0x006766    program     static /fred/mandm/mandm/mandm8722.c
                   __pa_7   0x00ced2    program     static C:\MCC18\v3_39\src\traditional\stdclib\vfprintf.c
                   __pa_7   0x00df54    program     static /fred/mandm/mandm/config.c
                   __pa_7   0x00638e    program     static /fred/mandm/mandm/mandm8722.c
                   __pa_7   0x00dc64    program     static /fred/mandm/mandm/power.c
                  __pa_70   0x00676c    program     static /fred/mandm/mandm/mandm8722.c
                  __pa_71   0x006778    program     static /fred/mandm/mandm/mandm8722.c
                  __pa_72   0x006782    program     static /fred/mandm/mandm/mandm8722.c
                  __pa_73   0x00678c    program     static /fred/mandm/mandm/mandm8722.c
                  __pa_74   0x006796    program     static /fred/mandm/mandm/mandm8722.c
                  __pa_75   0x0067ae    program     static /fred/mandm/mandm/mandm8722.c
                  __pa_76   0x0067c2    program     static /fred/mandm/mandm/mandm8722.c
                  __pa_77   0x0067cc    program     static /fred/mandm/mandm/mandm8722.c
                  __pa_78   0x0067d6    program     static /fred/mandm/mandm/mandm8722.c
                  __pa_79   0x0067e0    program     static /fred/mandm/mandm/mandm8722.c
                   __pa_8   0x00df62    program     static /fred/mandm/mandm/config.c
                   __pa_8   0x0063a0    program     static /fred/mandm/mandm/mandm8722.c
                   __pa_8   0x00dc6e    program     static /fred/mandm/mandm/power.c
                   __pa_8   0x00cede    program     static C:\MCC18\v3_39\src\traditional\stdclib\vfprintf.c
                  __pa_80   0x0067ea    program     static /fred/mandm/mandm/mandm8722.c
                  __pa_81   0x0067f4    program     static /fred/mandm/mandm/mandm8722.c
                  __pa_82   0x00680a    program     static /fred/mandm/mandm/mandm8722.c
                  __pa_83   0x006814    program     static /fred/mandm/mandm/mandm8722.c
                  __pa_84   0x006820    program     static /fred/mandm/mandm/mandm8722.c
                  __pa_85   0x006828    program     static /fred/mandm/mandm/mandm8722.c
                  __pa_86   0x006830    program     static /fred/mandm/mandm/mandm8722.c
                  __pa_87   0x00683e    program     static /fred/mandm/mandm/mandm8722.c
                  __pa_88   0x00684c    program     static /fred/mandm/mandm/mandm8722.c
                  __pa_89   0x00685a    program     static /fred/mandm/mandm/mandm8722.c
                   __pa_9   0x00cf00    program     static C:\MCC18\v3_39\src\traditional\stdclib\vfprintf.c
                   __pa_9   0x00df6e    program     static /fred/mandm/mandm/config.c
                   __pa_9   0x0063bc    program     static /fred/mandm/mandm/mandm8722.c
                   __pa_9   0x00dc76    program     static /fred/mandm/mandm/power.c
                  __pa_90   0x006868    program     static /fred/mandm/mandm/mandm8722.c
                  __pa_91   0x00686e    program     static /fred/mandm/mandm/mandm8722.c
                  __pa_92   0x006878    program     static /fred/mandm/mandm/mandm8722.c
                  __pa_93   0x006882    program     static /fred/mandm/mandm/mandm8722.c
                  __pa_94   0x006894    program     static /fred/mandm/mandm/mandm8722.c
                  __pa_95   0x0068a6    program     static /fred/mandm/mandm/mandm8722.c
                  __pa_96   0x0068b8    program     static /fred/mandm/mandm/mandm8722.c
                  __pa_97   0x0068ca    program     static /fred/mandm/mandm/mandm8722.c
                  __pa_98   0x0068dc    program     static /fred/mandm/mandm/mandm8722.c
                  __pa_99   0x0068ee    program     static /fred/mandm/mandm/mandm8722.c
               __string_0   0x008ee4    program     static /fred/mandm/mandm/daq.c  
               __string_0   0x00a3c0    program     static /fred/mandm/mandm/config.c
               __string_1   0x008ea7    program     static /fred/mandm/mandm/daq.c  
               __string_1   0x00a3a3    program     static /fred/mandm/mandm/config.c
             __string_108   0x00a2a4    program     static /fred/mandm/mandm/mandm8722.c
             __string_109   0x00a29b    program     static /fred/mandm/mandm/mandm8722.c
             __string_110   0x00a282    program     static /fred/mandm/mandm/mandm8722.c
             __string_111   0x00a27b    program     static /fred/mandm/mandm/mandm8722.c
             __string_112   0x00a278    program     static /fred/mandm/mandm/mandm8722.c
             __string_113   0x00a273    program     static /fred/mandm/mandm/mandm8722.c
             __string_114   0x00a271    program     static /fred/mandm/mandm/mandm8722.c
             __string_115   0x00a25b    program     static /fred/mandm/mandm/mandm8722.c
             __string_116   0x00a1cc    program     static /fred/mandm/mandm/mandm8722.c
             __string_117   0x00a10d    program     static /fred/mandm/mandm/mandm8722.c
             __string_118   0x00a0ae    program     static /fred/mandm/mandm/mandm8722.c
             __string_119   0x00a036    program     static /fred/mandm/mandm/mandm8722.c
             __string_120   0x00a015    program     static /fred/mandm/mandm/mandm8722.c
             __string_121   0x00a003    program     static /fred/mandm/mandm/mandm8722.c
             __string_122   0x009ff7    program     static /fred/mandm/mandm/mandm8722.c
             __string_123   0x009fef    program     static /fred/mandm/mandm/mandm8722.c
             __string_124   0x009fe7    program     static /fred/mandm/mandm/mandm8722.c
             __string_125   0x009fe1    program     static /fred/mandm/mandm/mandm8722.c
             __string_126   0x009fd4    program     static /fred/mandm/mandm/mandm8722.c
             __string_127   0x009fca    program     static /fred/mandm/mandm/mandm8722.c
             __string_128   0x009fb8    program     static /fred/mandm/mandm/mandm8722.c
             __string_129   0x009f9e    program     static /fred/mandm/mandm/mandm8722.c
             __string_130   0x009f84    program     static /fred/mandm/mandm/mandm8722.c
             __string_131   0x009f64    program     static /fred/mandm/mandm/mandm8722.c
             __string_132   0x009f4a    program     static /fred/mandm/mandm/mandm8722.c
             __string_133   0x009f31    program     static /fred/mandm/mandm/mandm8722.c
             __string_134   0x009f0d    program     static /fred/mandm/mandm/mandm8722.c
             __string_135   0x009eea    program     static /fred/mandm/mandm/mandm8722.c
             __string_136   0x009e9d    program     static /fred/mandm/mandm/mandm8722.c
             __string_137   0x009e56    program     static /fred/mandm/mandm/mandm8722.c
             __string_138   0x009e3b    program     static /fred/mandm/mandm/mandm8722.c
             __string_139   0x009dfe    program     static /fred/mandm/mandm/mandm8722.c
             __string_140   0x009dc7    program     static /fred/mandm/mandm/mandm8722.c
             __string_141   0x009db1    program     static /fred/mandm/mandm/mandm8722.c
             __string_142   0x009d9a    program     static /fred/mandm/mandm/mandm8722.c
             __string_143   0x009d4b    program     static /fred/mandm/mandm/mandm8722.c
             __string_144   0x009cf5    program     static /fred/mandm/mandm/mandm8722.c
             __string_145   0x009cd9    program     static /fred/mandm/mandm/mandm8722.c
             __string_146   0x009cb9    program     static /fred/mandm/mandm/mandm8722.c
             __string_147   0x009c65    program     static /fred/mandm/mandm/mandm8722.c
             __string_148   0x009c26    program     static /fred/mandm/mandm/mandm8722.c
             __string_149   0x009c04    program     static /fred/mandm/mandm/mandm8722.c
             __string_150   0x009bb1    program     static /fred/mandm/mandm/mandm8722.c
             __string_151   0x009b9f    program     static /fred/mandm/mandm/mandm8722.c
             __string_152   0x009b84    program     static /fred/mandm/mandm/mandm8722.c
             __string_153   0x009b75    program     static /fred/mandm/mandm/mandm8722.c
             __string_154   0x009b5a    program     static /fred/mandm/mandm/mandm8722.c
             __string_155   0x009b42    program     static /fred/mandm/mandm/mandm8722.c
             __string_156   0x009b33    program     static /fred/mandm/mandm/mandm8722.c
             __string_157   0x009b1b    program     static /fred/mandm/mandm/mandm8722.c
             __string_158   0x009b04    program     static /fred/mandm/mandm/mandm8722.c
             __string_159   0x009aed    program     static /fred/mandm/mandm/mandm8722.c
             __string_160   0x009ada    program     static /fred/mandm/mandm/mandm8722.c
             __string_161   0x009ab5    program     static /fred/mandm/mandm/mandm8722.c
             __string_162   0x009a9f    program     static /fred/mandm/mandm/mandm8722.c
             __string_163   0x009a89    program     static /fred/mandm/mandm/mandm8722.c
             __string_164   0x009a73    program     static /fred/mandm/mandm/mandm8722.c
             __string_165   0x009a5d    program     static /fred/mandm/mandm/mandm8722.c
             __string_166   0x009a34    program     static /fred/mandm/mandm/mandm8722.c
             __string_167   0x009a13    program     static /fred/mandm/mandm/mandm8722.c
             __string_168   0x0099f6    program     static /fred/mandm/mandm/mandm8722.c
             __string_169   0x0099cf    program     static /fred/mandm/mandm/mandm8722.c
             __string_170   0x0099b5    program     static /fred/mandm/mandm/mandm8722.c
             __string_171   0x00998c    program     static /fred/mandm/mandm/mandm8722.c
             __string_172   0x009963    program     static /fred/mandm/mandm/mandm8722.c
             __string_173   0x00993a    program     static /fred/mandm/mandm/mandm8722.c
             __string_174   0x009913    program     static /fred/mandm/mandm/mandm8722.c
             __string_175   0x0098ec    program     static /fred/mandm/mandm/mandm8722.c
             __string_176   0x0098c5    program     static /fred/mandm/mandm/mandm8722.c
             __string_177   0x00989c    program     static /fred/mandm/mandm/mandm8722.c
             __string_178   0x009884    program     static /fred/mandm/mandm/mandm8722.c
             __string_179   0x00985b    program     static /fred/mandm/mandm/mandm8722.c
             __string_180   0x009846    program     static /fred/mandm/mandm/mandm8722.c
             __string_181   0x00981d    program     static /fred/mandm/mandm/mandm8722.c
             __string_182   0x0097fb    program     static /fred/mandm/mandm/mandm8722.c
             __string_183   0x0097d4    program     static /fred/mandm/mandm/mandm8722.c
             __string_184   0x0097b3    program     static /fred/mandm/mandm/mandm8722.c
             __string_185   0x00978c    program     static /fred/mandm/mandm/mandm8722.c
             __string_186   0x009765    program     static /fred/mandm/mandm/mandm8722.c
             __string_187   0x00973e    program     static /fred/mandm/mandm/mandm8722.c
             __string_188   0x009728    program     static /fred/mandm/mandm/mandm8722.c
             __string_189   0x009712    program     static /fred/mandm/mandm/mandm8722.c
             __string_190   0x0096fc    program     static /fred/mandm/mandm/mandm8722.c
             __string_191   0x0096e5    program     static /fred/mandm/mandm/mandm8722.c
             __string_192   0x0096ce    program     static /fred/mandm/mandm/mandm8722.c
             __string_193   0x0096b7    program     static /fred/mandm/mandm/mandm8722.c
             __string_194   0x009698    program     static /fred/mandm/mandm/mandm8722.c
             __string_195   0x009679    program     static /fred/mandm/mandm/mandm8722.c
             __string_196   0x00965a    program     static /fred/mandm/mandm/mandm8722.c
             __string_197   0x00963c    program     static /fred/mandm/mandm/mandm8722.c
             __string_198   0x009618    program     static /fred/mandm/mandm/mandm8722.c
             __string_199   0x0095ea    program     static /fred/mandm/mandm/mandm8722.c
               __string_2   0x008e78    program     static /fred/mandm/mandm/daq.c  
               __string_2   0x00a37e    program     static /fred/mandm/mandm/config.c
             __string_200   0x0095ce    program     static /fred/mandm/mandm/mandm8722.c
             __string_201   0x0095a3    program     static /fred/mandm/mandm/mandm8722.c
             __string_202   0x009584    program     static /fred/mandm/mandm/mandm8722.c
             __string_203   0x00955c    program     static /fred/mandm/mandm/mandm8722.c
             __string_204   0x00952f    program     static /fred/mandm/mandm/mandm8722.c
             __string_205   0x009514    program     static /fred/mandm/mandm/mandm8722.c
             __string_206   0x0094e9    program     static /fred/mandm/mandm/mandm8722.c
             __string_207   0x0094c9    program     static /fred/mandm/mandm/mandm8722.c
             __string_208   0x0094b2    program     static /fred/mandm/mandm/mandm8722.c
             __string_209   0x00949b    program     static /fred/mandm/mandm/mandm8722.c
             __string_210   0x00947f    program     static /fred/mandm/mandm/mandm8722.c
             __string_211   0x009461    program     static /fred/mandm/mandm/mandm8722.c
             __string_212   0x00943b    program     static /fred/mandm/mandm/mandm8722.c
             __string_213   0x00941e    program     static /fred/mandm/mandm/mandm8722.c
             __string_214   0x0093f9    program     static /fred/mandm/mandm/mandm8722.c
             __string_215   0x0093e1    program     static /fred/mandm/mandm/mandm8722.c
             __string_216   0x0093b9    program     static /fred/mandm/mandm/mandm8722.c
             __string_217   0x009391    program     static /fred/mandm/mandm/mandm8722.c
             __string_218   0x009369    program     static /fred/mandm/mandm/mandm8722.c
             __string_219   0x009341    program     static /fred/mandm/mandm/mandm8722.c
             __string_220   0x00932a    program     static /fred/mandm/mandm/mandm8722.c
             __string_221   0x009308    program     static /fred/mandm/mandm/mandm8722.c
             __string_222   0x0092dc    program     static /fred/mandm/mandm/mandm8722.c
             __string_223   0x0092c6    program     static /fred/mandm/mandm/mandm8722.c
             __string_224   0x0092b0    program     static /fred/mandm/mandm/mandm8722.c
             __string_225   0x00929a    program     static /fred/mandm/mandm/mandm8722.c
             __string_226   0x009286    program     static /fred/mandm/mandm/mandm8722.c
             __string_227   0x00925a    program     static /fred/mandm/mandm/mandm8722.c
             __string_228   0x009245    program     static /fred/mandm/mandm/mandm8722.c
             __string_229   0x009230    program     static /fred/mandm/mandm/mandm8722.c
             __string_230   0x0091fb    program     static /fred/mandm/mandm/mandm8722.c
             __string_231   0x0091d8    program     static /fred/mandm/mandm/mandm8722.c
             __string_232   0x00919a    program     static /fred/mandm/mandm/mandm8722.c
             __string_233   0x009185    program     static /fred/mandm/mandm/mandm8722.c
             __string_234   0x009160    program     static /fred/mandm/mandm/mandm8722.c
             __string_235   0x009136    program     static /fred/mandm/mandm/mandm8722.c
             __string_236   0x00910d    program     static /fred/mandm/mandm/mandm8722.c
             __string_237   0x0090e4    program     static /fred/mandm/mandm/mandm8722.c
             __string_238   0x0090cc    program     static /fred/mandm/mandm/mandm8722.c
             __string_239   0x0090ad    program     static /fred/mandm/mandm/mandm8722.c
             __string_240   0x009095    program     static /fred/mandm/mandm/mandm8722.c
             __string_241   0x00907c    program     static /fred/mandm/mandm/mandm8722.c
             __string_242   0x00905f    program     static /fred/mandm/mandm/mandm8722.c
             __string_243   0x00903f    program     static /fred/mandm/mandm/mandm8722.c
             __string_244   0x00901c    program     static /fred/mandm/mandm/mandm8722.c
             __string_245   0x008ffc    program     static /fred/mandm/mandm/mandm8722.c
             __string_246   0x008fe3    program     static /fred/mandm/mandm/mandm8722.c
             __string_247   0x008fc7    program     static /fred/mandm/mandm/mandm8722.c
             __string_248   0x008fae    program     static /fred/mandm/mandm/mandm8722.c
             __string_249   0x008f95    program     static /fred/mandm/mandm/mandm8722.c
             __string_250   0x008f7f    program     static /fred/mandm/mandm/mandm8722.c
             __string_251   0x008f66    program     static /fred/mandm/mandm/mandm8722.c
             __string_252   0x008f44    program     static /fred/mandm/mandm/mandm8722.c
             __string_253   0x008f26    program     static /fred/mandm/mandm/mandm8722.c
               __string_3   0x008e49    program     static /fred/mandm/mandm/daq.c  
               __string_3   0x00a358    program     static /fred/mandm/mandm/config.c
               __string_4   0x00a331    program     static /fred/mandm/mandm/config.c
               __string_4   0x008e1a    program     static /fred/mandm/mandm/daq.c  
               __string_5   0x00a30f    program     static /fred/mandm/mandm/config.c
               __string_6   0x00a2f8    program     static /fred/mandm/mandm/config.c
               __string_7   0x00a2d4    program     static /fred/mandm/mandm/config.c
               __string_8   0x00a2b0    program     static /fred/mandm/mandm/config.c
               __tmplbl_0   0x00e384    program     static                          
               __tmplbl_0   0x00b91a    program     static                          
               __tmplbl_1   0x00e37e    program     static                          
               __tmplbl_1   0x00b914    program     static                          
              __tmplbl_10   0x007576    program     static                          
              __tmplbl_10   0x00bafe    program     static                          
             __tmplbl_100   0x004ec4    program     static                          
             __tmplbl_101   0x005000    program     static                          
             __tmplbl_102   0x004fce    program     static                          
             __tmplbl_103   0x005100    program     static                          
             __tmplbl_104   0x0050ce    program     static                          
             __tmplbl_105   0x0058c0    program     static                          
             __tmplbl_106   0x00588a    program     static                          
             __tmplbl_107   0x0058bc    program     static                          
             __tmplbl_108   0x0062ca    program     static                          
             __tmplbl_109   0x0062c4    program     static                          
              __tmplbl_11   0x00bb22    program     static                          
              __tmplbl_11   0x0077b0    program     static                          
             __tmplbl_110   0x00645c    program     static                          
             __tmplbl_111   0x00645c    program     static                          
             __tmplbl_112   0x00645c    program     static                          
             __tmplbl_113   0x00645c    program     static                          
             __tmplbl_114   0x00645c    program     static                          
             __tmplbl_115   0x00645c    program     static                          
             __tmplbl_116   0x00645c    program     static                          
             __tmplbl_117   0x00645c    program     static                          
             __tmplbl_119   0x00645c    program     static                          
              __tmplbl_12   0x0079e8    program     static                          
              __tmplbl_12   0x00bb1c    program     static                          
             __tmplbl_120   0x00645c    program     static                          
             __tmplbl_121   0x00696a    program     static                          
             __tmplbl_122   0x00696a    program     static                          
             __tmplbl_123   0x006c5c    program     static                          
             __tmplbl_124   0x006c5c    program     static                          
             __tmplbl_125   0x00645c    program     static                          
             __tmplbl_126   0x00645c    program     static                          
             __tmplbl_127   0x007066    program     static                          
             __tmplbl_128   0x007066    program     static                          
             __tmplbl_129   0x006b22    program     static                          
              __tmplbl_13   0x00bb44    program     static                          
              __tmplbl_13   0x0080b4    program     static                          
             __tmplbl_130   0x006b22    program     static                          
             __tmplbl_134   0x00645c    program     static                          
             __tmplbl_136   0x00645c    program     static                          
             __tmplbl_137   0x00645c    program     static                          
              __tmplbl_14   0x00836c    program     static                          
              __tmplbl_14   0x00bb3e    program     static                          
              __tmplbl_15   0x00bb6c    program     static                          
              __tmplbl_15   0x008466    program     static                          
             __tmplbl_156   0x00645c    program     static                          
             __tmplbl_157   0x00645c    program     static                          
             __tmplbl_159   0x00645c    program     static                          
              __tmplbl_16   0x00bb66    program     static                          
             __tmplbl_160   0x00645c    program     static                          
             __tmplbl_161   0x006b80    program     static                          
             __tmplbl_162   0x0070dc    program     static                          
             __tmplbl_163   0x006ee0    program     static                          
             __tmplbl_164   0x006ee0    program     static                          
             __tmplbl_165   0x0070dc    program     static                          
             __tmplbl_166   0x006ee0    program     static                          
             __tmplbl_167   0x006ee0    program     static                          
             __tmplbl_168   0x0070dc    program     static                          
              __tmplbl_17   0x00bb94    program     static                          
             __tmplbl_172   0x006ee0    program     static                          
             __tmplbl_173   0x00645c    program     static                          
             __tmplbl_174   0x002e0c    program     static                          
             __tmplbl_175   0x002efc    program     static                          
             __tmplbl_176   0x002fae    program     static                          
             __tmplbl_177   0x002fda    program     static                          
             __tmplbl_178   0x003180    program     static                          
             __tmplbl_179   0x003270    program     static                          
              __tmplbl_18   0x00bb8e    program     static                          
             __tmplbl_180   0x003322    program     static                          
             __tmplbl_181   0x00334e    program     static                          
             __tmplbl_182   0x004dba    program     static                          
             __tmplbl_183   0x004eba    program     static                          
             __tmplbl_184   0x004fc4    program     static                          
             __tmplbl_185   0x0050c4    program     static                          
             __tmplbl_186   0x006bf0    program     static                          
             __tmplbl_187   0x006bf0    program     static                          
             __tmplbl_188   0x006e72    program     static                          
             __tmplbl_189   0x006e72    program     static                          
              __tmplbl_19   0x00bbe8    program     static                          
             __tmplbl_190   0x006ee0    program     static                          
             __tmplbl_191   0x00645c    program     static                          
               __tmplbl_2   0x00b93c    program     static                          
              __tmplbl_20   0x00bbe2    program     static                          
              __tmplbl_21   0x00bc40    program     static                          
              __tmplbl_22   0x00bc6a    program     static                          
              __tmplbl_23   0x00bce4    program     static                          
              __tmplbl_24   0x00bcc6    program     static                          
              __tmplbl_25   0x00bca8    program     static                          
              __tmplbl_26   0x00bca6    program     static                          
              __tmplbl_27   0x00bcc4    program     static                          
              __tmplbl_28   0x00bce2    program     static                          
              __tmplbl_29   0x00bece    program     static                          
               __tmplbl_3   0x0002b8    program     static                          
               __tmplbl_3   0x00b936    program     static                          
               __tmplbl_3   0x0075de    program     static                          
              __tmplbl_30   0x00bf2a    program     static                          
              __tmplbl_31   0x00bf52    program     static                          
              __tmplbl_32   0x00bfdc    program     static                          
              __tmplbl_33   0x00c2e0    program     static                          
              __tmplbl_34   0x00c2a4    program     static                          
              __tmplbl_35   0x00c36a    program     static                          
              __tmplbl_36   0x00c348    program     static                          
              __tmplbl_37   0x00c342    program     static                          
              __tmplbl_38   0x00c33c    program     static                          
              __tmplbl_39   0x00c3f2    program     static                          
               __tmplbl_4   0x00036e    program     static                          
               __tmplbl_4   0x00b9aa    program     static                          
               __tmplbl_4   0x007818    program     static                          
              __tmplbl_40   0x00c440    program     static                          
              __tmplbl_41   0x00c43a    program     static                          
              __tmplbl_42   0x00cffa    program     static                          
              __tmplbl_43   0x00ce42    program     static                          
              __tmplbl_44   0x00ce28    program     static                          
               __tmplbl_5   0x007a50    program     static                          
               __tmplbl_5   0x00bada    program     static                          
               __tmplbl_6   0x00bad2    program     static                          
               __tmplbl_6   0x0081da    program     static                          
               __tmplbl_7   0x00baf0    program     static                          
               __tmplbl_7   0x0081d4    program     static                          
              __tmplbl_75   0x002fc6    program     static                          
              __tmplbl_76   0x002fb6    program     static                          
              __tmplbl_77   0x00333a    program     static                          
              __tmplbl_78   0x00332a    program     static                          
              __tmplbl_79   0x003384    program     static                          
               __tmplbl_8   0x00bae8    program     static                          
               __tmplbl_8   0x007320    program     static                          
              __tmplbl_80   0x00337a    program     static                          
              __tmplbl_81   0x00384c    program     static                          
              __tmplbl_82   0x003846    program     static                          
              __tmplbl_83   0x003840    program     static                          
              __tmplbl_84   0x003c8a    program     static                          
              __tmplbl_85   0x00c57a    program     static                          
              __tmplbl_85   0x003c78    program     static                          
              __tmplbl_86   0x003ee2    program     static                          
              __tmplbl_87   0x003edc    program     static                          
              __tmplbl_88   0x003ed6    program     static                          
              __tmplbl_89   0x004320    program     static                          
               __tmplbl_9   0x00bb06    program     static                          
               __tmplbl_9   0x00742a    program     static                          
              __tmplbl_90   0x00430e    program     static                          
              __tmplbl_91   0x004384    program     static                          
              __tmplbl_92   0x004516    program     static                          
              __tmplbl_93   0x004650    program     static                          
              __tmplbl_94   0x0047e2    program     static                          
              __tmplbl_95   0x004cb0    program     static                          
              __tmplbl_96   0x004d24    program     static                          
              __tmplbl_97   0x004df6    program     static                          
              __tmplbl_98   0x004dc4    program     static                          
              __tmplbl_99   0x004ef6    program     static                          
            __zero_memory   0x00ef48    program     extern C:\MCC18\v3_39\src\traditional\proc\p18F8722.asm
                _do_cinit   0x00e576    program     extern C:\MCC18\v3_39\src\traditional\startup\c018iz.c
                   _entry   0x000000    program     extern C:\MCC18\v3_39\src\traditional\startup\c018iz.c
                   _false   0x00eb2c    program     static                          
                 _startup   0x00ef28    program     extern C:\MCC18\v3_39\src\traditional\startup\c018iz.c
              _usart_putc   0x00ef68    program     extern C:\MCC18\v3_39\src\pmc_common\USART\_usartpc.asm
               _user_putc   0x000006    program     extern C:\MCC18\v3_39\src\traditional\stdclib\_user_putc.c
                    adcg0   0x00a86e    program     extern /fred/mandm/mandm/mandm_msg.h
                    adcg1   0x00a8ae    program     extern /fred/mandm/mandm/mandm_msg.h
                    adcg2   0x00a8d9    program     extern /fred/mandm/mandm/mandm_msg.h
                    adcg3   0x00a90c    program     extern /fred/mandm/mandm/mandm_msg.h
                    adcg4   0x00a978    program     extern /fred/mandm/mandm/mandm_msg.h
                     ahfp   0x0012f2    program     extern /fred/mandm/mandm/mandm8722.c
                 almcode0   0x00b02c    program     extern /fred/mandm/mandm/mandm_msg.h
                 almcode1   0x00b04c    program     extern /fred/mandm/mandm/mandm_msg.h
                almcode10   0x00b1f3    program     extern /fred/mandm/mandm/mandm_msg.h
                almcode11   0x00b234    program     extern /fred/mandm/mandm/mandm_msg.h
                almcode12   0x00b25a    program     extern /fred/mandm/mandm/mandm_msg.h
                almcode13   0x00b280    program     extern /fred/mandm/mandm/mandm_msg.h
                almcode14   0x00b2ac    program     extern /fred/mandm/mandm/mandm_msg.h
                almcode15   0x00b2c4    program     extern /fred/mandm/mandm/mandm_msg.h
                almcode16   0x00b2db    program     extern /fred/mandm/mandm/mandm_msg.h
                almcode17   0x00b308    program     extern /fred/mandm/mandm/mandm_msg.h
                 almcode2   0x00b07c    program     extern /fred/mandm/mandm/mandm_msg.h
                 almcode3   0x00b09f    program     extern /fred/mandm/mandm/mandm_msg.h
                 almcode4   0x00b0c2    program     extern /fred/mandm/mandm/mandm_msg.h
                 almcode5   0x00b0f3    program     extern /fred/mandm/mandm/mandm_msg.h
                 almcode6   0x00b127    program     extern /fred/mandm/mandm/mandm_msg.h
                 almcode7   0x00b15c    program     extern /fred/mandm/mandm/mandm_msg.h
                 almcode8   0x00b195    program     extern /fred/mandm/mandm/mandm_msg.h
                 almcode9   0x00b1c3    program     extern /fred/mandm/mandm/mandm_msg.h
                almcode99   0x00b327    program     extern /fred/mandm/mandm/mandm_msg.h
                 ansidraw   0x0017da    program     extern /fred/mandm/mandm/mandm8722.c
              battbuffer0   0x00af1a    program     extern /fred/mandm/mandm/mandm_msg.h
              battheader0   0x00ade5    program     extern /fred/mandm/mandm/mandm_msg.h
              battheader1   0x00ae59    program     extern /fred/mandm/mandm/mandm_msg.h
                blink_led   0x00db48    program     extern /fred/mandm/mandm/power.c
             buzzer_ticks   0x00c4dc    program     extern /fred/mandm/mandm/mandm_vector.c
                 charger0   0x00b60e    program     extern /fred/mandm/mandm/mandm_msg.h
                 charger1   0x00b645    program     extern /fred/mandm/mandm/mandm_msg.h
                 charger2   0x00b67f    program     extern /fred/mandm/mandm/mandm_msg.h
                 charger3   0x00b6bd    program     extern /fred/mandm/mandm/mandm_msg.h
                 charger4   0x00b6dc    program     extern /fred/mandm/mandm/mandm_msg.h
                charger99   0x00b6fc    program     extern /fred/mandm/mandm/mandm_msg.h
              check_alarm   0x00138e    program     extern /fred/mandm/mandm/mandm8722.c
              check_cable   0x001e82    program     extern /fred/mandm/mandm/mandm8722.c
                checktime   0x000378    program     extern /fred/mandm/mandm/mandm8722.c
            checktime_cal   0x0004da    program     extern /fred/mandm/mandm/mandm8722.c
            checktime_eep   0x000550    program     extern /fred/mandm/mandm/mandm8722.c
          checktime_motor   0x000464    program     extern /fred/mandm/mandm/mandm8722.c
         checktime_select   0x0003ee    program     extern /fred/mandm/mandm/mandm8722.c
          checktime_track   0x0005c6    program     extern /fred/mandm/mandm/mandm8722.c
                chrgcode0   0x00b328    program     extern /fred/mandm/mandm/mandm_msg.h
                chrgcode1   0x00b359    program     extern /fred/mandm/mandm/mandm_msg.h
               chrgcode10   0x00b4d3    program     extern /fred/mandm/mandm/mandm_msg.h
               chrgcode11   0x00b500    program     extern /fred/mandm/mandm/mandm_msg.h
               chrgcode12   0x00b52b    program     extern /fred/mandm/mandm/mandm_msg.h
               chrgcode13   0x00b559    program     extern /fred/mandm/mandm/mandm_msg.h
               chrgcode14   0x00b586    program     extern /fred/mandm/mandm/mandm_msg.h
               chrgcode15   0x00b5ba    program     extern /fred/mandm/mandm/mandm_msg.h
               chrgcode16   0x00b5e4    program     extern /fred/mandm/mandm/mandm_msg.h
                chrgcode2   0x00b38f    program     extern /fred/mandm/mandm/mandm_msg.h
                chrgcode3   0x00b3bb    program     extern /fred/mandm/mandm/mandm_msg.h
                chrgcode4   0x00b3ec    program     extern /fred/mandm/mandm/mandm_msg.h
                chrgcode5   0x00b424    program     extern /fred/mandm/mandm/mandm_msg.h
                chrgcode6   0x00b437    program     extern /fred/mandm/mandm/mandm_msg.h
                chrgcode7   0x00b457    program     extern /fred/mandm/mandm/mandm_msg.h
                chrgcode8   0x00b484    program     extern /fred/mandm/mandm/mandm_msg.h
                chrgcode9   0x00b4ae    program     extern /fred/mandm/mandm/mandm_msg.h
               clear_crit   0x00e0c8    program     extern /fred/mandm/mandm/crit.c 
                  clr_lcd   0x00068c    program     extern /fred/mandm/mandm/mandm8722.c
                compare_l   0x00ef5e    program     static C:\MCC18\v3_39\src\traditional\proc\p18F8722.asm
               config_pic   0x00e34a    program     extern /fred/mandm/mandm/hwconf.c
                copy_loop   0x00e5e8    program     static                          
            copy_one_byte   0x00e5ee    program     static                          
          default_display   0x0028da    program     extern /fred/mandm/mandm/mandm8722.c
              display_cal   0x0059ce    program     extern /fred/mandm/mandm/mandm8722.c
                  divert0   0x00afea    program     extern /fred/mandm/mandm/mandm_msg.h
                  divert1   0x00b00a    program     extern /fred/mandm/mandm/mandm_msg.h
                 divert99   0x00b02b    program     extern /fred/mandm/mandm/mandm_msg.h
                     done   0x00e612    program     static                          
             done_copying   0x00e5fc    program     static                          
           e220_m_display   0x002662    program     extern /fred/mandm/mandm/mandm8722.c
         e220_qei_display   0x002816    program     extern /fred/mandm/mandm/mandm8722.c
            e220_qei_exer   0x002286    program     extern /fred/mandm/mandm/mandm8722.c
                   e_crit   0x00e060    program     extern /fred/mandm/mandm/crit.c 
              emo_display   0x00293c    program     extern /fred/mandm/mandm/mandm8722.c
                emotor_cw   0x00dad2    program     extern /fred/mandm/mandm/power.c
        emotor_is_all_off   0x00dafa    program     extern /fred/mandm/mandm/power.c
             emotor_power   0x00da68    program     extern /fred/mandm/mandm/power.c
         emotor_power_off   0x00db18    program     extern /fred/mandm/mandm/power.c
          emotor_power_on   0x00db1e    program     extern /fred/mandm/mandm/power.c
            emotor_relays   0x00dab2    program     extern /fred/mandm/mandm/power.c
        emotor_slow_start   0x00dab6    program     extern /fred/mandm/mandm/power.c
         emotor_slow_stop   0x00dace    program     extern /fred/mandm/mandm/power.c
        emotor_switch_ccw   0x00db04    program     extern /fred/mandm/mandm/power.c
         emotor_switch_cw   0x00db12    program     extern /fred/mandm/mandm/power.c
               emotor_v24   0x00db24    program     extern /fred/mandm/mandm/power.c
                  endloop   0x00eed2    program     static                          
                exerciser   0x00251c    program     extern /fred/mandm/mandm/mandm8722.c
          fail_all_motors   0x002a46    program     extern /fred/mandm/mandm/mandm8722.c
                fail_safe   0x0016ea    program     extern /fred/mandm/mandm/mandm8722.c
                  get_hid   0x001fb4    program     extern /fred/mandm/mandm/mandm8722.c
            gsd_m_display   0x0025e2    program     extern /fred/mandm/mandm/mandm8722.c
                   hello0   0x00abf0    program     extern /fred/mandm/mandm/mandm_msg.h
                   hello1   0x00ac3d    program     extern /fred/mandm/mandm/mandm_msg.h
           help_m_display   0x002582    program     extern /fred/mandm/mandm/mandm8722.c
                 hid_menu   0x002560    program     extern /fred/mandm/mandm/mandm8722.c
                       hm   0x0010b4    program     extern /fred/mandm/mandm/mandm8722.c
                      hms   0x000fda    program     extern /fred/mandm/mandm/mandm8722.c
                    hold0   0x00ac4a    program     extern /fred/mandm/mandm/mandm_msg.h
                    hold1   0x00aca8    program     extern /fred/mandm/mandm/mandm_msg.h
             hold_process   0x0008be    program     extern /fred/mandm/mandm/mandm8722.c
                idle_loop   0x00c4ae    program     extern /fred/mandm/mandm/mandm_vector.c
                 init_lcd   0x005a76    program     extern /fred/mandm/mandm/mandm8722.c
           init_motordata   0x00dc8e    program     extern /fred/mandm/mandm/config.c
          is_led_blinking   0x00dbee    program     extern /fred/mandm/mandm/power.c
                  isdigit   0x00ef04    program     extern C:\MCC18\v3_39\src\traditional\stdclib\isdigit.asm
                 jANotInf   0x00d398    program     static C:\MCC18\v3_39\src\traditional\math\mulFP.asm
                 jANotInf   0x00d1d0    program     static C:\MCC18\v3_39\src\traditional\math\addFP.asm
                 jANotInf   0x00d2f2    program     static C:\MCC18\v3_39\src\traditional\math\divFP.asm
                 jANotNeg   0x00d264    program     static C:\MCC18\v3_39\src\traditional\math\addFP.asm
                jANotZero   0x00d306    program     static C:\MCC18\v3_39\src\traditional\math\divFP.asm
              jAandWsetup   0x00d234    program     static C:\MCC18\v3_39\src\traditional\math\addFP.asm
                 jAltBexp   0x00d222    program     static C:\MCC18\v3_39\src\traditional\math\addFP.asm
                jBANotInf   0x00d1c6    program     static C:\MCC18\v3_39\src\traditional\math\addFP.asm
                 jBNotInf   0x00d1de    program     static C:\MCC18\v3_39\src\traditional\math\addFP.asm
              jBothFinite   0x00d3a6    program     static C:\MCC18\v3_39\src\traditional\math\mulFP.asm
             jBothNotZero   0x00d3b2    program     static C:\MCC18\v3_39\src\traditional\math\mulFP.asm
            jDifOrPosSign   0x00d1f2    program     static C:\MCC18\v3_39\src\traditional\math\addFP.asm
                     jEnd   0x00e348    program     static C:\MCC18\v3_39\src\traditional\stdclib\strlen.asm
                     jEnd   0x00e32c    program     static C:\MCC18\v3_39\src\traditional\stdclib\sncpyp2r.asm
                     jEnd   0x00e2d0    program     static C:\MCC18\v3_39\src\traditional\stdclib\strncpy.asm
                     jEnd   0x00e272    program     static C:\MCC18\v3_39\src\traditional\stdclib\slenpgm.asm
                     jEnd   0x00e23a    program     static C:\MCC18\v3_39\src\traditional\stdclib\scpyp2r.asm
                     jEnd   0x00e1f4    program     static C:\MCC18\v3_39\src\traditional\stdclib\memcmp.asm
                    jExit   0x00d5f6    program     static C:\MCC18\v3_39\src\traditional\math\castFP16.asm
                    jExit   0x00d664    program     static C:\MCC18\v3_39\src\traditional\math\castFP32.asm
               jFinalSign   0x00d2cc    program     static C:\MCC18\v3_39\src\traditional\math\addFP.asm
                jHaveZero   0x00d3ae    program     static C:\MCC18\v3_39\src\traditional\math\mulFP.asm
                jI2F16Beg   0x00d15a    program     static C:\MCC18\v3_39\src\traditional\math\cast16FP.asm
                jI2F32Beg   0x00d18c    program     static C:\MCC18\v3_39\src\traditional\math\cast32FP.asm
                    jLoop   0x00e1d8    program     static C:\MCC18\v3_39\src\traditional\stdclib\memcmp.asm
                    jLoop   0x00e33e    program     static C:\MCC18\v3_39\src\traditional\stdclib\strlen.asm
                    jLoop   0x00e308    program     static C:\MCC18\v3_39\src\traditional\stdclib\sncpyp2r.asm
                    jLoop   0x00d638    program     static C:\MCC18\v3_39\src\traditional\math\castFP32.asm
                    jLoop   0x00e2ae    program     static C:\MCC18\v3_39\src\traditional\stdclib\strncpy.asm
                    jLoop   0x00e25a    program     static C:\MCC18\v3_39\src\traditional\stdclib\slenpgm.asm
                    jLoop   0x00d32e    program     static C:\MCC18\v3_39\src\traditional\math\divFP.asm
                    jLoop   0x00d5d6    program     static C:\MCC18\v3_39\src\traditional\math\castFP16.asm
                    jLoop   0x00e230    program     static C:\MCC18\v3_39\src\traditional\stdclib\scpyp2r.asm
                jLoopExit   0x00d64c    program     static C:\MCC18\v3_39\src\traditional\math\castFP32.asm
                jLoopExit   0x00d5e6    program     static C:\MCC18\v3_39\src\traditional\math\castFP16.asm
                   jMatch   0x00ef24    program     static C:\MCC18\v3_39\src\traditional\stdclib\isdigit.asm
                     jMax   0x00d608    program     static C:\MCC18\v3_39\src\traditional\math\castFP32.asm
                     jMax   0x00d5aa    program     static C:\MCC18\v3_39\src\traditional\math\castFP16.asm
                  jMaxNeg   0x00d61a    program     static C:\MCC18\v3_39\src\traditional\math\castFP32.asm
                  jMaxNeg   0x00d5b8    program     static C:\MCC18\v3_39\src\traditional\math\castFP16.asm
                  jMaxPos   0x00d5ae    program     static C:\MCC18\v3_39\src\traditional\math\castFP16.asm
                  jMaxPos   0x00d60c    program     static C:\MCC18\v3_39\src\traditional\math\castFP32.asm
                    jNext   0x00d354    program     static C:\MCC18\v3_39\src\traditional\math\divFP.asm
                jNoAdjust   0x00d352    program     static C:\MCC18\v3_39\src\traditional\math\divFP.asm
                 jNoMatch   0x00ef26    program     static C:\MCC18\v3_39\src\traditional\stdclib\isdigit.asm
             jNotBothZero   0x00d1f6    program     static C:\MCC18\v3_39\src\traditional\math\addFP.asm
                  jNotInf   0x00d5c6    program     static C:\MCC18\v3_39\src\traditional\math\castFP16.asm
                  jNotInf   0x00d626    program     static C:\MCC18\v3_39\src\traditional\math\castFP32.asm
                  jPkLoop   0x00d6ac    program     static C:\MCC18\v3_39\src\traditional\math\packFP.asm
             jPkRoundDone   0x00d6f6    program     static C:\MCC18\v3_39\src\traditional\math\packFP.asm
               jPkRoundIt   0x00d6de    program     static C:\MCC18\v3_39\src\traditional\math\packFP.asm
             jPkShiftDone   0x00d6c8    program     static C:\MCC18\v3_39\src\traditional\math\packFP.asm
           jReturnPosInf0   0x00d682    program     static C:\MCC18\v3_39\src\traditional\math\packFP.asm
               jShiftDone   0x00d28c    program     static C:\MCC18\v3_39\src\traditional\math\addFP.asm
               jShiftLoop   0x00d27e    program     static C:\MCC18\v3_39\src\traditional\math\addFP.asm
                jSignDone   0x00d2bc    program     static C:\MCC18\v3_39\src\traditional\math\addFP.asm
              jSignedZero   0x00d2fc    program     static C:\MCC18\v3_39\src\traditional\math\divFP.asm
                  jUnpkA1   0x00d720    program     static C:\MCC18\v3_39\src\traditional\math\UnpackFP.asm
                  jUnpkA2   0x00d738    program     static C:\MCC18\v3_39\src\traditional\math\UnpackFP.asm
                 jUnpkANZ   0x00d72e    program     static C:\MCC18\v3_39\src\traditional\math\UnpackFP.asm
                  jUnpkB1   0x00d750    program     static C:\MCC18\v3_39\src\traditional\math\UnpackFP.asm
                  jUnpkB2   0x00d768    program     static C:\MCC18\v3_39\src\traditional\math\UnpackFP.asm
                 jUnpkBNZ   0x00d75e    program     static C:\MCC18\v3_39\src\traditional\math\UnpackFP.asm
                 jUnpkNaN   0x00d742    program     static C:\MCC18\v3_39\src\traditional\math\UnpackFP.asm
                 jWNotNeg   0x00d278    program     static C:\MCC18\v3_39\src\traditional\math\addFP.asm
                   jWr123   0x00d612    program     static C:\MCC18\v3_39\src\traditional\math\castFP32.asm
                  jWrZ123   0x00d622    program     static C:\MCC18\v3_39\src\traditional\math\castFP32.asm
                    jZero   0x00d5c0    program     static C:\MCC18\v3_39\src\traditional\math\castFP16.asm
                    jZero   0x00d620    program     static C:\MCC18\v3_39\src\traditional\math\castFP32.asm
               jZero1and2   0x00d686    program     static C:\MCC18\v3_39\src\traditional\math\packFP.asm
                 keycmds0   0x00ad51    program     extern /fred/mandm/mandm/mandm_msg.h
                 keycmds1   0x00ad9b    program     extern /fred/mandm/mandm/mandm_msg.h
                     loop   0x00ef3c    program     static                          
                     loop   0x00eeb6    program     static                          
                     loop   0x00eaf8    program     static                          
                     loop   0x00ef78    program     static C:\MCC18\v3_39\src\pmc_common\USART\_usartpc.asm
                   loop_h   0x00ef56    program     static C:\MCC18\v3_39\src\traditional\proc\p18F8722.asm
                   loop_l   0x00ef60    program     static C:\MCC18\v3_39\src\traditional\proc\p18F8722.asm
                 lowbatt0   0x00a757    program     extern /fred/mandm/mandm/mandm_msg.h
                lp_filter   0x00069c    program     extern /fred/mandm/mandm/mandm8722.c
                     main   0x005ad6    program     extern /fred/mandm/mandm/mandm8722.c
                   memcmp   0x00e1b8    program     extern C:\MCC18\v3_39\src\traditional\stdclib\memcmp.asm
          menuselect_free   0x00a5cb    program     extern /fred/mandm/mandm/mandm_msg.h
         menuselect_track   0x00a691    program     extern /fred/mandm/mandm/mandm_msg.h
                 menutext   0x00a504    program     extern /fred/mandm/mandm/mandm_msg.h
        menutext_template   0x00a43b    program     extern /fred/mandm/mandm/mandm_msg.h
             modelheader0   0x00aee3    program     extern /fred/mandm/mandm/mandm_msg.h
             modelheader1   0x00af02    program     extern /fred/mandm/mandm/mandm_msg.h
            motor_control   0x00d83c    program     extern /fred/mandm/mandm/power.c
            my_struct_cmp   0x00d808    program     extern /fred/mandm/mandm/power.c
                 nav_menu   0x002242    program     extern /fred/mandm/mandm/mandm8722.c
              nonqei_exer   0x0023d8    program     extern /fred/mandm/mandm/mandm8722.c
                     putc   0x00e738    program     extern C:\MCC18\v3_39\src\traditional\stdclib\putc.c
                    putc2   0x00066e    program     extern /fred/mandm/mandm/mandm8722.c
              putrs2USART   0x00e89a    program     extern C:\MCC18\v3_39\src\pmc_common\USART\u2putrs.c
                putrsXLCD   0x00e9ba    program     extern /fred/mandm/mandm/xlcd/putrxlcd.c
               puts2USART   0x00ea0e    program     extern C:\MCC18\v3_39\src\pmc_common\USART\u2puts.c
                 putsXLCD   0x00ec88    program     extern /fred/mandm/mandm/xlcd/putsxlcd.c
                     rand   0x00ed16    program     extern C:\MCC18\v3_39\src\traditional\stdclib\rand.asm
         read_data_eeprom   0x00e158    program     extern /fred/mandm/mandm/crit.c 
                relay_v24   0x00db42    program     extern /fred/mandm/mandm/power.c
                  run_cal   0x002ae2    program     extern /fred/mandm/mandm/mandm8722.c
                   s_crit   0x00dfc6    program     extern /fred/mandm/mandm/crit.c 
                 s_digits   0x00efac    program     static C:\MCC18\v3_39\src\traditional\stdclib\vfprintf.c
            s_put_n_chars   0x00c524    program     static C:\MCC18\v3_39\src\traditional\stdclib\vfprintf.c
                  sddump0   0x00af42    program     extern /fred/mandm/mandm/mandm_msg.h
                  sddump1   0x00af70    program     extern /fred/mandm/mandm/mandm_msg.h
                  sddump2   0x00afa6    program     extern /fred/mandm/mandm/mandm_msg.h
                  sddump3   0x00afbd    program     extern /fred/mandm/mandm/mandm_msg.h
           set_all_motors   0x002ab8    program     extern /fred/mandm/mandm/mandm8722.c
         slow_timer_start   0x00c504    program     extern /fred/mandm/mandm/mandm_vector.c
                     spin   0x00a3c3    program     extern /fred/mandm/mandm/mandm_msg.h
                 spinners   0x000068    program     extern /fred/mandm/mandm/mandm8722.c
                  sprintf   0x00e4ca    program     extern C:\MCC18\v3_39\src\traditional\stdclib\sprintf.c
                    srand   0x00ed08    program     extern C:\MCC18\v3_39\src\traditional\stdclib\rand.asm
              start_delay   0x000686    program     extern /fred/mandm/mandm/mandm8722.c
                start_pic   0x00e4a0    program     extern /fred/mandm/mandm/hwconf.c
       start_workerthread   0x00e4c6    program     extern /fred/mandm/mandm/hwconf.c
            strcpypgm2ram   0x00e20a    program     extern C:\MCC18\v3_39\src\traditional\stdclib\scpyp2r.asm
                   strlen   0x00e32e    program     extern C:\MCC18\v3_39\src\traditional\stdclib\strlen.asm
                strlenpgm   0x00e23c    program     extern C:\MCC18\v3_39\src\traditional\stdclib\slenpgm.asm
                  strncpy   0x00e286    program     extern C:\MCC18\v3_39\src\traditional\stdclib\strncpy.asm
           strncpypgm2ram   0x00e2e2    program     extern C:\MCC18\v3_39\src\traditional\stdclib\sncpyp2r.asm
                    sync0   0x00ace1    program     extern /fred/mandm/mandm/mandm_msg.h
                    sync1   0x00ad15    program     extern /fred/mandm/mandm/mandm_msg.h
                    sync2   0x00ad33    program     extern /fred/mandm/mandm/mandm_msg.h
              system_data   0x000902    program     extern /fred/mandm/mandm/mandm8722.c
              system_help   0x000fbe    program     extern /fred/mandm/mandm/mandm8722.c
                term_time   0x000860    program     extern /fred/mandm/mandm/mandm8722.c
                     test   0x00e590    program     static                          
             tick_handler   0x00b6fe    program     extern /fred/mandm/mandm/mandm_vector.c
                 tick_int   0x000008    program     extern /fred/mandm/mandm/mandm8722.c
              track_motor   0x00195a    program     extern /fred/mandm/mandm/mandm8722.c
                   tweak0   0x00a9af    program     extern /fred/mandm/mandm/mandm_msg.h
                   tweak1   0x00aa4c    program     extern /fred/mandm/mandm/mandm_msg.h
                   tweak2   0x00aa75    program     extern /fred/mandm/mandm/mandm_msg.h
                   tweak3   0x00aa99    program     extern /fred/mandm/mandm/mandm_msg.h
                   tweak4   0x00ab18    program     extern /fred/mandm/mandm/mandm_msg.h
                   tweak5   0x00ab48    program     extern /fred/mandm/mandm/mandm_msg.h
                 tweak_t1   0x00abce    program     extern /fred/mandm/mandm/mandm_msg.h
                 tweak_t2   0x00abd3    program     extern /fred/mandm/mandm/mandm_msg.h
                 tweak_t3   0x00abd7    program     extern /fred/mandm/mandm/mandm_msg.h
                 tweak_t4   0x00abdb    program     extern /fred/mandm/mandm/mandm_msg.h
                 tweak_tw   0x00abe0    program     extern /fred/mandm/mandm/mandm_msg.h
              update_hist   0x000234    program     extern /fred/mandm/mandm/mandm8722.c
          update_lcd_menu   0x001816    program     extern /fred/mandm/mandm/mandm8722.c
         varian_v_display   0x00296a    program     extern /fred/mandm/mandm/mandm8722.c
                 vfprintf   0x00c550    program     extern C:\MCC18\v3_39\src\traditional\stdclib\vfprintf.c
        viision_m_display   0x002704    program     extern /fred/mandm/mandm/mandm8722.c
       viision_ms_display   0x0027a8    program     extern /fred/mandm/mandm/mandm8722.c
             voice1_ticks   0x00c4e8    program     extern /fred/mandm/mandm/mandm_vector.c
             voice2_ticks   0x00c4f6    program     extern /fred/mandm/mandm/mandm_vector.c
                   voltfp   0x0011e0    program     extern /fred/mandm/mandm/mandm8722.c
                  voltfpi   0x001220    program     extern /fred/mandm/mandm/mandm8722.c
                  voltfps   0x001202    program     extern /fred/mandm/mandm/mandm8722.c
                 wdtdelay   0x000282    program     extern /fred/mandm/mandm/mandm8722.c
                  wdttime   0x0002d4    program     extern /fred/mandm/mandm/mandm8722.c
             work_handler   0x00c48c    program     extern /fred/mandm/mandm/mandm_vector.c
                 work_int   0x000018    program     extern /fred/mandm/mandm/mandm8722.c
        write_data_eeprom   0x00e0d2    program     extern /fred/mandm/mandm/crit.c 
                    zero0   0x00a79a    program     extern /fred/mandm/mandm/mandm_msg.h
                    zero1   0x00a7c4    program     extern /fred/mandm/mandm/mandm_msg.h
                    zero2   0x00a800    program     extern /fred/mandm/mandm/mandm_msg.h
                    zero3   0x00a834    program     extern /fred/mandm/mandm/mandm_msg.h
              zero_amploc   0x008c8e    program     extern /fred/mandm/mandm/daq.c  
               zero_block   0x00ef56    program     static C:\MCC18\v3_39\src\traditional\proc\p18F8722.asm
                   ADCON0   0x000fc2       data     extern C:\MCC18\v3_39\src\traditional\proc\p18F8722.asm
               ADCON0bits   0x000fc2       data     extern C:\MCC18\v3_39\src\traditional\proc\p18F8722.asm
                   ADCON1   0x000fc1       data     extern C:\MCC18\v3_39\src\traditional\proc\p18F8722.asm
               ADCON1bits   0x000fc1       data     extern C:\MCC18\v3_39\src\traditional\proc\p18F8722.asm
                   ADCON2   0x000fc0       data     extern C:\MCC18\v3_39\src\traditional\proc\p18F8722.asm
               ADCON2bits   0x000fc0       data     extern C:\MCC18\v3_39\src\traditional\proc\p18F8722.asm
                    ADRES   0x000fc3       data     extern C:\MCC18\v3_39\src\traditional\proc\p18F8722.asm
                   ADRESH   0x000fc4       data     extern C:\MCC18\v3_39\src\traditional\proc\p18F8722.asm
                   ADRESL   0x000fc3       data     extern C:\MCC18\v3_39\src\traditional\proc\p18F8722.asm
                  BAUDCON   0x000f7e       data     extern C:\MCC18\v3_39\src\traditional\proc\p18F8722.asm
                 BAUDCON1   0x000f7e       data     extern C:\MCC18\v3_39\src\traditional\proc\p18F8722.asm
             BAUDCON1bits   0x000f7e       data     extern C:\MCC18\v3_39\src\traditional\proc\p18F8722.asm
                 BAUDCON2   0x000f7c       data     extern C:\MCC18\v3_39\src\traditional\proc\p18F8722.asm
             BAUDCON2bits   0x000f7c       data     extern C:\MCC18\v3_39\src\traditional\proc\p18F8722.asm
              BAUDCONbits   0x000f7e       data     extern C:\MCC18\v3_39\src\traditional\proc\p18F8722.asm
                      BSR   0x000fe0       data     extern C:\MCC18\v3_39\src\traditional\proc\p18F8722.asm
                        C   0x000640       data     extern /fred/mandm/mandm/mandm8722.c
                    C2RAW   0x0004f0       data     extern /fred/mandm/mandm/mandm8722.c
                  CCP1CON   0x000fbd       data     extern C:\MCC18\v3_39\src\traditional\proc\p18F8722.asm
              CCP1CONbits   0x000fbd       data     extern C:\MCC18\v3_39\src\traditional\proc\p18F8722.asm
                  CCP2CON   0x000fba       data     extern C:\MCC18\v3_39\src\traditional\proc\p18F8722.asm
              CCP2CONbits   0x000fba       data     extern C:\MCC18\v3_39\src\traditional\proc\p18F8722.asm
                  CCP3CON   0x000fb7       data     extern C:\MCC18\v3_39\src\traditional\proc\p18F8722.asm
              CCP3CONbits   0x000fb7       data     extern C:\MCC18\v3_39\src\traditional\proc\p18F8722.asm
                  CCP4CON   0x000f73       data     extern C:\MCC18\v3_39\src\traditional\proc\p18F8722.asm
              CCP4CONbits   0x000f73       data     extern C:\MCC18\v3_39\src\traditional\proc\p18F8722.asm
                  CCP5CON   0x000f70       data     extern C:\MCC18\v3_39\src\traditional\proc\p18F8722.asm
              CCP5CONbits   0x000f70       data     extern C:\MCC18\v3_39\src\traditional\proc\p18F8722.asm
                    CCPR1   0x000fbe       data     extern C:\MCC18\v3_39\src\traditional\proc\p18F8722.asm
                   CCPR1H   0x000fbf       data     extern C:\MCC18\v3_39\src\traditional\proc\p18F8722.asm
                   CCPR1L   0x000fbe       data     extern C:\MCC18\v3_39\src\traditional\proc\p18F8722.asm
                    CCPR2   0x000fbb       data     extern C:\MCC18\v3_39\src\traditional\proc\p18F8722.asm
                   CCPR2H   0x000fbc       data     extern C:\MCC18\v3_39\src\traditional\proc\p18F8722.asm
                   CCPR2L   0x000fbb       data     extern C:\MCC18\v3_39\src\traditional\proc\p18F8722.asm
                    CCPR3   0x000fb8       data     extern C:\MCC18\v3_39\src\traditional\proc\p18F8722.asm
                   CCPR3H   0x000fb9       data     extern C:\MCC18\v3_39\src\traditional\proc\p18F8722.asm
                   CCPR3L   0x000fb8       data     extern C:\MCC18\v3_39\src\traditional\proc\p18F8722.asm
                    CCPR4   0x000f74       data     extern C:\MCC18\v3_39\src\traditional\proc\p18F8722.asm
                   CCPR4H   0x000f75       data     extern C:\MCC18\v3_39\src\traditional\proc\p18F8722.asm
                   CCPR4L   0x000f74       data     extern C:\MCC18\v3_39\src\traditional\proc\p18F8722.asm
                    CCPR5   0x000f71       data     extern C:\MCC18\v3_39\src\traditional\proc\p18F8722.asm
                   CCPR5H   0x000f72       data     extern C:\MCC18\v3_39\src\traditional\proc\p18F8722.asm
                   CCPR5L   0x000f71       data     extern C:\MCC18\v3_39\src\traditional\proc\p18F8722.asm
                    CMCON   0x000fb4       data     extern C:\MCC18\v3_39\src\traditional\proc\p18F8722.asm
                CMCONbits   0x000fb4       data     extern C:\MCC18\v3_39\src\traditional\proc\p18F8722.asm
                  COOLING   0x00006c       data     extern /fred/mandm/mandm/mandm8722.c
                    CRITC   0x0000f1       data     extern /fred/mandm/mandm/mandm8722.c
                   CVRCON   0x000fb5       data     extern C:\MCC18\v3_39\src\traditional\proc\p18F8722.asm
               CVRCONbits   0x000fb5       data     extern C:\MCC18\v3_39\src\traditional\proc\p18F8722.asm
                   Cursor   0x000420       data     extern /fred/mandm/mandm/mandm8722.c
                     DDRA   0x000f92       data     extern C:\MCC18\v3_39\src\traditional\proc\p18F8722.asm
                 DDRAbits   0x000f92       data     extern C:\MCC18\v3_39\src\traditional\proc\p18F8722.asm
                     DDRB   0x000f93       data     extern C:\MCC18\v3_39\src\traditional\proc\p18F8722.asm
                 DDRBbits   0x000f93       data     extern C:\MCC18\v3_39\src\traditional\proc\p18F8722.asm
                     DDRC   0x000f94       data     extern C:\MCC18\v3_39\src\traditional\proc\p18F8722.asm
                 DDRCbits   0x000f94       data     extern C:\MCC18\v3_39\src\traditional\proc\p18F8722.asm
                     DDRD   0x000f95       data     extern C:\MCC18\v3_39\src\traditional\proc\p18F8722.asm
                 DDRDbits   0x000f95       data     extern C:\MCC18\v3_39\src\traditional\proc\p18F8722.asm
                     DDRE   0x000f96       data     extern C:\MCC18\v3_39\src\traditional\proc\p18F8722.asm
                 DDREbits   0x000f96       data     extern C:\MCC18\v3_39\src\traditional\proc\p18F8722.asm
                     DDRF   0x000f97       data     extern C:\MCC18\v3_39\src\traditional\proc\p18F8722.asm
                 DDRFbits   0x000f97       data     extern C:\MCC18\v3_39\src\traditional\proc\p18F8722.asm
                     DDRG   0x000f98       data     extern C:\MCC18\v3_39\src\traditional\proc\p18F8722.asm
                 DDRGbits   0x000f98       data     extern C:\MCC18\v3_39\src\traditional\proc\p18F8722.asm
                     DDRH   0x000f99       data     extern C:\MCC18\v3_39\src\traditional\proc\p18F8722.asm
                 DDRHbits   0x000f99       data     extern C:\MCC18\v3_39\src\traditional\proc\p18F8722.asm
                     DDRJ   0x000f9a       data     extern C:\MCC18\v3_39\src\traditional\proc\p18F8722.asm
                 DDRJbits   0x000f9a       data     extern C:\MCC18\v3_39\src\traditional\proc\p18F8722.asm
             DISPLAY_MODE   0x000069       data     extern /fred/mandm/mandm/mandm8722.c
                 D_UPDATE   0x00006a       data     extern /fred/mandm/mandm/mandm8722.c
            DelayCounter1   0x00003d       data     extern C:\MCC18\v3_39\src\traditional\delays\delayd1.asm
            DelayCounter2   0x00003c       data     extern C:\MCC18\v3_39\src\traditional\delays\delayd2.asm
                  ECCP1AS   0x000fb6       data     extern C:\MCC18\v3_39\src\traditional\proc\p18F8722.asm
              ECCP1ASbits   0x000fb6       data     extern C:\MCC18\v3_39\src\traditional\proc\p18F8722.asm
                 ECCP1CON   0x000fbd       data     extern C:\MCC18\v3_39\src\traditional\proc\p18F8722.asm
             ECCP1CONbits   0x000fbd       data     extern C:\MCC18\v3_39\src\traditional\proc\p18F8722.asm
                 ECCP1DEL   0x000f79       data     extern C:\MCC18\v3_39\src\traditional\proc\p18F8722.asm
             ECCP1DELbits   0x000f79       data     extern C:\MCC18\v3_39\src\traditional\proc\p18F8722.asm
                  ECCP2AS   0x000f68       data     extern C:\MCC18\v3_39\src\traditional\proc\p18F8722.asm
              ECCP2ASbits   0x000f68       data     extern C:\MCC18\v3_39\src\traditional\proc\p18F8722.asm
                 ECCP2CON   0x000fba       data     extern C:\MCC18\v3_39\src\traditional\proc\p18F8722.asm
             ECCP2CONbits   0x000fba       data     extern C:\MCC18\v3_39\src\traditional\proc\p18F8722.asm
                 ECCP2DEL   0x000f67       data     extern C:\MCC18\v3_39\src\traditional\proc\p18F8722.asm
             ECCP2DELbits   0x000f67       data     extern C:\MCC18\v3_39\src\traditional\proc\p18F8722.asm
                  ECCP3AS   0x000f6a       data     extern C:\MCC18\v3_39\src\traditional\proc\p18F8722.asm
              ECCP3ASbits   0x000f6a       data     extern C:\MCC18\v3_39\src\traditional\proc\p18F8722.asm
                 ECCP3CON   0x000fb7       data     extern C:\MCC18\v3_39\src\traditional\proc\p18F8722.asm
             ECCP3CONbits   0x000fb7       data     extern C:\MCC18\v3_39\src\traditional\proc\p18F8722.asm
                 ECCP3DEL   0x000f69       data     extern C:\MCC18\v3_39\src\traditional\proc\p18F8722.asm
             ECCP3DELbits   0x000f69       data     extern C:\MCC18\v3_39\src\traditional\proc\p18F8722.asm
                    EEADR   0x000fa9       data     extern C:\MCC18\v3_39\src\traditional\proc\p18F8722.asm
                   EEADRH   0x000faa       data     extern C:\MCC18\v3_39\src\traditional\proc\p18F8722.asm
                   EECON1   0x000fa6       data     extern C:\MCC18\v3_39\src\traditional\proc\p18F8722.asm
               EECON1bits   0x000fa6       data     extern C:\MCC18\v3_39\src\traditional\proc\p18F8722.asm
                   EECON2   0x000fa7       data     extern C:\MCC18\v3_39\src\traditional\proc\p18F8722.asm
                   EEDATA   0x000fa8       data     extern C:\MCC18\v3_39\src\traditional\proc\p18F8722.asm
                   EEP_ER   0x000074       data     extern /fred/mandm/mandm/mandm8722.c
                 FAILSAFE   0x000066       data     extern /fred/mandm/mandm/mandm8722.c
                 FORCEOUT   0x000062       data     extern /fred/mandm/mandm/mandm8722.c
                     FSR0   0x000fe9       data     extern C:\MCC18\v3_39\src\traditional\proc\p18F8722.asm
                    FSR0H   0x000fea       data     extern C:\MCC18\v3_39\src\traditional\proc\p18F8722.asm
                    FSR0L   0x000fe9       data     extern C:\MCC18\v3_39\src\traditional\proc\p18F8722.asm
                     FSR1   0x000fe1       data     extern C:\MCC18\v3_39\src\traditional\proc\p18F8722.asm
                    FSR1H   0x000fe2       data     extern C:\MCC18\v3_39\src\traditional\proc\p18F8722.asm
                    FSR1L   0x000fe1       data     extern C:\MCC18\v3_39\src\traditional\proc\p18F8722.asm
                     FSR2   0x000fd9       data     extern C:\MCC18\v3_39\src\traditional\proc\p18F8722.asm
                    FSR2H   0x000fda       data     extern C:\MCC18\v3_39\src\traditional\proc\p18F8722.asm
                    FSR2L   0x000fd9       data     extern C:\MCC18\v3_39\src\traditional\proc\p18F8722.asm
             GLITCH_CHECK   0x00006b       data     extern /fred/mandm/mandm/mandm8722.c
                    HCRIT   0x000364       data     extern /fred/mandm/mandm/mandm8722.c
            HID_IDLE_FLAG   0x0003eb       data     static /fred/mandm/mandm/mandm_vector.c
                  HLVDCON   0x000fd2       data     extern C:\MCC18\v3_39\src\traditional\proc\p18F8722.asm
              HLVDCONbits   0x000fd2       data     extern C:\MCC18\v3_39\src\traditional\proc\p18F8722.asm
                HOLD_PROC   0x000068       data     extern /fred/mandm/mandm/mandm8722.c
                    H_tmp   0x0003ff       data     static /fred/mandm/mandm/crit.c 
                    H_tmp   0x0003fe       data     static /fred/mandm/mandm/crit.c 
                 IDLEFLAG   0x0000d7       data     extern /fred/mandm/mandm/mandm8722.c
                    INDF0   0x000fef       data     extern C:\MCC18\v3_39\src\traditional\proc\p18F8722.asm
                    INDF1   0x000fe7       data     extern C:\MCC18\v3_39\src\traditional\proc\p18F8722.asm
                    INDF2   0x000fdf       data     extern C:\MCC18\v3_39\src\traditional\proc\p18F8722.asm
                   INTCON   0x000ff2       data     extern C:\MCC18\v3_39\src\traditional\proc\p18F8722.asm
                  INTCON2   0x000ff1       data     extern C:\MCC18\v3_39\src\traditional\proc\p18F8722.asm
              INTCON2bits   0x000ff1       data     extern C:\MCC18\v3_39\src\traditional\proc\p18F8722.asm
                  INTCON3   0x000ff0       data     extern C:\MCC18\v3_39\src\traditional\proc\p18F8722.asm
              INTCON3bits   0x000ff0       data     extern C:\MCC18\v3_39\src\traditional\proc\p18F8722.asm
               INTCONbits   0x000ff2       data     extern C:\MCC18\v3_39\src\traditional\proc\p18F8722.asm
                     IPR1   0x000f9f       data     extern C:\MCC18\v3_39\src\traditional\proc\p18F8722.asm
                 IPR1bits   0x000f9f       data     extern C:\MCC18\v3_39\src\traditional\proc\p18F8722.asm
                     IPR2   0x000fa2       data     extern C:\MCC18\v3_39\src\traditional\proc\p18F8722.asm
                 IPR2bits   0x000fa2       data     extern C:\MCC18\v3_39\src\traditional\proc\p18F8722.asm
                     IPR3   0x000fa5       data     extern C:\MCC18\v3_39\src\traditional\proc\p18F8722.asm
                 IPR3bits   0x000fa5       data     extern C:\MCC18\v3_39\src\traditional\proc\p18F8722.asm
                   KEYNUM   0x000065       data     extern /fred/mandm/mandm/mandm8722.c
                     LATA   0x000f89       data     extern C:\MCC18\v3_39\src\traditional\proc\p18F8722.asm
                 LATAbits   0x000f89       data     extern C:\MCC18\v3_39\src\traditional\proc\p18F8722.asm
                     LATB   0x000f8a       data     extern C:\MCC18\v3_39\src\traditional\proc\p18F8722.asm
                 LATBbits   0x000f8a       data     extern C:\MCC18\v3_39\src\traditional\proc\p18F8722.asm
                     LATC   0x000f8b       data     extern C:\MCC18\v3_39\src\traditional\proc\p18F8722.asm
                 LATCbits   0x000f8b       data     extern C:\MCC18\v3_39\src\traditional\proc\p18F8722.asm
                     LATD   0x000f8c       data     extern C:\MCC18\v3_39\src\traditional\proc\p18F8722.asm
                 LATDbits   0x000f8c       data     extern C:\MCC18\v3_39\src\traditional\proc\p18F8722.asm
                     LATE   0x000f8d       data     extern C:\MCC18\v3_39\src\traditional\proc\p18F8722.asm
                 LATEbits   0x000f8d       data     extern C:\MCC18\v3_39\src\traditional\proc\p18F8722.asm
                     LATF   0x000f8e       data     extern C:\MCC18\v3_39\src\traditional\proc\p18F8722.asm
                 LATFbits   0x000f8e       data     extern C:\MCC18\v3_39\src\traditional\proc\p18F8722.asm
                     LATG   0x000f8f       data     extern C:\MCC18\v3_39\src\traditional\proc\p18F8722.asm
                 LATGbits   0x000f8f       data     extern C:\MCC18\v3_39\src\traditional\proc\p18F8722.asm
                     LATH   0x000f90       data     extern C:\MCC18\v3_39\src\traditional\proc\p18F8722.asm
                 LATHbits   0x000f90       data     extern C:\MCC18\v3_39\src\traditional\proc\p18F8722.asm
                     LATJ   0x000f91       data     extern C:\MCC18\v3_39\src\traditional\proc\p18F8722.asm
                 LATJbits   0x000f91       data     extern C:\MCC18\v3_39\src\traditional\proc\p18F8722.asm
                   LCD_OK   0x0000f2       data     extern /fred/mandm/mandm/mandm8722.c
                    LCRIT   0x00036c       data     extern /fred/mandm/mandm/mandm8722.c
                   LVDCON   0x000fd2       data     extern C:\MCC18\v3_39\src\traditional\proc\p18F8722.asm
               LVDCONbits   0x000fd2       data     extern C:\MCC18\v3_39\src\traditional\proc\p18F8722.asm
                   MEMCON   0x000f9c       data     extern C:\MCC18\v3_39\src\traditional\proc\p18F8722.asm
               MEMCONbits   0x000f9c       data     extern C:\MCC18\v3_39\src\traditional\proc\p18F8722.asm
                 MOD_DATA   0x000070       data     extern /fred/mandm/mandm/mandm8722.c
                   OSCCON   0x000fd3       data     extern C:\MCC18\v3_39\src\traditional\proc\p18F8722.asm
               OSCCONbits   0x000fd3       data     extern C:\MCC18\v3_39\src\traditional\proc\p18F8722.asm
                  OSCTUNE   0x000f9b       data     extern C:\MCC18\v3_39\src\traditional\proc\p18F8722.asm
              OSCTUNEbits   0x000f9b       data     extern C:\MCC18\v3_39\src\traditional\proc\p18F8722.asm
               OldEncoder   0x000424       data     extern /fred/mandm/mandm/mandm8722.c
                       PC   0x000ff9       data     extern C:\MCC18\v3_39\src\traditional\proc\p18F8722.asm
                      PCL   0x000ff9       data     extern C:\MCC18\v3_39\src\traditional\proc\p18F8722.asm
                   PCLATH   0x000ffa       data     extern C:\MCC18\v3_39\src\traditional\proc\p18F8722.asm
                   PCLATU   0x000ffb       data     extern C:\MCC18\v3_39\src\traditional\proc\p18F8722.asm
                     PIE1   0x000f9d       data     extern C:\MCC18\v3_39\src\traditional\proc\p18F8722.asm
                 PIE1bits   0x000f9d       data     extern C:\MCC18\v3_39\src\traditional\proc\p18F8722.asm
                     PIE2   0x000fa0       data     extern C:\MCC18\v3_39\src\traditional\proc\p18F8722.asm
                 PIE2bits   0x000fa0       data     extern C:\MCC18\v3_39\src\traditional\proc\p18F8722.asm
                     PIE3   0x000fa3       data     extern C:\MCC18\v3_39\src\traditional\proc\p18F8722.asm
                 PIE3bits   0x000fa3       data     extern C:\MCC18\v3_39\src\traditional\proc\p18F8722.asm
                     PIR1   0x000f9e       data     extern C:\MCC18\v3_39\src\traditional\proc\p18F8722.asm
                 PIR1bits   0x000f9e       data     extern C:\MCC18\v3_39\src\traditional\proc\p18F8722.asm
                     PIR2   0x000fa1       data     extern C:\MCC18\v3_39\src\traditional\proc\p18F8722.asm
                 PIR2bits   0x000fa1       data     extern C:\MCC18\v3_39\src\traditional\proc\p18F8722.asm
                     PIR3   0x000fa4       data     extern C:\MCC18\v3_39\src\traditional\proc\p18F8722.asm
                 PIR3bits   0x000fa4       data     extern C:\MCC18\v3_39\src\traditional\proc\p18F8722.asm
                   PLUSW0   0x000feb       data     extern C:\MCC18\v3_39\src\traditional\proc\p18F8722.asm
                   PLUSW1   0x000fe3       data     extern C:\MCC18\v3_39\src\traditional\proc\p18F8722.asm
                   PLUSW2   0x000fdb       data     extern C:\MCC18\v3_39\src\traditional\proc\p18F8722.asm
                    PORTA   0x000f80       data     extern C:\MCC18\v3_39\src\traditional\proc\p18F8722.asm
                PORTAbits   0x000f80       data     extern C:\MCC18\v3_39\src\traditional\proc\p18F8722.asm
                    PORTB   0x000f81       data     extern C:\MCC18\v3_39\src\traditional\proc\p18F8722.asm
                PORTBbits   0x000f81       data     extern C:\MCC18\v3_39\src\traditional\proc\p18F8722.asm
                    PORTC   0x000f82       data     extern C:\MCC18\v3_39\src\traditional\proc\p18F8722.asm
                PORTCbits   0x000f82       data     extern C:\MCC18\v3_39\src\traditional\proc\p18F8722.asm
                    PORTD   0x000f83       data     extern C:\MCC18\v3_39\src\traditional\proc\p18F8722.asm
                PORTDbits   0x000f83       data     extern C:\MCC18\v3_39\src\traditional\proc\p18F8722.asm
                    PORTE   0x000f84       data     extern C:\MCC18\v3_39\src\traditional\proc\p18F8722.asm
                PORTEbits   0x000f84       data     extern C:\MCC18\v3_39\src\traditional\proc\p18F8722.asm
                    PORTF   0x000f85       data     extern C:\MCC18\v3_39\src\traditional\proc\p18F8722.asm
                PORTFbits   0x000f85       data     extern C:\MCC18\v3_39\src\traditional\proc\p18F8722.asm
                    PORTG   0x000f86       data     extern C:\MCC18\v3_39\src\traditional\proc\p18F8722.asm
                PORTGbits   0x000f86       data     extern C:\MCC18\v3_39\src\traditional\proc\p18F8722.asm
                    PORTH   0x000f87       data     extern C:\MCC18\v3_39\src\traditional\proc\p18F8722.asm
                PORTHbits   0x000f87       data     extern C:\MCC18\v3_39\src\traditional\proc\p18F8722.asm
                    PORTJ   0x000f88       data     extern C:\MCC18\v3_39\src\traditional\proc\p18F8722.asm
                PORTJbits   0x000f88       data     extern C:\MCC18\v3_39\src\traditional\proc\p18F8722.asm
                 POSTDEC0   0x000fed       data     extern C:\MCC18\v3_39\src\traditional\proc\p18F8722.asm
                 POSTDEC1   0x000fe5       data     extern C:\MCC18\v3_39\src\traditional\proc\p18F8722.asm
                 POSTDEC2   0x000fdd       data     extern C:\MCC18\v3_39\src\traditional\proc\p18F8722.asm
                 POSTINC0   0x000fee       data     extern C:\MCC18\v3_39\src\traditional\proc\p18F8722.asm
                 POSTINC1   0x000fe6       data     extern C:\MCC18\v3_39\src\traditional\proc\p18F8722.asm
                 POSTINC2   0x000fde       data     extern C:\MCC18\v3_39\src\traditional\proc\p18F8722.asm
                      PR2   0x000fcb       data     extern C:\MCC18\v3_39\src\traditional\proc\p18F8722.asm
                      PR4   0x000f77       data     extern C:\MCC18\v3_39\src\traditional\proc\p18F8722.asm
                  PREINC0   0x000fec       data     extern C:\MCC18\v3_39\src\traditional\proc\p18F8722.asm
                  PREINC1   0x000fe4       data     extern C:\MCC18\v3_39\src\traditional\proc\p18F8722.asm
                  PREINC2   0x000fdc       data     extern C:\MCC18\v3_39\src\traditional\proc\p18F8722.asm
               PRIPOWEROK   0x000061       data     extern /fred/mandm/mandm/mandm8722.c
                     PROD   0x000ff3       data     extern C:\MCC18\v3_39\src\traditional\proc\p18F8722.asm
                    PRODH   0x000ff4       data     extern C:\MCC18\v3_39\src\traditional\proc\p18F8722.asm
                    PRODL   0x000ff3       data     extern C:\MCC18\v3_39\src\traditional\proc\p18F8722.asm
                   PSPCON   0x000fb0       data     extern C:\MCC18\v3_39\src\traditional\proc\p18F8722.asm
               PSPCONbits   0x000fb0       data     extern C:\MCC18\v3_39\src\traditional\proc\p18F8722.asm
                        R   0x000601       data     extern /fred/mandm/mandm/mandm8722.c
                     RCON   0x000fd0       data     extern C:\MCC18\v3_39\src\traditional\proc\p18F8722.asm
                 RCONbits   0x000fd0       data     extern C:\MCC18\v3_39\src\traditional\proc\p18F8722.asm
                    RCREG   0x000fae       data     extern C:\MCC18\v3_39\src\traditional\proc\p18F8722.asm
                   RCREG1   0x000fae       data     extern C:\MCC18\v3_39\src\traditional\proc\p18F8722.asm
                   RCREG2   0x000f6e       data     extern C:\MCC18\v3_39\src\traditional\proc\p18F8722.asm
                    RCSTA   0x000fab       data     extern C:\MCC18\v3_39\src\traditional\proc\p18F8722.asm
                   RCSTA1   0x000fab       data     extern C:\MCC18\v3_39\src\traditional\proc\p18F8722.asm
               RCSTA1bits   0x000fab       data     extern C:\MCC18\v3_39\src\traditional\proc\p18F8722.asm
                   RCSTA2   0x000f6b       data     extern C:\MCC18\v3_39\src\traditional\proc\p18F8722.asm
               RCSTA2bits   0x000f6b       data     extern C:\MCC18\v3_39\src\traditional\proc\p18F8722.asm
                RCSTAbits   0x000fab       data     extern C:\MCC18\v3_39\src\traditional\proc\p18F8722.asm
              RESET_ZEROS   0x00006e       data     extern /fred/mandm/mandm/mandm8722.c
              RS232_DEBUG   0x000088       data     extern /fred/mandm/mandm/mandm8722.c
                 SET_TLOG   0x000072       data     extern /fred/mandm/mandm/mandm8722.c
                     SIGN   0x000024       data     extern C:\MCC18\v3_39\src\traditional\math\cmath18.asm
              SLOW_STATUS   0x0004f3       data     extern /fred/mandm/mandm/mandm8722.c
                    SPBRG   0x000faf       data     extern C:\MCC18\v3_39\src\traditional\proc\p18F8722.asm
                   SPBRG1   0x000faf       data     extern C:\MCC18\v3_39\src\traditional\proc\p18F8722.asm
                   SPBRG2   0x000f6f       data     extern C:\MCC18\v3_39\src\traditional\proc\p18F8722.asm
                   SPBRGH   0x000f7f       data     extern C:\MCC18\v3_39\src\traditional\proc\p18F8722.asm
                  SPBRGH1   0x000f7f       data     extern C:\MCC18\v3_39\src\traditional\proc\p18F8722.asm
                  SPBRGH2   0x000f7d       data     extern C:\MCC18\v3_39\src\traditional\proc\p18F8722.asm
                  SSP1ADD   0x000fc8       data     extern C:\MCC18\v3_39\src\traditional\proc\p18F8722.asm
                  SSP1BUF   0x000fc9       data     extern C:\MCC18\v3_39\src\traditional\proc\p18F8722.asm
                 SSP1CON1   0x000fc6       data     extern C:\MCC18\v3_39\src\traditional\proc\p18F8722.asm
             SSP1CON1bits   0x000fc6       data     extern C:\MCC18\v3_39\src\traditional\proc\p18F8722.asm
                 SSP1CON2   0x000fc5       data     extern C:\MCC18\v3_39\src\traditional\proc\p18F8722.asm
             SSP1CON2bits   0x000fc5       data     extern C:\MCC18\v3_39\src\traditional\proc\p18F8722.asm
                 SSP1STAT   0x000fc7       data     extern C:\MCC18\v3_39\src\traditional\proc\p18F8722.asm
             SSP1STATbits   0x000fc7       data     extern C:\MCC18\v3_39\src\traditional\proc\p18F8722.asm
                  SSP2ADD   0x000f65       data     extern C:\MCC18\v3_39\src\traditional\proc\p18F8722.asm
                  SSP2BUF   0x000f66       data     extern C:\MCC18\v3_39\src\traditional\proc\p18F8722.asm
                 SSP2CON1   0x000f63       data     extern C:\MCC18\v3_39\src\traditional\proc\p18F8722.asm
             SSP2CON1bits   0x000f63       data     extern C:\MCC18\v3_39\src\traditional\proc\p18F8722.asm
                 SSP2CON2   0x000f62       data     extern C:\MCC18\v3_39\src\traditional\proc\p18F8722.asm
             SSP2CON2bits   0x000f62       data     extern C:\MCC18\v3_39\src\traditional\proc\p18F8722.asm
                 SSP2STAT   0x000f64       data     extern C:\MCC18\v3_39\src\traditional\proc\p18F8722.asm
             SSP2STATbits   0x000f64       data     extern C:\MCC18\v3_39\src\traditional\proc\p18F8722.asm
                   SSPADD   0x000fc8       data     extern C:\MCC18\v3_39\src\traditional\proc\p18F8722.asm
                   SSPBUF   0x000fc9       data     extern C:\MCC18\v3_39\src\traditional\proc\p18F8722.asm
                  SSPCON1   0x000fc6       data     extern C:\MCC18\v3_39\src\traditional\proc\p18F8722.asm
              SSPCON1bits   0x000fc6       data     extern C:\MCC18\v3_39\src\traditional\proc\p18F8722.asm
                  SSPCON2   0x000fc5       data     extern C:\MCC18\v3_39\src\traditional\proc\p18F8722.asm
              SSPCON2bits   0x000fc5       data     extern C:\MCC18\v3_39\src\traditional\proc\p18F8722.asm
                  SSPSTAT   0x000fc7       data     extern C:\MCC18\v3_39\src\traditional\proc\p18F8722.asm
              SSPSTATbits   0x000fc7       data     extern C:\MCC18\v3_39\src\traditional\proc\p18F8722.asm
                   STATUS   0x000fd8       data     extern C:\MCC18\v3_39\src\traditional\proc\p18F8722.asm
               STATUSbits   0x000fd8       data     extern C:\MCC18\v3_39\src\traditional\proc\p18F8722.asm
                   STKPTR   0x000ffc       data     extern C:\MCC18\v3_39\src\traditional\proc\p18F8722.asm
               STKPTRbits   0x000ffc       data     extern C:\MCC18\v3_39\src\traditional\proc\p18F8722.asm
            SYSTEM_STABLE   0x000067       data     extern /fred/mandm/mandm/mandm8722.c
                 SYS_DATA   0x00006f       data     extern /fred/mandm/mandm/mandm8722.c
                 SYS_HELP   0x000071       data     extern /fred/mandm/mandm/mandm8722.c
                     Seed   0x0003fc       data     static C:\MCC18\v3_39\src\traditional\stdclib\rand.asm
                    T0CON   0x000fd5       data     extern C:\MCC18\v3_39\src\traditional\proc\p18F8722.asm
                T0CONbits   0x000fd5       data     extern C:\MCC18\v3_39\src\traditional\proc\p18F8722.asm
                    T1CON   0x000fcd       data     extern C:\MCC18\v3_39\src\traditional\proc\p18F8722.asm
                T1CONbits   0x000fcd       data     extern C:\MCC18\v3_39\src\traditional\proc\p18F8722.asm
                    T2CON   0x000fca       data     extern C:\MCC18\v3_39\src\traditional\proc\p18F8722.asm
                T2CONbits   0x000fca       data     extern C:\MCC18\v3_39\src\traditional\proc\p18F8722.asm
                    T3CON   0x000fb1       data     extern C:\MCC18\v3_39\src\traditional\proc\p18F8722.asm
                T3CONbits   0x000fb1       data     extern C:\MCC18\v3_39\src\traditional\proc\p18F8722.asm
                    T4CON   0x000f76       data     extern C:\MCC18\v3_39\src\traditional\proc\p18F8722.asm
                T4CONbits   0x000f76       data     extern C:\MCC18\v3_39\src\traditional\proc\p18F8722.asm
                   TABLAT   0x000ff5       data     extern C:\MCC18\v3_39\src\traditional\proc\p18F8722.asm
                   TBLPTR   0x000ff6       data     extern C:\MCC18\v3_39\src\traditional\proc\p18F8722.asm
                  TBLPTRH   0x000ff7       data     extern C:\MCC18\v3_39\src\traditional\proc\p18F8722.asm
                  TBLPTRL   0x000ff6       data     extern C:\MCC18\v3_39\src\traditional\proc\p18F8722.asm
                  TBLPTRU   0x000ff8       data     extern C:\MCC18\v3_39\src\traditional\proc\p18F8722.asm
            TEST_SPINNERS   0x000076       data     extern /fred/mandm/mandm/mandm8722.c
                TIMERFLAG   0x000060       data     extern /fred/mandm/mandm/mandm8722.c
                     TLOG   0x0000f4       data     extern /fred/mandm/mandm/mandm8722.c
                    TMR0H   0x000fd7       data     extern C:\MCC18\v3_39\src\traditional\proc\p18F8722.asm
                    TMR0L   0x000fd6       data     extern C:\MCC18\v3_39\src\traditional\proc\p18F8722.asm
                    TMR1H   0x000fcf       data     extern C:\MCC18\v3_39\src\traditional\proc\p18F8722.asm
                    TMR1L   0x000fce       data     extern C:\MCC18\v3_39\src\traditional\proc\p18F8722.asm
                     TMR2   0x000fcc       data     extern C:\MCC18\v3_39\src\traditional\proc\p18F8722.asm
                    TMR3H   0x000fb3       data     extern C:\MCC18\v3_39\src\traditional\proc\p18F8722.asm
                    TMR3L   0x000fb2       data     extern C:\MCC18\v3_39\src\traditional\proc\p18F8722.asm
                     TMR4   0x000f78       data     extern C:\MCC18\v3_39\src\traditional\proc\p18F8722.asm
                      TOS   0x000ffd       data     extern C:\MCC18\v3_39\src\traditional\proc\p18F8722.asm
                     TOSH   0x000ffe       data     extern C:\MCC18\v3_39\src\traditional\proc\p18F8722.asm
                     TOSL   0x000ffd       data     extern C:\MCC18\v3_39\src\traditional\proc\p18F8722.asm
                     TOSU   0x000fff       data     extern C:\MCC18\v3_39\src\traditional\proc\p18F8722.asm
                    TRISA   0x000f92       data     extern C:\MCC18\v3_39\src\traditional\proc\p18F8722.asm
                TRISAbits   0x000f92       data     extern C:\MCC18\v3_39\src\traditional\proc\p18F8722.asm
                    TRISB   0x000f93       data     extern C:\MCC18\v3_39\src\traditional\proc\p18F8722.asm
                TRISBbits   0x000f93       data     extern C:\MCC18\v3_39\src\traditional\proc\p18F8722.asm
                    TRISC   0x000f94       data     extern C:\MCC18\v3_39\src\traditional\proc\p18F8722.asm
                TRISCbits   0x000f94       data     extern C:\MCC18\v3_39\src\traditional\proc\p18F8722.asm
                    TRISD   0x000f95       data     extern C:\MCC18\v3_39\src\traditional\proc\p18F8722.asm
                TRISDbits   0x000f95       data     extern C:\MCC18\v3_39\src\traditional\proc\p18F8722.asm
                    TRISE   0x000f96       data     extern C:\MCC18\v3_39\src\traditional\proc\p18F8722.asm
                TRISEbits   0x000f96       data     extern C:\MCC18\v3_39\src\traditional\proc\p18F8722.asm
                    TRISF   0x000f97       data     extern C:\MCC18\v3_39\src\traditional\proc\p18F8722.asm
                TRISFbits   0x000f97       data     extern C:\MCC18\v3_39\src\traditional\proc\p18F8722.asm
                    TRISG   0x000f98       data     extern C:\MCC18\v3_39\src\traditional\proc\p18F8722.asm
                TRISGbits   0x000f98       data     extern C:\MCC18\v3_39\src\traditional\proc\p18F8722.asm
                    TRISH   0x000f99       data     extern C:\MCC18\v3_39\src\traditional\proc\p18F8722.asm
                TRISHbits   0x000f99       data     extern C:\MCC18\v3_39\src\traditional\proc\p18F8722.asm
                    TRISJ   0x000f9a       data     extern C:\MCC18\v3_39\src\traditional\proc\p18F8722.asm
                TRISJbits   0x000f9a       data     extern C:\MCC18\v3_39\src\traditional\proc\p18F8722.asm
                    TWEAK   0x000075       data     extern /fred/mandm/mandm/mandm8722.c
                    TXREG   0x000fad       data     extern C:\MCC18\v3_39\src\traditional\proc\p18F8722.asm
                   TXREG1   0x000fad       data     extern C:\MCC18\v3_39\src\traditional\proc\p18F8722.asm
                   TXREG2   0x000f6d       data     extern C:\MCC18\v3_39\src\traditional\proc\p18F8722.asm
                    TXSTA   0x000fac       data     extern C:\MCC18\v3_39\src\traditional\proc\p18F8722.asm
                   TXSTA1   0x000fac       data     extern C:\MCC18\v3_39\src\traditional\proc\p18F8722.asm
               TXSTA1bits   0x000fac       data     extern C:\MCC18\v3_39\src\traditional\proc\p18F8722.asm
                   TXSTA2   0x000f6c       data     extern C:\MCC18\v3_39\src\traditional\proc\p18F8722.asm
               TXSTA2bits   0x000f6c       data     extern C:\MCC18\v3_39\src\traditional\proc\p18F8722.asm
                TXSTAbits   0x000fac       data     extern C:\MCC18\v3_39\src\traditional\proc\p18F8722.asm
               UPDATE_EEP   0x00006d       data     extern /fred/mandm/mandm/mandm8722.c
            USART2_Status   0x0002fb       data     extern C:\MCC18\v3_39\src\pmc_common\USART\u2defs.c
                        V   0x00064a       data     extern /fred/mandm/mandm/mandm8722.c
                      Vin   0x0000c7       data     extern /fred/mandm/mandm/mandm8722.c
                   WDTCON   0x000fd1       data     extern C:\MCC18\v3_39\src\traditional\proc\p18F8722.asm
               WDTCONbits   0x000fd1       data     extern C:\MCC18\v3_39\src\traditional\proc\p18F8722.asm
                   WDT_TO   0x000073       data     extern /fred/mandm/mandm/mandm8722.c
               WORKERFLAG   0x000063       data     extern /fred/mandm/mandm/mandm8722.c
                     WREG   0x000fe8       data     extern C:\MCC18\v3_39\src\traditional\proc\p18F8722.asm
                    YNKEY   0x000423       data     extern /fred/mandm/mandm/mandm8722.c
                      ZAP   0x0003ed       data     static /fred/mandm/mandm/mandm_vector.c
                 __AARGB0   0x00002d       data     extern C:\MCC18\v3_39\src\traditional\math\aarg.asm
                 __AARGB1   0x00002c       data     extern C:\MCC18\v3_39\src\traditional\math\aarg.asm
                 __AARGB2   0x00002b       data     extern C:\MCC18\v3_39\src\traditional\math\aarg.asm
                 __AARGB3   0x00002a       data     extern C:\MCC18\v3_39\src\traditional\math\aarg.asm
                 __AARGB4   0x000029       data     extern C:\MCC18\v3_39\src\traditional\math\aarg.asm
                 __AARGB5   0x000028       data     extern C:\MCC18\v3_39\src\traditional\math\aarg.asm
                 __AARGB6   0x000027       data     extern C:\MCC18\v3_39\src\traditional\math\aarg.asm
                 __AARGB7   0x000026       data     extern C:\MCC18\v3_39\src\traditional\math\aarg.asm
                   __AEXP   0x00002e       data     extern C:\MCC18\v3_39\src\traditional\math\aarg.asm
                 __BARGB0   0x000032       data     extern C:\MCC18\v3_39\src\traditional\math\barg.asm
                 __BARGB1   0x000031       data     extern C:\MCC18\v3_39\src\traditional\math\barg.asm
                 __BARGB2   0x000030       data     extern C:\MCC18\v3_39\src\traditional\math\barg.asm
                 __BARGB3   0x00002f       data     extern C:\MCC18\v3_39\src\traditional\math\barg.asm
                   __BEXP   0x000033       data     extern C:\MCC18\v3_39\src\traditional\math\barg.asm
                __FPFLAGS   0x000025       data     extern C:\MCC18\v3_39\src\traditional\math\cmath18.asm
            __FPFLAGSbits   0x000025       data     extern C:\MCC18\v3_39\src\traditional\math\cmath18.asm
                  __REMB0   0x000029       data     extern C:\MCC18\v3_39\src\traditional\math\aarg.asm
                  __REMB1   0x000028       data     extern C:\MCC18\v3_39\src\traditional\math\aarg.asm
                  __REMB2   0x000027       data     extern C:\MCC18\v3_39\src\traditional\math\aarg.asm
                  __REMB3   0x000026       data     extern C:\MCC18\v3_39\src\traditional\math\aarg.asm
                   __TEMP   0x000037       data     extern C:\MCC18\v3_39\src\traditional\math\temparg.asm
                 __TEMPB0   0x000037       data     extern C:\MCC18\v3_39\src\traditional\math\temparg.asm
                 __TEMPB1   0x000036       data     extern C:\MCC18\v3_39\src\traditional\math\temparg.asm
                 __TEMPB2   0x000035       data     extern C:\MCC18\v3_39\src\traditional\math\temparg.asm
                 __TEMPB3   0x000034       data     extern C:\MCC18\v3_39\src\traditional\math\temparg.asm
                  __tmp_0   0x000000       data     static C:\MCC18\v3_39\src\traditional\stdclib\vfprintf.c
                  __tmp_0   0x000000       data     static C:\MCC18\v3_39\src\traditional\stdclib\putc.c
                  __tmp_0   0x000000       data     static C:\MCC18\v3_39\src\traditional\stdclib\sprintf.c
                  __tmp_0   0x000000       data     static C:\MCC18\v3_39\src\pmc_common\EEP\write_B.c
                  __tmp_0   0x000000       data     static C:\MCC18\v3_39\src\pmc_common\ADC\adcsetch.c
                  __tmp_0   0x000000       data     static C:\MCC18\v3_39\src\pmc_common\EEP\read_B.c
                  __tmp_0   0x000000       data     static C:\MCC18\v3_39\src\pmc_common\ADC\adcread.c
                  __tmp_0   0x000000       data     static C:\MCC18\v3_39\src\pmc_common\ADC\adcopen.c
                  __tmp_0   0x000000       data     static C:\MCC18\v3_39\src\pmc_common\USART\u2open.c
                  __tmp_0   0x000000       data     static /fred/mandm/mandm/daq.c  
                  __tmp_0   0x000000       data     static /fred/mandm/mandm/crit.c 
                  __tmp_0   0x000000       data     static /fred/mandm/mandm/power.c
                  __tmp_0   0x000000       data     static /fred/mandm/mandm/mandm8722.c
                  __tmp_1   0x000038       data     static /fred/mandm/mandm/mandm_vector.c
                    a10_x   0x0004e8       data     extern /fred/mandm/mandm/mandm8722.c
                  a10_x_t   0x0006f3       data     static /fred/mandm/mandm/daq.c  
                    a10_y   0x0004ea       data     extern /fred/mandm/mandm/mandm8722.c
                  a10_y_t   0x0006f7       data     static /fred/mandm/mandm/daq.c  
                    a10_z   0x0004ec       data     extern /fred/mandm/mandm/mandm8722.c
                  a10_z_t   0x0006fb       data     static /fred/mandm/mandm/daq.c  
                  adc_cal   0x0000e1       data     extern /fred/mandm/mandm/mandm8722.c
                   ahfrak   0x0000c3       data     extern /fred/mandm/mandm/mandm8722.c
             alarm_buffer   0x0003a0       data     extern /fred/mandm/mandm/mandm8722.c
              alarm_codes   0x000077       data     extern /fred/mandm/mandm/mandm8722.c
                  alm_num   0x0006c7       data     static /fred/mandm/mandm/mandm8722.c
                   almctr   0x0000ff       data     extern /fred/mandm/mandm/mandm8722.c
                   b_read   0x0003ec       data     static /fred/mandm/mandm/mandm_vector.c
                 band_max   0x0003f4       data     static /fred/mandm/mandm/mandm_vector.c
                 bootstr2   0x000200       data     extern /fred/mandm/mandm/mandm8722.c
               build_date   0x000096       data     extern /fred/mandm/mandm/mandm8722.c
               build_time   0x000099       data     extern /fred/mandm/mandm/mandm8722.c
                   button   0x000600       data     extern /fred/mandm/mandm/mandm8722.c
                       c1   0x0004f4       data     static /fred/mandm/mandm/mandm_vector.c
                       c2   0x0004f5       data     static /fred/mandm/mandm/mandm_vector.c
               cable_type   0x0000f3       data     extern /fred/mandm/mandm/mandm8722.c
                   cdelay   0x0004f2       data     extern /fred/mandm/mandm/mandm8722.c
                   change   0x0001fe       data     static /fred/mandm/mandm/daq.c  
             change_count   0x0001fc       data     extern /fred/mandm/mandm/daq.c  
               check_menu   0x0004d4       data     static /fred/mandm/mandm/mandm8722.c
                   chrg_v   0x0000cb       data     extern /fred/mandm/mandm/mandm8722.c
                      cid   0x000352       data     extern /fred/mandm/mandm/mandm8722.c
                clocks_hz   0x000482       data     static /fred/mandm/mandm/mandm8722.c
                clocks_hz   0x00048e       data     static /fred/mandm/mandm/mandm8722.c
                clocks_hz   0x00049a       data     static /fred/mandm/mandm/mandm8722.c
                clocks_hz   0x0004a6       data     static /fred/mandm/mandm/mandm8722.c
                clocks_hz   0x0004b2       data     static /fred/mandm/mandm/mandm8722.c
                clocks_hz   0x0004be       data     static /fred/mandm/mandm/mandm8722.c
                clocks_hz   0x0004ca       data     static /fred/mandm/mandm/mandm8722.c
              critc_count   0x000089       data     extern /fred/mandm/mandm/mandm8722.c
              critc_level   0x000064       data     extern /fred/mandm/mandm/mandm8722.c
                      csd   0x000340       data     extern /fred/mandm/mandm/mandm8722.c
                curr_byte   0x0000f8       data     static C:\MCC18\v3_39\src\traditional\startup\c018iz.c
               curr_entry   0x0000fa       data     static C:\MCC18\v3_39\src\traditional\startup\c018iz.c
                 data_ptr   0x0000fc       data     static C:\MCC18\v3_39\src\traditional\startup\c018iz.c
                   dcount   0x000486       data     static /fred/mandm/mandm/mandm8722.c
                   dcount   0x000492       data     static /fred/mandm/mandm/mandm8722.c
                   dcount   0x00049e       data     static /fred/mandm/mandm/mandm8722.c
                   dcount   0x0004aa       data     static /fred/mandm/mandm/mandm8722.c
                   dcount   0x0004b6       data     static /fred/mandm/mandm/mandm8722.c
                   dcount   0x0004c2       data     static /fred/mandm/mandm/mandm8722.c
                   dcount   0x00047a       data     static /fred/mandm/mandm/mandm8722.c
                   dcount   0x000476       data     static /fred/mandm/mandm/mandm8722.c
                 deadband   0x0006ca       data     static /fred/mandm/mandm/mandm8722.c
                       ds   0x000100       data     extern /fred/mandm/mandm/mandm8722.c
                      dsi   0x00009c       data     extern /fred/mandm/mandm/mandm8722.c
                 eep_char   0x0006d5       data     static /fred/mandm/mandm/mandm8722.c
                emo_bumps   0x0003ea       data     static /fred/mandm/mandm/mandm_vector.c
                  emodump   0x000440       data     extern /fred/mandm/mandm/mandm8722.c
                       f1   0x000374       data     extern /fred/mandm/mandm/mandm8722.c
                       f2   0x00037b       data     extern /fred/mandm/mandm/mandm8722.c
                       f3   0x000382       data     extern /fred/mandm/mandm/mandm8722.c
                       f4   0x000389       data     extern /fred/mandm/mandm/mandm8722.c
               fast_ticks   0x0003f1       data     static /fred/mandm/mandm/mandm_vector.c
                  get_out   0x0004d5       data     static /fred/mandm/mandm/mandm8722.c
             glitch_count   0x0004f1       data     extern /fred/mandm/mandm/mandm8722.c
                        h   0x0006ae       data     static /fred/mandm/mandm/mandm8722.c
                        h   0x0006ba       data     static /fred/mandm/mandm/mandm8722.c
                 help_pos   0x00009e       data     extern /fred/mandm/mandm/mandm8722.c
                 hid_idle   0x0003f8       data     static /fred/mandm/mandm/mandm_vector.c
               hms_string   0x0004d8       data     extern /fred/mandm/mandm/mandm8722.c
                        i   0x0006c6       data     static /fred/mandm/mandm/mandm8722.c
                        i   0x0006ef       data     static /fred/mandm/mandm/daq.c  
                       ib   0x0006ad       data     static /fred/mandm/mandm/mandm8722.c
                       ip   0x0000dd       data     extern /fred/mandm/mandm/mandm8722.c
                       iw   0x0000d9       data     extern /fred/mandm/mandm/mandm8722.c
                    knob1   0x000400       data     extern /fred/mandm/mandm/mandm8722.c
                    knob2   0x000410       data     extern /fred/mandm/mandm/mandm8722.c
              knob_to_pot   0x0000d8       data     extern /fred/mandm/mandm/mandm8722.c
         knob_to_pot_save   0x0004d6       data     static /fred/mandm/mandm/mandm8722.c
               last_shape   0x0006ac       data     static /fred/mandm/mandm/mandm8722.c
                lastmotor   0x0005b0       data     static /fred/mandm/mandm/power.c
                    lcd18   0x0006a7       data     extern /fred/mandm/mandm/mandm8722.c
                 lp_speed   0x00008e       data     extern /fred/mandm/mandm/mandm8722.c
                     lp_x   0x000092       data     extern /fred/mandm/mandm/mandm8722.c
                        m   0x0006b2       data     static /fred/mandm/mandm/mandm8722.c
                        m   0x0006be       data     static /fred/mandm/mandm/mandm8722.c
                 menu_pos   0x0004d7       data     static /fred/mandm/mandm/mandm8722.c
                 menu_pos   0x0006d3       data     static /fred/mandm/mandm/mandm8722.c
                 menu_pos   0x0006d4       data     static /fred/mandm/mandm/mandm8722.c
                     mode   0x000079       data     extern /fred/mandm/mandm/mandm8722.c
                motor_ptr   0x0005ae       data     extern /fred/mandm/mandm/mandm8722.c
                motordata   0x000500       data     extern /fred/mandm/mandm/mandm8722.c
                      msi   0x00009d       data     extern /fred/mandm/mandm/mandm8722.c
                        n   0x0004ce       data     static /fred/mandm/mandm/mandm8722.c
                 new_menu   0x0004d3       data     static /fred/mandm/mandm/mandm8722.c
                old_error   0x0006d0       data     static /fred/mandm/mandm/mandm8722.c
                 old_menu   0x0006d2       data     static /fred/mandm/mandm/mandm8722.c
                       p1   0x000300       data     extern /fred/mandm/mandm/mandm8722.c
                       p2   0x000310       data     extern /fred/mandm/mandm/mandm8722.c
                       p3   0x000390       data     extern /fred/mandm/mandm/mandm8722.c
                 position   0x0006c8       data     static /fred/mandm/mandm/mandm8722.c
                     prom   0x0000f5       data     static C:\MCC18\v3_39\src\traditional\startup\c018iz.c
                     qei1   0x000429       data     extern /fred/mandm/mandm/mandm8722.c
                     rawa   0x0006e3       data     extern /fred/mandm/mandm/mandm8722.c
                     rawp   0x0006d7       data     extern /fred/mandm/mandm/mandm8722.c
               real_ticks   0x0003f0       data     static /fred/mandm/mandm/mandm_vector.c
                   rx_tmp   0x0003f2       data     static /fred/mandm/mandm/mandm_vector.c
                        s   0x0006b6       data     static /fred/mandm/mandm/mandm8722.c
                        s   0x0006c2       data     static /fred/mandm/mandm/mandm8722.c
                        s   0x000470       data     static /fred/mandm/mandm/mandm8722.c
                  s_delay   0x0004d2       data     static /fred/mandm/mandm/mandm8722.c
                    shape   0x0006c9       data     static /fred/mandm/mandm/mandm8722.c
                     sign   0x00008d       data     extern /fred/mandm/mandm/mandm8722.c
                     slow   0x0004d0       data     static /fred/mandm/mandm/mandm8722.c
               slow_timer   0x0006a8       data     extern /fred/mandm/mandm/mandm8722.c
                   smooth   0x0003ca       data     extern /fred/mandm/mandm/mandm8722.c
                  solar_t   0x0000d3       data     extern /fred/mandm/mandm/mandm8722.c
                       t1   0x00009f       data     extern /fred/mandm/mandm/mandm8722.c
                       t2   0x0000a3       data     extern /fred/mandm/mandm/mandm8722.c
                       t3   0x0000a7       data     extern /fred/mandm/mandm/mandm8722.c
                       t4   0x0000ab       data     extern /fred/mandm/mandm/mandm8722.c
                       t5   0x0000af       data     extern /fred/mandm/mandm/mandm8722.c
                       t6   0x0000b3       data     extern /fred/mandm/mandm/mandm8722.c
                       t7   0x0000b7       data     extern /fred/mandm/mandm/mandm8722.c
                   t_time   0x0000bb       data     extern /fred/mandm/mandm/mandm8722.c
                  termstr   0x000320       data     extern /fred/mandm/mandm/mandm8722.c
                    timer   0x0004f6       data     static /fred/mandm/mandm/mandm_vector.c
                   timerl   0x0004f8       data     static /fred/mandm/mandm/mandm_vector.c
                 timetemp   0x0004c6       data     static /fred/mandm/mandm/mandm8722.c
                 timetemp   0x0004ba       data     static /fred/mandm/mandm/mandm8722.c
                 timetemp   0x0004ae       data     static /fred/mandm/mandm/mandm8722.c
                 timetemp   0x0004a2       data     static /fred/mandm/mandm/mandm8722.c
                 timetemp   0x00047e       data     static /fred/mandm/mandm/mandm8722.c
                 timetemp   0x000496       data     static /fred/mandm/mandm/mandm8722.c
                 timetemp   0x00048a       data     static /fred/mandm/mandm/mandm8722.c
                 vbatol_t   0x0000cf       data     extern /fred/mandm/mandm/mandm8722.c
                 vc_count   0x0003ee       data     static /fred/mandm/mandm/mandm_vector.c
                 voltfrak   0x0000bf       data     extern /fred/mandm/mandm/mandm8722.c
              was_running   0x0006ce       data     static /fred/mandm/mandm/mandm8722.c
             worker_timer   0x0003ef       data     static /fred/mandm/mandm/mandm_vector.c
                 worktick   0x0004ee       data     extern /fred/mandm/mandm/mandm8722.c
                        z   0x0006d6       data     static /fred/mandm/mandm/mandm8722.c
                        z   0x0006f1       data     static /fred/mandm/mandm/daq.c  
                        z   0x0002fc       data     static /fred/mandm/mandm/hwconf.c
                        z   0x0004d1       data     static /fred/mandm/mandm/mandm8722.c
                        z   0x0006ff       data     static /fred/mandm/mandm/daq.c  
                        z   0x0004cf       data     static /fred/mandm/mandm/mandm8722.c
                        z   0x0002fd       data     static /fred/mandm/mandm/config.c



                              Symbols - Sorted by Address
                     Name    Address   Location    Storage File                     
                ---------  ---------  ---------  --------- ---------                
                   _entry   0x000000    program     extern C:\MCC18\v3_39\src\traditional\startup\c018iz.c
       ___return_lbl00000   0x000004    program     static                          
               _user_putc   0x000006    program     extern C:\MCC18\v3_39\src\traditional\stdclib\_user_putc.c
                 tick_int   0x000008    program     extern /fred/mandm/mandm/mandm8722.c
       ___return_lbl00000   0x00000c    program     static                          
                  BusyADC   0x00000e    program     extern C:\MCC18\v3_39\src\pmc_common\ADC\adcbusy.c
                 work_int   0x000018    program     extern /fred/mandm/mandm/mandm8722.c
       ___return_lbl00001   0x00001c    program     static                          
                 spinners   0x000068    program     extern /fred/mandm/mandm/mandm8722.c
              LCD_VC_puts   0x00016e    program     extern /fred/mandm/mandm/mandm8722.c
              update_hist   0x000234    program     extern /fred/mandm/mandm/mandm8722.c
                 wdtdelay   0x000282    program     extern /fred/mandm/mandm/mandm8722.c
          ___for_lbl00030   0x000294    program     static                          
               __tmplbl_3   0x0002b8    program     static                          
          ___for_lbl00028   0x0002be    program     static                          
       ___return_lbl00027   0x0002cc    program     static                          
          ___for_lbl00029   0x0002cc    program     static                          
                  wdttime   0x0002d4    program     extern /fred/mandm/mandm/mandm8722.c
           ___do_lbl00034   0x00032e    program     static                          
           ___do_lbl00032   0x00034e    program     static                          
               __tmplbl_4   0x00036e    program     static                          
       ___return_lbl00031   0x000370    program     static                          
           ___do_lbl00033   0x000370    program     static                          
                checktime   0x000378    program     extern /fred/mandm/mandm/mandm8722.c
         checktime_select   0x0003ee    program     extern /fred/mandm/mandm/mandm8722.c
          checktime_motor   0x000464    program     extern /fred/mandm/mandm/mandm8722.c
            checktime_cal   0x0004da    program     extern /fred/mandm/mandm/mandm8722.c
            checktime_eep   0x000550    program     extern /fred/mandm/mandm/mandm8722.c
          checktime_track   0x0005c6    program     extern /fred/mandm/mandm/mandm8722.c
            DelayFor18TCY   0x00063c    program     extern /fred/mandm/mandm/mandm8722.c
          ___for_lbl00056   0x000642    program     static                          
          ___for_lbl00054   0x00064e    program     static                          
          ___for_lbl00055   0x000654    program     static                          
       ___return_lbl00053   0x000654    program     static                          
             DelayPORXLCD   0x000656    program     extern /fred/mandm/mandm/mandm8722.c
                DelayXLCD   0x000662    program     extern /fred/mandm/mandm/mandm8722.c
                    putc2   0x00066e    program     extern /fred/mandm/mandm/mandm8722.c
              start_delay   0x000686    program     extern /fred/mandm/mandm/mandm8722.c
                  clr_lcd   0x00068c    program     extern /fred/mandm/mandm/mandm8722.c
                lp_filter   0x00069c    program     extern /fred/mandm/mandm/mandm8722.c
                term_time   0x000860    program     extern /fred/mandm/mandm/mandm8722.c
       ___return_lbl00072   0x0008bc    program     static                          
             hold_process   0x0008be    program     extern /fred/mandm/mandm/mandm8722.c
              system_data   0x000902    program     extern /fred/mandm/mandm/mandm8722.c
          ___for_lbl00081   0x000c84    program     static                          
          ___for_lbl00078   0x000fb4    program     static                          
           ___if_lbl00080   0x000fb4    program     static                          
          ___for_lbl00079   0x000fba    program     static                          
       ___return_lbl00077   0x000fbc    program     static                          
              system_help   0x000fbe    program     extern /fred/mandm/mandm/mandm8722.c
                      hms   0x000fda    program     extern /fred/mandm/mandm/mandm8722.c
                       hm   0x0010b4    program     extern /fred/mandm/mandm/mandm8722.c
                     ABSI   0x001180    program     extern /fred/mandm/mandm/mandm8722.c
                     ABSL   0x0011ae    program     extern /fred/mandm/mandm/mandm8722.c
                   voltfp   0x0011e0    program     extern /fred/mandm/mandm/mandm8722.c
                  voltfps   0x001202    program     extern /fred/mandm/mandm/mandm8722.c
                  voltfpi   0x001220    program     extern /fred/mandm/mandm/mandm8722.c
                     ahfp   0x0012f2    program     extern /fred/mandm/mandm/mandm8722.c
              check_alarm   0x00138e    program     extern /fred/mandm/mandm/mandm8722.c
                fail_safe   0x0016ea    program     extern /fred/mandm/mandm/mandm8722.c
                 ansidraw   0x0017da    program     extern /fred/mandm/mandm/mandm8722.c
          update_lcd_menu   0x001816    program     extern /fred/mandm/mandm/mandm8722.c
               Set_Cursor   0x0018e2    program     extern /fred/mandm/mandm/mandm8722.c
              track_motor   0x00195a    program     extern /fred/mandm/mandm/mandm8722.c
              check_cable   0x001e82    program     extern /fred/mandm/mandm/mandm8722.c
                  get_hid   0x001fb4    program     extern /fred/mandm/mandm/mandm8722.c
                 nav_menu   0x002242    program     extern /fred/mandm/mandm/mandm8722.c
            e220_qei_exer   0x002286    program     extern /fred/mandm/mandm/mandm8722.c
              nonqei_exer   0x0023d8    program     extern /fred/mandm/mandm/mandm8722.c
                exerciser   0x00251c    program     extern /fred/mandm/mandm/mandm8722.c
                 hid_menu   0x002560    program     extern /fred/mandm/mandm/mandm8722.c
           help_m_display   0x002582    program     extern /fred/mandm/mandm/mandm8722.c
            gsd_m_display   0x0025e2    program     extern /fred/mandm/mandm/mandm8722.c
           e220_m_display   0x002662    program     extern /fred/mandm/mandm/mandm8722.c
        viision_m_display   0x002704    program     extern /fred/mandm/mandm/mandm8722.c
       viision_ms_display   0x0027a8    program     extern /fred/mandm/mandm/mandm8722.c
         e220_qei_display   0x002816    program     extern /fred/mandm/mandm/mandm8722.c
          default_display   0x0028da    program     extern /fred/mandm/mandm/mandm8722.c
              emo_display   0x00293c    program     extern /fred/mandm/mandm/mandm8722.c
         varian_v_display   0x00296a    program     extern /fred/mandm/mandm/mandm8722.c
          fail_all_motors   0x002a46    program     extern /fred/mandm/mandm/mandm8722.c
           set_all_motors   0x002ab8    program     extern /fred/mandm/mandm/mandm8722.c
                  run_cal   0x002ae2    program     extern /fred/mandm/mandm/mandm8722.c
           ___if_lbl00425   0x002b5e    program     static                          
           ___if_lbl00426   0x002b98    program     static                          
           ___if_lbl00427   0x002baa    program     static                          
           ___if_lbl00428   0x002be4    program     static                          
          ___for_lbl00451   0x002c42    program     static                          
           ___do_lbl00437   0x002cae    program     static                          
           ___if_lbl00433   0x002d72    program     static                          
             __tmplbl_174   0x002e0c    program     static                          
           ___if_lbl00434   0x002e5e    program     static                          
             __tmplbl_175   0x002efc    program     static                          
           ___if_lbl00435   0x002f4e    program     static                          
           ___if_lbl00436   0x002f62    program     static                          
           ___do_lbl00431   0x002f74    program     static                          
           ___do_lbl00432   0x002fa2    program     static                          
             __tmplbl_176   0x002fae    program     static                          
              __tmplbl_76   0x002fb6    program     static                          
              __tmplbl_75   0x002fc6    program     static                          
           ___if_lbl00439   0x002fce    program     static                          
             __tmplbl_177   0x002fda    program     static                          
           ___if_lbl00440   0x002fe8    program     static                          
           ___do_lbl00447   0x003022    program     static                          
           ___if_lbl00443   0x0030e6    program     static                          
             __tmplbl_178   0x003180    program     static                          
           ___if_lbl00444   0x0031d2    program     static                          
             __tmplbl_179   0x003270    program     static                          
           ___if_lbl00445   0x0032c2    program     static                          
           ___if_lbl00446   0x0032d6    program     static                          
           ___do_lbl00441   0x0032e8    program     static                          
           ___do_lbl00442   0x003316    program     static                          
             __tmplbl_180   0x003322    program     static                          
              __tmplbl_78   0x00332a    program     static                          
              __tmplbl_77   0x00333a    program     static                          
           ___if_lbl00449   0x003342    program     static                          
             __tmplbl_181   0x00334e    program     static                          
           ___if_lbl00450   0x00335c    program     static                          
          ___for_lbl00429   0x00335c    program     static                          
          ___for_lbl00430   0x003368    program     static                          
              __tmplbl_80   0x00337a    program     static                          
              __tmplbl_79   0x003384    program     static                          
           ___if_lbl00453   0x0034ba    program     static                          
           ___if_lbl00454   0x00353c    program     static                          
           ___do_lbl00457   0x003586    program     static                          
           ___do_lbl00455   0x003592    program     static                          
           ___do_lbl00456   0x003598    program     static                          
           ___if_lbl00458   0x0035ee    program     static                          
           ___if_lbl00459   0x0035ee    program     static                          
           ___if_lbl00460   0x003608    program     static                          
           ___do_lbl00477   0x003676    program     static                          
              __tmplbl_83   0x003840    program     static                          
              __tmplbl_82   0x003846    program     static                          
              __tmplbl_81   0x00384c    program     static                          
           ___if_lbl00466   0x003860    program     static                          
           ___if_lbl00467   0x003890    program     static                          
           ___if_lbl00468   0x003894    program     static                          
           ___if_lbl00469   0x0038fc    program     static                          
           ___if_lbl00470   0x003a06    program     static                          
         ___else_lbl00473   0x003a08    program     static                          
           ___if_lbl00472   0x003a9a    program     static                          
           ___if_lbl00471   0x003a9a    program     static                          
           ___if_lbl00474   0x003b60    program     static                          
           ___if_lbl00475   0x003c26    program     static                          
           ___if_lbl00476   0x003c3a    program     static                          
           ___do_lbl00461   0x003c4c    program     static                          
              __tmplbl_85   0x003c78    program     static                          
              __tmplbl_84   0x003c8a    program     static                          
           ___do_lbl00462   0x003c8a    program     static                          
           ___do_lbl00494   0x003d0c    program     static                          
              __tmplbl_88   0x003ed6    program     static                          
              __tmplbl_87   0x003edc    program     static                          
              __tmplbl_86   0x003ee2    program     static                          
           ___if_lbl00483   0x003ef6    program     static                          
           ___if_lbl00484   0x003f26    program     static                          
           ___if_lbl00485   0x003f2a    program     static                          
           ___if_lbl00486   0x003f92    program     static                          
           ___if_lbl00487   0x00409c    program     static                          
         ___else_lbl00490   0x00409e    program     static                          
           ___if_lbl00488   0x004130    program     static                          
           ___if_lbl00489   0x004130    program     static                          
           ___if_lbl00491   0x0041f6    program     static                          
           ___if_lbl00492   0x0042bc    program     static                          
           ___if_lbl00493   0x0042d0    program     static                          
           ___do_lbl00478   0x0042e2    program     static                          
              __tmplbl_90   0x00430e    program     static                          
           ___do_lbl00479   0x004320    program     static                          
              __tmplbl_89   0x004320    program     static                          
           ___if_lbl00495   0x004320    program     static                          
         ___else_lbl00514   0x004324    program     static                          
          ___for_lbl00502   0x00436c    program     static                          
              __tmplbl_91   0x004384    program     static                          
           ___if_lbl00498   0x00442a    program     static                          
              __tmplbl_92   0x004516    program     static                          
           ___if_lbl00499   0x004528    program     static                          
           ___if_lbl00500   0x004540    program     static                          
          ___for_lbl00496   0x0045a8    program     static                          
           ___if_lbl00501   0x0045a8    program     static                          
          ___for_lbl00497   0x0045bc    program     static                          
          ___for_lbl00509   0x004638    program     static                          
              __tmplbl_93   0x004650    program     static                          
           ___if_lbl00505   0x0046f6    program     static                          
              __tmplbl_94   0x0047e2    program     static                          
           ___if_lbl00506   0x0047f4    program     static                          
           ___if_lbl00507   0x00480c    program     static                          
           ___if_lbl00508   0x004874    program     static                          
          ___for_lbl00503   0x004874    program     static                          
          ___for_lbl00504   0x004888    program     static                          
          ___for_lbl00512   0x004c98    program     static                          
              __tmplbl_95   0x004cb0    program     static                          
          ___for_lbl00510   0x004cec    program     static                          
           ___if_lbl00513   0x004d00    program     static                          
          ___for_lbl00511   0x004d00    program     static                          
          ___for_lbl00540   0x004d0c    program     static                          
              __tmplbl_96   0x004d24    program     static                          
             __tmplbl_182   0x004dba    program     static                          
              __tmplbl_98   0x004dc4    program     static                          
              __tmplbl_97   0x004df6    program     static                          
           ___if_lbl00518   0x004e32    program     static                          
             __tmplbl_183   0x004eba    program     static                          
             __tmplbl_100   0x004ec4    program     static                          
              __tmplbl_99   0x004ef6    program     static                          
           ___if_lbl00520   0x004f32    program     static                          
           ___if_lbl00521   0x004f32    program     static                          
             __tmplbl_184   0x004fc4    program     static                          
             __tmplbl_102   0x004fce    program     static                          
             __tmplbl_101   0x005000    program     static                          
           ___if_lbl00523   0x00503c    program     static                          
             __tmplbl_185   0x0050c4    program     static                          
             __tmplbl_104   0x0050ce    program     static                          
             __tmplbl_103   0x005100    program     static                          
           ___if_lbl00526   0x00513c    program     static                          
           ___if_lbl00525   0x00513c    program     static                          
         ___else_lbl00528   0x00527a    program     static                          
           ___if_lbl00527   0x005284    program     static                          
           ___if_lbl00529   0x0052c8    program     static                          
         ___else_lbl00539   0x0052ca    program     static                          
         ___else_lbl00531   0x00531a    program     static                          
           ___if_lbl00530   0x005324    program     static                          
         ___else_lbl00533   0x00563c    program     static                          
           ___if_lbl00532   0x005646    program     static                          
           ___do_lbl00536   0x00568a    program     static                          
           ___do_lbl00534   0x005696    program     static                          
           ___do_lbl00535   0x00569c    program     static                          
          ___for_lbl00515   0x0056ae    program     static                          
           ___if_lbl00537   0x0056ae    program     static                          
           ___if_lbl00538   0x0056ae    program     static                          
          ___for_lbl00516   0x0056c4    program     static                          
           ___do_lbl00545   0x00570a    program     static                          
           ___if_lbl00544   0x00587e    program     static                          
           ___do_lbl00541   0x005880    program     static                          
             __tmplbl_106   0x00588a    program     static                          
             __tmplbl_107   0x0058bc    program     static                          
           ___do_lbl00542   0x0058c0    program     static                          
             __tmplbl_105   0x0058c0    program     static                          
         ___else_lbl00547   0x005998    program     static                          
           ___if_lbl00546   0x005998    program     static                          
       ___return_lbl00424   0x0059ba    program     static                          
              display_cal   0x0059ce    program     extern /fred/mandm/mandm/mandm8722.c
                 init_lcd   0x005a76    program     extern /fred/mandm/mandm/mandm8722.c
                     main   0x005ad6    program     extern /fred/mandm/mandm/mandm8722.c
           ___if_lbl00559   0x005ba4    program     static                          
           ___if_lbl00560   0x005bda    program     static                          
           ___if_lbl00561   0x005c10    program     static                          
           ___if_lbl00562   0x005c46    program     static                          
           ___if_lbl00563   0x005dd8    program     static                          
          ___for_lbl00566   0x005e32    program     static                          
          ___for_lbl00564   0x005e5c    program     static                          
           ___if_lbl00567   0x005e62    program     static                          
          ___for_lbl00565   0x005e62    program     static                          
         ___else_lbl00569   0x005eb6    program     static                          
           ___if_lbl00568   0x005f08    program     static                          
          ___for_lbl00572   0x005f42    program     static                          
          ___for_lbl00570   0x005f7a    program     static                          
          ___for_lbl00571   0x005f80    program     static                          
         ___else_lbl00577   0x005f82    program     static                          
          ___for_lbl00575   0x005fa0    program     static                          
          ___for_lbl00573   0x005fd8    program     static                          
          ___for_lbl00574   0x005fde    program     static                          
           ___if_lbl00576   0x005ff8    program     static                          
        ___while_lbl00578   0x006000    program     static                          
           ___if_lbl00580   0x006002    program     static                          
        ___while_lbl00579   0x006002    program     static                          
           ___if_lbl00581   0x006058    program     static                          
        ___while_lbl00582   0x0062b8    program     static                          
             __tmplbl_109   0x0062c4    program     static                          
             __tmplbl_108   0x0062ca    program     static                          
           ___if_lbl00585   0x0062ce    program     static                          
           ___if_lbl00586   0x0062f8    program     static                          
           ___if_lbl00587   0x00630c    program     static                          
        ___while_lbl00583   0x00630e    program     static                          
       ___return_lbl00558   0x00630e    program     static                          
                   __pa_0   0x006310    program     static /fred/mandm/mandm/mandm8722.c
                   __pa_1   0x006320    program     static /fred/mandm/mandm/mandm8722.c
                   __pa_2   0x00632a    program     static /fred/mandm/mandm/mandm8722.c
                   __pa_3   0x006348    program     static /fred/mandm/mandm/mandm8722.c
                   __pa_4   0x00635e    program     static /fred/mandm/mandm/mandm8722.c
                   __pa_5   0x00637c    program     static /fred/mandm/mandm/mandm8722.c
                   __pa_6   0x006384    program     static /fred/mandm/mandm/mandm8722.c
                   __pa_7   0x00638e    program     static /fred/mandm/mandm/mandm8722.c
                   __pa_8   0x0063a0    program     static /fred/mandm/mandm/mandm8722.c
                   __pa_9   0x0063bc    program     static /fred/mandm/mandm/mandm8722.c
                  __pa_10   0x0063c8    program     static /fred/mandm/mandm/mandm8722.c
                  __pa_11   0x0063e2    program     static /fred/mandm/mandm/mandm8722.c
                  __pa_12   0x0063fe    program     static /fred/mandm/mandm/mandm8722.c
                  __pa_13   0x00640a    program     static /fred/mandm/mandm/mandm8722.c
                  __pa_14   0x006416    program     static /fred/mandm/mandm/mandm8722.c
                  __pa_15   0x00641c    program     static /fred/mandm/mandm/mandm8722.c
                  __pa_16   0x006428    program     static /fred/mandm/mandm/mandm8722.c
                  __pa_17   0x006452    program     static /fred/mandm/mandm/mandm8722.c
             __tmplbl_191   0x00645c    program     static                          
             __tmplbl_110   0x00645c    program     static                          
             __tmplbl_111   0x00645c    program     static                          
             __tmplbl_112   0x00645c    program     static                          
             __tmplbl_173   0x00645c    program     static                          
             __tmplbl_160   0x00645c    program     static                          
             __tmplbl_159   0x00645c    program     static                          
             __tmplbl_157   0x00645c    program     static                          
             __tmplbl_156   0x00645c    program     static                          
             __tmplbl_137   0x00645c    program     static                          
             __tmplbl_136   0x00645c    program     static                          
             __tmplbl_134   0x00645c    program     static                          
             __tmplbl_126   0x00645c    program     static                          
             __tmplbl_125   0x00645c    program     static                          
             __tmplbl_120   0x00645c    program     static                          
             __tmplbl_119   0x00645c    program     static                          
             __tmplbl_117   0x00645c    program     static                          
             __tmplbl_116   0x00645c    program     static                          
             __tmplbl_115   0x00645c    program     static                          
                  __pa_18   0x00645c    program     static /fred/mandm/mandm/mandm8722.c
             __tmplbl_113   0x00645c    program     static                          
             __tmplbl_114   0x00645c    program     static                          
                  __pa_19   0x006464    program     static /fred/mandm/mandm/mandm8722.c
                  __pa_20   0x00646a    program     static /fred/mandm/mandm/mandm8722.c
                  __pa_21   0x006474    program     static /fred/mandm/mandm/mandm8722.c
                  __pa_22   0x006492    program     static /fred/mandm/mandm/mandm8722.c
                  __pa_23   0x00649c    program     static /fred/mandm/mandm/mandm8722.c
                  __pa_24   0x0064be    program     static /fred/mandm/mandm/mandm8722.c
                  __pa_25   0x0064cc    program     static /fred/mandm/mandm/mandm8722.c
                  __pa_26   0x0064d8    program     static /fred/mandm/mandm/mandm8722.c
                  __pa_27   0x0064e4    program     static /fred/mandm/mandm/mandm8722.c
                  __pa_28   0x0064f6    program     static /fred/mandm/mandm/mandm8722.c
                  __pa_29   0x006504    program     static /fred/mandm/mandm/mandm8722.c
                  __pa_30   0x006510    program     static /fred/mandm/mandm/mandm8722.c
                  __pa_31   0x006526    program     static /fred/mandm/mandm/mandm8722.c
                  __pa_32   0x00654c    program     static /fred/mandm/mandm/mandm8722.c
                  __pa_33   0x006560    program     static /fred/mandm/mandm/mandm8722.c
                  __pa_34   0x00656e    program     static /fred/mandm/mandm/mandm8722.c
                  __pa_35   0x006578    program     static /fred/mandm/mandm/mandm8722.c
                  __pa_36   0x006582    program     static /fred/mandm/mandm/mandm8722.c
                  __pa_37   0x00658c    program     static /fred/mandm/mandm/mandm8722.c
                  __pa_38   0x0065a4    program     static /fred/mandm/mandm/mandm8722.c
                  __pa_39   0x0065aa    program     static /fred/mandm/mandm/mandm8722.c
                  __pa_40   0x0065bc    program     static /fred/mandm/mandm/mandm8722.c
                  __pa_41   0x0065c6    program     static /fred/mandm/mandm/mandm8722.c
                  __pa_42   0x0065d0    program     static /fred/mandm/mandm/mandm8722.c
                  __pa_43   0x0065de    program     static /fred/mandm/mandm/mandm8722.c
                  __pa_44   0x0065e6    program     static /fred/mandm/mandm/mandm8722.c
                  __pa_45   0x0065fa    program     static /fred/mandm/mandm/mandm8722.c
                  __pa_46   0x006614    program     static /fred/mandm/mandm/mandm8722.c
                  __pa_47   0x006626    program     static /fred/mandm/mandm/mandm8722.c
                  __pa_48   0x006632    program     static /fred/mandm/mandm/mandm8722.c
                  __pa_49   0x006638    program     static /fred/mandm/mandm/mandm8722.c
                  __pa_50   0x006646    program     static /fred/mandm/mandm/mandm8722.c
                  __pa_51   0x006650    program     static /fred/mandm/mandm/mandm8722.c
                  __pa_52   0x00665a    program     static /fred/mandm/mandm/mandm8722.c
                  __pa_53   0x006664    program     static /fred/mandm/mandm/mandm8722.c
                  __pa_54   0x00668e    program     static /fred/mandm/mandm/mandm8722.c
                  __pa_55   0x006696    program     static /fred/mandm/mandm/mandm8722.c
                  __pa_56   0x0066a4    program     static /fred/mandm/mandm/mandm8722.c
                  __pa_57   0x0066ae    program     static /fred/mandm/mandm/mandm8722.c
                  __pa_58   0x0066ce    program     static /fred/mandm/mandm/mandm8722.c
                  __pa_59   0x0066ee    program     static /fred/mandm/mandm/mandm8722.c
                  __pa_60   0x0066fe    program     static /fred/mandm/mandm/mandm8722.c
                  __pa_61   0x00670e    program     static /fred/mandm/mandm/mandm8722.c
                  __pa_62   0x006718    program     static /fred/mandm/mandm/mandm8722.c
                  __pa_63   0x00671e    program     static /fred/mandm/mandm/mandm8722.c
                  __pa_64   0x006724    program     static /fred/mandm/mandm/mandm8722.c
                  __pa_65   0x00673c    program     static /fred/mandm/mandm/mandm8722.c
                  __pa_66   0x006744    program     static /fred/mandm/mandm/mandm8722.c
                  __pa_67   0x00674c    program     static /fred/mandm/mandm/mandm8722.c
                  __pa_68   0x006758    program     static /fred/mandm/mandm/mandm8722.c
                  __pa_69   0x006766    program     static /fred/mandm/mandm/mandm8722.c
                  __pa_70   0x00676c    program     static /fred/mandm/mandm/mandm8722.c
                  __pa_71   0x006778    program     static /fred/mandm/mandm/mandm8722.c
                  __pa_72   0x006782    program     static /fred/mandm/mandm/mandm8722.c
                  __pa_73   0x00678c    program     static /fred/mandm/mandm/mandm8722.c
                  __pa_74   0x006796    program     static /fred/mandm/mandm/mandm8722.c
                  __pa_75   0x0067ae    program     static /fred/mandm/mandm/mandm8722.c
                  __pa_76   0x0067c2    program     static /fred/mandm/mandm/mandm8722.c
                  __pa_77   0x0067cc    program     static /fred/mandm/mandm/mandm8722.c
                  __pa_78   0x0067d6    program     static /fred/mandm/mandm/mandm8722.c
                  __pa_79   0x0067e0    program     static /fred/mandm/mandm/mandm8722.c
                  __pa_80   0x0067ea    program     static /fred/mandm/mandm/mandm8722.c
                  __pa_81   0x0067f4    program     static /fred/mandm/mandm/mandm8722.c
                  __pa_82   0x00680a    program     static /fred/mandm/mandm/mandm8722.c
                  __pa_83   0x006814    program     static /fred/mandm/mandm/mandm8722.c
                  __pa_84   0x006820    program     static /fred/mandm/mandm/mandm8722.c
                  __pa_85   0x006828    program     static /fred/mandm/mandm/mandm8722.c
                  __pa_86   0x006830    program     static /fred/mandm/mandm/mandm8722.c
                  __pa_87   0x00683e    program     static /fred/mandm/mandm/mandm8722.c
                  __pa_88   0x00684c    program     static /fred/mandm/mandm/mandm8722.c
                  __pa_89   0x00685a    program     static /fred/mandm/mandm/mandm8722.c
                  __pa_90   0x006868    program     static /fred/mandm/mandm/mandm8722.c
                  __pa_91   0x00686e    program     static /fred/mandm/mandm/mandm8722.c
                  __pa_92   0x006878    program     static /fred/mandm/mandm/mandm8722.c
                  __pa_93   0x006882    program     static /fred/mandm/mandm/mandm8722.c
                  __pa_94   0x006894    program     static /fred/mandm/mandm/mandm8722.c
                  __pa_95   0x0068a6    program     static /fred/mandm/mandm/mandm8722.c
                  __pa_96   0x0068b8    program     static /fred/mandm/mandm/mandm8722.c
                  __pa_97   0x0068ca    program     static /fred/mandm/mandm/mandm8722.c
                  __pa_98   0x0068dc    program     static /fred/mandm/mandm/mandm8722.c
                  __pa_99   0x0068ee    program     static /fred/mandm/mandm/mandm8722.c
                 __pa_100   0x006900    program     static /fred/mandm/mandm/mandm8722.c
                 __pa_101   0x006908    program     static /fred/mandm/mandm/mandm8722.c
                 __pa_102   0x00691a    program     static /fred/mandm/mandm/mandm8722.c
                 __pa_103   0x00692c    program     static /fred/mandm/mandm/mandm8722.c
                 __pa_104   0x006938    program     static /fred/mandm/mandm/mandm8722.c
                 __pa_105   0x006944    program     static /fred/mandm/mandm/mandm8722.c
                 __pa_106   0x00694e    program     static /fred/mandm/mandm/mandm8722.c
                 __pa_107   0x006958    program     static /fred/mandm/mandm/mandm8722.c
                 __pa_108   0x006962    program     static /fred/mandm/mandm/mandm8722.c
                 __pa_109   0x00696a    program     static /fred/mandm/mandm/mandm8722.c
             __tmplbl_122   0x00696a    program     static                          
             __tmplbl_121   0x00696a    program     static                          
                 __pa_110   0x00696e    program     static /fred/mandm/mandm/mandm8722.c
                 __pa_111   0x006974    program     static /fred/mandm/mandm/mandm8722.c
                 __pa_112   0x00697e    program     static /fred/mandm/mandm/mandm8722.c
                 __pa_113   0x00698c    program     static /fred/mandm/mandm/mandm8722.c
                 __pa_114   0x00699a    program     static /fred/mandm/mandm/mandm8722.c
                 __pa_115   0x0069a8    program     static /fred/mandm/mandm/mandm8722.c
                 __pa_116   0x0069b0    program     static /fred/mandm/mandm/mandm8722.c
                 __pa_117   0x0069ba    program     static /fred/mandm/mandm/mandm8722.c
                 __pa_118   0x0069c4    program     static /fred/mandm/mandm/mandm8722.c
                 __pa_119   0x0069ce    program     static /fred/mandm/mandm/mandm8722.c
                 __pa_120   0x0069d8    program     static /fred/mandm/mandm/mandm8722.c
                 __pa_121   0x0069e2    program     static /fred/mandm/mandm/mandm8722.c
                 __pa_122   0x0069ec    program     static /fred/mandm/mandm/mandm8722.c
                 __pa_123   0x0069f4    program     static /fred/mandm/mandm/mandm8722.c
                 __pa_124   0x006a16    program     static /fred/mandm/mandm/mandm8722.c
                 __pa_125   0x006a26    program     static /fred/mandm/mandm/mandm8722.c
                 __pa_126   0x006a46    program     static /fred/mandm/mandm/mandm8722.c
                 __pa_127   0x006a4c    program     static /fred/mandm/mandm/mandm8722.c
                 __pa_128   0x006a64    program     static /fred/mandm/mandm/mandm8722.c
                 __pa_129   0x006a6a    program     static /fred/mandm/mandm/mandm8722.c
                 __pa_130   0x006a82    program     static /fred/mandm/mandm/mandm8722.c
                 __pa_131   0x006a88    program     static /fred/mandm/mandm/mandm8722.c
                 __pa_132   0x006aba    program     static /fred/mandm/mandm/mandm8722.c
                 __pa_133   0x006ac4    program     static /fred/mandm/mandm/mandm8722.c
                 __pa_134   0x006ad4    program     static /fred/mandm/mandm/mandm8722.c
                 __pa_135   0x006aec    program     static /fred/mandm/mandm/mandm8722.c
                 __pa_136   0x006af4    program     static /fred/mandm/mandm/mandm8722.c
                 __pa_137   0x006afc    program     static /fred/mandm/mandm/mandm8722.c
                 __pa_138   0x006b02    program     static /fred/mandm/mandm/mandm8722.c
                 __pa_139   0x006b10    program     static /fred/mandm/mandm/mandm8722.c
                 __pa_140   0x006b1e    program     static /fred/mandm/mandm/mandm8722.c
                 __pa_141   0x006b22    program     static /fred/mandm/mandm/mandm8722.c
             __tmplbl_130   0x006b22    program     static                          
             __tmplbl_129   0x006b22    program     static                          
                 __pa_142   0x006b2e    program     static /fred/mandm/mandm/mandm8722.c
                 __pa_143   0x006b44    program     static /fred/mandm/mandm/mandm8722.c
                 __pa_144   0x006b5a    program     static /fred/mandm/mandm/mandm8722.c
                 __pa_145   0x006b6c    program     static /fred/mandm/mandm/mandm8722.c
                 __pa_146   0x006b78    program     static /fred/mandm/mandm/mandm8722.c
                 __pa_147   0x006b80    program     static /fred/mandm/mandm/mandm8722.c
             __tmplbl_161   0x006b80    program     static                          
                 __pa_148   0x006b84    program     static /fred/mandm/mandm/mandm8722.c
                 __pa_149   0x006b8a    program     static /fred/mandm/mandm/mandm8722.c
                 __pa_150   0x006b94    program     static /fred/mandm/mandm/mandm8722.c
                 __pa_151   0x006bae    program     static /fred/mandm/mandm/mandm8722.c
                 __pa_152   0x006bc2    program     static /fred/mandm/mandm/mandm8722.c
                 __pa_153   0x006bca    program     static /fred/mandm/mandm/mandm8722.c
                 __pa_154   0x006bd4    program     static /fred/mandm/mandm/mandm8722.c
                 __pa_155   0x006bda    program     static /fred/mandm/mandm/mandm8722.c
                 __pa_156   0x006bea    program     static /fred/mandm/mandm/mandm8722.c
             __tmplbl_186   0x006bf0    program     static                          
             __tmplbl_187   0x006bf0    program     static                          
                 __pa_157   0x006bf0    program     static /fred/mandm/mandm/mandm8722.c
                 __pa_158   0x006bfa    program     static /fred/mandm/mandm/mandm8722.c
                 __pa_159   0x006bfe    program     static /fred/mandm/mandm/mandm8722.c
                 __pa_160   0x006c0e    program     static /fred/mandm/mandm/mandm8722.c
                 __pa_161   0x006c22    program     static /fred/mandm/mandm/mandm8722.c
                 __pa_162   0x006c36    program     static /fred/mandm/mandm/mandm8722.c
                 __pa_163   0x006c40    program     static /fred/mandm/mandm/mandm8722.c
                 __pa_164   0x006c4a    program     static /fred/mandm/mandm/mandm8722.c
                 __pa_165   0x006c54    program     static /fred/mandm/mandm/mandm8722.c
                 __pa_166   0x006c5c    program     static /fred/mandm/mandm/mandm8722.c
             __tmplbl_124   0x006c5c    program     static                          
             __tmplbl_123   0x006c5c    program     static                          
                 __pa_167   0x006c70    program     static /fred/mandm/mandm/mandm8722.c
                 __pa_168   0x006c82    program     static /fred/mandm/mandm/mandm8722.c
                 __pa_169   0x006c8a    program     static /fred/mandm/mandm/mandm8722.c
                 __pa_170   0x006c9c    program     static /fred/mandm/mandm/mandm8722.c
                 __pa_171   0x006cae    program     static /fred/mandm/mandm/mandm8722.c
                 __pa_172   0x006cbc    program     static /fred/mandm/mandm/mandm8722.c
                 __pa_173   0x006cce    program     static /fred/mandm/mandm/mandm8722.c
                 __pa_174   0x006cdc    program     static /fred/mandm/mandm/mandm8722.c
                 __pa_175   0x006cee    program     static /fred/mandm/mandm/mandm8722.c
                 __pa_176   0x006d00    program     static /fred/mandm/mandm/mandm8722.c
                 __pa_177   0x006d12    program     static /fred/mandm/mandm/mandm8722.c
                 __pa_178   0x006d24    program     static /fred/mandm/mandm/mandm8722.c
                 __pa_179   0x006d36    program     static /fred/mandm/mandm/mandm8722.c
                 __pa_180   0x006d48    program     static /fred/mandm/mandm/mandm8722.c
                 __pa_181   0x006d52    program     static /fred/mandm/mandm/mandm8722.c
                 __pa_182   0x006d5e    program     static /fred/mandm/mandm/mandm8722.c
                 __pa_183   0x006d68    program     static /fred/mandm/mandm/mandm8722.c
                 __pa_184   0x006d72    program     static /fred/mandm/mandm/mandm8722.c
                 __pa_185   0x006d78    program     static /fred/mandm/mandm/mandm8722.c
                 __pa_186   0x006d7e    program     static /fred/mandm/mandm/mandm8722.c
                 __pa_187   0x006d88    program     static /fred/mandm/mandm/mandm8722.c
                 __pa_188   0x006d92    program     static /fred/mandm/mandm/mandm8722.c
                 __pa_189   0x006d9c    program     static /fred/mandm/mandm/mandm8722.c
                 __pa_190   0x006da6    program     static /fred/mandm/mandm/mandm8722.c
                 __pa_191   0x006db4    program     static /fred/mandm/mandm/mandm8722.c
                 __pa_192   0x006dc4    program     static /fred/mandm/mandm/mandm8722.c
                 __pa_193   0x006dca    program     static /fred/mandm/mandm/mandm8722.c
                 __pa_194   0x006dd8    program     static /fred/mandm/mandm/mandm8722.c
                 __pa_195   0x006de4    program     static /fred/mandm/mandm/mandm8722.c
                 __pa_196   0x006dee    program     static /fred/mandm/mandm/mandm8722.c
                 __pa_197   0x006dfc    program     static /fred/mandm/mandm/mandm8722.c
                 __pa_198   0x006e0a    program     static /fred/mandm/mandm/mandm8722.c
                 __pa_199   0x006e16    program     static /fred/mandm/mandm/mandm8722.c
                 __pa_200   0x006e22    program     static /fred/mandm/mandm/mandm8722.c
                 __pa_201   0x006e2e    program     static /fred/mandm/mandm/mandm8722.c
                 __pa_202   0x006e3a    program     static /fred/mandm/mandm/mandm8722.c
                 __pa_203   0x006e44    program     static /fred/mandm/mandm/mandm8722.c
                 __pa_204   0x006e4e    program     static /fred/mandm/mandm/mandm8722.c
                 __pa_205   0x006e58    program     static /fred/mandm/mandm/mandm8722.c
                 __pa_206   0x006e60    program     static /fred/mandm/mandm/mandm8722.c
                 __pa_207   0x006e6a    program     static /fred/mandm/mandm/mandm8722.c
                 __pa_208   0x006e72    program     static /fred/mandm/mandm/mandm8722.c
             __tmplbl_188   0x006e72    program     static                          
             __tmplbl_189   0x006e72    program     static                          
                 __pa_209   0x006e76    program     static /fred/mandm/mandm/mandm8722.c
                 __pa_210   0x006e80    program     static /fred/mandm/mandm/mandm8722.c
                 __pa_211   0x006e88    program     static /fred/mandm/mandm/mandm8722.c
                 __pa_212   0x006e8e    program     static /fred/mandm/mandm/mandm8722.c
                 __pa_213   0x006e9c    program     static /fred/mandm/mandm/mandm8722.c
                 __pa_214   0x006eb6    program     static /fred/mandm/mandm/mandm8722.c
                 __pa_215   0x006ee0    program     static /fred/mandm/mandm/mandm8722.c
             __tmplbl_172   0x006ee0    program     static                          
             __tmplbl_163   0x006ee0    program     static                          
             __tmplbl_167   0x006ee0    program     static                          
             __tmplbl_190   0x006ee0    program     static                          
             __tmplbl_164   0x006ee0    program     static                          
             __tmplbl_166   0x006ee0    program     static                          
                 __pa_216   0x006ee8    program     static /fred/mandm/mandm/mandm8722.c
                 __pa_217   0x006f0a    program     static /fred/mandm/mandm/mandm8722.c
                 __pa_218   0x006f22    program     static /fred/mandm/mandm/mandm8722.c
                 __pa_219   0x006f2c    program     static /fred/mandm/mandm/mandm8722.c
                 __pa_220   0x006f34    program     static /fred/mandm/mandm/mandm8722.c
                 __pa_221   0x006f4c    program     static /fred/mandm/mandm/mandm8722.c
                 __pa_222   0x006f68    program     static /fred/mandm/mandm/mandm8722.c
                 __pa_223   0x006f82    program     static /fred/mandm/mandm/mandm8722.c
                 __pa_224   0x006f9c    program     static /fred/mandm/mandm/mandm8722.c
                 __pa_225   0x006fa4    program     static /fred/mandm/mandm/mandm8722.c
                 __pa_226   0x006fb8    program     static /fred/mandm/mandm/mandm8722.c
                 __pa_227   0x006fcc    program     static /fred/mandm/mandm/mandm8722.c
                 __pa_228   0x006fda    program     static /fred/mandm/mandm/mandm8722.c
                 __pa_229   0x006fe2    program     static /fred/mandm/mandm/mandm8722.c
                 __pa_230   0x006fe8    program     static /fred/mandm/mandm/mandm8722.c
                 __pa_231   0x006ffe    program     static /fred/mandm/mandm/mandm8722.c
                 __pa_232   0x007006    program     static /fred/mandm/mandm/mandm8722.c
                 __pa_233   0x007014    program     static /fred/mandm/mandm/mandm8722.c
                 __pa_234   0x007026    program     static /fred/mandm/mandm/mandm8722.c
                 __pa_235   0x00702e    program     static /fred/mandm/mandm/mandm8722.c
                 __pa_236   0x007036    program     static /fred/mandm/mandm/mandm8722.c
                 __pa_237   0x007042    program     static /fred/mandm/mandm/mandm8722.c
                 __pa_238   0x00704c    program     static /fred/mandm/mandm/mandm8722.c
                 __pa_239   0x007054    program     static /fred/mandm/mandm/mandm8722.c
                 __pa_240   0x00705c    program     static /fred/mandm/mandm/mandm8722.c
             __tmplbl_128   0x007066    program     static                          
                 __pa_241   0x007066    program     static /fred/mandm/mandm/mandm8722.c
             __tmplbl_127   0x007066    program     static                          
                 __pa_242   0x007074    program     static /fred/mandm/mandm/mandm8722.c
                 __pa_243   0x007082    program     static /fred/mandm/mandm/mandm8722.c
                 __pa_244   0x00708e    program     static /fred/mandm/mandm/mandm8722.c
                 __pa_245   0x00709a    program     static /fred/mandm/mandm/mandm8722.c
                 __pa_246   0x0070a6    program     static /fred/mandm/mandm/mandm8722.c
                 __pa_247   0x0070b2    program     static /fred/mandm/mandm/mandm8722.c
                 __pa_248   0x0070be    program     static /fred/mandm/mandm/mandm8722.c
                 __pa_249   0x0070ca    program     static /fred/mandm/mandm/mandm8722.c
                 __pa_250   0x0070d2    program     static /fred/mandm/mandm/mandm8722.c
             __tmplbl_162   0x0070dc    program     static                          
                 __pa_251   0x0070dc    program     static /fred/mandm/mandm/mandm8722.c
             __tmplbl_165   0x0070dc    program     static                          
             __tmplbl_168   0x0070dc    program     static                          
                 __pa_252   0x0070e2    program     static /fred/mandm/mandm/mandm8722.c
                 __pa_253   0x0070e8    program     static /fred/mandm/mandm/mandm8722.c
                 __pa_254   0x0070ee    program     static /fred/mandm/mandm/mandm8722.c
                 __pa_255   0x0070f6    program     static /fred/mandm/mandm/mandm8722.c
                 __pa_256   0x0070fe    program     static /fred/mandm/mandm/mandm8722.c
                 __pa_257   0x007108    program     static /fred/mandm/mandm/mandm8722.c
                 __pa_258   0x00710e    program     static /fred/mandm/mandm/mandm8722.c
                 __pa_259   0x007114    program     static /fred/mandm/mandm/mandm8722.c
                 __pa_260   0x007124    program     static /fred/mandm/mandm/mandm8722.c
                 __pa_261   0x007136    program     static /fred/mandm/mandm/mandm8722.c
                 __pa_262   0x00713c    program     static /fred/mandm/mandm/mandm8722.c
                 __pa_263   0x007148    program     static /fred/mandm/mandm/mandm8722.c
                 __pa_264   0x007150    program     static /fred/mandm/mandm/mandm8722.c
                 __pa_265   0x007158    program     static /fred/mandm/mandm/mandm8722.c
                 ADC_zero   0x00715e    program     extern /fred/mandm/mandm/daq.c  
        ___while_lbl00001   0x007178    program     static                          
       ___return_lbl00000   0x007182    program     static                          
        ___while_lbl00002   0x007182    program     static                          
       Reset_Change_Count   0x007184    program     extern /fred/mandm/mandm/daq.c  
             Change_Count   0x0071c4    program     extern /fred/mandm/mandm/daq.c  
                 ADC_read   0x007286    program     extern /fred/mandm/mandm/daq.c  
          ___for_lbl00014   0x0072ae    program     static                          
        ___while_lbl00012   0x0072be    program     static                          
        ___while_lbl00013   0x0072c8    program     static                          
          ___for_lbl00010   0x0072ea    program     static                          
          ___for_lbl00011   0x0072f4    program     static                          
               __tmplbl_8   0x007320    program     static                          
          ___for_lbl00019   0x0073b8    program     static                          
        ___while_lbl00017   0x0073c8    program     static                          
        ___while_lbl00018   0x0073d2    program     static                          
          ___for_lbl00015   0x0073f4    program     static                          
          ___for_lbl00016   0x0073fe    program     static                          
               __tmplbl_9   0x00742a    program     static                          
          ___for_lbl00024   0x0074c2    program     static                          
        ___while_lbl00022   0x0074d2    program     static                          
        ___while_lbl00023   0x0074dc    program     static                          
          ___for_lbl00020   0x0074fe    program     static                          
          ___for_lbl00021   0x007508    program     static                          
              __tmplbl_10   0x007576    program     static                          
               __tmplbl_3   0x0075de    program     static                          
           ___if_lbl00025   0x0075ea    program     static                          
           ___if_lbl00026   0x0076d6    program     static                          
          ___for_lbl00031   0x0076fc    program     static                          
        ___while_lbl00029   0x00770c    program     static                          
        ___while_lbl00030   0x007716    program     static                          
          ___for_lbl00027   0x007738    program     static                          
          ___for_lbl00028   0x007742    program     static                          
              __tmplbl_11   0x0077b0    program     static                          
               __tmplbl_4   0x007818    program     static                          
           ___if_lbl00032   0x007824    program     static                          
           ___if_lbl00033   0x00790e    program     static                          
          ___for_lbl00038   0x007934    program     static                          
        ___while_lbl00036   0x007944    program     static                          
        ___while_lbl00037   0x00794e    program     static                          
          ___for_lbl00034   0x007970    program     static                          
          ___for_lbl00035   0x00797a    program     static                          
              __tmplbl_12   0x0079e8    program     static                          
               __tmplbl_5   0x007a50    program     static                          
           ___if_lbl00039   0x007a5c    program     static                          
           ___if_lbl00040   0x007b46    program     static                          
          ___for_lbl00045   0x007b6e    program     static                          
        ___while_lbl00043   0x007b7e    program     static                          
        ___while_lbl00044   0x007b88    program     static                          
          ___for_lbl00041   0x007baa    program     static                          
          ___for_lbl00042   0x007bb4    program     static                          
          ___for_lbl00050   0x007bfe    program     static                          
        ___while_lbl00048   0x007c0e    program     static                          
        ___while_lbl00049   0x007c18    program     static                          
          ___for_lbl00046   0x007c3a    program     static                          
          ___for_lbl00047   0x007c44    program     static                          
          ___for_lbl00055   0x007c8e    program     static                          
        ___while_lbl00053   0x007c9e    program     static                          
        ___while_lbl00054   0x007ca8    program     static                          
          ___for_lbl00051   0x007cca    program     static                          
          ___for_lbl00052   0x007cd4    program     static                          
          ___for_lbl00060   0x007d1e    program     static                          
        ___while_lbl00058   0x007d2e    program     static                          
        ___while_lbl00059   0x007d38    program     static                          
          ___for_lbl00056   0x007d5a    program     static                          
          ___for_lbl00057   0x007d64    program     static                          
          ___for_lbl00065   0x007dae    program     static                          
        ___while_lbl00063   0x007dbe    program     static                          
        ___while_lbl00064   0x007dc8    program     static                          
          ___for_lbl00061   0x007dea    program     static                          
          ___for_lbl00062   0x007df4    program     static                          
          ___for_lbl00070   0x007e3e    program     static                          
        ___while_lbl00068   0x007e4e    program     static                          
        ___while_lbl00069   0x007e58    program     static                          
          ___for_lbl00066   0x007e7a    program     static                          
          ___for_lbl00067   0x007e84    program     static                          
          ___for_lbl00081   0x007f74    program     static                          
              __tmplbl_13   0x0080b4    program     static                          
           ___if_lbl00073   0x008188    program     static                          
               __tmplbl_7   0x0081d4    program     static                          
               __tmplbl_6   0x0081da    program     static                          
           ___if_lbl00075   0x008214    program     static                          
           ___if_lbl00076   0x00827c    program     static                          
              __tmplbl_14   0x00836c    program     static                          
           ___if_lbl00077   0x0083e8    program     static                          
              __tmplbl_15   0x008466    program     static                          
           ___if_lbl00078   0x0084e2    program     static                          
           ___if_lbl00079   0x00868e    program     static                          
           ___if_lbl00080   0x008a06    program     static                          
          ___for_lbl00071   0x008b9a    program     static                          
          ___for_lbl00072   0x008ba6    program     static                          
        ___while_lbl00082   0x008c74    program     static                          
        ___while_lbl00083   0x008c86    program     static                          
           ___if_lbl00085   0x008c86    program     static                          
           ___if_lbl00084   0x008c86    program     static                          
       ___return_lbl00009   0x008c8c    program     static                          
              zero_amploc   0x008c8e    program     extern /fred/mandm/mandm/daq.c  
                   __pa_0   0x008d7a    program     static /fred/mandm/mandm/daq.c  
                   __pa_1   0x008da2    program     static /fred/mandm/mandm/daq.c  
                   __pa_2   0x008dc6    program     static /fred/mandm/mandm/daq.c  
                   __pa_3   0x008dd8    program     static /fred/mandm/mandm/daq.c  
                   __pa_4   0x008df4    program     static /fred/mandm/mandm/daq.c  
                   __pa_5   0x008e02    program     static /fred/mandm/mandm/daq.c  
                   __pa_6   0x008e10    program     static /fred/mandm/mandm/daq.c  
               __string_4   0x008e1a    program     static /fred/mandm/mandm/daq.c  
               __string_3   0x008e49    program     static /fred/mandm/mandm/daq.c  
               __string_2   0x008e78    program     static /fred/mandm/mandm/daq.c  
               __string_1   0x008ea7    program     static /fred/mandm/mandm/daq.c  
               __string_0   0x008ee4    program     static /fred/mandm/mandm/daq.c  
             __string_253   0x008f26    program     static /fred/mandm/mandm/mandm8722.c
             __string_252   0x008f44    program     static /fred/mandm/mandm/mandm8722.c
             __string_251   0x008f66    program     static /fred/mandm/mandm/mandm8722.c
             __string_250   0x008f7f    program     static /fred/mandm/mandm/mandm8722.c
             __string_249   0x008f95    program     static /fred/mandm/mandm/mandm8722.c
             __string_248   0x008fae    program     static /fred/mandm/mandm/mandm8722.c
             __string_247   0x008fc7    program     static /fred/mandm/mandm/mandm8722.c
             __string_246   0x008fe3    program     static /fred/mandm/mandm/mandm8722.c
             __string_245   0x008ffc    program     static /fred/mandm/mandm/mandm8722.c
             __string_244   0x00901c    program     static /fred/mandm/mandm/mandm8722.c
             __string_243   0x00903f    program     static /fred/mandm/mandm/mandm8722.c
             __string_242   0x00905f    program     static /fred/mandm/mandm/mandm8722.c
             __string_241   0x00907c    program     static /fred/mandm/mandm/mandm8722.c
             __string_240   0x009095    program     static /fred/mandm/mandm/mandm8722.c
             __string_239   0x0090ad    program     static /fred/mandm/mandm/mandm8722.c
             __string_238   0x0090cc    program     static /fred/mandm/mandm/mandm8722.c
             __string_237   0x0090e4    program     static /fred/mandm/mandm/mandm8722.c
             __string_236   0x00910d    program     static /fred/mandm/mandm/mandm8722.c
             __string_235   0x009136    program     static /fred/mandm/mandm/mandm8722.c
             __string_234   0x009160    program     static /fred/mandm/mandm/mandm8722.c
             __string_233   0x009185    program     static /fred/mandm/mandm/mandm8722.c
             __string_232   0x00919a    program     static /fred/mandm/mandm/mandm8722.c
             __string_231   0x0091d8    program     static /fred/mandm/mandm/mandm8722.c
             __string_230   0x0091fb    program     static /fred/mandm/mandm/mandm8722.c
             __string_229   0x009230    program     static /fred/mandm/mandm/mandm8722.c
             __string_228   0x009245    program     static /fred/mandm/mandm/mandm8722.c
             __string_227   0x00925a    program     static /fred/mandm/mandm/mandm8722.c
             __string_226   0x009286    program     static /fred/mandm/mandm/mandm8722.c
             __string_225   0x00929a    program     static /fred/mandm/mandm/mandm8722.c
             __string_224   0x0092b0    program     static /fred/mandm/mandm/mandm8722.c
             __string_223   0x0092c6    program     static /fred/mandm/mandm/mandm8722.c
             __string_222   0x0092dc    program     static /fred/mandm/mandm/mandm8722.c
             __string_221   0x009308    program     static /fred/mandm/mandm/mandm8722.c
             __string_220   0x00932a    program     static /fred/mandm/mandm/mandm8722.c
             __string_219   0x009341    program     static /fred/mandm/mandm/mandm8722.c
             __string_218   0x009369    program     static /fred/mandm/mandm/mandm8722.c
             __string_217   0x009391    program     static /fred/mandm/mandm/mandm8722.c
             __string_216   0x0093b9    program     static /fred/mandm/mandm/mandm8722.c
             __string_215   0x0093e1    program     static /fred/mandm/mandm/mandm8722.c
             __string_214   0x0093f9    program     static /fred/mandm/mandm/mandm8722.c
             __string_213   0x00941e    program     static /fred/mandm/mandm/mandm8722.c
             __string_212   0x00943b    program     static /fred/mandm/mandm/mandm8722.c
             __string_211   0x009461    program     static /fred/mandm/mandm/mandm8722.c
             __string_210   0x00947f    program     static /fred/mandm/mandm/mandm8722.c
             __string_209   0x00949b    program     static /fred/mandm/mandm/mandm8722.c
             __string_208   0x0094b2    program     static /fred/mandm/mandm/mandm8722.c
             __string_207   0x0094c9    program     static /fred/mandm/mandm/mandm8722.c
             __string_206   0x0094e9    program     static /fred/mandm/mandm/mandm8722.c
             __string_205   0x009514    program     static /fred/mandm/mandm/mandm8722.c
             __string_204   0x00952f    program     static /fred/mandm/mandm/mandm8722.c
             __string_203   0x00955c    program     static /fred/mandm/mandm/mandm8722.c
             __string_202   0x009584    program     static /fred/mandm/mandm/mandm8722.c
             __string_201   0x0095a3    program     static /fred/mandm/mandm/mandm8722.c
             __string_200   0x0095ce    program     static /fred/mandm/mandm/mandm8722.c
             __string_199   0x0095ea    program     static /fred/mandm/mandm/mandm8722.c
             __string_198   0x009618    program     static /fred/mandm/mandm/mandm8722.c
             __string_197   0x00963c    program     static /fred/mandm/mandm/mandm8722.c
             __string_196   0x00965a    program     static /fred/mandm/mandm/mandm8722.c
             __string_195   0x009679    program     static /fred/mandm/mandm/mandm8722.c
             __string_194   0x009698    program     static /fred/mandm/mandm/mandm8722.c
             __string_193   0x0096b7    program     static /fred/mandm/mandm/mandm8722.c
             __string_192   0x0096ce    program     static /fred/mandm/mandm/mandm8722.c
             __string_191   0x0096e5    program     static /fred/mandm/mandm/mandm8722.c
             __string_190   0x0096fc    program     static /fred/mandm/mandm/mandm8722.c
             __string_189   0x009712    program     static /fred/mandm/mandm/mandm8722.c
             __string_188   0x009728    program     static /fred/mandm/mandm/mandm8722.c
             __string_187   0x00973e    program     static /fred/mandm/mandm/mandm8722.c
             __string_186   0x009765    program     static /fred/mandm/mandm/mandm8722.c
             __string_185   0x00978c    program     static /fred/mandm/mandm/mandm8722.c
             __string_184   0x0097b3    program     static /fred/mandm/mandm/mandm8722.c
             __string_183   0x0097d4    program     static /fred/mandm/mandm/mandm8722.c
             __string_182   0x0097fb    program     static /fred/mandm/mandm/mandm8722.c
             __string_181   0x00981d    program     static /fred/mandm/mandm/mandm8722.c
             __string_180   0x009846    program     static /fred/mandm/mandm/mandm8722.c
             __string_179   0x00985b    program     static /fred/mandm/mandm/mandm8722.c
             __string_178   0x009884    program     static /fred/mandm/mandm/mandm8722.c
             __string_177   0x00989c    program     static /fred/mandm/mandm/mandm8722.c
             __string_176   0x0098c5    program     static /fred/mandm/mandm/mandm8722.c
             __string_175   0x0098ec    program     static /fred/mandm/mandm/mandm8722.c
             __string_174   0x009913    program     static /fred/mandm/mandm/mandm8722.c
             __string_173   0x00993a    program     static /fred/mandm/mandm/mandm8722.c
             __string_172   0x009963    program     static /fred/mandm/mandm/mandm8722.c
             __string_171   0x00998c    program     static /fred/mandm/mandm/mandm8722.c
             __string_170   0x0099b5    program     static /fred/mandm/mandm/mandm8722.c
             __string_169   0x0099cf    program     static /fred/mandm/mandm/mandm8722.c
             __string_168   0x0099f6    program     static /fred/mandm/mandm/mandm8722.c
             __string_167   0x009a13    program     static /fred/mandm/mandm/mandm8722.c
             __string_166   0x009a34    program     static /fred/mandm/mandm/mandm8722.c
             __string_165   0x009a5d    program     static /fred/mandm/mandm/mandm8722.c
             __string_164   0x009a73    program     static /fred/mandm/mandm/mandm8722.c
             __string_163   0x009a89    program     static /fred/mandm/mandm/mandm8722.c
             __string_162   0x009a9f    program     static /fred/mandm/mandm/mandm8722.c
             __string_161   0x009ab5    program     static /fred/mandm/mandm/mandm8722.c
             __string_160   0x009ada    program     static /fred/mandm/mandm/mandm8722.c
             __string_159   0x009aed    program     static /fred/mandm/mandm/mandm8722.c
             __string_158   0x009b04    program     static /fred/mandm/mandm/mandm8722.c
             __string_157   0x009b1b    program     static /fred/mandm/mandm/mandm8722.c
             __string_156   0x009b33    program     static /fred/mandm/mandm/mandm8722.c
             __string_155   0x009b42    program     static /fred/mandm/mandm/mandm8722.c
             __string_154   0x009b5a    program     static /fred/mandm/mandm/mandm8722.c
             __string_153   0x009b75    program     static /fred/mandm/mandm/mandm8722.c
             __string_152   0x009b84    program     static /fred/mandm/mandm/mandm8722.c
             __string_151   0x009b9f    program     static /fred/mandm/mandm/mandm8722.c
             __string_150   0x009bb1    program     static /fred/mandm/mandm/mandm8722.c
             __string_149   0x009c04    program     static /fred/mandm/mandm/mandm8722.c
             __string_148   0x009c26    program     static /fred/mandm/mandm/mandm8722.c
             __string_147   0x009c65    program     static /fred/mandm/mandm/mandm8722.c
             __string_146   0x009cb9    program     static /fred/mandm/mandm/mandm8722.c
             __string_145   0x009cd9    program     static /fred/mandm/mandm/mandm8722.c
             __string_144   0x009cf5    program     static /fred/mandm/mandm/mandm8722.c
             __string_143   0x009d4b    program     static /fred/mandm/mandm/mandm8722.c
             __string_142   0x009d9a    program     static /fred/mandm/mandm/mandm8722.c
             __string_141   0x009db1    program     static /fred/mandm/mandm/mandm8722.c
             __string_140   0x009dc7    program     static /fred/mandm/mandm/mandm8722.c
             __string_139   0x009dfe    program     static /fred/mandm/mandm/mandm8722.c
             __string_138   0x009e3b    program     static /fred/mandm/mandm/mandm8722.c
             __string_137   0x009e56    program     static /fred/mandm/mandm/mandm8722.c
             __string_136   0x009e9d    program     static /fred/mandm/mandm/mandm8722.c
             __string_135   0x009eea    program     static /fred/mandm/mandm/mandm8722.c
             __string_134   0x009f0d    program     static /fred/mandm/mandm/mandm8722.c
             __string_133   0x009f31    program     static /fred/mandm/mandm/mandm8722.c
             __string_132   0x009f4a    program     static /fred/mandm/mandm/mandm8722.c
             __string_131   0x009f64    program     static /fred/mandm/mandm/mandm8722.c
             __string_130   0x009f84    program     static /fred/mandm/mandm/mandm8722.c
             __string_129   0x009f9e    program     static /fred/mandm/mandm/mandm8722.c
             __string_128   0x009fb8    program     static /fred/mandm/mandm/mandm8722.c
             __string_127   0x009fca    program     static /fred/mandm/mandm/mandm8722.c
             __string_126   0x009fd4    program     static /fred/mandm/mandm/mandm8722.c
             __string_125   0x009fe1    program     static /fred/mandm/mandm/mandm8722.c
             __string_124   0x009fe7    program     static /fred/mandm/mandm/mandm8722.c
             __string_123   0x009fef    program     static /fred/mandm/mandm/mandm8722.c
             __string_122   0x009ff7    program     static /fred/mandm/mandm/mandm8722.c
             __string_121   0x00a003    program     static /fred/mandm/mandm/mandm8722.c
             __string_120   0x00a015    program     static /fred/mandm/mandm/mandm8722.c
             __string_119   0x00a036    program     static /fred/mandm/mandm/mandm8722.c
             __string_118   0x00a0ae    program     static /fred/mandm/mandm/mandm8722.c
             __string_117   0x00a10d    program     static /fred/mandm/mandm/mandm8722.c
             __string_116   0x00a1cc    program     static /fred/mandm/mandm/mandm8722.c
             __string_115   0x00a25b    program     static /fred/mandm/mandm/mandm8722.c
             __string_114   0x00a271    program     static /fred/mandm/mandm/mandm8722.c
             __string_113   0x00a273    program     static /fred/mandm/mandm/mandm8722.c
             __string_112   0x00a278    program     static /fred/mandm/mandm/mandm8722.c
             __string_111   0x00a27b    program     static /fred/mandm/mandm/mandm8722.c
             __string_110   0x00a282    program     static /fred/mandm/mandm/mandm8722.c
             __string_109   0x00a29b    program     static /fred/mandm/mandm/mandm8722.c
             __string_108   0x00a2a4    program     static /fred/mandm/mandm/mandm8722.c
               __string_8   0x00a2b0    program     static /fred/mandm/mandm/config.c
               __string_7   0x00a2d4    program     static /fred/mandm/mandm/config.c
               __string_6   0x00a2f8    program     static /fred/mandm/mandm/config.c
               __string_5   0x00a30f    program     static /fred/mandm/mandm/config.c
               __string_4   0x00a331    program     static /fred/mandm/mandm/config.c
               __string_3   0x00a358    program     static /fred/mandm/mandm/config.c
               __string_2   0x00a37e    program     static /fred/mandm/mandm/config.c
               __string_1   0x00a3a3    program     static /fred/mandm/mandm/config.c
               __string_0   0x00a3c0    program     static /fred/mandm/mandm/config.c
                     spin   0x00a3c3    program     extern /fred/mandm/mandm/mandm_msg.h
        menutext_template   0x00a43b    program     extern /fred/mandm/mandm/mandm_msg.h
                 menutext   0x00a504    program     extern /fred/mandm/mandm/mandm_msg.h
          menuselect_free   0x00a5cb    program     extern /fred/mandm/mandm/mandm_msg.h
         menuselect_track   0x00a691    program     extern /fred/mandm/mandm/mandm_msg.h
                 lowbatt0   0x00a757    program     extern /fred/mandm/mandm/mandm_msg.h
                    zero0   0x00a79a    program     extern /fred/mandm/mandm/mandm_msg.h
                    zero1   0x00a7c4    program     extern /fred/mandm/mandm/mandm_msg.h
                    zero2   0x00a800    program     extern /fred/mandm/mandm/mandm_msg.h
                    zero3   0x00a834    program     extern /fred/mandm/mandm/mandm_msg.h
                    adcg0   0x00a86e    program     extern /fred/mandm/mandm/mandm_msg.h
                    adcg1   0x00a8ae    program     extern /fred/mandm/mandm/mandm_msg.h
                    adcg2   0x00a8d9    program     extern /fred/mandm/mandm/mandm_msg.h
                    adcg3   0x00a90c    program     extern /fred/mandm/mandm/mandm_msg.h
                    adcg4   0x00a978    program     extern /fred/mandm/mandm/mandm_msg.h
                   tweak0   0x00a9af    program     extern /fred/mandm/mandm/mandm_msg.h
                   tweak1   0x00aa4c    program     extern /fred/mandm/mandm/mandm_msg.h
                   tweak2   0x00aa75    program     extern /fred/mandm/mandm/mandm_msg.h
                   tweak3   0x00aa99    program     extern /fred/mandm/mandm/mandm_msg.h
                   tweak4   0x00ab18    program     extern /fred/mandm/mandm/mandm_msg.h
                   tweak5   0x00ab48    program     extern /fred/mandm/mandm/mandm_msg.h
                 tweak_t1   0x00abce    program     extern /fred/mandm/mandm/mandm_msg.h
                 tweak_t2   0x00abd3    program     extern /fred/mandm/mandm/mandm_msg.h
                 tweak_t3   0x00abd7    program     extern /fred/mandm/mandm/mandm_msg.h
                 tweak_t4   0x00abdb    program     extern /fred/mandm/mandm/mandm_msg.h
                 tweak_tw   0x00abe0    program     extern /fred/mandm/mandm/mandm_msg.h
                   hello0   0x00abf0    program     extern /fred/mandm/mandm/mandm_msg.h
                   hello1   0x00ac3d    program     extern /fred/mandm/mandm/mandm_msg.h
                    hold0   0x00ac4a    program     extern /fred/mandm/mandm/mandm_msg.h
                    hold1   0x00aca8    program     extern /fred/mandm/mandm/mandm_msg.h
                    sync0   0x00ace1    program     extern /fred/mandm/mandm/mandm_msg.h
                    sync1   0x00ad15    program     extern /fred/mandm/mandm/mandm_msg.h
                    sync2   0x00ad33    program     extern /fred/mandm/mandm/mandm_msg.h
                 keycmds0   0x00ad51    program     extern /fred/mandm/mandm/mandm_msg.h
                 keycmds1   0x00ad9b    program     extern /fred/mandm/mandm/mandm_msg.h
              battheader0   0x00ade5    program     extern /fred/mandm/mandm/mandm_msg.h
              battheader1   0x00ae59    program     extern /fred/mandm/mandm/mandm_msg.h
             modelheader0   0x00aee3    program     extern /fred/mandm/mandm/mandm_msg.h
             modelheader1   0x00af02    program     extern /fred/mandm/mandm/mandm_msg.h
              battbuffer0   0x00af1a    program     extern /fred/mandm/mandm/mandm_msg.h
                  sddump0   0x00af42    program     extern /fred/mandm/mandm/mandm_msg.h
                  sddump1   0x00af70    program     extern /fred/mandm/mandm/mandm_msg.h
                  sddump2   0x00afa6    program     extern /fred/mandm/mandm/mandm_msg.h
                  sddump3   0x00afbd    program     extern /fred/mandm/mandm/mandm_msg.h
                  divert0   0x00afea    program     extern /fred/mandm/mandm/mandm_msg.h
                  divert1   0x00b00a    program     extern /fred/mandm/mandm/mandm_msg.h
                 divert99   0x00b02b    program     extern /fred/mandm/mandm/mandm_msg.h
                 almcode0   0x00b02c    program     extern /fred/mandm/mandm/mandm_msg.h
                 almcode1   0x00b04c    program     extern /fred/mandm/mandm/mandm_msg.h
                 almcode2   0x00b07c    program     extern /fred/mandm/mandm/mandm_msg.h
                 almcode3   0x00b09f    program     extern /fred/mandm/mandm/mandm_msg.h
                 almcode4   0x00b0c2    program     extern /fred/mandm/mandm/mandm_msg.h
                 almcode5   0x00b0f3    program     extern /fred/mandm/mandm/mandm_msg.h
                 almcode6   0x00b127    program     extern /fred/mandm/mandm/mandm_msg.h
                 almcode7   0x00b15c    program     extern /fred/mandm/mandm/mandm_msg.h
                 almcode8   0x00b195    program     extern /fred/mandm/mandm/mandm_msg.h
                 almcode9   0x00b1c3    program     extern /fred/mandm/mandm/mandm_msg.h
                almcode10   0x00b1f3    program     extern /fred/mandm/mandm/mandm_msg.h
                almcode11   0x00b234    program     extern /fred/mandm/mandm/mandm_msg.h
                almcode12   0x00b25a    program     extern /fred/mandm/mandm/mandm_msg.h
                almcode13   0x00b280    program     extern /fred/mandm/mandm/mandm_msg.h
                almcode14   0x00b2ac    program     extern /fred/mandm/mandm/mandm_msg.h
                almcode15   0x00b2c4    program     extern /fred/mandm/mandm/mandm_msg.h
                almcode16   0x00b2db    program     extern /fred/mandm/mandm/mandm_msg.h
                almcode17   0x00b308    program     extern /fred/mandm/mandm/mandm_msg.h
                almcode99   0x00b327    program     extern /fred/mandm/mandm/mandm_msg.h
                chrgcode0   0x00b328    program     extern /fred/mandm/mandm/mandm_msg.h
                chrgcode1   0x00b359    program     extern /fred/mandm/mandm/mandm_msg.h
                chrgcode2   0x00b38f    program     extern /fred/mandm/mandm/mandm_msg.h
                chrgcode3   0x00b3bb    program     extern /fred/mandm/mandm/mandm_msg.h
                chrgcode4   0x00b3ec    program     extern /fred/mandm/mandm/mandm_msg.h
                chrgcode5   0x00b424    program     extern /fred/mandm/mandm/mandm_msg.h
                chrgcode6   0x00b437    program     extern /fred/mandm/mandm/mandm_msg.h
                chrgcode7   0x00b457    program     extern /fred/mandm/mandm/mandm_msg.h
                chrgcode8   0x00b484    program     extern /fred/mandm/mandm/mandm_msg.h
                chrgcode9   0x00b4ae    program     extern /fred/mandm/mandm/mandm_msg.h
               chrgcode10   0x00b4d3    program     extern /fred/mandm/mandm/mandm_msg.h
               chrgcode11   0x00b500    program     extern /fred/mandm/mandm/mandm_msg.h
               chrgcode12   0x00b52b    program     extern /fred/mandm/mandm/mandm_msg.h
               chrgcode13   0x00b559    program     extern /fred/mandm/mandm/mandm_msg.h
               chrgcode14   0x00b586    program     extern /fred/mandm/mandm/mandm_msg.h
               chrgcode15   0x00b5ba    program     extern /fred/mandm/mandm/mandm_msg.h
               chrgcode16   0x00b5e4    program     extern /fred/mandm/mandm/mandm_msg.h
                 charger0   0x00b60e    program     extern /fred/mandm/mandm/mandm_msg.h
                 charger1   0x00b645    program     extern /fred/mandm/mandm/mandm_msg.h
                 charger2   0x00b67f    program     extern /fred/mandm/mandm/mandm_msg.h
                 charger3   0x00b6bd    program     extern /fred/mandm/mandm/mandm_msg.h
                 charger4   0x00b6dc    program     extern /fred/mandm/mandm/mandm_msg.h
                charger99   0x00b6fc    program     extern /fred/mandm/mandm/mandm_msg.h
             tick_handler   0x00b6fe    program     extern /fred/mandm/mandm/mandm_vector.c
           ___if_lbl00001   0x00b75e    program     static                          
         ___else_lbl00003   0x00b78c    program     static                          
           ___if_lbl00002   0x00b79c    program     static                          
           ___if_lbl00004   0x00b7a6    program     static                          
           ___if_lbl00005   0x00b7b0    program     static                          
           ___if_lbl00006   0x00b7ba    program     static                          
           ___if_lbl00007   0x00b7ba    program     static                          
         ___else_lbl00009   0x00b84a    program     static                          
           ___if_lbl00008   0x00b868    program     static                          
         ___else_lbl00011   0x00b86a    program     static                          
           ___if_lbl00012   0x00b878    program     static                          
           ___if_lbl00010   0x00b878    program     static                          
         ___else_lbl00014   0x00b8dc    program     static                          
           ___if_lbl00013   0x00b8fa    program     static                          
         ___else_lbl00016   0x00b8fc    program     static                          
           ___if_lbl00017   0x00b90a    program     static                          
           ___if_lbl00015   0x00b90a    program     static                          
           ___if_lbl00018   0x00b90e    program     static                          
               __tmplbl_1   0x00b914    program     static                          
               __tmplbl_0   0x00b91a    program     static                          
           ___if_lbl00020   0x00b91c    program     static                          
           ___if_lbl00021   0x00b930    program     static                          
               __tmplbl_3   0x00b936    program     static                          
               __tmplbl_2   0x00b93c    program     static                          
           ___if_lbl00023   0x00b94a    program     static                          
           ___if_lbl00024   0x00b978    program     static                          
               __tmplbl_4   0x00b9aa    program     static                          
           ___if_lbl00025   0x00b9ac    program     static                          
         ___else_lbl00027   0x00b9b8    program     static                          
           ___if_lbl00026   0x00b9c0    program     static                          
           ___if_lbl00028   0x00b9ec    program     static                          
       ___case_0_lbl00030   0x00b9fe    program     static                          
       ___case_1_lbl00031   0x00ba04    program     static                          
       ___case_2_lbl00032   0x00ba0c    program     static                          
      ___default_lbl00033   0x00ba14    program     static                          
           ___if_lbl00035   0x00ba1a    program     static                          
           ___if_lbl00034   0x00ba1a    program     static                          
   ___switchexit_lbl00029   0x00ba1a    program     static                          
           ___if_lbl00036   0x00ba20    program     static                          
           ___if_lbl00037   0x00ba26    program     static                          
           ___if_lbl00038   0x00ba2c    program     static                          
           ___if_lbl00040   0x00ba32    program     static                          
           ___if_lbl00039   0x00ba32    program     static                          
           ___if_lbl00041   0x00ba52    program     static                          
           ___if_lbl00042   0x00ba56    program     static                          
           ___if_lbl00043   0x00ba6e    program     static                          
           ___if_lbl00044   0x00ba84    program     static                          
           ___if_lbl00045   0x00ba92    program     static                          
           ___if_lbl00046   0x00baa0    program     static                          
           ___if_lbl00047   0x00baae    program     static                          
           ___if_lbl00048   0x00babc    program     static                          
           ___if_lbl00049   0x00baca    program     static                          
               __tmplbl_6   0x00bad2    program     static                          
               __tmplbl_5   0x00bada    program     static                          
           ___if_lbl00051   0x00bae0    program     static                          
               __tmplbl_8   0x00bae8    program     static                          
               __tmplbl_7   0x00baf0    program     static                          
           ___if_lbl00053   0x00baf6    program     static                          
              __tmplbl_10   0x00bafe    program     static                          
               __tmplbl_9   0x00bb06    program     static                          
           ___if_lbl00055   0x00bb0a    program     static                          
        ___while_lbl00056   0x00bb12    program     static                          
        ___while_lbl00057   0x00bb14    program     static                          
           ___if_lbl00058   0x00bb14    program     static                          
              __tmplbl_12   0x00bb1c    program     static                          
              __tmplbl_11   0x00bb22    program     static                          
           ___if_lbl00060   0x00bb26    program     static                          
           ___if_lbl00061   0x00bb26    program     static                          
              __tmplbl_14   0x00bb3e    program     static                          
              __tmplbl_13   0x00bb44    program     static                          
           ___if_lbl00063   0x00bb4a    program     static                          
           ___if_lbl00064   0x00bb4e    program     static                          
              __tmplbl_16   0x00bb66    program     static                          
              __tmplbl_15   0x00bb6c    program     static                          
           ___if_lbl00066   0x00bb72    program     static                          
           ___if_lbl00067   0x00bb76    program     static                          
              __tmplbl_18   0x00bb8e    program     static                          
              __tmplbl_17   0x00bb94    program     static                          
           ___if_lbl00069   0x00bbb0    program     static                          
         ___else_lbl00071   0x00bbb2    program     static                          
           ___if_lbl00070   0x00bbba    program     static                          
           ___if_lbl00072   0x00bbd8    program     static                          
           ___if_lbl00073   0x00bbd8    program     static                          
           ___if_lbl00074   0x00bbdc    program     static                          
              __tmplbl_20   0x00bbe2    program     static                          
              __tmplbl_19   0x00bbe8    program     static                          
           ___if_lbl00076   0x00bbfa    program     static                          
              __tmplbl_21   0x00bc40    program     static                          
              __tmplbl_22   0x00bc6a    program     static                          
           ___if_lbl00077   0x00bc7e    program     static                          
           ___if_lbl00079   0x00bc7e    program     static                          
           ___if_lbl00078   0x00bc7e    program     static                          
              __tmplbl_26   0x00bca6    program     static                          
              __tmplbl_25   0x00bca8    program     static                          
              __tmplbl_27   0x00bcc4    program     static                          
              __tmplbl_24   0x00bcc6    program     static                          
              __tmplbl_28   0x00bce2    program     static                          
              __tmplbl_23   0x00bce4    program     static                          
           ___if_lbl00082   0x00bd5a    program     static                          
         ___else_lbl00084   0x00bd64    program     static                          
           ___if_lbl00083   0x00bd68    program     static                          
         ___else_lbl00086   0x00bd72    program     static                          
           ___if_lbl00085   0x00bd76    program     static                          
         ___else_lbl00088   0x00bd80    program     static                          
           ___if_lbl00087   0x00bd84    program     static                          
         ___else_lbl00090   0x00bdb8    program     static                          
           ___if_lbl00089   0x00bde8    program     static                          
         ___else_lbl00092   0x00be1e    program     static                          
           ___if_lbl00091   0x00be50    program     static                          
         ___else_lbl00098   0x00be86    program     static                          
              __tmplbl_29   0x00bece    program     static                          
              __tmplbl_30   0x00bf2a    program     static                          
           ___if_lbl00093   0x00bf38    program     static                          
              __tmplbl_31   0x00bf52    program     static                          
           ___if_lbl00094   0x00bf60    program     static                          
           ___if_lbl00095   0x00bf90    program     static                          
              __tmplbl_32   0x00bfdc    program     static                          
           ___if_lbl00096   0x00bfe4    program     static                          
           ___if_lbl00097   0x00bfe6    program     static                          
           ___if_lbl00099   0x00c046    program     static                          
           ___if_lbl00100   0x00c0ae    program     static                          
           ___if_lbl00101   0x00c10e    program     static                          
           ___if_lbl00102   0x00c178    program     static                          
         ___else_lbl00104   0x00c208    program     static                          
           ___if_lbl00103   0x00c25e    program     static                          
              __tmplbl_34   0x00c2a4    program     static                          
              __tmplbl_33   0x00c2e0    program     static                          
           ___if_lbl00106   0x00c308    program     static                          
         ___else_lbl00108   0x00c30a    program     static                          
           ___if_lbl00107   0x00c32a    program     static                          
              __tmplbl_38   0x00c33c    program     static                          
              __tmplbl_37   0x00c342    program     static                          
              __tmplbl_36   0x00c348    program     static                          
              __tmplbl_35   0x00c36a    program     static                          
         ___else_lbl00116   0x00c36e    program     static                          
         ___else_lbl00114   0x00c394    program     static                          
           ___if_lbl00112   0x00c3b8    program     static                          
           ___if_lbl00113   0x00c3b8    program     static                          
           ___if_lbl00115   0x00c3b8    program     static                          
           ___if_lbl00117   0x00c3b8    program     static                          
           ___if_lbl00118   0x00c3b8    program     static                          
              __tmplbl_39   0x00c3f2    program     static                          
           ___if_lbl00120   0x00c40a    program     static                          
           ___if_lbl00119   0x00c40a    program     static                          
           ___if_lbl00121   0x00c426    program     static                          
           ___if_lbl00122   0x00c434    program     static                          
              __tmplbl_41   0x00c43a    program     static                          
              __tmplbl_40   0x00c440    program     static                          
       ___return_lbl00000   0x00c450    program     static                          
           ___if_lbl00125   0x00c450    program     static                          
           ___if_lbl00124   0x00c450    program     static                          
             work_handler   0x00c48c    program     extern /fred/mandm/mandm/mandm_vector.c
                idle_loop   0x00c4ae    program     extern /fred/mandm/mandm/mandm_vector.c
       ___return_lbl00127   0x00c4ba    program     static                          
                   P1wait   0x00c4bc    program     extern /fred/mandm/mandm/mandm_vector.c
                   P2wait   0x00c4c2    program     extern /fred/mandm/mandm/mandm_vector.c
        Clear_All_Buttons   0x00c4c8    program     extern /fred/mandm/mandm/mandm_vector.c
             buzzer_ticks   0x00c4dc    program     extern /fred/mandm/mandm/mandm_vector.c
             voice1_ticks   0x00c4e8    program     extern /fred/mandm/mandm/mandm_vector.c
             voice2_ticks   0x00c4f6    program     extern /fred/mandm/mandm/mandm_vector.c
         slow_timer_start   0x00c504    program     extern /fred/mandm/mandm/mandm_vector.c
                   __pa_0   0x00c512    program     static /fred/mandm/mandm/mandm_vector.c
                   __pa_1   0x00c51c    program     static /fred/mandm/mandm/mandm_vector.c
            s_put_n_chars   0x00c524    program     static C:\MCC18\v3_39\src\traditional\stdclib\vfprintf.c
                 vfprintf   0x00c550    program     extern C:\MCC18\v3_39\src\traditional\stdclib\vfprintf.c
              __tmplbl_85   0x00c57a    program     static                          
              __tmplbl_44   0x00ce28    program     static                          
              __tmplbl_43   0x00ce42    program     static                          
                   __pa_0   0x00ce64    program     static C:\MCC18\v3_39\src\traditional\stdclib\vfprintf.c
                   __pa_1   0x00ce6c    program     static C:\MCC18\v3_39\src\traditional\stdclib\vfprintf.c
                   __pa_2   0x00ce76    program     static C:\MCC18\v3_39\src\traditional\stdclib\vfprintf.c
                   __pa_3   0x00ce80    program     static C:\MCC18\v3_39\src\traditional\stdclib\vfprintf.c
                   __pa_4   0x00ce98    program     static C:\MCC18\v3_39\src\traditional\stdclib\vfprintf.c
                   __pa_5   0x00ceac    program     static C:\MCC18\v3_39\src\traditional\stdclib\vfprintf.c
                   __pa_6   0x00cec8    program     static C:\MCC18\v3_39\src\traditional\stdclib\vfprintf.c
                   __pa_7   0x00ced2    program     static C:\MCC18\v3_39\src\traditional\stdclib\vfprintf.c
                   __pa_8   0x00cede    program     static C:\MCC18\v3_39\src\traditional\stdclib\vfprintf.c
                   __pa_9   0x00cf00    program     static C:\MCC18\v3_39\src\traditional\stdclib\vfprintf.c
                  __pa_10   0x00cf20    program     static C:\MCC18\v3_39\src\traditional\stdclib\vfprintf.c
                  __pa_11   0x00cf2e    program     static C:\MCC18\v3_39\src\traditional\stdclib\vfprintf.c
                  __pa_12   0x00cf44    program     static C:\MCC18\v3_39\src\traditional\stdclib\vfprintf.c
                  __pa_13   0x00cf5e    program     static C:\MCC18\v3_39\src\traditional\stdclib\vfprintf.c
                  __pa_14   0x00cf76    program     static C:\MCC18\v3_39\src\traditional\stdclib\vfprintf.c
                  __pa_15   0x00cf86    program     static C:\MCC18\v3_39\src\traditional\stdclib\vfprintf.c
                  __pa_16   0x00cf9c    program     static C:\MCC18\v3_39\src\traditional\stdclib\vfprintf.c
                  __pa_17   0x00cfae    program     static C:\MCC18\v3_39\src\traditional\stdclib\vfprintf.c
                  __pa_18   0x00cfc0    program     static C:\MCC18\v3_39\src\traditional\stdclib\vfprintf.c
                  __pa_19   0x00cfca    program     static C:\MCC18\v3_39\src\traditional\stdclib\vfprintf.c
                  __pa_20   0x00cfda    program     static C:\MCC18\v3_39\src\traditional\stdclib\vfprintf.c
                  __pa_21   0x00cfea    program     static C:\MCC18\v3_39\src\traditional\stdclib\vfprintf.c
              __tmplbl_42   0x00cffa    program     static                          
                  __pa_22   0x00cffa    program     static C:\MCC18\v3_39\src\traditional\stdclib\vfprintf.c
                  __pa_23   0x00d006    program     static C:\MCC18\v3_39\src\traditional\stdclib\vfprintf.c
                  __pa_24   0x00d014    program     static C:\MCC18\v3_39\src\traditional\stdclib\vfprintf.c
                  __pa_25   0x00d01c    program     static C:\MCC18\v3_39\src\traditional\stdclib\vfprintf.c
                  __pa_26   0x00d026    program     static C:\MCC18\v3_39\src\traditional\stdclib\vfprintf.c
                  __pa_27   0x00d030    program     static C:\MCC18\v3_39\src\traditional\stdclib\vfprintf.c
                  __pa_28   0x00d038    program     static C:\MCC18\v3_39\src\traditional\stdclib\vfprintf.c
                  __pa_29   0x00d046    program     static C:\MCC18\v3_39\src\traditional\stdclib\vfprintf.c
                  __pa_30   0x00d062    program     static C:\MCC18\v3_39\src\traditional\stdclib\vfprintf.c
                  __pa_31   0x00d07c    program     static C:\MCC18\v3_39\src\traditional\stdclib\vfprintf.c
                  __pa_32   0x00d096    program     static C:\MCC18\v3_39\src\traditional\stdclib\vfprintf.c
                  __pa_33   0x00d0ae    program     static C:\MCC18\v3_39\src\traditional\stdclib\vfprintf.c
                  __pa_34   0x00d0b8    program     static C:\MCC18\v3_39\src\traditional\stdclib\vfprintf.c
                  __pa_35   0x00d0c6    program     static C:\MCC18\v3_39\src\traditional\stdclib\vfprintf.c
                  __pa_36   0x00d0ce    program     static C:\MCC18\v3_39\src\traditional\stdclib\vfprintf.c
                  __pa_37   0x00d0d8    program     static C:\MCC18\v3_39\src\traditional\stdclib\vfprintf.c
                  __pa_38   0x00d0e8    program     static C:\MCC18\v3_39\src\traditional\stdclib\vfprintf.c
                  __pa_39   0x00d0f6    program     static C:\MCC18\v3_39\src\traditional\stdclib\vfprintf.c
                  __pa_40   0x00d102    program     static C:\MCC18\v3_39\src\traditional\stdclib\vfprintf.c
                  __pa_41   0x00d10e    program     static C:\MCC18\v3_39\src\traditional\stdclib\vfprintf.c
                  __pa_42   0x00d116    program     static C:\MCC18\v3_39\src\traditional\stdclib\vfprintf.c
                  __pa_43   0x00d120    program     static C:\MCC18\v3_39\src\traditional\stdclib\vfprintf.c
                  __pa_44   0x00d126    program     static C:\MCC18\v3_39\src\traditional\stdclib\vfprintf.c
                  __pa_45   0x00d130    program     static C:\MCC18\v3_39\src\traditional\stdclib\vfprintf.c
                  __pa_46   0x00d13c    program     static C:\MCC18\v3_39\src\traditional\stdclib\vfprintf.c
                 FLO1632U   0x00d146    program     extern C:\MCC18\v3_39\src\traditional\math\cast16FP.asm
                 FLO1632S   0x00d14a    program     extern C:\MCC18\v3_39\src\traditional\math\cast16FP.asm
                jI2F16Beg   0x00d15a    program     static C:\MCC18\v3_39\src\traditional\math\cast16FP.asm
                 FLO3232U   0x00d170    program     extern C:\MCC18\v3_39\src\traditional\math\cast32FP.asm
                 FLO3232S   0x00d174    program     extern C:\MCC18\v3_39\src\traditional\math\cast32FP.asm
                jI2F32Beg   0x00d18c    program     static C:\MCC18\v3_39\src\traditional\math\cast32FP.asm
                    FPS32   0x00d1a6    program     extern C:\MCC18\v3_39\src\traditional\math\addFP.asm
                    FPA32   0x00d1a8    program     extern C:\MCC18\v3_39\src\traditional\math\addFP.asm
                jBANotInf   0x00d1c6    program     static C:\MCC18\v3_39\src\traditional\math\addFP.asm
                 jANotInf   0x00d1d0    program     static C:\MCC18\v3_39\src\traditional\math\addFP.asm
                 jBNotInf   0x00d1de    program     static C:\MCC18\v3_39\src\traditional\math\addFP.asm
            jDifOrPosSign   0x00d1f2    program     static C:\MCC18\v3_39\src\traditional\math\addFP.asm
             jNotBothZero   0x00d1f6    program     static C:\MCC18\v3_39\src\traditional\math\addFP.asm
                 jAltBexp   0x00d222    program     static C:\MCC18\v3_39\src\traditional\math\addFP.asm
              jAandWsetup   0x00d234    program     static C:\MCC18\v3_39\src\traditional\math\addFP.asm
                 jANotNeg   0x00d264    program     static C:\MCC18\v3_39\src\traditional\math\addFP.asm
                 jWNotNeg   0x00d278    program     static C:\MCC18\v3_39\src\traditional\math\addFP.asm
               jShiftLoop   0x00d27e    program     static C:\MCC18\v3_39\src\traditional\math\addFP.asm
               jShiftDone   0x00d28c    program     static C:\MCC18\v3_39\src\traditional\math\addFP.asm
                jSignDone   0x00d2bc    program     static C:\MCC18\v3_39\src\traditional\math\addFP.asm
               jFinalSign   0x00d2cc    program     static C:\MCC18\v3_39\src\traditional\math\addFP.asm
                    FPD32   0x00d2d4    program     extern C:\MCC18\v3_39\src\traditional\math\divFP.asm
                 jANotInf   0x00d2f2    program     static C:\MCC18\v3_39\src\traditional\math\divFP.asm
              jSignedZero   0x00d2fc    program     static C:\MCC18\v3_39\src\traditional\math\divFP.asm
                jANotZero   0x00d306    program     static C:\MCC18\v3_39\src\traditional\math\divFP.asm
                    jLoop   0x00d32e    program     static C:\MCC18\v3_39\src\traditional\math\divFP.asm
                jNoAdjust   0x00d352    program     static C:\MCC18\v3_39\src\traditional\math\divFP.asm
                    jNext   0x00d354    program     static C:\MCC18\v3_39\src\traditional\math\divFP.asm
                    FPM32   0x00d37a    program     extern C:\MCC18\v3_39\src\traditional\math\mulFP.asm
                 jANotInf   0x00d398    program     static C:\MCC18\v3_39\src\traditional\math\mulFP.asm
              jBothFinite   0x00d3a6    program     static C:\MCC18\v3_39\src\traditional\math\mulFP.asm
                jHaveZero   0x00d3ae    program     static C:\MCC18\v3_39\src\traditional\math\mulFP.asm
             jBothNotZero   0x00d3b2    program     static C:\MCC18\v3_39\src\traditional\math\mulFP.asm
                 FXD1616S   0x00d454    program     extern C:\MCC18\v3_39\src\traditional\math\fxd1616s.asm
                  DA1616S   0x00d466    program     static C:\MCC18\v3_39\src\traditional\math\fxd1616s.asm
                   D1616S   0x00d476    program     static C:\MCC18\v3_39\src\traditional\math\fxd1616s.asm
                 D1616SOK   0x00d480    program     static C:\MCC18\v3_39\src\traditional\math\fxd1616s.asm
                D1616SNEG   0x00d484    program     static C:\MCC18\v3_39\src\traditional\math\fxd1616s.asm
                  D1616SX   0x00d496    program     static C:\MCC18\v3_39\src\traditional\math\fxd1616s.asm
                 FXD3232S   0x00d4a0    program     extern C:\MCC18\v3_39\src\traditional\math\fxd3232s.asm
                  DA3232S   0x00d4ba    program     static C:\MCC18\v3_39\src\traditional\math\fxd3232s.asm
                   D3232S   0x00d4d0    program     static C:\MCC18\v3_39\src\traditional\math\fxd3232s.asm
                 D3232SOK   0x00d4da    program     static C:\MCC18\v3_39\src\traditional\math\fxd3232s.asm
                D3232SNEG   0x00d4de    program     static C:\MCC18\v3_39\src\traditional\math\fxd3232s.asm
                  D3232SX   0x00d4fe    program     static C:\MCC18\v3_39\src\traditional\math\fxd3232s.asm
                 FXM2424U   0x00d508    program     extern C:\MCC18\v3_39\src\traditional\math\fxm2424u.asm
                  INT3216   0x00d59a    program     extern C:\MCC18\v3_39\src\traditional\math\castFP16.asm
                     jMax   0x00d5aa    program     static C:\MCC18\v3_39\src\traditional\math\castFP16.asm
                  jMaxPos   0x00d5ae    program     static C:\MCC18\v3_39\src\traditional\math\castFP16.asm
                  jMaxNeg   0x00d5b8    program     static C:\MCC18\v3_39\src\traditional\math\castFP16.asm
                    jZero   0x00d5c0    program     static C:\MCC18\v3_39\src\traditional\math\castFP16.asm
                  jNotInf   0x00d5c6    program     static C:\MCC18\v3_39\src\traditional\math\castFP16.asm
                    jLoop   0x00d5d6    program     static C:\MCC18\v3_39\src\traditional\math\castFP16.asm
                jLoopExit   0x00d5e6    program     static C:\MCC18\v3_39\src\traditional\math\castFP16.asm
                    jExit   0x00d5f6    program     static C:\MCC18\v3_39\src\traditional\math\castFP16.asm
                  INT3232   0x00d5f8    program     extern C:\MCC18\v3_39\src\traditional\math\castFP32.asm
                     jMax   0x00d608    program     static C:\MCC18\v3_39\src\traditional\math\castFP32.asm
                  jMaxPos   0x00d60c    program     static C:\MCC18\v3_39\src\traditional\math\castFP32.asm
                   jWr123   0x00d612    program     static C:\MCC18\v3_39\src\traditional\math\castFP32.asm
                  jMaxNeg   0x00d61a    program     static C:\MCC18\v3_39\src\traditional\math\castFP32.asm
                    jZero   0x00d620    program     static C:\MCC18\v3_39\src\traditional\math\castFP32.asm
                  jWrZ123   0x00d622    program     static C:\MCC18\v3_39\src\traditional\math\castFP32.asm
                  jNotInf   0x00d626    program     static C:\MCC18\v3_39\src\traditional\math\castFP32.asm
                    jLoop   0x00d638    program     static C:\MCC18\v3_39\src\traditional\math\castFP32.asm
                jLoopExit   0x00d64c    program     static C:\MCC18\v3_39\src\traditional\math\castFP32.asm
                    jExit   0x00d664    program     static C:\MCC18\v3_39\src\traditional\math\castFP32.asm
            __FpReturnNaN   0x00d666    program     extern C:\MCC18\v3_39\src\traditional\math\packFP.asm
                 __FpExit   0x00d672    program     extern C:\MCC18\v3_39\src\traditional\math\packFP.asm
        __FpReturnSignInf   0x00d674    program     extern C:\MCC18\v3_39\src\traditional\math\packFP.asm
         __FpReturnNegInf   0x00d678    program     extern C:\MCC18\v3_39\src\traditional\math\packFP.asm
         __FpReturnPosInf   0x00d67e    program     extern C:\MCC18\v3_39\src\traditional\math\packFP.asm
           jReturnPosInf0   0x00d682    program     static C:\MCC18\v3_39\src\traditional\math\packFP.asm
               jZero1and2   0x00d686    program     static C:\MCC18\v3_39\src\traditional\math\packFP.asm
       __FpReturnSignZero   0x00d68c    program     extern C:\MCC18\v3_39\src\traditional\math\packFP.asm
        __FpReturnNegZero   0x00d690    program     extern C:\MCC18\v3_39\src\traditional\math\packFP.asm
        __FpReturnPosZero   0x00d698    program     extern C:\MCC18\v3_39\src\traditional\math\packFP.asm
                 __FpPack   0x00d69e    program     extern C:\MCC18\v3_39\src\traditional\math\packFP.asm
                  jPkLoop   0x00d6ac    program     static C:\MCC18\v3_39\src\traditional\math\packFP.asm
             jPkShiftDone   0x00d6c8    program     static C:\MCC18\v3_39\src\traditional\math\packFP.asm
               jPkRoundIt   0x00d6de    program     static C:\MCC18\v3_39\src\traditional\math\packFP.asm
              __FpReturnW   0x00d6f6    program     extern C:\MCC18\v3_39\src\traditional\math\packFP.asm
             jPkRoundDone   0x00d6f6    program     static C:\MCC18\v3_39\src\traditional\math\packFP.asm
              __FpUnPackA   0x00d716    program     extern C:\MCC18\v3_39\src\traditional\math\UnpackFP.asm
                  jUnpkA1   0x00d720    program     static C:\MCC18\v3_39\src\traditional\math\UnpackFP.asm
                 jUnpkANZ   0x00d72e    program     static C:\MCC18\v3_39\src\traditional\math\UnpackFP.asm
                  jUnpkA2   0x00d738    program     static C:\MCC18\v3_39\src\traditional\math\UnpackFP.asm
                 jUnpkNaN   0x00d742    program     static C:\MCC18\v3_39\src\traditional\math\UnpackFP.asm
              __FpUnPackB   0x00d746    program     extern C:\MCC18\v3_39\src\traditional\math\UnpackFP.asm
                  jUnpkB1   0x00d750    program     static C:\MCC18\v3_39\src\traditional\math\UnpackFP.asm
                 jUnpkBNZ   0x00d75e    program     static C:\MCC18\v3_39\src\traditional\math\UnpackFP.asm
                  jUnpkB2   0x00d768    program     static C:\MCC18\v3_39\src\traditional\math\UnpackFP.asm
                 FXM1616U   0x00d772    program     extern C:\MCC18\v3_39\src\traditional\math\fxm1616u.asm
                 FXM1616S   0x00d7ae    program     extern C:\MCC18\v3_39\src\traditional\math\fxm1616s.asm
               TSIGN1616A   0x00d7fa    program     static C:\MCC18\v3_39\src\traditional\math\fxm1616s.asm
            my_struct_cmp   0x00d808    program     extern /fred/mandm/mandm/power.c
            motor_control   0x00d83c    program     extern /fred/mandm/mandm/power.c
             emotor_power   0x00da68    program     extern /fred/mandm/mandm/power.c
            emotor_relays   0x00dab2    program     extern /fred/mandm/mandm/power.c
        emotor_slow_start   0x00dab6    program     extern /fred/mandm/mandm/power.c
         emotor_slow_stop   0x00dace    program     extern /fred/mandm/mandm/power.c
                emotor_cw   0x00dad2    program     extern /fred/mandm/mandm/power.c
        emotor_is_all_off   0x00dafa    program     extern /fred/mandm/mandm/power.c
        emotor_switch_ccw   0x00db04    program     extern /fred/mandm/mandm/power.c
         emotor_switch_cw   0x00db12    program     extern /fred/mandm/mandm/power.c
         emotor_power_off   0x00db18    program     extern /fred/mandm/mandm/power.c
          emotor_power_on   0x00db1e    program     extern /fred/mandm/mandm/power.c
               emotor_v24   0x00db24    program     extern /fred/mandm/mandm/power.c
                relay_v24   0x00db42    program     extern /fred/mandm/mandm/power.c
                blink_led   0x00db48    program     extern /fred/mandm/mandm/power.c
          is_led_blinking   0x00dbee    program     extern /fred/mandm/mandm/power.c
                   __pa_0   0x00dc06    program     static /fred/mandm/mandm/power.c
                   __pa_1   0x00dc14    program     static /fred/mandm/mandm/power.c
                   __pa_2   0x00dc1e    program     static /fred/mandm/mandm/power.c
                   __pa_3   0x00dc28    program     static /fred/mandm/mandm/power.c
                   __pa_4   0x00dc30    program     static /fred/mandm/mandm/power.c
                   __pa_5   0x00dc3e    program     static /fred/mandm/mandm/power.c
                   __pa_6   0x00dc56    program     static /fred/mandm/mandm/power.c
                   __pa_7   0x00dc64    program     static /fred/mandm/mandm/power.c
                   __pa_8   0x00dc6e    program     static /fred/mandm/mandm/power.c
                   __pa_9   0x00dc76    program     static /fred/mandm/mandm/power.c
                  __pa_10   0x00dc7e    program     static /fred/mandm/mandm/power.c
                  __pa_11   0x00dc86    program     static /fred/mandm/mandm/power.c
           init_motordata   0x00dc8e    program     extern /fred/mandm/mandm/config.c
                   __pa_0   0x00df04    program     static /fred/mandm/mandm/config.c
                   __pa_1   0x00df1a    program     static /fred/mandm/mandm/config.c
                   __pa_2   0x00df22    program     static /fred/mandm/mandm/config.c
                   __pa_3   0x00df2a    program     static /fred/mandm/mandm/config.c
                   __pa_4   0x00df34    program     static /fred/mandm/mandm/config.c
                   __pa_5   0x00df3c    program     static /fred/mandm/mandm/config.c
                   __pa_6   0x00df4c    program     static /fred/mandm/mandm/config.c
                   __pa_7   0x00df54    program     static /fred/mandm/mandm/config.c
                   __pa_8   0x00df62    program     static /fred/mandm/mandm/config.c
                   __pa_9   0x00df6e    program     static /fred/mandm/mandm/config.c
                  __pa_10   0x00df74    program     static /fred/mandm/mandm/config.c
                  __pa_11   0x00df7e    program     static /fred/mandm/mandm/config.c
                  __pa_12   0x00df84    program     static /fred/mandm/mandm/config.c
                  __pa_13   0x00df88    program     static /fred/mandm/mandm/config.c
                  __pa_14   0x00df8c    program     static /fred/mandm/mandm/config.c
                  __pa_15   0x00df96    program     static /fred/mandm/mandm/config.c
                  __pa_16   0x00df9e    program     static /fred/mandm/mandm/config.c
                  __pa_17   0x00dfa8    program     static /fred/mandm/mandm/config.c
                  __pa_18   0x00dfb8    program     static /fred/mandm/mandm/config.c
                  __pa_19   0x00dfc0    program     static /fred/mandm/mandm/config.c
                   s_crit   0x00dfc6    program     extern /fred/mandm/mandm/crit.c 
           ___if_lbl00001   0x00dff4    program     static                          
           ___if_lbl00002   0x00e018    program     static                          
           ___if_lbl00003   0x00e038    program     static                          
       ___return_lbl00000   0x00e058    program     static                          
           ___if_lbl00004   0x00e058    program     static                          
                   e_crit   0x00e060    program     extern /fred/mandm/mandm/crit.c 
           ___if_lbl00006   0x00e08c    program     static                          
         ___else_lbl00008   0x00e0be    program     static                          
           ___if_lbl00007   0x00e0c6    program     static                          
       ___return_lbl00005   0x00e0c6    program     static                          
               clear_crit   0x00e0c8    program     extern /fred/mandm/mandm/crit.c 
        write_data_eeprom   0x00e0d2    program     extern /fred/mandm/mandm/crit.c 
         read_data_eeprom   0x00e158    program     extern /fred/mandm/mandm/crit.c 
                   __pa_0   0x00e182    program     static /fred/mandm/mandm/crit.c 
                   __pa_1   0x00e190    program     static /fred/mandm/mandm/crit.c 
                   __pa_2   0x00e19c    program     static /fred/mandm/mandm/crit.c 
                   __pa_3   0x00e1aa    program     static /fred/mandm/mandm/crit.c 
                   memcmp   0x00e1b8    program     extern C:\MCC18\v3_39\src\traditional\stdclib\memcmp.asm
                    jLoop   0x00e1d8    program     static C:\MCC18\v3_39\src\traditional\stdclib\memcmp.asm
              _4jContinue   0x00e1e4    program     static C:\MCC18\v3_39\src\traditional\stdclib\memcmp.asm
                   _5jEnd   0x00e1ee    program     static C:\MCC18\v3_39\src\traditional\stdclib\memcmp.asm
                     jEnd   0x00e1f4    program     static C:\MCC18\v3_39\src\traditional\stdclib\memcmp.asm
            strcpypgm2ram   0x00e20a    program     extern C:\MCC18\v3_39\src\traditional\stdclib\scpyp2r.asm
                    jLoop   0x00e230    program     static C:\MCC18\v3_39\src\traditional\stdclib\scpyp2r.asm
                     jEnd   0x00e23a    program     static C:\MCC18\v3_39\src\traditional\stdclib\scpyp2r.asm
                strlenpgm   0x00e23c    program     extern C:\MCC18\v3_39\src\traditional\stdclib\slenpgm.asm
                    jLoop   0x00e25a    program     static C:\MCC18\v3_39\src\traditional\stdclib\slenpgm.asm
                   _2jEnd   0x00e270    program     static C:\MCC18\v3_39\src\traditional\stdclib\slenpgm.asm
                     jEnd   0x00e272    program     static C:\MCC18\v3_39\src\traditional\stdclib\slenpgm.asm
                  strncpy   0x00e286    program     extern C:\MCC18\v3_39\src\traditional\stdclib\strncpy.asm
                    jLoop   0x00e2ae    program     static C:\MCC18\v3_39\src\traditional\stdclib\strncpy.asm
              _4jContinue   0x00e2ba    program     static C:\MCC18\v3_39\src\traditional\stdclib\strncpy.asm
                   _5jEnd   0x00e2c4    program     static C:\MCC18\v3_39\src\traditional\stdclib\strncpy.asm
                     jEnd   0x00e2d0    program     static C:\MCC18\v3_39\src\traditional\stdclib\strncpy.asm
           strncpypgm2ram   0x00e2e2    program     extern C:\MCC18\v3_39\src\traditional\stdclib\sncpyp2r.asm
                    jLoop   0x00e308    program     static C:\MCC18\v3_39\src\traditional\stdclib\sncpyp2r.asm
              _3jContinue   0x00e314    program     static C:\MCC18\v3_39\src\traditional\stdclib\sncpyp2r.asm
                   _4jEnd   0x00e31e    program     static C:\MCC18\v3_39\src\traditional\stdclib\sncpyp2r.asm
                     jEnd   0x00e32c    program     static C:\MCC18\v3_39\src\traditional\stdclib\sncpyp2r.asm
                   strlen   0x00e32e    program     extern C:\MCC18\v3_39\src\traditional\stdclib\strlen.asm
                    jLoop   0x00e33e    program     static C:\MCC18\v3_39\src\traditional\stdclib\strlen.asm
                     jEnd   0x00e348    program     static C:\MCC18\v3_39\src\traditional\stdclib\strlen.asm
               config_pic   0x00e34a    program     extern /fred/mandm/mandm/hwconf.c
           ___if_lbl00001   0x00e378    program     static                          
               __tmplbl_1   0x00e37e    program     static                          
               __tmplbl_0   0x00e384    program     static                          
           ___if_lbl00003   0x00e38a    program     static                          
        ___while_lbl00004   0x00e3e8    program     static                          
        ___while_lbl00005   0x00e3f6    program     static                          
           ___if_lbl00006   0x00e498    program     static                          
       ___return_lbl00000   0x00e498    program     static                          
                start_pic   0x00e4a0    program     extern /fred/mandm/mandm/hwconf.c
       start_workerthread   0x00e4c6    program     extern /fred/mandm/mandm/hwconf.c
                  sprintf   0x00e4ca    program     extern C:\MCC18\v3_39\src\traditional\stdclib\sprintf.c
                _do_cinit   0x00e576    program     extern C:\MCC18\v3_39\src\traditional\startup\c018iz.c
                     test   0x00e590    program     static                          
                copy_loop   0x00e5e8    program     static                          
            copy_one_byte   0x00e5ee    program     static                          
             done_copying   0x00e5fc    program     static                          
                     done   0x00e612    program     static                          
       ___return_lbl00002   0x00e612    program     static                          
                 OpenXLCD   0x00e614    program     extern /fred/mandm/mandm/xlcd/openxlcd.c
                   __pa_0   0x00e69c    program     static /fred/mandm/mandm/xlcd/openxlcd.c
                   __pa_1   0x00e6a6    program     static /fred/mandm/mandm/xlcd/openxlcd.c
               Open2USART   0x00e6ae    program     extern C:\MCC18\v3_39\src\pmc_common\USART\u2open.c
                     putc   0x00e738    program     extern C:\MCC18\v3_39\src\traditional\stdclib\putc.c
                  FXM3232   0x00e7bc    program     extern C:\MCC18\v3_39\src\traditional\math\fxm3232.c
       ___return_lbl00000   0x00e82a    program     static                          
                  OpenADC   0x00e82c    program     extern C:\MCC18\v3_39\src\pmc_common\ADC\adcopen.c
              putrs2USART   0x00e89a    program     extern C:\MCC18\v3_39\src\pmc_common\USART\u2putrs.c
              Write_b_eep   0x00e8fe    program     extern C:\MCC18\v3_39\src\pmc_common\EEP\write_B.c
               Read_b_eep   0x00e95e    program     extern C:\MCC18\v3_39\src\pmc_common\EEP\read_B.c
       ___return_lbl00000   0x00e9ae    program     static                          
                putrsXLCD   0x00e9ba    program     extern /fred/mandm/mandm/xlcd/putrxlcd.c
                   __pa_0   0x00e9f6    program     static /fred/mandm/mandm/xlcd/putrxlcd.c
               puts2USART   0x00ea0e    program     extern C:\MCC18\v3_39\src\pmc_common\USART\u2puts.c
             SetDDRamAddr   0x00ea5a    program     extern /fred/mandm/mandm/xlcd/setddram.c
                   __pa_0   0x00ea94    program     static /fred/mandm/mandm/xlcd/setddram.c
             SetCGRamAddr   0x00eaa2    program     extern /fred/mandm/mandm/xlcd/setcgram.c
                   __pa_0   0x00eadc    program     static /fred/mandm/mandm/xlcd/setcgram.c
                 FXD3232U   0x00eaea    program     extern C:\MCC18\v3_39\src\traditional\math\fxd3232u.c
                     loop   0x00eaf8    program     static                          
                   _false   0x00eb2c    program     static                          
       ___return_lbl00000   0x00eb30    program     static                          
            WriteDataXLCD   0x00eb32    program     extern /fred/mandm/mandm/xlcd/writdata.c
                   __pa_0   0x00eb6a    program     static /fred/mandm/mandm/xlcd/writdata.c
             WriteCmdXLCD   0x00eb78    program     extern /fred/mandm/mandm/xlcd/wcmdxlcd.c
                   __pa_0   0x00ebb0    program     static /fred/mandm/mandm/xlcd/wcmdxlcd.c
             ReadDataXLCD   0x00ebbe    program     extern /fred/mandm/mandm/xlcd/readdata.c
             ReadAddrXLCD   0x00ec02    program     extern /fred/mandm/mandm/xlcd/readaddr.c
               OpenTimer3   0x00ec46    program     extern C:\MCC18\v3_39\src\pmc_common\Timers\t3open.c
                 putsXLCD   0x00ec88    program     extern /fred/mandm/mandm/xlcd/putsxlcd.c
                   __pa_0   0x00ecba    program     static /fred/mandm/mandm/xlcd/putsxlcd.c
               Read2USART   0x00ecca    program     extern C:\MCC18\v3_39\src\pmc_common\USART\u2read.c
                    srand   0x00ed08    program     extern C:\MCC18\v3_39\src\traditional\stdclib\rand.asm
                     rand   0x00ed16    program     extern C:\MCC18\v3_39\src\traditional\stdclib\rand.asm
              WriteTimer3   0x00ed44    program     extern C:\MCC18\v3_39\src\pmc_common\Timers\t3write.c
              WriteTimer0   0x00ed7c    program     extern C:\MCC18\v3_39\src\pmc_common\Timers\t0write.c
               OpenTimer0   0x00edb4    program     extern C:\MCC18\v3_39\src\pmc_common\Timers\t0open.c
               OpenTimer4   0x00edec    program     extern C:\MCC18\v3_39\src\pmc_common\Timers\t4open.c
             Delay10KTCYx   0x00ee22    program     extern C:\MCC18\v3_39\src\traditional\delays\d10ktcyx.asm
                    D10Kx   0x00ee2c    program     static C:\MCC18\v3_39\src\traditional\delays\d10ktcyx.asm
                   D10K_1   0x00ee2e    program     static C:\MCC18\v3_39\src\traditional\delays\d10ktcyx.asm
       _D10KTCYXCODE_0010   0x00ee32    program     static C:\MCC18\v3_39\src\traditional\delays\d10ktcyx.asm
                    D10Kl   0x00ee3a    program     static C:\MCC18\v3_39\src\traditional\delays\d10ktcyx.asm
       _D10KTCYXCODE_001C   0x00ee3e    program     static C:\MCC18\v3_39\src\traditional\delays\d10ktcyx.asm
              Write2USART   0x00ee50    program     extern C:\MCC18\v3_39\src\pmc_common\USART\u2write.c
               SetChanADC   0x00ee7e    program     extern C:\MCC18\v3_39\src\pmc_common\ADC\adcsetch.c
                 FXD1616U   0x00eeac    program     extern C:\MCC18\v3_39\src\traditional\math\fxd1616u.c
                     loop   0x00eeb6    program     static                          
                  endloop   0x00eed2    program     static                          
       ___return_lbl00000   0x00eed6    program     static                          
                 BusyXLCD   0x00eed8    program     extern /fred/mandm/mandm/xlcd/busyxlcd.c
                   __pa_0   0x00eef2    program     static /fred/mandm/mandm/xlcd/busyxlcd.c
                  isdigit   0x00ef04    program     extern C:\MCC18\v3_39\src\traditional\stdclib\isdigit.asm
                   jMatch   0x00ef24    program     static C:\MCC18\v3_39\src\traditional\stdclib\isdigit.asm
                 jNoMatch   0x00ef26    program     static C:\MCC18\v3_39\src\traditional\stdclib\isdigit.asm
                 _startup   0x00ef28    program     extern C:\MCC18\v3_39\src\traditional\startup\c018iz.c
                     loop   0x00ef3c    program     static                          
       ___return_lbl00001   0x00ef46    program     static                          
            __zero_memory   0x00ef48    program     extern C:\MCC18\v3_39\src\traditional\proc\p18F8722.asm
               zero_block   0x00ef56    program     static C:\MCC18\v3_39\src\traditional\proc\p18F8722.asm
                   loop_h   0x00ef56    program     static C:\MCC18\v3_39\src\traditional\proc\p18F8722.asm
                compare_l   0x00ef5e    program     static C:\MCC18\v3_39\src\traditional\proc\p18F8722.asm
                   loop_l   0x00ef60    program     static C:\MCC18\v3_39\src\traditional\proc\p18F8722.asm
              _usart_putc   0x00ef68    program     extern C:\MCC18\v3_39\src\pmc_common\USART\_usartpc.asm
                     loop   0x00ef78    program     static C:\MCC18\v3_39\src\pmc_common\USART\_usartpc.asm
              Delay10TCYx   0x00ef84    program     extern C:\MCC18\v3_39\src\traditional\delays\d10tcyx.asm
                     D10x   0x00ef8c    program     static C:\MCC18\v3_39\src\traditional\delays\d10tcyx.asm
        _D10TCYXCODE_000A   0x00ef8e    program     static C:\MCC18\v3_39\src\traditional\delays\d10tcyx.asm
        _D10TCYXCODE_000C   0x00ef90    program     static C:\MCC18\v3_39\src\traditional\delays\d10tcyx.asm
        _D10TCYXCODE_000E   0x00ef92    program     static C:\MCC18\v3_39\src\traditional\delays\d10tcyx.asm
                    D10_1   0x00ef94    program     static C:\MCC18\v3_39\src\traditional\delays\d10tcyx.asm
                  ReadADC   0x00ef9a    program     extern C:\MCC18\v3_39\src\pmc_common\ADC\adcread.c
                 s_digits   0x00efac    program     static C:\MCC18\v3_39\src\traditional\stdclib\vfprintf.c
                 Busy_eep   0x00efbe    program     extern C:\MCC18\v3_39\src\pmc_common\EEP\busy_eep.c
               ConvertADC   0x00efc4    program     extern C:\MCC18\v3_39\src\pmc_common\ADC\adcconv.c
                   __init   0x00efc8    program     extern C:\MCC18\v3_39\src\traditional\stdclib\__init.c
               __config_0   0x300001    program     static /fred/mandm/mandm/mandm8722.c
               __config_1   0x300002    program     static /fred/mandm/mandm/mandm8722.c
               __config_2   0x300003    program     static /fred/mandm/mandm/mandm8722.c
               __config_3   0x300004    program     static /fred/mandm/mandm/mandm8722.c
               __config_4   0x300005    program     static /fred/mandm/mandm/mandm8722.c
               __config_5   0x300006    program     static /fred/mandm/mandm/mandm8722.c
               __config_6   0x300008    program     static /fred/mandm/mandm/mandm8722.c
               __config_7   0x300009    program     static /fred/mandm/mandm/mandm8722.c
               __config_8   0x30000a    program     static /fred/mandm/mandm/mandm8722.c
               __config_9   0x30000b    program     static /fred/mandm/mandm/mandm8722.c
              __config_10   0x30000c    program     static /fred/mandm/mandm/mandm8722.c
              __config_11   0x30000d    program     static /fred/mandm/mandm/mandm8722.c
                  __tmp_0   0x000000       data     static C:\MCC18\v3_39\src\pmc_common\ADC\adcopen.c
                  __tmp_0   0x000000       data     static C:\MCC18\v3_39\src\pmc_common\USART\u2open.c
                  __tmp_0   0x000000       data     static /fred/mandm/mandm/daq.c  
                  __tmp_0   0x000000       data     static /fred/mandm/mandm/crit.c 
                  __tmp_0   0x000000       data     static /fred/mandm/mandm/power.c
                  __tmp_0   0x000000       data     static /fred/mandm/mandm/mandm8722.c
                  __tmp_0   0x000000       data     static C:\MCC18\v3_39\src\traditional\stdclib\sprintf.c
                  __tmp_0   0x000000       data     static C:\MCC18\v3_39\src\pmc_common\ADC\adcread.c
                  __tmp_0   0x000000       data     static C:\MCC18\v3_39\src\pmc_common\EEP\read_B.c
                  __tmp_0   0x000000       data     static C:\MCC18\v3_39\src\pmc_common\ADC\adcsetch.c
                  __tmp_0   0x000000       data     static C:\MCC18\v3_39\src\traditional\stdclib\putc.c
                  __tmp_0   0x000000       data     static C:\MCC18\v3_39\src\traditional\stdclib\vfprintf.c
                  __tmp_0   0x000000       data     static C:\MCC18\v3_39\src\pmc_common\EEP\write_B.c
                     SIGN   0x000024       data     extern C:\MCC18\v3_39\src\traditional\math\cmath18.asm
            __FPFLAGSbits   0x000025       data     extern C:\MCC18\v3_39\src\traditional\math\cmath18.asm
                __FPFLAGS   0x000025       data     extern C:\MCC18\v3_39\src\traditional\math\cmath18.asm
                  __REMB3   0x000026       data     extern C:\MCC18\v3_39\src\traditional\math\aarg.asm
                 __AARGB7   0x000026       data     extern C:\MCC18\v3_39\src\traditional\math\aarg.asm
                  __REMB2   0x000027       data     extern C:\MCC18\v3_39\src\traditional\math\aarg.asm
                 __AARGB6   0x000027       data     extern C:\MCC18\v3_39\src\traditional\math\aarg.asm
                  __REMB1   0x000028       data     extern C:\MCC18\v3_39\src\traditional\math\aarg.asm
                 __AARGB5   0x000028       data     extern C:\MCC18\v3_39\src\traditional\math\aarg.asm
                 __AARGB4   0x000029       data     extern C:\MCC18\v3_39\src\traditional\math\aarg.asm
                  __REMB0   0x000029       data     extern C:\MCC18\v3_39\src\traditional\math\aarg.asm
                 __AARGB3   0x00002a       data     extern C:\MCC18\v3_39\src\traditional\math\aarg.asm
                 __AARGB2   0x00002b       data     extern C:\MCC18\v3_39\src\traditional\math\aarg.asm
                 __AARGB1   0x00002c       data     extern C:\MCC18\v3_39\src\traditional\math\aarg.asm
                 __AARGB0   0x00002d       data     extern C:\MCC18\v3_39\src\traditional\math\aarg.asm
                   __AEXP   0x00002e       data     extern C:\MCC18\v3_39\src\traditional\math\aarg.asm
                 __BARGB3   0x00002f       data     extern C:\MCC18\v3_39\src\traditional\math\barg.asm
                 __BARGB2   0x000030       data     extern C:\MCC18\v3_39\src\traditional\math\barg.asm
                 __BARGB1   0x000031       data     extern C:\MCC18\v3_39\src\traditional\math\barg.asm
                 __BARGB0   0x000032       data     extern C:\MCC18\v3_39\src\traditional\math\barg.asm
                   __BEXP   0x000033       data     extern C:\MCC18\v3_39\src\traditional\math\barg.asm
                 __TEMPB3   0x000034       data     extern C:\MCC18\v3_39\src\traditional\math\temparg.asm
                 __TEMPB2   0x000035       data     extern C:\MCC18\v3_39\src\traditional\math\temparg.asm
                 __TEMPB1   0x000036       data     extern C:\MCC18\v3_39\src\traditional\math\temparg.asm
                 __TEMPB0   0x000037       data     extern C:\MCC18\v3_39\src\traditional\math\temparg.asm
                   __TEMP   0x000037       data     extern C:\MCC18\v3_39\src\traditional\math\temparg.asm
                  __tmp_1   0x000038       data     static /fred/mandm/mandm/mandm_vector.c
            DelayCounter2   0x00003c       data     extern C:\MCC18\v3_39\src\traditional\delays\delayd2.asm
            DelayCounter1   0x00003d       data     extern C:\MCC18\v3_39\src\traditional\delays\delayd1.asm
                TIMERFLAG   0x000060       data     extern /fred/mandm/mandm/mandm8722.c
               PRIPOWEROK   0x000061       data     extern /fred/mandm/mandm/mandm8722.c
                 FORCEOUT   0x000062       data     extern /fred/mandm/mandm/mandm8722.c
               WORKERFLAG   0x000063       data     extern /fred/mandm/mandm/mandm8722.c
              critc_level   0x000064       data     extern /fred/mandm/mandm/mandm8722.c
                   KEYNUM   0x000065       data     extern /fred/mandm/mandm/mandm8722.c
                 FAILSAFE   0x000066       data     extern /fred/mandm/mandm/mandm8722.c
            SYSTEM_STABLE   0x000067       data     extern /fred/mandm/mandm/mandm8722.c
                HOLD_PROC   0x000068       data     extern /fred/mandm/mandm/mandm8722.c
             DISPLAY_MODE   0x000069       data     extern /fred/mandm/mandm/mandm8722.c
                 D_UPDATE   0x00006a       data     extern /fred/mandm/mandm/mandm8722.c
             GLITCH_CHECK   0x00006b       data     extern /fred/mandm/mandm/mandm8722.c
                  COOLING   0x00006c       data     extern /fred/mandm/mandm/mandm8722.c
               UPDATE_EEP   0x00006d       data     extern /fred/mandm/mandm/mandm8722.c
              RESET_ZEROS   0x00006e       data     extern /fred/mandm/mandm/mandm8722.c
                 SYS_DATA   0x00006f       data     extern /fred/mandm/mandm/mandm8722.c
                 MOD_DATA   0x000070       data     extern /fred/mandm/mandm/mandm8722.c
                 SYS_HELP   0x000071       data     extern /fred/mandm/mandm/mandm8722.c
                 SET_TLOG   0x000072       data     extern /fred/mandm/mandm/mandm8722.c
                   WDT_TO   0x000073       data     extern /fred/mandm/mandm/mandm8722.c
                   EEP_ER   0x000074       data     extern /fred/mandm/mandm/mandm8722.c
                    TWEAK   0x000075       data     extern /fred/mandm/mandm/mandm8722.c
            TEST_SPINNERS   0x000076       data     extern /fred/mandm/mandm/mandm8722.c
              alarm_codes   0x000077       data     extern /fred/mandm/mandm/mandm8722.c
                     mode   0x000079       data     extern /fred/mandm/mandm/mandm8722.c
              RS232_DEBUG   0x000088       data     extern /fred/mandm/mandm/mandm8722.c
              critc_count   0x000089       data     extern /fred/mandm/mandm/mandm8722.c
                     sign   0x00008d       data     extern /fred/mandm/mandm/mandm8722.c
                 lp_speed   0x00008e       data     extern /fred/mandm/mandm/mandm8722.c
                     lp_x   0x000092       data     extern /fred/mandm/mandm/mandm8722.c
               build_date   0x000096       data     extern /fred/mandm/mandm/mandm8722.c
               build_time   0x000099       data     extern /fred/mandm/mandm/mandm8722.c
                      dsi   0x00009c       data     extern /fred/mandm/mandm/mandm8722.c
                      msi   0x00009d       data     extern /fred/mandm/mandm/mandm8722.c
                 help_pos   0x00009e       data     extern /fred/mandm/mandm/mandm8722.c
                       t1   0x00009f       data     extern /fred/mandm/mandm/mandm8722.c
                       t2   0x0000a3       data     extern /fred/mandm/mandm/mandm8722.c
                       t3   0x0000a7       data     extern /fred/mandm/mandm/mandm8722.c
                       t4   0x0000ab       data     extern /fred/mandm/mandm/mandm8722.c
                       t5   0x0000af       data     extern /fred/mandm/mandm/mandm8722.c
                       t6   0x0000b3       data     extern /fred/mandm/mandm/mandm8722.c
                       t7   0x0000b7       data     extern /fred/mandm/mandm/mandm8722.c
                   t_time   0x0000bb       data     extern /fred/mandm/mandm/mandm8722.c
                 voltfrak   0x0000bf       data     extern /fred/mandm/mandm/mandm8722.c
                   ahfrak   0x0000c3       data     extern /fred/mandm/mandm/mandm8722.c
                      Vin   0x0000c7       data     extern /fred/mandm/mandm/mandm8722.c
                   chrg_v   0x0000cb       data     extern /fred/mandm/mandm/mandm8722.c
                 vbatol_t   0x0000cf       data     extern /fred/mandm/mandm/mandm8722.c
                  solar_t   0x0000d3       data     extern /fred/mandm/mandm/mandm8722.c
                 IDLEFLAG   0x0000d7       data     extern /fred/mandm/mandm/mandm8722.c
              knob_to_pot   0x0000d8       data     extern /fred/mandm/mandm/mandm8722.c
                       iw   0x0000d9       data     extern /fred/mandm/mandm/mandm8722.c
                       ip   0x0000dd       data     extern /fred/mandm/mandm/mandm8722.c
                  adc_cal   0x0000e1       data     extern /fred/mandm/mandm/mandm8722.c
                    CRITC   0x0000f1       data     extern /fred/mandm/mandm/mandm8722.c
                   LCD_OK   0x0000f2       data     extern /fred/mandm/mandm/mandm8722.c
               cable_type   0x0000f3       data     extern /fred/mandm/mandm/mandm8722.c
                     TLOG   0x0000f4       data     extern /fred/mandm/mandm/mandm8722.c
                     prom   0x0000f5       data     static C:\MCC18\v3_39\src\traditional\startup\c018iz.c
                curr_byte   0x0000f8       data     static C:\MCC18\v3_39\src\traditional\startup\c018iz.c
               curr_entry   0x0000fa       data     static C:\MCC18\v3_39\src\traditional\startup\c018iz.c
                 data_ptr   0x0000fc       data     static C:\MCC18\v3_39\src\traditional\startup\c018iz.c
                   almctr   0x0000ff       data     extern /fred/mandm/mandm/mandm8722.c
                       ds   0x000100       data     extern /fred/mandm/mandm/mandm8722.c
             change_count   0x0001fc       data     extern /fred/mandm/mandm/daq.c  
                   change   0x0001fe       data     static /fred/mandm/mandm/daq.c  
                 bootstr2   0x000200       data     extern /fred/mandm/mandm/mandm8722.c
            USART2_Status   0x0002fb       data     extern C:\MCC18\v3_39\src\pmc_common\USART\u2defs.c
                        z   0x0002fc       data     static /fred/mandm/mandm/hwconf.c
                        z   0x0002fd       data     static /fred/mandm/mandm/config.c
                       p1   0x000300       data     extern /fred/mandm/mandm/mandm8722.c
                       p2   0x000310       data     extern /fred/mandm/mandm/mandm8722.c
                  termstr   0x000320       data     extern /fred/mandm/mandm/mandm8722.c
                      csd   0x000340       data     extern /fred/mandm/mandm/mandm8722.c
                      cid   0x000352       data     extern /fred/mandm/mandm/mandm8722.c
                    HCRIT   0x000364       data     extern /fred/mandm/mandm/mandm8722.c
                    LCRIT   0x00036c       data     extern /fred/mandm/mandm/mandm8722.c
                       f1   0x000374       data     extern /fred/mandm/mandm/mandm8722.c
                       f2   0x00037b       data     extern /fred/mandm/mandm/mandm8722.c
                       f3   0x000382       data     extern /fred/mandm/mandm/mandm8722.c
                       f4   0x000389       data     extern /fred/mandm/mandm/mandm8722.c
                       p3   0x000390       data     extern /fred/mandm/mandm/mandm8722.c
             alarm_buffer   0x0003a0       data     extern /fred/mandm/mandm/mandm8722.c
                   smooth   0x0003ca       data     extern /fred/mandm/mandm/mandm8722.c
                emo_bumps   0x0003ea       data     static /fred/mandm/mandm/mandm_vector.c
            HID_IDLE_FLAG   0x0003eb       data     static /fred/mandm/mandm/mandm_vector.c
                   b_read   0x0003ec       data     static /fred/mandm/mandm/mandm_vector.c
                      ZAP   0x0003ed       data     static /fred/mandm/mandm/mandm_vector.c
                 vc_count   0x0003ee       data     static /fred/mandm/mandm/mandm_vector.c
             worker_timer   0x0003ef       data     static /fred/mandm/mandm/mandm_vector.c
               real_ticks   0x0003f0       data     static /fred/mandm/mandm/mandm_vector.c
               fast_ticks   0x0003f1       data     static /fred/mandm/mandm/mandm_vector.c
                   rx_tmp   0x0003f2       data     static /fred/mandm/mandm/mandm_vector.c
                 band_max   0x0003f4       data     static /fred/mandm/mandm/mandm_vector.c
                 hid_idle   0x0003f8       data     static /fred/mandm/mandm/mandm_vector.c
                     Seed   0x0003fc       data     static C:\MCC18\v3_39\src\traditional\stdclib\rand.asm
                    H_tmp   0x0003fe       data     static /fred/mandm/mandm/crit.c 
                    H_tmp   0x0003ff       data     static /fred/mandm/mandm/crit.c 
                    knob1   0x000400       data     extern /fred/mandm/mandm/mandm8722.c
                    knob2   0x000410       data     extern /fred/mandm/mandm/mandm8722.c
                   Cursor   0x000420       data     extern /fred/mandm/mandm/mandm8722.c
                    YNKEY   0x000423       data     extern /fred/mandm/mandm/mandm8722.c
               OldEncoder   0x000424       data     extern /fred/mandm/mandm/mandm8722.c
                     qei1   0x000429       data     extern /fred/mandm/mandm/mandm8722.c
                  emodump   0x000440       data     extern /fred/mandm/mandm/mandm8722.c
                        s   0x000470       data     static /fred/mandm/mandm/mandm8722.c
                   dcount   0x000476       data     static /fred/mandm/mandm/mandm8722.c
                   dcount   0x00047a       data     static /fred/mandm/mandm/mandm8722.c
                 timetemp   0x00047e       data     static /fred/mandm/mandm/mandm8722.c
                clocks_hz   0x000482       data     static /fred/mandm/mandm/mandm8722.c
                   dcount   0x000486       data     static /fred/mandm/mandm/mandm8722.c
                 timetemp   0x00048a       data     static /fred/mandm/mandm/mandm8722.c
                clocks_hz   0x00048e       data     static /fred/mandm/mandm/mandm8722.c
                   dcount   0x000492       data     static /fred/mandm/mandm/mandm8722.c
                 timetemp   0x000496       data     static /fred/mandm/mandm/mandm8722.c
                clocks_hz   0x00049a       data     static /fred/mandm/mandm/mandm8722.c
                   dcount   0x00049e       data     static /fred/mandm/mandm/mandm8722.c
                 timetemp   0x0004a2       data     static /fred/mandm/mandm/mandm8722.c
                clocks_hz   0x0004a6       data     static /fred/mandm/mandm/mandm8722.c
                   dcount   0x0004aa       data     static /fred/mandm/mandm/mandm8722.c
                 timetemp   0x0004ae       data     static /fred/mandm/mandm/mandm8722.c
                clocks_hz   0x0004b2       data     static /fred/mandm/mandm/mandm8722.c
                   dcount   0x0004b6       data     static /fred/mandm/mandm/mandm8722.c
                 timetemp   0x0004ba       data     static /fred/mandm/mandm/mandm8722.c
                clocks_hz   0x0004be       data     static /fred/mandm/mandm/mandm8722.c
                   dcount   0x0004c2       data     static /fred/mandm/mandm/mandm8722.c
                 timetemp   0x0004c6       data     static /fred/mandm/mandm/mandm8722.c
                clocks_hz   0x0004ca       data     static /fred/mandm/mandm/mandm8722.c
                        n   0x0004ce       data     static /fred/mandm/mandm/mandm8722.c
                        z   0x0004cf       data     static /fred/mandm/mandm/mandm8722.c
                     slow   0x0004d0       data     static /fred/mandm/mandm/mandm8722.c
                        z   0x0004d1       data     static /fred/mandm/mandm/mandm8722.c
                  s_delay   0x0004d2       data     static /fred/mandm/mandm/mandm8722.c
                 new_menu   0x0004d3       data     static /fred/mandm/mandm/mandm8722.c
               check_menu   0x0004d4       data     static /fred/mandm/mandm/mandm8722.c
                  get_out   0x0004d5       data     static /fred/mandm/mandm/mandm8722.c
         knob_to_pot_save   0x0004d6       data     static /fred/mandm/mandm/mandm8722.c
                 menu_pos   0x0004d7       data     static /fred/mandm/mandm/mandm8722.c
               hms_string   0x0004d8       data     extern /fred/mandm/mandm/mandm8722.c
                    a10_x   0x0004e8       data     extern /fred/mandm/mandm/mandm8722.c
                    a10_y   0x0004ea       data     extern /fred/mandm/mandm/mandm8722.c
                    a10_z   0x0004ec       data     extern /fred/mandm/mandm/mandm8722.c
                 worktick   0x0004ee       data     extern /fred/mandm/mandm/mandm8722.c
                    C2RAW   0x0004f0       data     extern /fred/mandm/mandm/mandm8722.c
             glitch_count   0x0004f1       data     extern /fred/mandm/mandm/mandm8722.c
                   cdelay   0x0004f2       data     extern /fred/mandm/mandm/mandm8722.c
              SLOW_STATUS   0x0004f3       data     extern /fred/mandm/mandm/mandm8722.c
                       c1   0x0004f4       data     static /fred/mandm/mandm/mandm_vector.c
                       c2   0x0004f5       data     static /fred/mandm/mandm/mandm_vector.c
                    timer   0x0004f6       data     static /fred/mandm/mandm/mandm_vector.c
                   timerl   0x0004f8       data     static /fred/mandm/mandm/mandm_vector.c
                motordata   0x000500       data     extern /fred/mandm/mandm/mandm8722.c
                motor_ptr   0x0005ae       data     extern /fred/mandm/mandm/mandm8722.c
                lastmotor   0x0005b0       data     static /fred/mandm/mandm/power.c
                   button   0x000600       data     extern /fred/mandm/mandm/mandm8722.c
                        R   0x000601       data     extern /fred/mandm/mandm/mandm8722.c
                        C   0x000640       data     extern /fred/mandm/mandm/mandm8722.c
                        V   0x00064a       data     extern /fred/mandm/mandm/mandm8722.c
                    lcd18   0x0006a7       data     extern /fred/mandm/mandm/mandm8722.c
               slow_timer   0x0006a8       data     extern /fred/mandm/mandm/mandm8722.c
               last_shape   0x0006ac       data     static /fred/mandm/mandm/mandm8722.c
                       ib   0x0006ad       data     static /fred/mandm/mandm/mandm8722.c
                        h   0x0006ae       data     static /fred/mandm/mandm/mandm8722.c
                        m   0x0006b2       data     static /fred/mandm/mandm/mandm8722.c
                        s   0x0006b6       data     static /fred/mandm/mandm/mandm8722.c
                        h   0x0006ba       data     static /fred/mandm/mandm/mandm8722.c
                        m   0x0006be       data     static /fred/mandm/mandm/mandm8722.c
                        s   0x0006c2       data     static /fred/mandm/mandm/mandm8722.c
                        i   0x0006c6       data     static /fred/mandm/mandm/mandm8722.c
                  alm_num   0x0006c7       data     static /fred/mandm/mandm/mandm8722.c
                 position   0x0006c8       data     static /fred/mandm/mandm/mandm8722.c
                    shape   0x0006c9       data     static /fred/mandm/mandm/mandm8722.c
                 deadband   0x0006ca       data     static /fred/mandm/mandm/mandm8722.c
              was_running   0x0006ce       data     static /fred/mandm/mandm/mandm8722.c
                old_error   0x0006d0       data     static /fred/mandm/mandm/mandm8722.c
                 old_menu   0x0006d2       data     static /fred/mandm/mandm/mandm8722.c
                 menu_pos   0x0006d3       data     static /fred/mandm/mandm/mandm8722.c
                 menu_pos   0x0006d4       data     static /fred/mandm/mandm/mandm8722.c
                 eep_char   0x0006d5       data     static /fred/mandm/mandm/mandm8722.c
                        z   0x0006d6       data     static /fred/mandm/mandm/mandm8722.c
                     rawp   0x0006d7       data     extern /fred/mandm/mandm/mandm8722.c
                     rawa   0x0006e3       data     extern /fred/mandm/mandm/mandm8722.c
                        i   0x0006ef       data     static /fred/mandm/mandm/daq.c  
                        z   0x0006f1       data     static /fred/mandm/mandm/daq.c  
                  a10_x_t   0x0006f3       data     static /fred/mandm/mandm/daq.c  
                  a10_y_t   0x0006f7       data     static /fred/mandm/mandm/daq.c  
                  a10_z_t   0x0006fb       data     static /fred/mandm/mandm/daq.c  
                        z   0x0006ff       data     static /fred/mandm/mandm/daq.c  
                 SSP2CON2   0x000f62       data     extern C:\MCC18\v3_39\src\traditional\proc\p18F8722.asm
             SSP2CON2bits   0x000f62       data     extern C:\MCC18\v3_39\src\traditional\proc\p18F8722.asm
                 SSP2CON1   0x000f63       data     extern C:\MCC18\v3_39\src\traditional\proc\p18F8722.asm
             SSP2CON1bits   0x000f63       data     extern C:\MCC18\v3_39\src\traditional\proc\p18F8722.asm
                 SSP2STAT   0x000f64       data     extern C:\MCC18\v3_39\src\traditional\proc\p18F8722.asm
             SSP2STATbits   0x000f64       data     extern C:\MCC18\v3_39\src\traditional\proc\p18F8722.asm
                  SSP2ADD   0x000f65       data     extern C:\MCC18\v3_39\src\traditional\proc\p18F8722.asm
                  SSP2BUF   0x000f66       data     extern C:\MCC18\v3_39\src\traditional\proc\p18F8722.asm
                 ECCP2DEL   0x000f67       data     extern C:\MCC18\v3_39\src\traditional\proc\p18F8722.asm
             ECCP2DELbits   0x000f67       data     extern C:\MCC18\v3_39\src\traditional\proc\p18F8722.asm
                  ECCP2AS   0x000f68       data     extern C:\MCC18\v3_39\src\traditional\proc\p18F8722.asm
              ECCP2ASbits   0x000f68       data     extern C:\MCC18\v3_39\src\traditional\proc\p18F8722.asm
             ECCP3DELbits   0x000f69       data     extern C:\MCC18\v3_39\src\traditional\proc\p18F8722.asm
                 ECCP3DEL   0x000f69       data     extern C:\MCC18\v3_39\src\traditional\proc\p18F8722.asm
              ECCP3ASbits   0x000f6a       data     extern C:\MCC18\v3_39\src\traditional\proc\p18F8722.asm
                  ECCP3AS   0x000f6a       data     extern C:\MCC18\v3_39\src\traditional\proc\p18F8722.asm
               RCSTA2bits   0x000f6b       data     extern C:\MCC18\v3_39\src\traditional\proc\p18F8722.asm
                   RCSTA2   0x000f6b       data     extern C:\MCC18\v3_39\src\traditional\proc\p18F8722.asm
                   TXSTA2   0x000f6c       data     extern C:\MCC18\v3_39\src\traditional\proc\p18F8722.asm
               TXSTA2bits   0x000f6c       data     extern C:\MCC18\v3_39\src\traditional\proc\p18F8722.asm
                   TXREG2   0x000f6d       data     extern C:\MCC18\v3_39\src\traditional\proc\p18F8722.asm
                   RCREG2   0x000f6e       data     extern C:\MCC18\v3_39\src\traditional\proc\p18F8722.asm
                   SPBRG2   0x000f6f       data     extern C:\MCC18\v3_39\src\traditional\proc\p18F8722.asm
              CCP5CONbits   0x000f70       data     extern C:\MCC18\v3_39\src\traditional\proc\p18F8722.asm
                  CCP5CON   0x000f70       data     extern C:\MCC18\v3_39\src\traditional\proc\p18F8722.asm
                    CCPR5   0x000f71       data     extern C:\MCC18\v3_39\src\traditional\proc\p18F8722.asm
                   CCPR5L   0x000f71       data     extern C:\MCC18\v3_39\src\traditional\proc\p18F8722.asm
                   CCPR5H   0x000f72       data     extern C:\MCC18\v3_39\src\traditional\proc\p18F8722.asm
              CCP4CONbits   0x000f73       data     extern C:\MCC18\v3_39\src\traditional\proc\p18F8722.asm
                  CCP4CON   0x000f73       data     extern C:\MCC18\v3_39\src\traditional\proc\p18F8722.asm
                    CCPR4   0x000f74       data     extern C:\MCC18\v3_39\src\traditional\proc\p18F8722.asm
                   CCPR4L   0x000f74       data     extern C:\MCC18\v3_39\src\traditional\proc\p18F8722.asm
                   CCPR4H   0x000f75       data     extern C:\MCC18\v3_39\src\traditional\proc\p18F8722.asm
                T4CONbits   0x000f76       data     extern C:\MCC18\v3_39\src\traditional\proc\p18F8722.asm
                    T4CON   0x000f76       data     extern C:\MCC18\v3_39\src\traditional\proc\p18F8722.asm
                      PR4   0x000f77       data     extern C:\MCC18\v3_39\src\traditional\proc\p18F8722.asm
                     TMR4   0x000f78       data     extern C:\MCC18\v3_39\src\traditional\proc\p18F8722.asm
                 ECCP1DEL   0x000f79       data     extern C:\MCC18\v3_39\src\traditional\proc\p18F8722.asm
             ECCP1DELbits   0x000f79       data     extern C:\MCC18\v3_39\src\traditional\proc\p18F8722.asm
             BAUDCON2bits   0x000f7c       data     extern C:\MCC18\v3_39\src\traditional\proc\p18F8722.asm
                 BAUDCON2   0x000f7c       data     extern C:\MCC18\v3_39\src\traditional\proc\p18F8722.asm
                  SPBRGH2   0x000f7d       data     extern C:\MCC18\v3_39\src\traditional\proc\p18F8722.asm
                  BAUDCON   0x000f7e       data     extern C:\MCC18\v3_39\src\traditional\proc\p18F8722.asm
                 BAUDCON1   0x000f7e       data     extern C:\MCC18\v3_39\src\traditional\proc\p18F8722.asm
              BAUDCONbits   0x000f7e       data     extern C:\MCC18\v3_39\src\traditional\proc\p18F8722.asm
             BAUDCON1bits   0x000f7e       data     extern C:\MCC18\v3_39\src\traditional\proc\p18F8722.asm
                   SPBRGH   0x000f7f       data     extern C:\MCC18\v3_39\src\traditional\proc\p18F8722.asm
                  SPBRGH1   0x000f7f       data     extern C:\MCC18\v3_39\src\traditional\proc\p18F8722.asm
                PORTAbits   0x000f80       data     extern C:\MCC18\v3_39\src\traditional\proc\p18F8722.asm
                    PORTA   0x000f80       data     extern C:\MCC18\v3_39\src\traditional\proc\p18F8722.asm
                PORTBbits   0x000f81       data     extern C:\MCC18\v3_39\src\traditional\proc\p18F8722.asm
                    PORTB   0x000f81       data     extern C:\MCC18\v3_39\src\traditional\proc\p18F8722.asm
                    PORTC   0x000f82       data     extern C:\MCC18\v3_39\src\traditional\proc\p18F8722.asm
                PORTCbits   0x000f82       data     extern C:\MCC18\v3_39\src\traditional\proc\p18F8722.asm
                PORTDbits   0x000f83       data     extern C:\MCC18\v3_39\src\traditional\proc\p18F8722.asm
                    PORTD   0x000f83       data     extern C:\MCC18\v3_39\src\traditional\proc\p18F8722.asm
                PORTEbits   0x000f84       data     extern C:\MCC18\v3_39\src\traditional\proc\p18F8722.asm
                    PORTE   0x000f84       data     extern C:\MCC18\v3_39\src\traditional\proc\p18F8722.asm
                    PORTF   0x000f85       data     extern C:\MCC18\v3_39\src\traditional\proc\p18F8722.asm
                PORTFbits   0x000f85       data     extern C:\MCC18\v3_39\src\traditional\proc\p18F8722.asm
                PORTGbits   0x000f86       data     extern C:\MCC18\v3_39\src\traditional\proc\p18F8722.asm
                    PORTG   0x000f86       data     extern C:\MCC18\v3_39\src\traditional\proc\p18F8722.asm
                PORTHbits   0x000f87       data     extern C:\MCC18\v3_39\src\traditional\proc\p18F8722.asm
                    PORTH   0x000f87       data     extern C:\MCC18\v3_39\src\traditional\proc\p18F8722.asm
                    PORTJ   0x000f88       data     extern C:\MCC18\v3_39\src\traditional\proc\p18F8722.asm
                PORTJbits   0x000f88       data     extern C:\MCC18\v3_39\src\traditional\proc\p18F8722.asm
                     LATA   0x000f89       data     extern C:\MCC18\v3_39\src\traditional\proc\p18F8722.asm
                 LATAbits   0x000f89       data     extern C:\MCC18\v3_39\src\traditional\proc\p18F8722.asm
                 LATBbits   0x000f8a       data     extern C:\MCC18\v3_39\src\traditional\proc\p18F8722.asm
                     LATB   0x000f8a       data     extern C:\MCC18\v3_39\src\traditional\proc\p18F8722.asm
                     LATC   0x000f8b       data     extern C:\MCC18\v3_39\src\traditional\proc\p18F8722.asm
                 LATCbits   0x000f8b       data     extern C:\MCC18\v3_39\src\traditional\proc\p18F8722.asm
                     LATD   0x000f8c       data     extern C:\MCC18\v3_39\src\traditional\proc\p18F8722.asm
                 LATDbits   0x000f8c       data     extern C:\MCC18\v3_39\src\traditional\proc\p18F8722.asm
                     LATE   0x000f8d       data     extern C:\MCC18\v3_39\src\traditional\proc\p18F8722.asm
                 LATEbits   0x000f8d       data     extern C:\MCC18\v3_39\src\traditional\proc\p18F8722.asm
                     LATF   0x000f8e       data     extern C:\MCC18\v3_39\src\traditional\proc\p18F8722.asm
                 LATFbits   0x000f8e       data     extern C:\MCC18\v3_39\src\traditional\proc\p18F8722.asm
                     LATG   0x000f8f       data     extern C:\MCC18\v3_39\src\traditional\proc\p18F8722.asm
                 LATGbits   0x000f8f       data     extern C:\MCC18\v3_39\src\traditional\proc\p18F8722.asm
                     LATH   0x000f90       data     extern C:\MCC18\v3_39\src\traditional\proc\p18F8722.asm
                 LATHbits   0x000f90       data     extern C:\MCC18\v3_39\src\traditional\proc\p18F8722.asm
                     LATJ   0x000f91       data     extern C:\MCC18\v3_39\src\traditional\proc\p18F8722.asm
                 LATJbits   0x000f91       data     extern C:\MCC18\v3_39\src\traditional\proc\p18F8722.asm
                     DDRA   0x000f92       data     extern C:\MCC18\v3_39\src\traditional\proc\p18F8722.asm
                 DDRAbits   0x000f92       data     extern C:\MCC18\v3_39\src\traditional\proc\p18F8722.asm
                    TRISA   0x000f92       data     extern C:\MCC18\v3_39\src\traditional\proc\p18F8722.asm
                TRISAbits   0x000f92       data     extern C:\MCC18\v3_39\src\traditional\proc\p18F8722.asm
                    TRISB   0x000f93       data     extern C:\MCC18\v3_39\src\traditional\proc\p18F8722.asm
                TRISBbits   0x000f93       data     extern C:\MCC18\v3_39\src\traditional\proc\p18F8722.asm
                     DDRB   0x000f93       data     extern C:\MCC18\v3_39\src\traditional\proc\p18F8722.asm
                 DDRBbits   0x000f93       data     extern C:\MCC18\v3_39\src\traditional\proc\p18F8722.asm
                    TRISC   0x000f94       data     extern C:\MCC18\v3_39\src\traditional\proc\p18F8722.asm
                TRISCbits   0x000f94       data     extern C:\MCC18\v3_39\src\traditional\proc\p18F8722.asm
                 DDRCbits   0x000f94       data     extern C:\MCC18\v3_39\src\traditional\proc\p18F8722.asm
                     DDRC   0x000f94       data     extern C:\MCC18\v3_39\src\traditional\proc\p18F8722.asm
                    TRISD   0x000f95       data     extern C:\MCC18\v3_39\src\traditional\proc\p18F8722.asm
                TRISDbits   0x000f95       data     extern C:\MCC18\v3_39\src\traditional\proc\p18F8722.asm
                 DDRDbits   0x000f95       data     extern C:\MCC18\v3_39\src\traditional\proc\p18F8722.asm
                     DDRD   0x000f95       data     extern C:\MCC18\v3_39\src\traditional\proc\p18F8722.asm
                     DDRE   0x000f96       data     extern C:\MCC18\v3_39\src\traditional\proc\p18F8722.asm
                 DDREbits   0x000f96       data     extern C:\MCC18\v3_39\src\traditional\proc\p18F8722.asm
                TRISEbits   0x000f96       data     extern C:\MCC18\v3_39\src\traditional\proc\p18F8722.asm
                    TRISE   0x000f96       data     extern C:\MCC18\v3_39\src\traditional\proc\p18F8722.asm
                 DDRFbits   0x000f97       data     extern C:\MCC18\v3_39\src\traditional\proc\p18F8722.asm
                     DDRF   0x000f97       data     extern C:\MCC18\v3_39\src\traditional\proc\p18F8722.asm
                TRISFbits   0x000f97       data     extern C:\MCC18\v3_39\src\traditional\proc\p18F8722.asm
                    TRISF   0x000f97       data     extern C:\MCC18\v3_39\src\traditional\proc\p18F8722.asm
                TRISGbits   0x000f98       data     extern C:\MCC18\v3_39\src\traditional\proc\p18F8722.asm
                 DDRGbits   0x000f98       data     extern C:\MCC18\v3_39\src\traditional\proc\p18F8722.asm
                    TRISG   0x000f98       data     extern C:\MCC18\v3_39\src\traditional\proc\p18F8722.asm
                     DDRG   0x000f98       data     extern C:\MCC18\v3_39\src\traditional\proc\p18F8722.asm
                    TRISH   0x000f99       data     extern C:\MCC18\v3_39\src\traditional\proc\p18F8722.asm
                TRISHbits   0x000f99       data     extern C:\MCC18\v3_39\src\traditional\proc\p18F8722.asm
                     DDRH   0x000f99       data     extern C:\MCC18\v3_39\src\traditional\proc\p18F8722.asm
                 DDRHbits   0x000f99       data     extern C:\MCC18\v3_39\src\traditional\proc\p18F8722.asm
                    TRISJ   0x000f9a       data     extern C:\MCC18\v3_39\src\traditional\proc\p18F8722.asm
                TRISJbits   0x000f9a       data     extern C:\MCC18\v3_39\src\traditional\proc\p18F8722.asm
                     DDRJ   0x000f9a       data     extern C:\MCC18\v3_39\src\traditional\proc\p18F8722.asm
                 DDRJbits   0x000f9a       data     extern C:\MCC18\v3_39\src\traditional\proc\p18F8722.asm
              OSCTUNEbits   0x000f9b       data     extern C:\MCC18\v3_39\src\traditional\proc\p18F8722.asm
                  OSCTUNE   0x000f9b       data     extern C:\MCC18\v3_39\src\traditional\proc\p18F8722.asm
               MEMCONbits   0x000f9c       data     extern C:\MCC18\v3_39\src\traditional\proc\p18F8722.asm
                   MEMCON   0x000f9c       data     extern C:\MCC18\v3_39\src\traditional\proc\p18F8722.asm
                 PIE1bits   0x000f9d       data     extern C:\MCC18\v3_39\src\traditional\proc\p18F8722.asm
                     PIE1   0x000f9d       data     extern C:\MCC18\v3_39\src\traditional\proc\p18F8722.asm
                     PIR1   0x000f9e       data     extern C:\MCC18\v3_39\src\traditional\proc\p18F8722.asm
                 PIR1bits   0x000f9e       data     extern C:\MCC18\v3_39\src\traditional\proc\p18F8722.asm
                     IPR1   0x000f9f       data     extern C:\MCC18\v3_39\src\traditional\proc\p18F8722.asm
                 IPR1bits   0x000f9f       data     extern C:\MCC18\v3_39\src\traditional\proc\p18F8722.asm
                 PIE2bits   0x000fa0       data     extern C:\MCC18\v3_39\src\traditional\proc\p18F8722.asm
                     PIE2   0x000fa0       data     extern C:\MCC18\v3_39\src\traditional\proc\p18F8722.asm
                     PIR2   0x000fa1       data     extern C:\MCC18\v3_39\src\traditional\proc\p18F8722.asm
                 PIR2bits   0x000fa1       data     extern C:\MCC18\v3_39\src\traditional\proc\p18F8722.asm
                     IPR2   0x000fa2       data     extern C:\MCC18\v3_39\src\traditional\proc\p18F8722.asm
                 IPR2bits   0x000fa2       data     extern C:\MCC18\v3_39\src\traditional\proc\p18F8722.asm
                 PIE3bits   0x000fa3       data     extern C:\MCC18\v3_39\src\traditional\proc\p18F8722.asm
                     PIE3   0x000fa3       data     extern C:\MCC18\v3_39\src\traditional\proc\p18F8722.asm
                     PIR3   0x000fa4       data     extern C:\MCC18\v3_39\src\traditional\proc\p18F8722.asm
                 PIR3bits   0x000fa4       data     extern C:\MCC18\v3_39\src\traditional\proc\p18F8722.asm
                 IPR3bits   0x000fa5       data     extern C:\MCC18\v3_39\src\traditional\proc\p18F8722.asm
                     IPR3   0x000fa5       data     extern C:\MCC18\v3_39\src\traditional\proc\p18F8722.asm
                   EECON1   0x000fa6       data     extern C:\MCC18\v3_39\src\traditional\proc\p18F8722.asm
               EECON1bits   0x000fa6       data     extern C:\MCC18\v3_39\src\traditional\proc\p18F8722.asm
                   EECON2   0x000fa7       data     extern C:\MCC18\v3_39\src\traditional\proc\p18F8722.asm
                   EEDATA   0x000fa8       data     extern C:\MCC18\v3_39\src\traditional\proc\p18F8722.asm
                    EEADR   0x000fa9       data     extern C:\MCC18\v3_39\src\traditional\proc\p18F8722.asm
                   EEADRH   0x000faa       data     extern C:\MCC18\v3_39\src\traditional\proc\p18F8722.asm
                RCSTAbits   0x000fab       data     extern C:\MCC18\v3_39\src\traditional\proc\p18F8722.asm
               RCSTA1bits   0x000fab       data     extern C:\MCC18\v3_39\src\traditional\proc\p18F8722.asm
                   RCSTA1   0x000fab       data     extern C:\MCC18\v3_39\src\traditional\proc\p18F8722.asm
                    RCSTA   0x000fab       data     extern C:\MCC18\v3_39\src\traditional\proc\p18F8722.asm
                    TXSTA   0x000fac       data     extern C:\MCC18\v3_39\src\traditional\proc\p18F8722.asm
                TXSTAbits   0x000fac       data     extern C:\MCC18\v3_39\src\traditional\proc\p18F8722.asm
                   TXSTA1   0x000fac       data     extern C:\MCC18\v3_39\src\traditional\proc\p18F8722.asm
               TXSTA1bits   0x000fac       data     extern C:\MCC18\v3_39\src\traditional\proc\p18F8722.asm
                   TXREG1   0x000fad       data     extern C:\MCC18\v3_39\src\traditional\proc\p18F8722.asm
                    TXREG   0x000fad       data     extern C:\MCC18\v3_39\src\traditional\proc\p18F8722.asm
                   RCREG1   0x000fae       data     extern C:\MCC18\v3_39\src\traditional\proc\p18F8722.asm
                    RCREG   0x000fae       data     extern C:\MCC18\v3_39\src\traditional\proc\p18F8722.asm
                    SPBRG   0x000faf       data     extern C:\MCC18\v3_39\src\traditional\proc\p18F8722.asm
                   SPBRG1   0x000faf       data     extern C:\MCC18\v3_39\src\traditional\proc\p18F8722.asm
                   PSPCON   0x000fb0       data     extern C:\MCC18\v3_39\src\traditional\proc\p18F8722.asm
               PSPCONbits   0x000fb0       data     extern C:\MCC18\v3_39\src\traditional\proc\p18F8722.asm
                T3CONbits   0x000fb1       data     extern C:\MCC18\v3_39\src\traditional\proc\p18F8722.asm
                    T3CON   0x000fb1       data     extern C:\MCC18\v3_39\src\traditional\proc\p18F8722.asm
                    TMR3L   0x000fb2       data     extern C:\MCC18\v3_39\src\traditional\proc\p18F8722.asm
                    TMR3H   0x000fb3       data     extern C:\MCC18\v3_39\src\traditional\proc\p18F8722.asm
                CMCONbits   0x000fb4       data     extern C:\MCC18\v3_39\src\traditional\proc\p18F8722.asm
                    CMCON   0x000fb4       data     extern C:\MCC18\v3_39\src\traditional\proc\p18F8722.asm
               CVRCONbits   0x000fb5       data     extern C:\MCC18\v3_39\src\traditional\proc\p18F8722.asm
                   CVRCON   0x000fb5       data     extern C:\MCC18\v3_39\src\traditional\proc\p18F8722.asm
                  ECCP1AS   0x000fb6       data     extern C:\MCC18\v3_39\src\traditional\proc\p18F8722.asm
              ECCP1ASbits   0x000fb6       data     extern C:\MCC18\v3_39\src\traditional\proc\p18F8722.asm
             ECCP3CONbits   0x000fb7       data     extern C:\MCC18\v3_39\src\traditional\proc\p18F8722.asm
                  CCP3CON   0x000fb7       data     extern C:\MCC18\v3_39\src\traditional\proc\p18F8722.asm
              CCP3CONbits   0x000fb7       data     extern C:\MCC18\v3_39\src\traditional\proc\p18F8722.asm
                 ECCP3CON   0x000fb7       data     extern C:\MCC18\v3_39\src\traditional\proc\p18F8722.asm
                   CCPR3L   0x000fb8       data     extern C:\MCC18\v3_39\src\traditional\proc\p18F8722.asm
                    CCPR3   0x000fb8       data     extern C:\MCC18\v3_39\src\traditional\proc\p18F8722.asm
                   CCPR3H   0x000fb9       data     extern C:\MCC18\v3_39\src\traditional\proc\p18F8722.asm
                  CCP2CON   0x000fba       data     extern C:\MCC18\v3_39\src\traditional\proc\p18F8722.asm
              CCP2CONbits   0x000fba       data     extern C:\MCC18\v3_39\src\traditional\proc\p18F8722.asm
             ECCP2CONbits   0x000fba       data     extern C:\MCC18\v3_39\src\traditional\proc\p18F8722.asm
                 ECCP2CON   0x000fba       data     extern C:\MCC18\v3_39\src\traditional\proc\p18F8722.asm
                    CCPR2   0x000fbb       data     extern C:\MCC18\v3_39\src\traditional\proc\p18F8722.asm
                   CCPR2L   0x000fbb       data     extern C:\MCC18\v3_39\src\traditional\proc\p18F8722.asm
                   CCPR2H   0x000fbc       data     extern C:\MCC18\v3_39\src\traditional\proc\p18F8722.asm
             ECCP1CONbits   0x000fbd       data     extern C:\MCC18\v3_39\src\traditional\proc\p18F8722.asm
                  CCP1CON   0x000fbd       data     extern C:\MCC18\v3_39\src\traditional\proc\p18F8722.asm
                 ECCP1CON   0x000fbd       data     extern C:\MCC18\v3_39\src\traditional\proc\p18F8722.asm
              CCP1CONbits   0x000fbd       data     extern C:\MCC18\v3_39\src\traditional\proc\p18F8722.asm
                   CCPR1L   0x000fbe       data     extern C:\MCC18\v3_39\src\traditional\proc\p18F8722.asm
                    CCPR1   0x000fbe       data     extern C:\MCC18\v3_39\src\traditional\proc\p18F8722.asm
                   CCPR1H   0x000fbf       data     extern C:\MCC18\v3_39\src\traditional\proc\p18F8722.asm
                   ADCON2   0x000fc0       data     extern C:\MCC18\v3_39\src\traditional\proc\p18F8722.asm
               ADCON2bits   0x000fc0       data     extern C:\MCC18\v3_39\src\traditional\proc\p18F8722.asm
               ADCON1bits   0x000fc1       data     extern C:\MCC18\v3_39\src\traditional\proc\p18F8722.asm
                   ADCON1   0x000fc1       data     extern C:\MCC18\v3_39\src\traditional\proc\p18F8722.asm
                   ADCON0   0x000fc2       data     extern C:\MCC18\v3_39\src\traditional\proc\p18F8722.asm
               ADCON0bits   0x000fc2       data     extern C:\MCC18\v3_39\src\traditional\proc\p18F8722.asm
                    ADRES   0x000fc3       data     extern C:\MCC18\v3_39\src\traditional\proc\p18F8722.asm
                   ADRESL   0x000fc3       data     extern C:\MCC18\v3_39\src\traditional\proc\p18F8722.asm
                   ADRESH   0x000fc4       data     extern C:\MCC18\v3_39\src\traditional\proc\p18F8722.asm
                 SSP1CON2   0x000fc5       data     extern C:\MCC18\v3_39\src\traditional\proc\p18F8722.asm
             SSP1CON2bits   0x000fc5       data     extern C:\MCC18\v3_39\src\traditional\proc\p18F8722.asm
                  SSPCON2   0x000fc5       data     extern C:\MCC18\v3_39\src\traditional\proc\p18F8722.asm
              SSPCON2bits   0x000fc5       data     extern C:\MCC18\v3_39\src\traditional\proc\p18F8722.asm
                 SSP1CON1   0x000fc6       data     extern C:\MCC18\v3_39\src\traditional\proc\p18F8722.asm
             SSP1CON1bits   0x000fc6       data     extern C:\MCC18\v3_39\src\traditional\proc\p18F8722.asm
                  SSPCON1   0x000fc6       data     extern C:\MCC18\v3_39\src\traditional\proc\p18F8722.asm
              SSPCON1bits   0x000fc6       data     extern C:\MCC18\v3_39\src\traditional\proc\p18F8722.asm
                 SSP1STAT   0x000fc7       data     extern C:\MCC18\v3_39\src\traditional\proc\p18F8722.asm
             SSP1STATbits   0x000fc7       data     extern C:\MCC18\v3_39\src\traditional\proc\p18F8722.asm
                  SSPSTAT   0x000fc7       data     extern C:\MCC18\v3_39\src\traditional\proc\p18F8722.asm
              SSPSTATbits   0x000fc7       data     extern C:\MCC18\v3_39\src\traditional\proc\p18F8722.asm
                   SSPADD   0x000fc8       data     extern C:\MCC18\v3_39\src\traditional\proc\p18F8722.asm
                  SSP1ADD   0x000fc8       data     extern C:\MCC18\v3_39\src\traditional\proc\p18F8722.asm
                   SSPBUF   0x000fc9       data     extern C:\MCC18\v3_39\src\traditional\proc\p18F8722.asm
                  SSP1BUF   0x000fc9       data     extern C:\MCC18\v3_39\src\traditional\proc\p18F8722.asm
                T2CONbits   0x000fca       data     extern C:\MCC18\v3_39\src\traditional\proc\p18F8722.asm
                    T2CON   0x000fca       data     extern C:\MCC18\v3_39\src\traditional\proc\p18F8722.asm
                      PR2   0x000fcb       data     extern C:\MCC18\v3_39\src\traditional\proc\p18F8722.asm
                     TMR2   0x000fcc       data     extern C:\MCC18\v3_39\src\traditional\proc\p18F8722.asm
                    T1CON   0x000fcd       data     extern C:\MCC18\v3_39\src\traditional\proc\p18F8722.asm
                T1CONbits   0x000fcd       data     extern C:\MCC18\v3_39\src\traditional\proc\p18F8722.asm
                    TMR1L   0x000fce       data     extern C:\MCC18\v3_39\src\traditional\proc\p18F8722.asm
                    TMR1H   0x000fcf       data     extern C:\MCC18\v3_39\src\traditional\proc\p18F8722.asm
                 RCONbits   0x000fd0       data     extern C:\MCC18\v3_39\src\traditional\proc\p18F8722.asm
                     RCON   0x000fd0       data     extern C:\MCC18\v3_39\src\traditional\proc\p18F8722.asm
               WDTCONbits   0x000fd1       data     extern C:\MCC18\v3_39\src\traditional\proc\p18F8722.asm
                   WDTCON   0x000fd1       data     extern C:\MCC18\v3_39\src\traditional\proc\p18F8722.asm
                  HLVDCON   0x000fd2       data     extern C:\MCC18\v3_39\src\traditional\proc\p18F8722.asm
              HLVDCONbits   0x000fd2       data     extern C:\MCC18\v3_39\src\traditional\proc\p18F8722.asm
                   LVDCON   0x000fd2       data     extern C:\MCC18\v3_39\src\traditional\proc\p18F8722.asm
               LVDCONbits   0x000fd2       data     extern C:\MCC18\v3_39\src\traditional\proc\p18F8722.asm
                   OSCCON   0x000fd3       data     extern C:\MCC18\v3_39\src\traditional\proc\p18F8722.asm
               OSCCONbits   0x000fd3       data     extern C:\MCC18\v3_39\src\traditional\proc\p18F8722.asm
                    T0CON   0x000fd5       data     extern C:\MCC18\v3_39\src\traditional\proc\p18F8722.asm
                T0CONbits   0x000fd5       data     extern C:\MCC18\v3_39\src\traditional\proc\p18F8722.asm
                    TMR0L   0x000fd6       data     extern C:\MCC18\v3_39\src\traditional\proc\p18F8722.asm
                    TMR0H   0x000fd7       data     extern C:\MCC18\v3_39\src\traditional\proc\p18F8722.asm
                   STATUS   0x000fd8       data     extern C:\MCC18\v3_39\src\traditional\proc\p18F8722.asm
               STATUSbits   0x000fd8       data     extern C:\MCC18\v3_39\src\traditional\proc\p18F8722.asm
                    FSR2L   0x000fd9       data     extern C:\MCC18\v3_39\src\traditional\proc\p18F8722.asm
                     FSR2   0x000fd9       data     extern C:\MCC18\v3_39\src\traditional\proc\p18F8722.asm
                    FSR2H   0x000fda       data     extern C:\MCC18\v3_39\src\traditional\proc\p18F8722.asm
                   PLUSW2   0x000fdb       data     extern C:\MCC18\v3_39\src\traditional\proc\p18F8722.asm
                  PREINC2   0x000fdc       data     extern C:\MCC18\v3_39\src\traditional\proc\p18F8722.asm
                 POSTDEC2   0x000fdd       data     extern C:\MCC18\v3_39\src\traditional\proc\p18F8722.asm
                 POSTINC2   0x000fde       data     extern C:\MCC18\v3_39\src\traditional\proc\p18F8722.asm
                    INDF2   0x000fdf       data     extern C:\MCC18\v3_39\src\traditional\proc\p18F8722.asm
                      BSR   0x000fe0       data     extern C:\MCC18\v3_39\src\traditional\proc\p18F8722.asm
                    FSR1L   0x000fe1       data     extern C:\MCC18\v3_39\src\traditional\proc\p18F8722.asm
                     FSR1   0x000fe1       data     extern C:\MCC18\v3_39\src\traditional\proc\p18F8722.asm
                    FSR1H   0x000fe2       data     extern C:\MCC18\v3_39\src\traditional\proc\p18F8722.asm
                   PLUSW1   0x000fe3       data     extern C:\MCC18\v3_39\src\traditional\proc\p18F8722.asm
                  PREINC1   0x000fe4       data     extern C:\MCC18\v3_39\src\traditional\proc\p18F8722.asm
                 POSTDEC1   0x000fe5       data     extern C:\MCC18\v3_39\src\traditional\proc\p18F8722.asm
                 POSTINC1   0x000fe6       data     extern C:\MCC18\v3_39\src\traditional\proc\p18F8722.asm
                    INDF1   0x000fe7       data     extern C:\MCC18\v3_39\src\traditional\proc\p18F8722.asm
                     WREG   0x000fe8       data     extern C:\MCC18\v3_39\src\traditional\proc\p18F8722.asm
                     FSR0   0x000fe9       data     extern C:\MCC18\v3_39\src\traditional\proc\p18F8722.asm
                    FSR0L   0x000fe9       data     extern C:\MCC18\v3_39\src\traditional\proc\p18F8722.asm
                    FSR0H   0x000fea       data     extern C:\MCC18\v3_39\src\traditional\proc\p18F8722.asm
                   PLUSW0   0x000feb       data     extern C:\MCC18\v3_39\src\traditional\proc\p18F8722.asm
                  PREINC0   0x000fec       data     extern C:\MCC18\v3_39\src\traditional\proc\p18F8722.asm
                 POSTDEC0   0x000fed       data     extern C:\MCC18\v3_39\src\traditional\proc\p18F8722.asm
                 POSTINC0   0x000fee       data     extern C:\MCC18\v3_39\src\traditional\proc\p18F8722.asm
                    INDF0   0x000fef       data     extern C:\MCC18\v3_39\src\traditional\proc\p18F8722.asm
                  INTCON3   0x000ff0       data     extern C:\MCC18\v3_39\src\traditional\proc\p18F8722.asm
              INTCON3bits   0x000ff0       data     extern C:\MCC18\v3_39\src\traditional\proc\p18F8722.asm
              INTCON2bits   0x000ff1       data     extern C:\MCC18\v3_39\src\traditional\proc\p18F8722.asm
                  INTCON2   0x000ff1       data     extern C:\MCC18\v3_39\src\traditional\proc\p18F8722.asm
                   INTCON   0x000ff2       data     extern C:\MCC18\v3_39\src\traditional\proc\p18F8722.asm
               INTCONbits   0x000ff2       data     extern C:\MCC18\v3_39\src\traditional\proc\p18F8722.asm
                     PROD   0x000ff3       data     extern C:\MCC18\v3_39\src\traditional\proc\p18F8722.asm
                    PRODL   0x000ff3       data     extern C:\MCC18\v3_39\src\traditional\proc\p18F8722.asm
                    PRODH   0x000ff4       data     extern C:\MCC18\v3_39\src\traditional\proc\p18F8722.asm
                   TABLAT   0x000ff5       data     extern C:\MCC18\v3_39\src\traditional\proc\p18F8722.asm
                   TBLPTR   0x000ff6       data     extern C:\MCC18\v3_39\src\traditional\proc\p18F8722.asm
                  TBLPTRL   0x000ff6       data     extern C:\MCC18\v3_39\src\traditional\proc\p18F8722.asm
                  TBLPTRH   0x000ff7       data     extern C:\MCC18\v3_39\src\traditional\proc\p18F8722.asm
                  TBLPTRU   0x000ff8       data     extern C:\MCC18\v3_39\src\traditional\proc\p18F8722.asm
                       PC   0x000ff9       data     extern C:\MCC18\v3_39\src\traditional\proc\p18F8722.asm
                      PCL   0x000ff9       data     extern C:\MCC18\v3_39\src\traditional\proc\p18F8722.asm
                   PCLATH   0x000ffa       data     extern C:\MCC18\v3_39\src\traditional\proc\p18F8722.asm
                   PCLATU   0x000ffb       data     extern C:\MCC18\v3_39\src\traditional\proc\p18F8722.asm
                   STKPTR   0x000ffc       data     extern C:\MCC18\v3_39\src\traditional\proc\p18F8722.asm
               STKPTRbits   0x000ffc       data     extern C:\MCC18\v3_39\src\traditional\proc\p18F8722.asm
                      TOS   0x000ffd       data     extern C:\MCC18\v3_39\src\traditional\proc\p18F8722.asm
                     TOSL   0x000ffd       data     extern C:\MCC18\v3_39\src\traditional\proc\p18F8722.asm
                     TOSH   0x000ffe       data     extern C:\MCC18\v3_39\src\traditional\proc\p18F8722.asm
                     TOSU   0x000fff       data     extern C:\MCC18\v3_39\src\traditional\proc\p18F8722.asm


