MPLINK 4.40, Linker
Linker Map File - Created Sun Dec 30 19:27:23 2012

                                 Section Info
                  Section       Type    Address   Location Size(Bytes)
                ---------  ---------  ---------  ---------  ---------
               _entry_scn       code   0x000000    program   0x000006
       .code__user_putc.o       code   0x000006    program   0x000002
           tick_interrupt       code   0x000008    program   0x000006
          .code_adcbusy.o       code   0x00000e    program   0x00000a
           work_interrupt       code   0x000018    program   0x000006
                   .cinit    romdata   0x00001e    program   0x00004a
        .code_mandm8722.o       code   0x000068    program   0x0069f0
              .code_daq.o       code   0x006a58    program   0x0019fa
             .stringtable    romdata   0x008452    program   0x001496
     .romdata_mandm8722.o    romdata   0x0098e8    program   0x00133a
     .code_mandm_vector.o       code   0x00ac22    program   0x000d4c
         .code_vfprintf.o       code   0x00b96e    program   0x000c22
                     PROG       code   0x00c590    program   0x0006c2
            .code_power.o       code   0x00cc52    program   0x000486
           .code_config.o       code   0x00d0d8    program   0x000304
             .code_crit.o       code   0x00d3dc    program   0x0001f2
                   STRING       code   0x00d5ce    program   0x000192
           .code_hwconf.o       code   0x00d760    program   0x000180
          .code_sprintf.o       code   0x00d8e0    program   0x0000ac
               _cinit_scn       code   0x00d98c    program   0x00009e
         .code_openxlcd.o       code   0x00da2a    program   0x00009a
           .code_u2open.o       code   0x00dac4    program   0x00008a
             .code_putc.o       code   0x00db4e    program   0x000084
          .code_fxm3232.o       code   0x00dbd2    program   0x000070
          .code_adcopen.o       code   0x00dc42    program   0x00006e
          .code_u2putrs.o       code   0x00dcb0    program   0x000064
          .code_write_B.o       code   0x00dd14    program   0x000060
           .code_read_B.o       code   0x00dd74    program   0x00005c
         .code_putrxlcd.o       code   0x00ddd0    program   0x000054
           .code_u2puts.o       code   0x00de24    program   0x00004c
         .code_setddram.o       code   0x00de70    program   0x000048
         .code_setcgram.o       code   0x00deb8    program   0x000048
         .code_fxd3232u.o       code   0x00df00    program   0x000048
         .code_writdata.o       code   0x00df48    program   0x000046
         .code_wcmdxlcd.o       code   0x00df8e    program   0x000046
         .code_readdata.o       code   0x00dfd4    program   0x000044
         .code_readaddr.o       code   0x00e018    program   0x000044
           .code_t3open.o       code   0x00e05c    program   0x000042
         .code_putsxlcd.o       code   0x00e09e    program   0x000042
           .code_u2read.o       code   0x00e0e0    program   0x00003e
                   STDLIB       code   0x00e11e    program   0x00003c
          .code_t3write.o       code   0x00e15a    program   0x000038
          .code_t0write.o       code   0x00e192    program   0x000038
           .code_t0open.o       code   0x00e1ca    program   0x000038
           .code_t4open.o       code   0x00e202    program   0x000036
             D10KTCYXCODE       code   0x00e238    program   0x00002e
          .code_u2write.o       code   0x00e266    program   0x00002e
         .code_adcsetch.o       code   0x00e294    program   0x00002e
         .code_fxd1616u.o       code   0x00e2c2    program   0x00002c
         .code_busyxlcd.o       code   0x00e2ee    program   0x00002c
                    CTYPE       code   0x00e31a    program   0x000024
             _startup_scn       code   0x00e33e    program   0x000020
                    .code       code   0x00e35e    program   0x000020
                    STDIO       code   0x00e37e    program   0x00001c
              D10TCYXCODE       code   0x00e39a    program   0x000016
          .code_adcread.o       code   0x00e3b0    program   0x000012
      .romdata_vfprintf.o    romdata   0x00e3c2    program   0x000011
       .romdata_write_B.o    romdata   0x00e3d3    program   0x000000
       .idata_write_B.o_i    romdata   0x00e3d3    program   0x000000
       .romdata_t3write.o    romdata   0x00e3d3    program   0x000000
       .idata_t3write.o_i    romdata   0x00e3d3    program   0x000000
           .romdata_daq.o    romdata   0x00e3d3    program   0x000000
       .romdata_t0write.o    romdata   0x00e3d3    program   0x000000
       .idata_t0write.o_i    romdata   0x00e3d3    program   0x000000
       .romdata_u2write.o    romdata   0x00e3d3    program   0x000000
       .idata_u2write.o_i    romdata   0x00e3d3    program   0x000000
        .romdata_u2defs.o    romdata   0x00e3d3    program   0x000000
        .idata_u2defs.o_i    romdata   0x00e3d3    program   0x000000
      .romdata_adcsetch.o    romdata   0x00e3d3    program   0x000000
      .idata_adcsetch.o_i    romdata   0x00e3d3    program   0x000000
        .romdata_read_B.o    romdata   0x00e3d3    program   0x000000
        .idata_read_B.o_i    romdata   0x00e3d3    program   0x000000
       .romdata_adcread.o    romdata   0x00e3d3    program   0x000000
       .idata_adcread.o_i    romdata   0x00e3d3    program   0x000000
        .romdata_u2read.o    romdata   0x00e3d3    program   0x000000
        .idata_u2read.o_i    romdata   0x00e3d3    program   0x000000
        .romdata_t4open.o    romdata   0x00e3d3    program   0x000000
        .idata_t4open.o_i    romdata   0x00e3d3    program   0x000000
        .idata_c018iz.o_i    romdata   0x00e3d3    program   0x000000
        .romdata_c018iz.o    romdata   0x00e3d3    program   0x000000
    .romdata__user_putc.o    romdata   0x00e3d3    program   0x000000
    .idata__user_putc.o_i    romdata   0x00e3d3    program   0x000000
          .romdata_putc.o    romdata   0x00e3d3    program   0x000000
          .idata_putc.o_i    romdata   0x00e3d3    program   0x000000
          .romdata_crit.o    romdata   0x00e3d3    program   0x000000
        .idata_hwconf.o_i    romdata   0x00e3d3    program   0x000000
      .idata_vfprintf.o_i    romdata   0x00e3d3    program   0x000000
        .romdata_hwconf.o    romdata   0x00e3d3    program   0x000000
         .idata_model.o_i    romdata   0x00e3d3    program   0x000000
       .romdata_sprintf.o    romdata   0x00e3d3    program   0x000000
       .idata_sprintf.o_i    romdata   0x00e3d3    program   0x000000
         .romdata_model.o    romdata   0x00e3d3    program   0x000000
        .romdata_u2puts.o    romdata   0x00e3d3    program   0x000000
        .idata_u2puts.o_i    romdata   0x00e3d3    program   0x000000
       .romdata_u2putrs.o    romdata   0x00e3d3    program   0x000000
       .idata_u2putrs.o_i    romdata   0x00e3d3    program   0x000000
         .idata_power.o_i    romdata   0x00e3d3    program   0x000000
        .romdata___init.o    romdata   0x00e3d3    program   0x000000
        .idata___init.o_i    romdata   0x00e3d3    program   0x000000
         .romdata_power.o    romdata   0x00e3d3    program   0x000000
      .idata_fxd1616u.o_i    romdata   0x00e3d3    program   0x000000
      .idata_putrxlcd.o_i    romdata   0x00e3d3    program   0x000000
      .romdata_putrxlcd.o    romdata   0x00e3d3    program   0x000000
      .idata_putsxlcd.o_i    romdata   0x00e3d3    program   0x000000
       .romdata_adcconv.o    romdata   0x00e3d3    program   0x000000
       .idata_adcconv.o_i    romdata   0x00e3d3    program   0x000000
      .romdata_busy_eep.o    romdata   0x00e3d3    program   0x000000
      .idata_busy_eep.o_i    romdata   0x00e3d3    program   0x000000
      .romdata_putsxlcd.o    romdata   0x00e3d3    program   0x000000
       .romdata_adcbusy.o    romdata   0x00e3d3    program   0x000000
       .idata_adcbusy.o_i    romdata   0x00e3d3    program   0x000000
      .idata_readaddr.o_i    romdata   0x00e3d3    program   0x000000
      .romdata_readaddr.o    romdata   0x00e3d3    program   0x000000
        .romdata_config.o    romdata   0x00e3d3    program   0x000000
        .idata_config.o_i    romdata   0x00e3d3    program   0x000000
      .idata_readdata.o_i    romdata   0x00e3d3    program   0x000000
      .romdata_busyxlcd.o    romdata   0x00e3d3    program   0x000000
      .idata_busyxlcd.o_i    romdata   0x00e3d3    program   0x000000
      .romdata_readdata.o    romdata   0x00e3d3    program   0x000000
      .romdata_wcmdxlcd.o    romdata   0x00e3d3    program   0x000000
      .idata_wcmdxlcd.o_i    romdata   0x00e3d3    program   0x000000
      .idata_setcgram.o_i    romdata   0x00e3d3    program   0x000000
      .romdata_setddram.o    romdata   0x00e3d3    program   0x000000
      .idata_setddram.o_i    romdata   0x00e3d3    program   0x000000
      .romdata_setcgram.o    romdata   0x00e3d3    program   0x000000
        .romdata_t3open.o    romdata   0x00e3d3    program   0x000000
        .idata_t3open.o_i    romdata   0x00e3d3    program   0x000000
        .romdata_t0open.o    romdata   0x00e3d3    program   0x000000
        .idata_t0open.o_i    romdata   0x00e3d3    program   0x000000
  .romdata_mandm_vector.o    romdata   0x00e3d3    program   0x000000
       .romdata_adcopen.o    romdata   0x00e3d3    program   0x000000
       .idata_adcopen.o_i    romdata   0x00e3d3    program   0x000000
      .idata_writdata.o_i    romdata   0x00e3d3    program   0x000000
        .romdata_u2open.o    romdata   0x00e3d3    program   0x000000
        .idata_u2open.o_i    romdata   0x00e3d3    program   0x000000
      .romdata_writdata.o    romdata   0x00e3d3    program   0x000000
       .romdata_fxm3232.o    romdata   0x00e3d3    program   0x000000
      .romdata_fxd1616u.o    romdata   0x00e3d3    program   0x000000
      .romdata_openxlcd.o    romdata   0x00e3d3    program   0x000000
      .idata_fxd3232u.o_i    romdata   0x00e3d3    program   0x000000
      .romdata_fxd3232u.o    romdata   0x00e3d3    program   0x000000
      .idata_openxlcd.o_i    romdata   0x00e3d3    program   0x000000
       .idata_fxm3232.o_i    romdata   0x00e3d3    program   0x000000
           .code_u2defs.o       code   0x00e3d4    program   0x000000
         .code_busy_eep.o       code   0x00e3d4    program   0x000006
            .code_model.o       code   0x00e3d4    program   0x000000
           .code_c018iz.o       code   0x00e3d4    program   0x000000
          .code_adcconv.o       code   0x00e3da    program   0x000004
           .code___init.o       code   0x00e3de    program   0x000002
                  gpr10_i    romdata   0x00e3e0    program   0x000030
              SEED_DATA_i    romdata   0x00e410    program   0x000002
  .idata_mandm_vector.o_i    romdata   0x00e412    program   0x000012
     .idata_mandm8722.o_i    romdata   0x00e424    program   0x000095
           .idata_daq.o_i    romdata   0x00e4b9    program   0x000004
          .idata_crit.o_i    romdata   0x00e4bd    program   0x000002
.config_300001_mandm8722.o    romdata   0x300001    program   0x000001
.config_300002_mandm8722.o    romdata   0x300002    program   0x000001
.config_300003_mandm8722.o    romdata   0x300003    program   0x000001
.config_300006_mandm8722.o    romdata   0x300006    program   0x000001
                 .tmpdata      udata   0x000000       data   0x000024
                MATH_DATA      udata   0x000024       data   0x000014
         tick_handler_tmp      udata   0x000038       data   0x000004
                DELAYDAT2      udata   0x00003c       data   0x000001
                DELAYDAT1      udata   0x00003d       data   0x000001
              ISRHtmpdata      udata   0x00003e       data   0x000000
                     gpr5      udata   0x000060       data   0x00009b
          .udata_hwconf.o      udata   0x0000fb       data   0x000001
          .udata_config.o      udata   0x0000fc       data   0x000001
         .idata_adcread.o      idata   0x0000fd       data   0x000000
         .udata_adcread.o      udata   0x0000fd       data   0x000000
          .idata_u2read.o      idata   0x0000fd       data   0x000000
          .udata_u2read.o      udata   0x0000fd       data   0x000000
          .idata_t4open.o      idata   0x0000fd       data   0x000000
          .udata_t4open.o      udata   0x0000fd       data   0x000000
          .idata_t3open.o      idata   0x0000fd       data   0x000000
          .udata_t3open.o      udata   0x0000fd       data   0x000000
          .idata_t0open.o      idata   0x0000fd       data   0x000000
          .udata_t0open.o      udata   0x0000fd       data   0x000000
         .idata_adcopen.o      idata   0x0000fd       data   0x000000
         .udata_adcopen.o      udata   0x0000fd       data   0x000000
          .idata_u2open.o      idata   0x0000fd       data   0x000000
          .udata_u2open.o      udata   0x0000fd       data   0x000000
         .idata_fxm3232.o      idata   0x0000fd       data   0x000000
         .udata_fxm3232.o      udata   0x0000fd       data   0x000000
        .idata_fxd3232u.o      idata   0x0000fd       data   0x000000
        .udata_fxd3232u.o      udata   0x0000fd       data   0x000000
        .idata_fxd1616u.o      idata   0x0000fd       data   0x000000
        .udata_fxd1616u.o      udata   0x0000fd       data   0x000000
      .udata__user_putc.o      udata   0x0000fd       data   0x000000
      .idata__user_putc.o      idata   0x0000fd       data   0x000000
         .idata_adcconv.o      idata   0x0000fd       data   0x000000
         .udata_adcconv.o      udata   0x0000fd       data   0x000000
        .idata_vfprintf.o      idata   0x0000fd       data   0x000000
        .udata_vfprintf.o      udata   0x0000fd       data   0x000000
         .idata_sprintf.o      idata   0x0000fd       data   0x000000
         .udata_sprintf.o      udata   0x0000fd       data   0x000000
          .idata_u2puts.o      idata   0x0000fd       data   0x000000
          .udata_u2puts.o      udata   0x0000fd       data   0x000000
         .idata_u2putrs.o      idata   0x0000fd       data   0x000000
         .udata_u2putrs.o      udata   0x0000fd       data   0x000000
          .idata___init.o      idata   0x0000fd       data   0x000000
          .udata___init.o      udata   0x0000fd       data   0x000000
         .idata_write_B.o      idata   0x0000fd       data   0x000000
         .udata_write_B.o      udata   0x0000fd       data   0x000000
         .idata_t3write.o      idata   0x0000fd       data   0x000000
         .udata_t3write.o      udata   0x0000fd       data   0x000000
         .idata_t0write.o      idata   0x0000fd       data   0x000000
         .udata_t0write.o      udata   0x0000fd       data   0x000000
         .idata_u2write.o      idata   0x0000fd       data   0x000000
         .udata_u2write.o      udata   0x0000fd       data   0x000000
          .idata_u2defs.o      idata   0x0000fd       data   0x000000
        .idata_adcsetch.o      idata   0x0000fd       data   0x000000
        .udata_adcsetch.o      udata   0x0000fd       data   0x000000
            .udata_putc.o      udata   0x0000fd       data   0x000000
            .idata_putc.o      idata   0x0000fd       data   0x000000
          .idata_read_B.o      idata   0x0000fd       data   0x000000
          .udata_read_B.o      udata   0x0000fd       data   0x000000
        .udata_readaddr.o      udata   0x0000fd       data   0x000000
        .idata_putsxlcd.o      idata   0x0000fd       data   0x000000
        .udata_putsxlcd.o      udata   0x0000fd       data   0x000000
        .idata_putrxlcd.o      idata   0x0000fd       data   0x000000
        .udata_putrxlcd.o      udata   0x0000fd       data   0x000000
        .idata_openxlcd.o      idata   0x0000fd       data   0x000000
        .udata_openxlcd.o      udata   0x0000fd       data   0x000000
        .idata_writdata.o      idata   0x0000fd       data   0x000000
        .udata_writdata.o      udata   0x0000fd       data   0x000000
          .idata_c018iz.o      idata   0x0000fd       data   0x000000
                     gpr6      udata   0x0000fd       data   0x000000
            .udata_crit.o      udata   0x0000fd       data   0x000000
       .udata_mandm8722.o      udata   0x0000fd       data   0x000000
           .idata_power.o      idata   0x0000fd       data   0x000000
           .idata_model.o      idata   0x0000fd       data   0x000000
           .udata_model.o      udata   0x0000fd       data   0x000000
          .idata_hwconf.o      idata   0x0000fd       data   0x000000
        .idata_busy_eep.o      idata   0x0000fd       data   0x000000
        .udata_busy_eep.o      udata   0x0000fd       data   0x000000
         .idata_adcbusy.o      idata   0x0000fd       data   0x000000
         .udata_adcbusy.o      udata   0x0000fd       data   0x000000
          .idata_config.o      idata   0x0000fd       data   0x000000
        .idata_busyxlcd.o      idata   0x0000fd       data   0x000000
        .udata_busyxlcd.o      udata   0x0000fd       data   0x000000
        .idata_wcmdxlcd.o      idata   0x0000fd       data   0x000000
        .udata_wcmdxlcd.o      udata   0x0000fd       data   0x000000
        .idata_readaddr.o      idata   0x0000fd       data   0x000000
        .idata_setddram.o      idata   0x0000fd       data   0x000000
        .udata_readdata.o      udata   0x0000fd       data   0x000000
        .idata_readdata.o      idata   0x0000fd       data   0x000000
        .udata_setcgram.o      udata   0x0000fd       data   0x000000
        .idata_setcgram.o      idata   0x0000fd       data   0x000000
        .udata_setddram.o      udata   0x0000fd       data   0x000000
                     gpr2      udata   0x000100       data   0x0000fc
             .idata_daq.o      idata   0x0001fc       data   0x000004
                    gpr13      udata   0x000200       data   0x0000fb
                     gpr1      udata   0x000300       data   0x0000ce
                    gpr10      idata   0x0003ce       data   0x000030
                SEED_DATA      idata   0x0003fe       data   0x000002
                     gpr8      udata   0x000400       data   0x0000b0
           .udata_power.o      udata   0x0004b0       data   0x00003a
    .idata_mandm_vector.o      idata   0x0004ea       data   0x000012
            .idata_crit.o      idata   0x0004fc       data   0x000002
                     gpr4      udata   0x0004fe       data   0x000001
          .udata_u2defs.o      udata   0x0004ff       data   0x000001
                     gpr9      udata   0x000500       data   0x0000a7
                     gpr3      udata   0x0005a7       data   0x00001c
             .udata_daq.o      udata   0x0005c3       data   0x000011
                     gpr7      udata   0x0005d4       data   0x00000c
          .udata_c018iz.o      udata   0x0005e0       data   0x00000a
    .udata_mandm_vector.o      udata   0x0005ea       data   0x000006
       .idata_mandm8722.o      idata   0x000600       data   0x000095
                   .stack      udata   0x000e00       data   0x000100
            SFR_UNBANKED0      udata   0x000f62       data   0x00009e



                              Program Memory Usage 
                               Start         End      
                           ---------   ---------      
                            0x000000    0x00e3d2      
                            0x00e3d4    0x00e4be      
                            0x300001    0x300003      
                            0x300006    0x300006      
            58562 out of 132120 program addresses used, program memory utilization is 44%



                              Symbols - Sorted by Name
                     Name    Address   Location    Storage File                     
                ---------  ---------  ---------  --------- ---------                
                     ABSI   0x00117e    program     extern /audio/mandm/mandm/mandm8722.c
                     ABSL   0x0011ac    program     extern /audio/mandm/mandm/mandm8722.c
                 ADC_read   0x006b80    program     extern /audio/mandm/mandm/daq.c 
                 ADC_zero   0x006a58    program     extern /audio/mandm/mandm/daq.c 
                  BusyADC   0x00000e    program     extern C:\MCC18\v3_39\src\pmc_common\ADC\adcbusy.c
                 BusyXLCD   0x00e2ee    program     extern /media/usb1/mandm/mandm/xlcd/busyxlcd.c
                 Busy_eep   0x00e3d4    program     extern C:\MCC18\v3_39\src\pmc_common\EEP\busy_eep.c
             Change_Count   0x006abe    program     extern /audio/mandm/mandm/daq.c 
        Clear_All_Buttons   0x00b912    program     extern /audio/mandm/mandm/mandm_vector.c
               ConvertADC   0x00e3da    program     extern C:\MCC18\v3_39\src\pmc_common\ADC\adcconv.c
                   D10K_1   0x00e244    program     static C:\MCC18\v3_39\src\traditional\delays\d10ktcyx.asm
                    D10Kl   0x00e250    program     static C:\MCC18\v3_39\src\traditional\delays\d10ktcyx.asm
                    D10Kx   0x00e242    program     static C:\MCC18\v3_39\src\traditional\delays\d10ktcyx.asm
                    D10_1   0x00e3aa    program     static C:\MCC18\v3_39\src\traditional\delays\d10tcyx.asm
                     D10x   0x00e3a2    program     static C:\MCC18\v3_39\src\traditional\delays\d10tcyx.asm
                   D1616S   0x00c8c0    program     static C:\MCC18\v3_39\src\traditional\math\fxd1616s.asm
                D1616SNEG   0x00c8ce    program     static C:\MCC18\v3_39\src\traditional\math\fxd1616s.asm
                 D1616SOK   0x00c8ca    program     static C:\MCC18\v3_39\src\traditional\math\fxd1616s.asm
                  D1616SX   0x00c8e0    program     static C:\MCC18\v3_39\src\traditional\math\fxd1616s.asm
                   D3232S   0x00c91a    program     static C:\MCC18\v3_39\src\traditional\math\fxd3232s.asm
                D3232SNEG   0x00c928    program     static C:\MCC18\v3_39\src\traditional\math\fxd3232s.asm
                 D3232SOK   0x00c924    program     static C:\MCC18\v3_39\src\traditional\math\fxd3232s.asm
                  D3232SX   0x00c948    program     static C:\MCC18\v3_39\src\traditional\math\fxd3232s.asm
                  DA1616S   0x00c8b0    program     static C:\MCC18\v3_39\src\traditional\math\fxd1616s.asm
                  DA3232S   0x00c904    program     static C:\MCC18\v3_39\src\traditional\math\fxd3232s.asm
             Delay10KTCYx   0x00e238    program     extern C:\MCC18\v3_39\src\traditional\delays\d10ktcyx.asm
              Delay10TCYx   0x00e39a    program     extern C:\MCC18\v3_39\src\traditional\delays\d10tcyx.asm
            DelayFor18TCY   0x00063c    program     extern /audio/mandm/mandm/mandm8722.c
             DelayPORXLCD   0x000656    program     extern /audio/mandm/mandm/mandm8722.c
                DelayXLCD   0x000662    program     extern /audio/mandm/mandm/mandm8722.c
                 FLO1632S   0x00c594    program     extern C:\MCC18\v3_39\src\traditional\math\cast16FP.asm
                 FLO1632U   0x00c590    program     extern C:\MCC18\v3_39\src\traditional\math\cast16FP.asm
                 FLO3232S   0x00c5be    program     extern C:\MCC18\v3_39\src\traditional\math\cast32FP.asm
                 FLO3232U   0x00c5ba    program     extern C:\MCC18\v3_39\src\traditional\math\cast32FP.asm
                    FPA32   0x00c5f2    program     extern C:\MCC18\v3_39\src\traditional\math\addFP.asm
                    FPD32   0x00c71e    program     extern C:\MCC18\v3_39\src\traditional\math\divFP.asm
                    FPM32   0x00c7c4    program     extern C:\MCC18\v3_39\src\traditional\math\mulFP.asm
                    FPS32   0x00c5f0    program     extern C:\MCC18\v3_39\src\traditional\math\addFP.asm
                 FXD1616S   0x00c89e    program     extern C:\MCC18\v3_39\src\traditional\math\fxd1616s.asm
                 FXD1616U   0x00e2c2    program     extern C:\MCC18\v3_39\src\traditional\math\fxd1616u.c
                 FXD3232S   0x00c8ea    program     extern C:\MCC18\v3_39\src\traditional\math\fxd3232s.asm
                 FXD3232U   0x00df00    program     extern C:\MCC18\v3_39\src\traditional\math\fxd3232u.c
                 FXM1616S   0x00cbf8    program     extern C:\MCC18\v3_39\src\traditional\math\fxm1616s.asm
                 FXM1616U   0x00cbbc    program     extern C:\MCC18\v3_39\src\traditional\math\fxm1616u.asm
                 FXM2424U   0x00c952    program     extern C:\MCC18\v3_39\src\traditional\math\fxm2424u.asm
                  FXM3232   0x00dbd2    program     extern C:\MCC18\v3_39\src\traditional\math\fxm3232.c
                  INT3216   0x00c9e4    program     extern C:\MCC18\v3_39\src\traditional\math\castFP16.asm
                  INT3232   0x00ca42    program     extern C:\MCC18\v3_39\src\traditional\math\castFP32.asm
              LCD_VC_puts   0x00016e    program     extern /audio/mandm/mandm/mandm8722.c
               Open2USART   0x00dac4    program     extern C:\MCC18\v3_39\src\pmc_common\USART\u2open.c
                  OpenADC   0x00dc42    program     extern C:\MCC18\v3_39\src\pmc_common\ADC\adcopen.c
               OpenTimer0   0x00e1ca    program     extern C:\MCC18\v3_39\src\pmc_common\Timers\t0open.c
               OpenTimer3   0x00e05c    program     extern C:\MCC18\v3_39\src\pmc_common\Timers\t3open.c
               OpenTimer4   0x00e202    program     extern C:\MCC18\v3_39\src\pmc_common\Timers\t4open.c
                 OpenXLCD   0x00da2a    program     extern /media/usb1/mandm/mandm/xlcd/openxlcd.c
                   P1wait   0x00b906    program     extern /audio/mandm/mandm/mandm_vector.c
                   P2wait   0x00b90c    program     extern /audio/mandm/mandm/mandm_vector.c
               Read2USART   0x00e0e0    program     extern C:\MCC18\v3_39\src\pmc_common\USART\u2read.c
                  ReadADC   0x00e3b0    program     extern C:\MCC18\v3_39\src\pmc_common\ADC\adcread.c
             ReadAddrXLCD   0x00e018    program     extern /media/usb1/mandm/mandm/xlcd/readaddr.c
             ReadDataXLCD   0x00dfd4    program     extern /media/usb1/mandm/mandm/xlcd/readdata.c
               Read_b_eep   0x00dd74    program     extern C:\MCC18\v3_39\src\pmc_common\EEP\read_B.c
       Reset_Change_Count   0x006a7e    program     extern /audio/mandm/mandm/daq.c 
             SetCGRamAddr   0x00deb8    program     extern /media/usb1/mandm/mandm/xlcd/setcgram.c
               SetChanADC   0x00e294    program     extern C:\MCC18\v3_39\src\pmc_common\ADC\adcsetch.c
             SetDDRamAddr   0x00de70    program     extern /media/usb1/mandm/mandm/xlcd/setddram.c
               Set_Cursor   0x0018bc    program     extern /audio/mandm/mandm/mandm8722.c
               TSIGN1616A   0x00cc44    program     static C:\MCC18\v3_39\src\traditional\math\fxm1616s.asm
              Write2USART   0x00e266    program     extern C:\MCC18\v3_39\src\pmc_common\USART\u2write.c
             WriteCmdXLCD   0x00df8e    program     extern /media/usb1/mandm/mandm/xlcd/wcmdxlcd.c
            WriteDataXLCD   0x00df48    program     extern /media/usb1/mandm/mandm/xlcd/writdata.c
              WriteTimer0   0x00e192    program     extern C:\MCC18\v3_39\src\pmc_common\Timers\t0write.c
              WriteTimer3   0x00e15a    program     extern C:\MCC18\v3_39\src\pmc_common\Timers\t3write.c
              Write_b_eep   0x00dd14    program     extern C:\MCC18\v3_39\src\pmc_common\EEP\write_B.c
                   _2jEnd   0x00d686    program     static C:\MCC18\v3_39\src\traditional\stdclib\slenpgm.asm
              _3jContinue   0x00d72a    program     static C:\MCC18\v3_39\src\traditional\stdclib\sncpyp2r.asm
              _4jContinue   0x00d6d0    program     static C:\MCC18\v3_39\src\traditional\stdclib\strncpy.asm
              _4jContinue   0x00d5fa    program     static C:\MCC18\v3_39\src\traditional\stdclib\memcmp.asm
                   _4jEnd   0x00d734    program     static C:\MCC18\v3_39\src\traditional\stdclib\sncpyp2r.asm
                   _5jEnd   0x00d6da    program     static C:\MCC18\v3_39\src\traditional\stdclib\strncpy.asm
                   _5jEnd   0x00d604    program     static C:\MCC18\v3_39\src\traditional\stdclib\memcmp.asm
       _D10KTCYXCODE_0010   0x00e248    program     static C:\MCC18\v3_39\src\traditional\delays\d10ktcyx.asm
       _D10KTCYXCODE_001C   0x00e254    program     static C:\MCC18\v3_39\src\traditional\delays\d10ktcyx.asm
        _D10TCYXCODE_000A   0x00e3a4    program     static C:\MCC18\v3_39\src\traditional\delays\d10tcyx.asm
        _D10TCYXCODE_000C   0x00e3a6    program     static C:\MCC18\v3_39\src\traditional\delays\d10tcyx.asm
        _D10TCYXCODE_000E   0x00e3a8    program     static C:\MCC18\v3_39\src\traditional\delays\d10tcyx.asm
                 __FpExit   0x00cabc    program     extern C:\MCC18\v3_39\src\traditional\math\packFP.asm
                 __FpPack   0x00cae8    program     extern C:\MCC18\v3_39\src\traditional\math\packFP.asm
            __FpReturnNaN   0x00cab0    program     extern C:\MCC18\v3_39\src\traditional\math\packFP.asm
         __FpReturnNegInf   0x00cac2    program     extern C:\MCC18\v3_39\src\traditional\math\packFP.asm
        __FpReturnNegZero   0x00cada    program     extern C:\MCC18\v3_39\src\traditional\math\packFP.asm
         __FpReturnPosInf   0x00cac8    program     extern C:\MCC18\v3_39\src\traditional\math\packFP.asm
        __FpReturnPosZero   0x00cae2    program     extern C:\MCC18\v3_39\src\traditional\math\packFP.asm
        __FpReturnSignInf   0x00cabe    program     extern C:\MCC18\v3_39\src\traditional\math\packFP.asm
       __FpReturnSignZero   0x00cad6    program     extern C:\MCC18\v3_39\src\traditional\math\packFP.asm
              __FpReturnW   0x00cb40    program     extern C:\MCC18\v3_39\src\traditional\math\packFP.asm
              __FpUnPackA   0x00cb60    program     extern C:\MCC18\v3_39\src\traditional\math\UnpackFP.asm
              __FpUnPackB   0x00cb90    program     extern C:\MCC18\v3_39\src\traditional\math\UnpackFP.asm
       ___case_0_lbl00030   0x00af1a    program     static                          
       ___case_1_lbl00031   0x00af20    program     static                          
       ___case_2_lbl00032   0x00af28    program     static                          
      ___default_lbl00033   0x00af30    program     static                          
           ___do_lbl00032   0x00034e    program     static                          
           ___do_lbl00033   0x000370    program     static                          
           ___do_lbl00034   0x00032e    program     static                          
           ___do_lbl00429   0x002efc    program     static                          
           ___do_lbl00430   0x002f2a    program     static                          
           ___do_lbl00435   0x002c36    program     static                          
           ___do_lbl00439   0x003270    program     static                          
           ___do_lbl00440   0x00329e    program     static                          
           ___do_lbl00445   0x002faa    program     static                          
           ___do_lbl00453   0x003482    program     static                          
           ___do_lbl00454   0x003488    program     static                          
           ___do_lbl00455   0x003476    program     static                          
           ___do_lbl00459   0x003b3c    program     static                          
           ___do_lbl00460   0x003b7a    program     static                          
           ___do_lbl00475   0x003566    program     static                          
           ___do_lbl00476   0x0041d2    program     static                          
           ___do_lbl00477   0x004210    program     static                          
           ___do_lbl00492   0x003bfc    program     static                          
           ___do_lbl00517   0x004fda    program     static                          
           ___do_lbl00518   0x004fe0    program     static                          
           ___do_lbl00519   0x004fce    program     static                          
           ___do_lbl00524   0x0051c2    program     static                          
           ___do_lbl00525   0x005202    program     static                          
           ___do_lbl00528   0x00504c    program     static                          
         ___else_lbl00003   0x00acb0    program     static                          
         ___else_lbl00008   0x00d4d4    program     static                          
         ___else_lbl00009   0x00ad6c    program     static                          
         ___else_lbl00011   0x00ad8a    program     static                          
         ___else_lbl00014   0x00adfa    program     static                          
         ___else_lbl00016   0x00ae18    program     static                          
         ___else_lbl00027   0x00aed4    program     static                          
         ___else_lbl00071   0x00b0ce    program     static                          
         ___else_lbl00081   0x00b1ae    program     static                          
         ___else_lbl00083   0x00b1bc    program     static                          
         ___else_lbl00085   0x00b1ca    program     static                          
         ___else_lbl00087   0x00b202    program     static                          
         ___else_lbl00089   0x00b268    program     static                          
         ___else_lbl00095   0x00b2d0    program     static                          
         ___else_lbl00101   0x00b652    program     static                          
         ___else_lbl00105   0x00b754    program     static                          
         ___else_lbl00111   0x00b7de    program     static                          
         ___else_lbl00113   0x00b7b8    program     static                          
         ___else_lbl00471   0x0038f8    program     static                          
         ___else_lbl00488   0x003f8e    program     static                          
         ___else_lbl00512   0x004214    program     static                          
         ___else_lbl00516   0x004d5c    program     static                          
         ___else_lbl00522   0x004d0c    program     static                          
         ___else_lbl00530   0x0052da    program     static                          
         ___else_lbl00552   0x0057d6    program     static                          
         ___else_lbl00560   0x0058a2    program     static                          
          ___for_lbl00010   0x006be4    program     static                          
          ___for_lbl00011   0x006bee    program     static                          
          ___for_lbl00014   0x006ba8    program     static                          
          ___for_lbl00015   0x006cee    program     static                          
          ___for_lbl00016   0x006cf8    program     static                          
          ___for_lbl00019   0x006cb2    program     static                          
          ___for_lbl00020   0x006df8    program     static                          
          ___for_lbl00021   0x006e02    program     static                          
          ___for_lbl00024   0x006dbc    program     static                          
          ___for_lbl00027   0x007030    program     static                          
          ___for_lbl00028   0x00703a    program     static                          
          ___for_lbl00028   0x0002be    program     static                          
          ___for_lbl00029   0x0002cc    program     static                          
          ___for_lbl00030   0x000294    program     static                          
          ___for_lbl00031   0x006ff4    program     static                          
          ___for_lbl00034   0x007268    program     static                          
          ___for_lbl00035   0x007272    program     static                          
          ___for_lbl00038   0x00722c    program     static                          
          ___for_lbl00041   0x0074a2    program     static                          
          ___for_lbl00042   0x0074ac    program     static                          
          ___for_lbl00045   0x007466    program     static                          
          ___for_lbl00046   0x007532    program     static                          
          ___for_lbl00047   0x00753c    program     static                          
          ___for_lbl00050   0x0074f6    program     static                          
          ___for_lbl00051   0x0075c2    program     static                          
          ___for_lbl00052   0x0075cc    program     static                          
          ___for_lbl00054   0x00064e    program     static                          
          ___for_lbl00055   0x000654    program     static                          
          ___for_lbl00055   0x007586    program     static                          
          ___for_lbl00056   0x000642    program     static                          
          ___for_lbl00056   0x0082b2    program     static                          
          ___for_lbl00057   0x0082be    program     static                          
          ___for_lbl00066   0x00768c    program     static                          
          ___for_lbl00078   0x000fb2    program     static                          
          ___for_lbl00079   0x000fb8    program     static                          
          ___for_lbl00081   0x000c82    program     static                          
          ___for_lbl00427   0x0032e4    program     static                          
          ___for_lbl00428   0x0032f0    program     static                          
          ___for_lbl00449   0x002bca    program     static                          
          ___for_lbl00494   0x004498    program     static                          
          ___for_lbl00495   0x0044ac    program     static                          
          ___for_lbl00500   0x00425c    program     static                          
          ___for_lbl00501   0x004764    program     static                          
          ___for_lbl00502   0x004778    program     static                          
          ___for_lbl00507   0x004528    program     static                          
          ___for_lbl00508   0x004bdc    program     static                          
          ___for_lbl00509   0x004bf0    program     static                          
          ___for_lbl00510   0x004b88    program     static                          
          ___for_lbl00513   0x004ff2    program     static                          
          ___for_lbl00514   0x005006    program     static                          
          ___for_lbl00523   0x004bfc    program     static                          
          ___for_lbl00547   0x00577c    program     static                          
          ___for_lbl00548   0x005782    program     static                          
          ___for_lbl00549   0x005752    program     static                          
          ___for_lbl00553   0x00589a    program     static                          
          ___for_lbl00554   0x0058a0    program     static                          
          ___for_lbl00555   0x005862    program     static                          
          ___for_lbl00556   0x0058f8    program     static                          
          ___for_lbl00557   0x0058fe    program     static                          
          ___for_lbl00558   0x0058c0    program     static                          
           ___if_lbl00001   0x00d78e    program     static                          
           ___if_lbl00001   0x00d40a    program     static                          
           ___if_lbl00001   0x00ac82    program     static                          
           ___if_lbl00002   0x00d42e    program     static                          
           ___if_lbl00002   0x00acc0    program     static                          
           ___if_lbl00003   0x00d44e    program     static                          
           ___if_lbl00003   0x00d7a0    program     static                          
           ___if_lbl00004   0x00d46e    program     static                          
           ___if_lbl00004   0x00acca    program     static                          
           ___if_lbl00005   0x00acd4    program     static                          
           ___if_lbl00006   0x00d8ae    program     static                          
           ___if_lbl00006   0x00acde    program     static                          
           ___if_lbl00006   0x00d4a2    program     static                          
           ___if_lbl00007   0x00acde    program     static                          
           ___if_lbl00007   0x00d4dc    program     static                          
           ___if_lbl00008   0x00ad88    program     static                          
           ___if_lbl00010   0x00ad98    program     static                          
           ___if_lbl00012   0x00ad98    program     static                          
           ___if_lbl00013   0x00ae16    program     static                          
           ___if_lbl00015   0x00ae26    program     static                          
           ___if_lbl00017   0x00ae26    program     static                          
           ___if_lbl00018   0x00ae2a    program     static                          
           ___if_lbl00020   0x00ae38    program     static                          
           ___if_lbl00021   0x00ae4c    program     static                          
           ___if_lbl00023   0x00ae66    program     static                          
           ___if_lbl00024   0x00ae94    program     static                          
           ___if_lbl00025   0x006ee4    program     static                          
           ___if_lbl00025   0x00aec8    program     static                          
           ___if_lbl00026   0x006fce    program     static                          
           ___if_lbl00026   0x00aedc    program     static                          
           ___if_lbl00028   0x00af08    program     static                          
           ___if_lbl00032   0x00711c    program     static                          
           ___if_lbl00033   0x007206    program     static                          
           ___if_lbl00034   0x00af36    program     static                          
           ___if_lbl00035   0x00af36    program     static                          
           ___if_lbl00036   0x00af3c    program     static                          
           ___if_lbl00037   0x00af42    program     static                          
           ___if_lbl00038   0x00af48    program     static                          
           ___if_lbl00039   0x007354    program     static                          
           ___if_lbl00039   0x00af4e    program     static                          
           ___if_lbl00040   0x00743e    program     static                          
           ___if_lbl00040   0x00af4e    program     static                          
           ___if_lbl00041   0x00af6e    program     static                          
           ___if_lbl00042   0x00af72    program     static                          
           ___if_lbl00043   0x00af8a    program     static                          
           ___if_lbl00044   0x00afa0    program     static                          
           ___if_lbl00045   0x00afae    program     static                          
           ___if_lbl00046   0x00afbc    program     static                          
           ___if_lbl00047   0x00afca    program     static                          
           ___if_lbl00048   0x00afd8    program     static                          
           ___if_lbl00049   0x00afe6    program     static                          
           ___if_lbl00051   0x00affc    program     static                          
           ___if_lbl00053   0x00b012    program     static                          
           ___if_lbl00055   0x00b026    program     static                          
           ___if_lbl00058   0x00b030    program     static                          
           ___if_lbl00058   0x0078a0    program     static                          
           ___if_lbl00060   0x00b042    program     static                          
           ___if_lbl00060   0x00792c    program     static                          
           ___if_lbl00061   0x00b042    program     static                          
           ___if_lbl00061   0x007994    program     static                          
           ___if_lbl00062   0x007b00    program     static                          
           ___if_lbl00063   0x007bfa    program     static                          
           ___if_lbl00063   0x00b066    program     static                          
           ___if_lbl00064   0x007da6    program     static                          
           ___if_lbl00064   0x00b06a    program     static                          
           ___if_lbl00065   0x00811e    program     static                          
           ___if_lbl00066   0x00b08e    program     static                          
           ___if_lbl00067   0x00b092    program     static                          
           ___if_lbl00067   0x0082be    program     static                          
           ___if_lbl00069   0x00b0cc    program     static                          
           ___if_lbl00070   0x00b0d6    program     static                          
           ___if_lbl00072   0x00b0f4    program     static                          
           ___if_lbl00073   0x00b0f4    program     static                          
           ___if_lbl00074   0x00b0f8    program     static                          
           ___if_lbl00076   0x00b116    program     static                          
           ___if_lbl00077   0x00b198    program     static                          
           ___if_lbl00078   0x00b198    program     static                          
           ___if_lbl00079   0x00b198    program     static                          
           ___if_lbl00080   0x000fb2    program     static                          
           ___if_lbl00080   0x00b1b2    program     static                          
           ___if_lbl00082   0x00b1c0    program     static                          
           ___if_lbl00084   0x00b1ce    program     static                          
           ___if_lbl00086   0x00b232    program     static                          
           ___if_lbl00088   0x00b29a    program     static                          
           ___if_lbl00090   0x00b382    program     static                          
           ___if_lbl00091   0x00b3aa    program     static                          
           ___if_lbl00092   0x00b3da    program     static                          
           ___if_lbl00093   0x00b42e    program     static                          
           ___if_lbl00094   0x00b430    program     static                          
           ___if_lbl00096   0x00b490    program     static                          
           ___if_lbl00097   0x00b4f8    program     static                          
           ___if_lbl00098   0x00b558    program     static                          
           ___if_lbl00099   0x00b5c2    program     static                          
           ___if_lbl00100   0x00b6a8    program     static                          
           ___if_lbl00103   0x00b752    program     static                          
           ___if_lbl00104   0x00b774    program     static                          
           ___if_lbl00109   0x00b802    program     static                          
           ___if_lbl00110   0x00b802    program     static                          
           ___if_lbl00112   0x00b802    program     static                          
           ___if_lbl00114   0x00b802    program     static                          
           ___if_lbl00115   0x00b802    program     static                          
           ___if_lbl00116   0x00b854    program     static                          
           ___if_lbl00117   0x00b854    program     static                          
           ___if_lbl00118   0x00b870    program     static                          
           ___if_lbl00119   0x00b87e    program     static                          
           ___if_lbl00121   0x00b89a    program     static                          
           ___if_lbl00122   0x00b89a    program     static                          
           ___if_lbl00423   0x002ae6    program     static                          
           ___if_lbl00424   0x002b20    program     static                          
           ___if_lbl00425   0x002b32    program     static                          
           ___if_lbl00426   0x002b6c    program     static                          
           ___if_lbl00431   0x002cfa    program     static                          
           ___if_lbl00432   0x002de6    program     static                          
           ___if_lbl00433   0x002ed6    program     static                          
           ___if_lbl00434   0x002eea    program     static                          
           ___if_lbl00437   0x002f56    program     static                          
           ___if_lbl00438   0x002f70    program     static                          
           ___if_lbl00441   0x00306e    program     static                          
           ___if_lbl00442   0x00315a    program     static                          
           ___if_lbl00443   0x00324a    program     static                          
           ___if_lbl00444   0x00325e    program     static                          
           ___if_lbl00447   0x0032ca    program     static                          
           ___if_lbl00448   0x0032e4    program     static                          
           ___if_lbl00451   0x0033f6    program     static                          
           ___if_lbl00452   0x003452    program     static                          
           ___if_lbl00456   0x0034de    program     static                          
           ___if_lbl00457   0x0034de    program     static                          
           ___if_lbl00458   0x0034f8    program     static                          
           ___if_lbl00464   0x003750    program     static                          
           ___if_lbl00465   0x003780    program     static                          
           ___if_lbl00466   0x003784    program     static                          
           ___if_lbl00467   0x0037ec    program     static                          
           ___if_lbl00468   0x0038f6    program     static                          
           ___if_lbl00469   0x00398a    program     static                          
           ___if_lbl00470   0x00398a    program     static                          
           ___if_lbl00472   0x003a50    program     static                          
           ___if_lbl00473   0x003b16    program     static                          
           ___if_lbl00474   0x003b2a    program     static                          
           ___if_lbl00481   0x003de6    program     static                          
           ___if_lbl00482   0x003e16    program     static                          
           ___if_lbl00483   0x003e1a    program     static                          
           ___if_lbl00484   0x003e82    program     static                          
           ___if_lbl00485   0x003f8c    program     static                          
           ___if_lbl00486   0x004020    program     static                          
           ___if_lbl00487   0x004020    program     static                          
           ___if_lbl00489   0x0040e6    program     static                          
           ___if_lbl00490   0x0041ac    program     static                          
           ___if_lbl00491   0x0041c0    program     static                          
           ___if_lbl00493   0x004210    program     static                          
           ___if_lbl00496   0x00431a    program     static                          
           ___if_lbl00497   0x004418    program     static                          
           ___if_lbl00498   0x004430    program     static                          
           ___if_lbl00499   0x004498    program     static                          
           ___if_lbl00503   0x0045e6    program     static                          
           ___if_lbl00504   0x0046e4    program     static                          
           ___if_lbl00505   0x0046fc    program     static                          
           ___if_lbl00506   0x004764    program     static                          
           ___if_lbl00511   0x004bf0    program     static                          
           ___if_lbl00515   0x004d66    program     static                          
           ___if_lbl00520   0x004ff2    program     static                          
           ___if_lbl00521   0x004ff2    program     static                          
           ___if_lbl00527   0x0051c0    program     static                          
           ___if_lbl00529   0x0052da    program     static                          
           ___if_lbl00542   0x0054da    program     static                          
           ___if_lbl00543   0x005510    program     static                          
           ___if_lbl00544   0x005546    program     static                          
           ___if_lbl00545   0x00557c    program     static                          
           ___if_lbl00546   0x0056f8    program     static                          
           ___if_lbl00550   0x005782    program     static                          
           ___if_lbl00551   0x005828    program     static                          
           ___if_lbl00559   0x005918    program     static                          
           ___if_lbl00563   0x005922    program     static                          
           ___if_lbl00564   0x005978    program     static                          
           ___if_lbl00568   0x005bee    program     static                          
           ___if_lbl00569   0x005c18    program     static                          
           ___if_lbl00570   0x005c2c    program     static                          
       ___return_lbl00000   0x00d46e    program     static                          
       ___return_lbl00000   0x00d8ae    program     static                          
       ___return_lbl00000   0x00e2ec    program     static                          
       ___return_lbl00000   0x00df46    program     static                          
       ___return_lbl00000   0x00dc40    program     static                          
       ___return_lbl00000   0x00ddc4    program     static                          
       ___return_lbl00000   0x006a7c    program     static                          
       ___return_lbl00000   0x00b89a    program     static                          
       ___return_lbl00000   0x00000c    program     static                          
       ___return_lbl00000   0x000004    program     static                          
       ___return_lbl00001   0x00001c    program     static                          
       ___return_lbl00001   0x00e35c    program     static                          
       ___return_lbl00002   0x00da28    program     static                          
       ___return_lbl00005   0x00d4dc    program     static                          
       ___return_lbl00009   0x0082c4    program     static                          
       ___return_lbl00027   0x0002cc    program     static                          
       ___return_lbl00031   0x000370    program     static                          
       ___return_lbl00053   0x000654    program     static                          
       ___return_lbl00072   0x0008ba    program     static                          
       ___return_lbl00077   0x000fba    program     static                          
       ___return_lbl00124   0x00b904    program     static                          
       ___return_lbl00422   0x0052fc    program     static                          
       ___return_lbl00541   0x005c2e    program     static                          
   ___switchexit_lbl00029   0x00af36    program     static                          
        ___while_lbl00001   0x006a72    program     static                          
        ___while_lbl00002   0x006a7c    program     static                          
        ___while_lbl00004   0x00d7fe    program     static                          
        ___while_lbl00005   0x00d80c    program     static                          
        ___while_lbl00012   0x006bb8    program     static                          
        ___while_lbl00013   0x006bc2    program     static                          
        ___while_lbl00017   0x006cc2    program     static                          
        ___while_lbl00018   0x006ccc    program     static                          
        ___while_lbl00022   0x006dcc    program     static                          
        ___while_lbl00023   0x006dd6    program     static                          
        ___while_lbl00029   0x007004    program     static                          
        ___while_lbl00030   0x00700e    program     static                          
        ___while_lbl00036   0x00723c    program     static                          
        ___while_lbl00037   0x007246    program     static                          
        ___while_lbl00043   0x007476    program     static                          
        ___while_lbl00044   0x007480    program     static                          
        ___while_lbl00048   0x007506    program     static                          
        ___while_lbl00049   0x007510    program     static                          
        ___while_lbl00053   0x007596    program     static                          
        ___while_lbl00054   0x0075a0    program     static                          
        ___while_lbl00056   0x00b02e    program     static                          
        ___while_lbl00057   0x00b030    program     static                          
        ___while_lbl00561   0x005920    program     static                          
        ___while_lbl00562   0x005922    program     static                          
        ___while_lbl00565   0x005bd8    program     static                          
        ___while_lbl00566   0x005c2e    program     static                          
               __config_0   0x300001    program     static /audio/mandm/mandm/mandm8722.c
               __config_1   0x300002    program     static /audio/mandm/mandm/mandm8722.c
               __config_2   0x300003    program     static /audio/mandm/mandm/mandm8722.c
               __config_3   0x300006    program     static /audio/mandm/mandm/mandm8722.c
                   __init   0x00e3de    program     extern C:\MCC18\v3_39\src\traditional\stdclib\__init.c
                   __pa_0   0x00de0c    program     static /media/usb1/mandm/mandm/xlcd/putrxlcd.c
                   __pa_0   0x00d32c    program     static /audio/mandm/mandm/config.c
                   __pa_0   0x00d050    program     static /audio/mandm/mandm/power.c
                   __pa_0   0x00e308    program     static /media/usb1/mandm/mandm/xlcd/busyxlcd.c
                   __pa_0   0x00dfc6    program     static /media/usb1/mandm/mandm/xlcd/wcmdxlcd.c
                   __pa_0   0x00deaa    program     static /media/usb1/mandm/mandm/xlcd/setddram.c
                   __pa_0   0x00def2    program     static /media/usb1/mandm/mandm/xlcd/setcgram.c
                   __pa_0   0x00e0d0    program     static /media/usb1/mandm/mandm/xlcd/putsxlcd.c
                   __pa_0   0x00d598    program     static /audio/mandm/mandm/crit.c
                   __pa_0   0x005c30    program     static /audio/mandm/mandm/mandm8722.c
                   __pa_0   0x00c2ae    program     static C:\MCC18\v3_39\src\traditional\stdclib\vfprintf.c
                   __pa_0   0x00df80    program     static /media/usb1/mandm/mandm/xlcd/writdata.c
                   __pa_0   0x00dab2    program     static /media/usb1/mandm/mandm/xlcd/openxlcd.c
                   __pa_0   0x0083b2    program     static /audio/mandm/mandm/daq.c 
                   __pa_0   0x00b95c    program     static /audio/mandm/mandm/mandm_vector.c
                   __pa_1   0x0083da    program     static /audio/mandm/mandm/daq.c 
                   __pa_1   0x00dabc    program     static /media/usb1/mandm/mandm/xlcd/openxlcd.c
                   __pa_1   0x00d5a6    program     static /audio/mandm/mandm/crit.c
                   __pa_1   0x00c2b6    program     static C:\MCC18\v3_39\src\traditional\stdclib\vfprintf.c
                   __pa_1   0x00b966    program     static /audio/mandm/mandm/mandm_vector.c
                   __pa_1   0x00d05e    program     static /audio/mandm/mandm/power.c
                   __pa_1   0x005c44    program     static /audio/mandm/mandm/mandm8722.c
                   __pa_1   0x00d342    program     static /audio/mandm/mandm/config.c
                  __pa_10   0x005ce6    program     static /audio/mandm/mandm/mandm8722.c
                  __pa_10   0x00c36a    program     static C:\MCC18\v3_39\src\traditional\stdclib\vfprintf.c
                  __pa_10   0x00d0c8    program     static /audio/mandm/mandm/power.c
                  __pa_10   0x00d39a    program     static /audio/mandm/mandm/config.c
                 __pa_100   0x00623a    program     static /audio/mandm/mandm/mandm8722.c
                 __pa_101   0x006246    program     static /audio/mandm/mandm/mandm8722.c
                 __pa_102   0x00624c    program     static /audio/mandm/mandm/mandm8722.c
                 __pa_103   0x006256    program     static /audio/mandm/mandm/mandm8722.c
                 __pa_104   0x006260    program     static /audio/mandm/mandm/mandm8722.c
                 __pa_105   0x00626a    program     static /audio/mandm/mandm/mandm8722.c
                 __pa_106   0x006272    program     static /audio/mandm/mandm/mandm8722.c
                 __pa_107   0x006278    program     static /audio/mandm/mandm/mandm8722.c
                 __pa_108   0x006282    program     static /audio/mandm/mandm/mandm8722.c
                 __pa_109   0x006290    program     static /audio/mandm/mandm/mandm8722.c
                  __pa_11   0x005d00    program     static /audio/mandm/mandm/mandm8722.c
                  __pa_11   0x00c378    program     static C:\MCC18\v3_39\src\traditional\stdclib\vfprintf.c
                  __pa_11   0x00d3a6    program     static /audio/mandm/mandm/config.c
                  __pa_11   0x00d0d0    program     static /audio/mandm/mandm/power.c
                 __pa_110   0x00629e    program     static /audio/mandm/mandm/mandm8722.c
                 __pa_111   0x0062ac    program     static /audio/mandm/mandm/mandm8722.c
                 __pa_112   0x0062b4    program     static /audio/mandm/mandm/mandm8722.c
                 __pa_113   0x0062c2    program     static /audio/mandm/mandm/mandm8722.c
                 __pa_114   0x0062cc    program     static /audio/mandm/mandm/mandm8722.c
                 __pa_115   0x0062d6    program     static /audio/mandm/mandm/mandm8722.c
                 __pa_116   0x0062e0    program     static /audio/mandm/mandm/mandm8722.c
                 __pa_117   0x0062ea    program     static /audio/mandm/mandm/mandm8722.c
                 __pa_118   0x0062f4    program     static /audio/mandm/mandm/mandm8722.c
                 __pa_119   0x006316    program     static /audio/mandm/mandm/mandm8722.c
                  __pa_12   0x00c38e    program     static C:\MCC18\v3_39\src\traditional\stdclib\vfprintf.c
                  __pa_12   0x005d1e    program     static /audio/mandm/mandm/mandm8722.c
                  __pa_12   0x00d3ae    program     static /audio/mandm/mandm/config.c
                 __pa_120   0x006328    program     static /audio/mandm/mandm/mandm8722.c
                 __pa_121   0x006342    program     static /audio/mandm/mandm/mandm8722.c
                 __pa_122   0x006362    program     static /audio/mandm/mandm/mandm8722.c
                 __pa_123   0x00637a    program     static /audio/mandm/mandm/mandm8722.c
                 __pa_124   0x006380    program     static /audio/mandm/mandm/mandm8722.c
                 __pa_125   0x006398    program     static /audio/mandm/mandm/mandm8722.c
                 __pa_126   0x0063ca    program     static /audio/mandm/mandm/mandm8722.c
                 __pa_127   0x0063d2    program     static /audio/mandm/mandm/mandm8722.c
                 __pa_128   0x0063e2    program     static /audio/mandm/mandm/mandm8722.c
                 __pa_129   0x0063fa    program     static /audio/mandm/mandm/mandm8722.c
                  __pa_13   0x00d3b2    program     static /audio/mandm/mandm/config.c
                  __pa_13   0x00c3a8    program     static C:\MCC18\v3_39\src\traditional\stdclib\vfprintf.c
                  __pa_13   0x005d2a    program     static /audio/mandm/mandm/mandm8722.c
                 __pa_130   0x006402    program     static /audio/mandm/mandm/mandm8722.c
                 __pa_131   0x00640a    program     static /audio/mandm/mandm/mandm8722.c
                 __pa_132   0x006414    program     static /audio/mandm/mandm/mandm8722.c
                 __pa_133   0x00641a    program     static /audio/mandm/mandm/mandm8722.c
                 __pa_134   0x006424    program     static /audio/mandm/mandm/mandm8722.c
                 __pa_135   0x006434    program     static /audio/mandm/mandm/mandm8722.c
                 __pa_136   0x00643c    program     static /audio/mandm/mandm/mandm8722.c
                 __pa_137   0x006440    program     static /audio/mandm/mandm/mandm8722.c
                 __pa_138   0x00644c    program     static /audio/mandm/mandm/mandm8722.c
                 __pa_139   0x00645c    program     static /audio/mandm/mandm/mandm8722.c
                  __pa_14   0x00d3ba    program     static /audio/mandm/mandm/config.c
                  __pa_14   0x00c3c0    program     static C:\MCC18\v3_39\src\traditional\stdclib\vfprintf.c
                  __pa_14   0x005d30    program     static /audio/mandm/mandm/mandm8722.c
                 __pa_140   0x006472    program     static /audio/mandm/mandm/mandm8722.c
                 __pa_141   0x006488    program     static /audio/mandm/mandm/mandm8722.c
                 __pa_142   0x00649a    program     static /audio/mandm/mandm/mandm8722.c
                 __pa_143   0x0064a6    program     static /audio/mandm/mandm/mandm8722.c
                 __pa_144   0x0064ae    program     static /audio/mandm/mandm/mandm8722.c
                 __pa_145   0x0064b4    program     static /audio/mandm/mandm/mandm8722.c
                 __pa_146   0x0064ce    program     static /audio/mandm/mandm/mandm8722.c
                 __pa_147   0x0064e2    program     static /audio/mandm/mandm/mandm8722.c
                 __pa_148   0x0064e8    program     static /audio/mandm/mandm/mandm8722.c
                 __pa_149   0x0064f2    program     static /audio/mandm/mandm/mandm8722.c
                  __pa_15   0x005d3c    program     static /audio/mandm/mandm/mandm8722.c
                  __pa_15   0x00c3d0    program     static C:\MCC18\v3_39\src\traditional\stdclib\vfprintf.c
                  __pa_15   0x00d3c2    program     static /audio/mandm/mandm/config.c
                 __pa_150   0x0064fa    program     static /audio/mandm/mandm/mandm8722.c
                 __pa_151   0x006504    program     static /audio/mandm/mandm/mandm8722.c
                 __pa_152   0x006512    program     static /audio/mandm/mandm/mandm8722.c
                 __pa_153   0x006522    program     static /audio/mandm/mandm/mandm8722.c
                 __pa_154   0x006528    program     static /audio/mandm/mandm/mandm8722.c
                 __pa_155   0x006532    program     static /audio/mandm/mandm/mandm8722.c
                 __pa_156   0x006548    program     static /audio/mandm/mandm/mandm8722.c
                 __pa_157   0x00655c    program     static /audio/mandm/mandm/mandm8722.c
                 __pa_158   0x006570    program     static /audio/mandm/mandm/mandm8722.c
                 __pa_159   0x006578    program     static /audio/mandm/mandm/mandm8722.c
                  __pa_16   0x00c3e6    program     static C:\MCC18\v3_39\src\traditional\stdclib\vfprintf.c
                  __pa_16   0x00d3cc    program     static /audio/mandm/mandm/config.c
                  __pa_16   0x005d66    program     static /audio/mandm/mandm/mandm8722.c
                 __pa_160   0x006582    program     static /audio/mandm/mandm/mandm8722.c
                 __pa_161   0x00658c    program     static /audio/mandm/mandm/mandm8722.c
                 __pa_162   0x006594    program     static /audio/mandm/mandm/mandm8722.c
                 __pa_163   0x0065a8    program     static /audio/mandm/mandm/mandm8722.c
                 __pa_164   0x0065b2    program     static /audio/mandm/mandm/mandm8722.c
                 __pa_165   0x0065be    program     static /audio/mandm/mandm/mandm8722.c
                 __pa_166   0x0065d0    program     static /audio/mandm/mandm/mandm8722.c
                 __pa_167   0x0065e2    program     static /audio/mandm/mandm/mandm8722.c
                 __pa_168   0x0065f4    program     static /audio/mandm/mandm/mandm8722.c
                 __pa_169   0x006602    program     static /audio/mandm/mandm/mandm8722.c
                  __pa_17   0x005d70    program     static /audio/mandm/mandm/mandm8722.c
                  __pa_17   0x00c3f8    program     static C:\MCC18\v3_39\src\traditional\stdclib\vfprintf.c
                  __pa_17   0x00d3d0    program     static /audio/mandm/mandm/config.c
                 __pa_170   0x006614    program     static /audio/mandm/mandm/mandm8722.c
                 __pa_171   0x006622    program     static /audio/mandm/mandm/mandm8722.c
                 __pa_172   0x00662a    program     static /audio/mandm/mandm/mandm8722.c
                 __pa_173   0x00663c    program     static /audio/mandm/mandm/mandm8722.c
                 __pa_174   0x00664e    program     static /audio/mandm/mandm/mandm8722.c
                 __pa_175   0x006660    program     static /audio/mandm/mandm/mandm8722.c
                 __pa_176   0x006672    program     static /audio/mandm/mandm/mandm8722.c
                 __pa_177   0x006684    program     static /audio/mandm/mandm/mandm8722.c
                 __pa_178   0x006696    program     static /audio/mandm/mandm/mandm8722.c
                 __pa_179   0x00669c    program     static /audio/mandm/mandm/mandm8722.c
                  __pa_18   0x00c40a    program     static C:\MCC18\v3_39\src\traditional\stdclib\vfprintf.c
                  __pa_18   0x00d3d6    program     static /audio/mandm/mandm/config.c
                  __pa_18   0x005d78    program     static /audio/mandm/mandm/mandm8722.c
                 __pa_180   0x0066a6    program     static /audio/mandm/mandm/mandm8722.c
                 __pa_181   0x0066b2    program     static /audio/mandm/mandm/mandm8722.c
                 __pa_182   0x0066bc    program     static /audio/mandm/mandm/mandm8722.c
                 __pa_183   0x0066c6    program     static /audio/mandm/mandm/mandm8722.c
                 __pa_184   0x0066d0    program     static /audio/mandm/mandm/mandm8722.c
                 __pa_185   0x0066d6    program     static /audio/mandm/mandm/mandm8722.c
                 __pa_186   0x0066e0    program     static /audio/mandm/mandm/mandm8722.c
                 __pa_187   0x0066ea    program     static /audio/mandm/mandm/mandm8722.c
                 __pa_188   0x0066f4    program     static /audio/mandm/mandm/mandm8722.c
                 __pa_189   0x006702    program     static /audio/mandm/mandm/mandm8722.c
                  __pa_19   0x00c414    program     static C:\MCC18\v3_39\src\traditional\stdclib\vfprintf.c
                  __pa_19   0x005d7e    program     static /audio/mandm/mandm/mandm8722.c
                 __pa_190   0x006708    program     static /audio/mandm/mandm/mandm8722.c
                 __pa_191   0x006718    program     static /audio/mandm/mandm/mandm8722.c
                 __pa_192   0x006728    program     static /audio/mandm/mandm/mandm8722.c
                 __pa_193   0x006736    program     static /audio/mandm/mandm/mandm8722.c
                 __pa_194   0x006742    program     static /audio/mandm/mandm/mandm8722.c
                 __pa_195   0x00674c    program     static /audio/mandm/mandm/mandm8722.c
                 __pa_196   0x00675a    program     static /audio/mandm/mandm/mandm8722.c
                 __pa_197   0x006768    program     static /audio/mandm/mandm/mandm8722.c
                 __pa_198   0x006770    program     static /audio/mandm/mandm/mandm8722.c
                 __pa_199   0x00677a    program     static /audio/mandm/mandm/mandm8722.c
                   __pa_2   0x0083fe    program     static /audio/mandm/mandm/daq.c 
                   __pa_2   0x00c2c0    program     static C:\MCC18\v3_39\src\traditional\stdclib\vfprintf.c
                   __pa_2   0x005c4e    program     static /audio/mandm/mandm/mandm8722.c
                   __pa_2   0x00d34a    program     static /audio/mandm/mandm/config.c
                   __pa_2   0x00d068    program     static /audio/mandm/mandm/power.c
                   __pa_2   0x00d5b2    program     static /audio/mandm/mandm/crit.c
                  __pa_20   0x00c424    program     static C:\MCC18\v3_39\src\traditional\stdclib\vfprintf.c
                  __pa_20   0x005d8c    program     static /audio/mandm/mandm/mandm8722.c
                 __pa_200   0x006780    program     static /audio/mandm/mandm/mandm8722.c
                 __pa_201   0x00678c    program     static /audio/mandm/mandm/mandm8722.c
                 __pa_202   0x006798    program     static /audio/mandm/mandm/mandm8722.c
                 __pa_203   0x0067a0    program     static /audio/mandm/mandm/mandm8722.c
                 __pa_204   0x0067ac    program     static /audio/mandm/mandm/mandm8722.c
                 __pa_205   0x0067b8    program     static /audio/mandm/mandm/mandm8722.c
                 __pa_206   0x0067c2    program     static /audio/mandm/mandm/mandm8722.c
                 __pa_207   0x0067cc    program     static /audio/mandm/mandm/mandm8722.c
                 __pa_208   0x0067d6    program     static /audio/mandm/mandm/mandm8722.c
                 __pa_209   0x0067e0    program     static /audio/mandm/mandm/mandm8722.c
                  __pa_21   0x00c434    program     static C:\MCC18\v3_39\src\traditional\stdclib\vfprintf.c
                  __pa_21   0x005daa    program     static /audio/mandm/mandm/mandm8722.c
                 __pa_210   0x0067e8    program     static /audio/mandm/mandm/mandm8722.c
                 __pa_211   0x0067f2    program     static /audio/mandm/mandm/mandm8722.c
                 __pa_212   0x0067f6    program     static /audio/mandm/mandm/mandm8722.c
                 __pa_213   0x006800    program     static /audio/mandm/mandm/mandm8722.c
                 __pa_214   0x006808    program     static /audio/mandm/mandm/mandm8722.c
                 __pa_215   0x006832    program     static /audio/mandm/mandm/mandm8722.c
                 __pa_216   0x00684c    program     static /audio/mandm/mandm/mandm8722.c
                 __pa_217   0x006858    program     static /audio/mandm/mandm/mandm8722.c
                 __pa_218   0x00685e    program     static /audio/mandm/mandm/mandm8722.c
                 __pa_219   0x006880    program     static /audio/mandm/mandm/mandm8722.c
                  __pa_22   0x005db4    program     static /audio/mandm/mandm/mandm8722.c
                  __pa_22   0x00c444    program     static C:\MCC18\v3_39\src\traditional\stdclib\vfprintf.c
                 __pa_220   0x006898    program     static /audio/mandm/mandm/mandm8722.c
                 __pa_221   0x0068a2    program     static /audio/mandm/mandm/mandm8722.c
                 __pa_222   0x0068be    program     static /audio/mandm/mandm/mandm8722.c
                 __pa_223   0x0068c6    program     static /audio/mandm/mandm/mandm8722.c
                 __pa_224   0x0068de    program     static /audio/mandm/mandm/mandm8722.c
                 __pa_225   0x0068fa    program     static /audio/mandm/mandm/mandm8722.c
                 __pa_226   0x006914    program     static /audio/mandm/mandm/mandm8722.c
                 __pa_227   0x006922    program     static /audio/mandm/mandm/mandm8722.c
                 __pa_228   0x00692a    program     static /audio/mandm/mandm/mandm8722.c
                 __pa_229   0x006932    program     static /audio/mandm/mandm/mandm8722.c
                  __pa_23   0x00c450    program     static C:\MCC18\v3_39\src\traditional\stdclib\vfprintf.c
                  __pa_23   0x005dd6    program     static /audio/mandm/mandm/mandm8722.c
                 __pa_230   0x006946    program     static /audio/mandm/mandm/mandm8722.c
                 __pa_231   0x00695c    program     static /audio/mandm/mandm/mandm8722.c
                 __pa_232   0x006964    program     static /audio/mandm/mandm/mandm8722.c
                 __pa_233   0x00696a    program     static /audio/mandm/mandm/mandm8722.c
                 __pa_234   0x00697a    program     static /audio/mandm/mandm/mandm8722.c
                 __pa_235   0x006980    program     static /audio/mandm/mandm/mandm8722.c
                 __pa_236   0x006992    program     static /audio/mandm/mandm/mandm8722.c
                 __pa_237   0x00699a    program     static /audio/mandm/mandm/mandm8722.c
                 __pa_238   0x0069a8    program     static /audio/mandm/mandm/mandm8722.c
                 __pa_239   0x0069b6    program     static /audio/mandm/mandm/mandm8722.c
                  __pa_24   0x00c45e    program     static C:\MCC18\v3_39\src\traditional\stdclib\vfprintf.c
                  __pa_24   0x005de4    program     static /audio/mandm/mandm/mandm8722.c
                 __pa_240   0x0069c4    program     static /audio/mandm/mandm/mandm8722.c
                 __pa_241   0x0069d0    program     static /audio/mandm/mandm/mandm8722.c
                 __pa_242   0x0069d8    program     static /audio/mandm/mandm/mandm8722.c
                 __pa_243   0x0069e0    program     static /audio/mandm/mandm/mandm8722.c
                 __pa_244   0x0069ea    program     static /audio/mandm/mandm/mandm8722.c
                 __pa_245   0x0069f2    program     static /audio/mandm/mandm/mandm8722.c
                 __pa_246   0x0069fa    program     static /audio/mandm/mandm/mandm8722.c
                 __pa_247   0x006a00    program     static /audio/mandm/mandm/mandm8722.c
                 __pa_248   0x006a08    program     static /audio/mandm/mandm/mandm8722.c
                 __pa_249   0x006a0e    program     static /audio/mandm/mandm/mandm8722.c
                  __pa_25   0x00c466    program     static C:\MCC18\v3_39\src\traditional\stdclib\vfprintf.c
                  __pa_25   0x005df0    program     static /audio/mandm/mandm/mandm8722.c
                 __pa_250   0x006a1e    program     static /audio/mandm/mandm/mandm8722.c
                 __pa_251   0x006a30    program     static /audio/mandm/mandm/mandm8722.c
                 __pa_252   0x006a3a    program     static /audio/mandm/mandm/mandm8722.c
                 __pa_253   0x006a42    program     static /audio/mandm/mandm/mandm8722.c
                 __pa_254   0x006a4a    program     static /audio/mandm/mandm/mandm8722.c
                 __pa_255   0x006a52    program     static /audio/mandm/mandm/mandm8722.c
                  __pa_26   0x00c470    program     static C:\MCC18\v3_39\src\traditional\stdclib\vfprintf.c
                  __pa_26   0x005df8    program     static /audio/mandm/mandm/mandm8722.c
                  __pa_27   0x005e06    program     static /audio/mandm/mandm/mandm8722.c
                  __pa_27   0x00c47a    program     static C:\MCC18\v3_39\src\traditional\stdclib\vfprintf.c
                  __pa_28   0x005e12    program     static /audio/mandm/mandm/mandm8722.c
                  __pa_28   0x00c482    program     static C:\MCC18\v3_39\src\traditional\stdclib\vfprintf.c
                  __pa_29   0x005e28    program     static /audio/mandm/mandm/mandm8722.c
                  __pa_29   0x00c490    program     static C:\MCC18\v3_39\src\traditional\stdclib\vfprintf.c
                   __pa_3   0x00c2ca    program     static C:\MCC18\v3_39\src\traditional\stdclib\vfprintf.c
                   __pa_3   0x00d5c0    program     static /audio/mandm/mandm/crit.c
                   __pa_3   0x005c6c    program     static /audio/mandm/mandm/mandm8722.c
                   __pa_3   0x00d072    program     static /audio/mandm/mandm/power.c
                   __pa_3   0x008410    program     static /audio/mandm/mandm/daq.c 
                   __pa_3   0x00d358    program     static /audio/mandm/mandm/config.c
                  __pa_30   0x005e4e    program     static /audio/mandm/mandm/mandm8722.c
                  __pa_30   0x00c4ac    program     static C:\MCC18\v3_39\src\traditional\stdclib\vfprintf.c
                  __pa_31   0x005e62    program     static /audio/mandm/mandm/mandm8722.c
                  __pa_31   0x00c4c6    program     static C:\MCC18\v3_39\src\traditional\stdclib\vfprintf.c
                  __pa_32   0x00c4e0    program     static C:\MCC18\v3_39\src\traditional\stdclib\vfprintf.c
                  __pa_32   0x005e78    program     static /audio/mandm/mandm/mandm8722.c
                  __pa_33   0x00c4f8    program     static C:\MCC18\v3_39\src\traditional\stdclib\vfprintf.c
                  __pa_33   0x005e8a    program     static /audio/mandm/mandm/mandm8722.c
                  __pa_34   0x00c502    program     static C:\MCC18\v3_39\src\traditional\stdclib\vfprintf.c
                  __pa_34   0x005e94    program     static /audio/mandm/mandm/mandm8722.c
                  __pa_35   0x005e9e    program     static /audio/mandm/mandm/mandm8722.c
                  __pa_35   0x00c510    program     static C:\MCC18\v3_39\src\traditional\stdclib\vfprintf.c
                  __pa_36   0x005ea8    program     static /audio/mandm/mandm/mandm8722.c
                  __pa_36   0x00c518    program     static C:\MCC18\v3_39\src\traditional\stdclib\vfprintf.c
                  __pa_37   0x00c522    program     static C:\MCC18\v3_39\src\traditional\stdclib\vfprintf.c
                  __pa_37   0x005ec2    program     static /audio/mandm/mandm/mandm8722.c
                  __pa_38   0x00c532    program     static C:\MCC18\v3_39\src\traditional\stdclib\vfprintf.c
                  __pa_38   0x005ec8    program     static /audio/mandm/mandm/mandm8722.c
                  __pa_39   0x005eda    program     static /audio/mandm/mandm/mandm8722.c
                  __pa_39   0x00c540    program     static C:\MCC18\v3_39\src\traditional\stdclib\vfprintf.c
                   __pa_4   0x00d360    program     static /audio/mandm/mandm/config.c
                   __pa_4   0x005c8a    program     static /audio/mandm/mandm/mandm8722.c
                   __pa_4   0x00c2e2    program     static C:\MCC18\v3_39\src\traditional\stdclib\vfprintf.c
                   __pa_4   0x00d07a    program     static /audio/mandm/mandm/power.c
                   __pa_4   0x00842c    program     static /audio/mandm/mandm/daq.c 
                  __pa_40   0x005ee6    program     static /audio/mandm/mandm/mandm8722.c
                  __pa_40   0x00c54c    program     static C:\MCC18\v3_39\src\traditional\stdclib\vfprintf.c
                  __pa_41   0x005ef4    program     static /audio/mandm/mandm/mandm8722.c
                  __pa_41   0x00c558    program     static C:\MCC18\v3_39\src\traditional\stdclib\vfprintf.c
                  __pa_42   0x005efc    program     static /audio/mandm/mandm/mandm8722.c
                  __pa_42   0x00c560    program     static C:\MCC18\v3_39\src\traditional\stdclib\vfprintf.c
                  __pa_43   0x005f10    program     static /audio/mandm/mandm/mandm8722.c
                  __pa_43   0x00c56a    program     static C:\MCC18\v3_39\src\traditional\stdclib\vfprintf.c
                  __pa_44   0x005f2a    program     static /audio/mandm/mandm/mandm8722.c
                  __pa_44   0x00c570    program     static C:\MCC18\v3_39\src\traditional\stdclib\vfprintf.c
                  __pa_45   0x005f3e    program     static /audio/mandm/mandm/mandm8722.c
                  __pa_45   0x00c57a    program     static C:\MCC18\v3_39\src\traditional\stdclib\vfprintf.c
                  __pa_46   0x005f46    program     static /audio/mandm/mandm/mandm8722.c
                  __pa_46   0x00c586    program     static C:\MCC18\v3_39\src\traditional\stdclib\vfprintf.c
                  __pa_47   0x005f4e    program     static /audio/mandm/mandm/mandm8722.c
                  __pa_48   0x005f5c    program     static /audio/mandm/mandm/mandm8722.c
                  __pa_49   0x005f64    program     static /audio/mandm/mandm/mandm8722.c
                   __pa_5   0x00d370    program     static /audio/mandm/mandm/config.c
                   __pa_5   0x00d088    program     static /audio/mandm/mandm/power.c
                   __pa_5   0x00843a    program     static /audio/mandm/mandm/daq.c 
                   __pa_5   0x005c92    program     static /audio/mandm/mandm/mandm8722.c
                   __pa_5   0x00c2f6    program     static C:\MCC18\v3_39\src\traditional\stdclib\vfprintf.c
                  __pa_50   0x005f6c    program     static /audio/mandm/mandm/mandm8722.c
                  __pa_51   0x005f74    program     static /audio/mandm/mandm/mandm8722.c
                  __pa_52   0x005f9e    program     static /audio/mandm/mandm/mandm8722.c
                  __pa_53   0x005fa8    program     static /audio/mandm/mandm/mandm8722.c
                  __pa_54   0x005fb2    program     static /audio/mandm/mandm/mandm8722.c
                  __pa_55   0x005fc0    program     static /audio/mandm/mandm/mandm8722.c
                  __pa_56   0x005fc8    program     static /audio/mandm/mandm/mandm8722.c
                  __pa_57   0x005fe8    program     static /audio/mandm/mandm/mandm8722.c
                  __pa_58   0x006008    program     static /audio/mandm/mandm/mandm8722.c
                  __pa_59   0x006018    program     static /audio/mandm/mandm/mandm8722.c
                   __pa_6   0x008448    program     static /audio/mandm/mandm/daq.c 
                   __pa_6   0x00d0a0    program     static /audio/mandm/mandm/power.c
                   __pa_6   0x00d378    program     static /audio/mandm/mandm/config.c
                   __pa_6   0x005ca4    program     static /audio/mandm/mandm/mandm8722.c
                   __pa_6   0x00c312    program     static C:\MCC18\v3_39\src\traditional\stdclib\vfprintf.c
                  __pa_60   0x006028    program     static /audio/mandm/mandm/mandm8722.c
                  __pa_61   0x006032    program     static /audio/mandm/mandm/mandm8722.c
                  __pa_62   0x006038    program     static /audio/mandm/mandm/mandm8722.c
                  __pa_63   0x00603e    program     static /audio/mandm/mandm/mandm8722.c
                  __pa_64   0x006056    program     static /audio/mandm/mandm/mandm8722.c
                  __pa_65   0x00605e    program     static /audio/mandm/mandm/mandm8722.c
                  __pa_66   0x006066    program     static /audio/mandm/mandm/mandm8722.c
                  __pa_67   0x006072    program     static /audio/mandm/mandm/mandm8722.c
                  __pa_68   0x006080    program     static /audio/mandm/mandm/mandm8722.c
                  __pa_69   0x00608e    program     static /audio/mandm/mandm/mandm8722.c
                   __pa_7   0x005cae    program     static /audio/mandm/mandm/mandm8722.c
                   __pa_7   0x00d0ae    program     static /audio/mandm/mandm/power.c
                   __pa_7   0x00c31c    program     static C:\MCC18\v3_39\src\traditional\stdclib\vfprintf.c
                   __pa_7   0x00d380    program     static /audio/mandm/mandm/config.c
                  __pa_70   0x00609a    program     static /audio/mandm/mandm/mandm8722.c
                  __pa_71   0x0060a4    program     static /audio/mandm/mandm/mandm8722.c
                  __pa_72   0x0060ae    program     static /audio/mandm/mandm/mandm8722.c
                  __pa_73   0x0060b8    program     static /audio/mandm/mandm/mandm8722.c
                  __pa_74   0x0060d0    program     static /audio/mandm/mandm/mandm8722.c
                  __pa_75   0x0060e4    program     static /audio/mandm/mandm/mandm8722.c
                  __pa_76   0x0060ee    program     static /audio/mandm/mandm/mandm8722.c
                  __pa_77   0x0060f8    program     static /audio/mandm/mandm/mandm8722.c
                  __pa_78   0x006102    program     static /audio/mandm/mandm/mandm8722.c
                  __pa_79   0x00610c    program     static /audio/mandm/mandm/mandm8722.c
                   __pa_8   0x00c328    program     static C:\MCC18\v3_39\src\traditional\stdclib\vfprintf.c
                   __pa_8   0x005cb8    program     static /audio/mandm/mandm/mandm8722.c
                   __pa_8   0x00d0b8    program     static /audio/mandm/mandm/power.c
                   __pa_8   0x00d388    program     static /audio/mandm/mandm/config.c
                  __pa_80   0x006122    program     static /audio/mandm/mandm/mandm8722.c
                  __pa_81   0x00612e    program     static /audio/mandm/mandm/mandm8722.c
                  __pa_82   0x00613a    program     static /audio/mandm/mandm/mandm8722.c
                  __pa_83   0x006142    program     static /audio/mandm/mandm/mandm8722.c
                  __pa_84   0x00614a    program     static /audio/mandm/mandm/mandm8722.c
                  __pa_85   0x006158    program     static /audio/mandm/mandm/mandm8722.c
                  __pa_86   0x006166    program     static /audio/mandm/mandm/mandm8722.c
                  __pa_87   0x006174    program     static /audio/mandm/mandm/mandm8722.c
                  __pa_88   0x006182    program     static /audio/mandm/mandm/mandm8722.c
                  __pa_89   0x00618c    program     static /audio/mandm/mandm/mandm8722.c
                   __pa_9   0x005cca    program     static /audio/mandm/mandm/mandm8722.c
                   __pa_9   0x00d0c0    program     static /audio/mandm/mandm/power.c
                   __pa_9   0x00d394    program     static /audio/mandm/mandm/config.c
                   __pa_9   0x00c34a    program     static C:\MCC18\v3_39\src\traditional\stdclib\vfprintf.c
                  __pa_90   0x006196    program     static /audio/mandm/mandm/mandm8722.c
                  __pa_91   0x0061a8    program     static /audio/mandm/mandm/mandm8722.c
                  __pa_92   0x0061ba    program     static /audio/mandm/mandm/mandm8722.c
                  __pa_93   0x0061cc    program     static /audio/mandm/mandm/mandm8722.c
                  __pa_94   0x0061de    program     static /audio/mandm/mandm/mandm8722.c
                  __pa_95   0x0061f0    program     static /audio/mandm/mandm/mandm8722.c
                  __pa_96   0x006202    program     static /audio/mandm/mandm/mandm8722.c
                  __pa_97   0x00620a    program     static /audio/mandm/mandm/mandm8722.c
                  __pa_98   0x00621c    program     static /audio/mandm/mandm/mandm8722.c
                  __pa_99   0x00622e    program     static /audio/mandm/mandm/mandm8722.c
               __string_0   0x0098e5    program     static /audio/mandm/mandm/config.c
               __string_0   0x0084b0    program     static /audio/mandm/mandm/daq.c 
               __string_1   0x008481    program     static /audio/mandm/mandm/daq.c 
               __string_1   0x0098c8    program     static /audio/mandm/mandm/config.c
             __string_108   0x0097c9    program     static /audio/mandm/mandm/mandm8722.c
             __string_109   0x0097c0    program     static /audio/mandm/mandm/mandm8722.c
             __string_110   0x0097a7    program     static /audio/mandm/mandm/mandm8722.c
             __string_111   0x0097a0    program     static /audio/mandm/mandm/mandm8722.c
             __string_112   0x00979d    program     static /audio/mandm/mandm/mandm8722.c
             __string_113   0x009798    program     static /audio/mandm/mandm/mandm8722.c
             __string_114   0x009796    program     static /audio/mandm/mandm/mandm8722.c
             __string_115   0x009780    program     static /audio/mandm/mandm/mandm8722.c
             __string_116   0x0096f1    program     static /audio/mandm/mandm/mandm8722.c
             __string_117   0x009632    program     static /audio/mandm/mandm/mandm8722.c
             __string_118   0x0095d3    program     static /audio/mandm/mandm/mandm8722.c
             __string_119   0x00955b    program     static /audio/mandm/mandm/mandm8722.c
             __string_120   0x00953a    program     static /audio/mandm/mandm/mandm8722.c
             __string_121   0x009528    program     static /audio/mandm/mandm/mandm8722.c
             __string_122   0x00951c    program     static /audio/mandm/mandm/mandm8722.c
             __string_123   0x009514    program     static /audio/mandm/mandm/mandm8722.c
             __string_124   0x00950c    program     static /audio/mandm/mandm/mandm8722.c
             __string_125   0x009506    program     static /audio/mandm/mandm/mandm8722.c
             __string_126   0x0094f9    program     static /audio/mandm/mandm/mandm8722.c
             __string_127   0x0094ef    program     static /audio/mandm/mandm/mandm8722.c
             __string_128   0x0094dd    program     static /audio/mandm/mandm/mandm8722.c
             __string_129   0x0094c3    program     static /audio/mandm/mandm/mandm8722.c
             __string_130   0x0094a9    program     static /audio/mandm/mandm/mandm8722.c
             __string_131   0x009489    program     static /audio/mandm/mandm/mandm8722.c
             __string_132   0x00946f    program     static /audio/mandm/mandm/mandm8722.c
             __string_133   0x009456    program     static /audio/mandm/mandm/mandm8722.c
             __string_134   0x009432    program     static /audio/mandm/mandm/mandm8722.c
             __string_135   0x00940f    program     static /audio/mandm/mandm/mandm8722.c
             __string_136   0x0093c2    program     static /audio/mandm/mandm/mandm8722.c
             __string_137   0x00937b    program     static /audio/mandm/mandm/mandm8722.c
             __string_138   0x009360    program     static /audio/mandm/mandm/mandm8722.c
             __string_139   0x009326    program     static /audio/mandm/mandm/mandm8722.c
             __string_140   0x0092f2    program     static /audio/mandm/mandm/mandm8722.c
             __string_141   0x0092dc    program     static /audio/mandm/mandm/mandm8722.c
             __string_142   0x0092c5    program     static /audio/mandm/mandm/mandm8722.c
             __string_143   0x009276    program     static /audio/mandm/mandm/mandm8722.c
             __string_144   0x009220    program     static /audio/mandm/mandm/mandm8722.c
             __string_145   0x009204    program     static /audio/mandm/mandm/mandm8722.c
             __string_146   0x0091e4    program     static /audio/mandm/mandm/mandm8722.c
             __string_147   0x009190    program     static /audio/mandm/mandm/mandm8722.c
             __string_148   0x009151    program     static /audio/mandm/mandm/mandm8722.c
             __string_149   0x00912f    program     static /audio/mandm/mandm/mandm8722.c
             __string_150   0x0090dc    program     static /audio/mandm/mandm/mandm8722.c
             __string_151   0x0090ca    program     static /audio/mandm/mandm/mandm8722.c
             __string_152   0x0090af    program     static /audio/mandm/mandm/mandm8722.c
             __string_153   0x0090a0    program     static /audio/mandm/mandm/mandm8722.c
             __string_154   0x009085    program     static /audio/mandm/mandm/mandm8722.c
             __string_155   0x00906d    program     static /audio/mandm/mandm/mandm8722.c
             __string_156   0x00905e    program     static /audio/mandm/mandm/mandm8722.c
             __string_157   0x009046    program     static /audio/mandm/mandm/mandm8722.c
             __string_158   0x00902f    program     static /audio/mandm/mandm/mandm8722.c
             __string_159   0x009018    program     static /audio/mandm/mandm/mandm8722.c
             __string_160   0x009005    program     static /audio/mandm/mandm/mandm8722.c
             __string_161   0x008fe0    program     static /audio/mandm/mandm/mandm8722.c
             __string_162   0x008fca    program     static /audio/mandm/mandm/mandm8722.c
             __string_163   0x008fb4    program     static /audio/mandm/mandm/mandm8722.c
             __string_164   0x008f9e    program     static /audio/mandm/mandm/mandm8722.c
             __string_165   0x008f88    program     static /audio/mandm/mandm/mandm8722.c
             __string_166   0x008f5f    program     static /audio/mandm/mandm/mandm8722.c
             __string_167   0x008f3e    program     static /audio/mandm/mandm/mandm8722.c
             __string_168   0x008f21    program     static /audio/mandm/mandm/mandm8722.c
             __string_169   0x008efa    program     static /audio/mandm/mandm/mandm8722.c
             __string_170   0x008ee0    program     static /audio/mandm/mandm/mandm8722.c
             __string_171   0x008eb7    program     static /audio/mandm/mandm/mandm8722.c
             __string_172   0x008e8e    program     static /audio/mandm/mandm/mandm8722.c
             __string_173   0x008e65    program     static /audio/mandm/mandm/mandm8722.c
             __string_174   0x008e3e    program     static /audio/mandm/mandm/mandm8722.c
             __string_175   0x008e17    program     static /audio/mandm/mandm/mandm8722.c
             __string_176   0x008df0    program     static /audio/mandm/mandm/mandm8722.c
             __string_177   0x008dc7    program     static /audio/mandm/mandm/mandm8722.c
             __string_178   0x008daf    program     static /audio/mandm/mandm/mandm8722.c
             __string_179   0x008d86    program     static /audio/mandm/mandm/mandm8722.c
             __string_180   0x008d71    program     static /audio/mandm/mandm/mandm8722.c
             __string_181   0x008d48    program     static /audio/mandm/mandm/mandm8722.c
             __string_182   0x008d26    program     static /audio/mandm/mandm/mandm8722.c
             __string_183   0x008cff    program     static /audio/mandm/mandm/mandm8722.c
             __string_184   0x008cde    program     static /audio/mandm/mandm/mandm8722.c
             __string_185   0x008cb7    program     static /audio/mandm/mandm/mandm8722.c
             __string_186   0x008c90    program     static /audio/mandm/mandm/mandm8722.c
             __string_187   0x008c69    program     static /audio/mandm/mandm/mandm8722.c
             __string_188   0x008c53    program     static /audio/mandm/mandm/mandm8722.c
             __string_189   0x008c3d    program     static /audio/mandm/mandm/mandm8722.c
             __string_190   0x008c27    program     static /audio/mandm/mandm/mandm8722.c
             __string_191   0x008c08    program     static /audio/mandm/mandm/mandm8722.c
             __string_192   0x008be9    program     static /audio/mandm/mandm/mandm8722.c
             __string_193   0x008bca    program     static /audio/mandm/mandm/mandm8722.c
             __string_194   0x008bac    program     static /audio/mandm/mandm/mandm8722.c
             __string_195   0x008b88    program     static /audio/mandm/mandm/mandm8722.c
             __string_196   0x008b5a    program     static /audio/mandm/mandm/mandm8722.c
             __string_197   0x008b3e    program     static /audio/mandm/mandm/mandm8722.c
             __string_198   0x008b13    program     static /audio/mandm/mandm/mandm8722.c
             __string_199   0x008af4    program     static /audio/mandm/mandm/mandm8722.c
               __string_2   0x008452    program     static /audio/mandm/mandm/daq.c 
               __string_2   0x0098a3    program     static /audio/mandm/mandm/config.c
             __string_200   0x008acc    program     static /audio/mandm/mandm/mandm8722.c
             __string_201   0x008a9f    program     static /audio/mandm/mandm/mandm8722.c
             __string_202   0x008a84    program     static /audio/mandm/mandm/mandm8722.c
             __string_203   0x008a59    program     static /audio/mandm/mandm/mandm8722.c
             __string_204   0x008a39    program     static /audio/mandm/mandm/mandm8722.c
             __string_205   0x008a22    program     static /audio/mandm/mandm/mandm8722.c
             __string_206   0x008a0b    program     static /audio/mandm/mandm/mandm8722.c
             __string_207   0x0089ef    program     static /audio/mandm/mandm/mandm8722.c
             __string_208   0x0089d1    program     static /audio/mandm/mandm/mandm8722.c
             __string_209   0x0089ab    program     static /audio/mandm/mandm/mandm8722.c
             __string_210   0x00898e    program     static /audio/mandm/mandm/mandm8722.c
             __string_211   0x008969    program     static /audio/mandm/mandm/mandm8722.c
             __string_212   0x008951    program     static /audio/mandm/mandm/mandm8722.c
             __string_213   0x008929    program     static /audio/mandm/mandm/mandm8722.c
             __string_214   0x008901    program     static /audio/mandm/mandm/mandm8722.c
             __string_215   0x0088d9    program     static /audio/mandm/mandm/mandm8722.c
             __string_216   0x0088b1    program     static /audio/mandm/mandm/mandm8722.c
             __string_217   0x00889a    program     static /audio/mandm/mandm/mandm8722.c
             __string_218   0x008878    program     static /audio/mandm/mandm/mandm8722.c
             __string_219   0x008862    program     static /audio/mandm/mandm/mandm8722.c
             __string_220   0x00884f    program     static /audio/mandm/mandm/mandm8722.c
             __string_221   0x00883c    program     static /audio/mandm/mandm/mandm8722.c
             __string_222   0x008829    program     static /audio/mandm/mandm/mandm8722.c
             __string_223   0x008814    program     static /audio/mandm/mandm/mandm8722.c
             __string_224   0x0087ff    program     static /audio/mandm/mandm/mandm8722.c
             __string_225   0x0087d1    program     static /audio/mandm/mandm/mandm8722.c
             __string_226   0x00879c    program     static /audio/mandm/mandm/mandm8722.c
             __string_227   0x008779    program     static /audio/mandm/mandm/mandm8722.c
             __string_228   0x00873b    program     static /audio/mandm/mandm/mandm8722.c
             __string_229   0x008726    program     static /audio/mandm/mandm/mandm8722.c
             __string_230   0x008701    program     static /audio/mandm/mandm/mandm8722.c
             __string_231   0x0086d7    program     static /audio/mandm/mandm/mandm8722.c
             __string_232   0x0086ae    program     static /audio/mandm/mandm/mandm8722.c
             __string_233   0x008685    program     static /audio/mandm/mandm/mandm8722.c
             __string_234   0x00866d    program     static /audio/mandm/mandm/mandm8722.c
             __string_235   0x00864e    program     static /audio/mandm/mandm/mandm8722.c
             __string_236   0x008635    program     static /audio/mandm/mandm/mandm8722.c
             __string_237   0x008618    program     static /audio/mandm/mandm/mandm8722.c
             __string_238   0x0085f8    program     static /audio/mandm/mandm/mandm8722.c
             __string_239   0x0085d5    program     static /audio/mandm/mandm/mandm8722.c
             __string_240   0x0085b5    program     static /audio/mandm/mandm/mandm8722.c
             __string_241   0x00859c    program     static /audio/mandm/mandm/mandm8722.c
             __string_242   0x008580    program     static /audio/mandm/mandm/mandm8722.c
             __string_243   0x008567    program     static /audio/mandm/mandm/mandm8722.c
             __string_244   0x00854e    program     static /audio/mandm/mandm/mandm8722.c
             __string_245   0x008538    program     static /audio/mandm/mandm/mandm8722.c
             __string_246   0x00851f    program     static /audio/mandm/mandm/mandm8722.c
             __string_247   0x0084fd    program     static /audio/mandm/mandm/mandm8722.c
             __string_248   0x0084df    program     static /audio/mandm/mandm/mandm8722.c
               __string_3   0x00987d    program     static /audio/mandm/mandm/config.c
               __string_4   0x009856    program     static /audio/mandm/mandm/config.c
               __string_5   0x009834    program     static /audio/mandm/mandm/config.c
               __string_6   0x00981d    program     static /audio/mandm/mandm/config.c
               __string_7   0x0097f9    program     static /audio/mandm/mandm/config.c
               __string_8   0x0097d5    program     static /audio/mandm/mandm/config.c
               __tmplbl_0   0x00d79a    program     static                          
               __tmplbl_0   0x00ae36    program     static                          
               __tmplbl_1   0x00d794    program     static                          
               __tmplbl_1   0x00ae30    program     static                          
              __tmplbl_10   0x006e70    program     static                          
              __tmplbl_10   0x00b01a    program     static                          
             __tmplbl_100   0x005d70    program     static                          
             __tmplbl_101   0x005d70    program     static                          
             __tmplbl_102   0x005d70    program     static                          
             __tmplbl_103   0x005d70    program     static                          
             __tmplbl_104   0x005d70    program     static                          
             __tmplbl_105   0x005d70    program     static                          
             __tmplbl_106   0x005d70    program     static                          
             __tmplbl_107   0x005d70    program     static                          
             __tmplbl_109   0x005d70    program     static                          
              __tmplbl_11   0x00b03e    program     static                          
              __tmplbl_11   0x0070a8    program     static                          
             __tmplbl_110   0x005d70    program     static                          
             __tmplbl_111   0x006594    program     static                          
             __tmplbl_112   0x006594    program     static                          
             __tmplbl_113   0x005d70    program     static                          
             __tmplbl_114   0x005d70    program     static                          
             __tmplbl_115   0x00699a    program     static                          
             __tmplbl_116   0x00699a    program     static                          
             __tmplbl_117   0x006440    program     static                          
             __tmplbl_118   0x006440    program     static                          
              __tmplbl_12   0x0072e0    program     static                          
              __tmplbl_12   0x00b038    program     static                          
             __tmplbl_122   0x005d70    program     static                          
             __tmplbl_124   0x005d70    program     static                          
             __tmplbl_125   0x005d70    program     static                          
              __tmplbl_13   0x00b060    program     static                          
              __tmplbl_13   0x0077cc    program     static                          
              __tmplbl_14   0x00b05a    program     static                          
              __tmplbl_14   0x007a84    program     static                          
             __tmplbl_143   0x005d70    program     static                          
             __tmplbl_144   0x005d70    program     static                          
             __tmplbl_146   0x005d70    program     static                          
             __tmplbl_148   0x005d70    program     static                          
             __tmplbl_149   0x00640a    program     static                          
              __tmplbl_15   0x00b088    program     static                          
              __tmplbl_15   0x007b7e    program     static                          
             __tmplbl_150   0x006622    program     static                          
             __tmplbl_151   0x00640a    program     static                          
             __tmplbl_152   0x00640a    program     static                          
             __tmplbl_153   0x006622    program     static                          
             __tmplbl_154   0x00640a    program     static                          
             __tmplbl_155   0x00640a    program     static                          
             __tmplbl_159   0x00640a    program     static                          
              __tmplbl_16   0x00b082    program     static                          
             __tmplbl_160   0x005d70    program     static                          
             __tmplbl_161   0x005d70    program     static                          
             __tmplbl_162   0x002d94    program     static                          
             __tmplbl_163   0x002e84    program     static                          
             __tmplbl_164   0x002f36    program     static                          
             __tmplbl_165   0x002f62    program     static                          
             __tmplbl_166   0x003108    program     static                          
             __tmplbl_167   0x0031f8    program     static                          
             __tmplbl_168   0x0032aa    program     static                          
             __tmplbl_169   0x0032d6    program     static                          
              __tmplbl_17   0x00b0b0    program     static                          
             __tmplbl_170   0x006528    program     static                          
             __tmplbl_171   0x006528    program     static                          
             __tmplbl_172   0x006a00    program     static                          
             __tmplbl_173   0x0067f2    program     static                          
             __tmplbl_174   0x006528    program     static                          
             __tmplbl_175   0x0067f2    program     static                          
             __tmplbl_176   0x0067a0    program     static                          
             __tmplbl_177   0x0067ac    program     static                          
             __tmplbl_178   0x005d70    program     static                          
              __tmplbl_18   0x00b0aa    program     static                          
              __tmplbl_19   0x00b104    program     static                          
               __tmplbl_2   0x00ae58    program     static                          
              __tmplbl_20   0x00b0fe    program     static                          
              __tmplbl_21   0x00b15a    program     static                          
              __tmplbl_22   0x00b184    program     static                          
              __tmplbl_23   0x00b318    program     static                          
              __tmplbl_24   0x00b374    program     static                          
              __tmplbl_25   0x00b39c    program     static                          
              __tmplbl_26   0x00b426    program     static                          
              __tmplbl_27   0x00b72a    program     static                          
              __tmplbl_28   0x00b6ee    program     static                          
              __tmplbl_29   0x00b7b4    program     static                          
               __tmplbl_3   0x00ae52    program     static                          
               __tmplbl_3   0x0002b8    program     static                          
               __tmplbl_3   0x006ed8    program     static                          
              __tmplbl_30   0x00b792    program     static                          
              __tmplbl_31   0x00b78c    program     static                          
              __tmplbl_32   0x00b786    program     static                          
              __tmplbl_33   0x00b83c    program     static                          
              __tmplbl_34   0x00b88a    program     static                          
              __tmplbl_35   0x00b884    program     static                          
               __tmplbl_4   0x00036e    program     static                          
               __tmplbl_4   0x00aec6    program     static                          
               __tmplbl_4   0x007110    program     static                          
              __tmplbl_42   0x00c444    program     static                          
              __tmplbl_43   0x00c28c    program     static                          
              __tmplbl_44   0x00c272    program     static                          
               __tmplbl_5   0x00aff6    program     static                          
               __tmplbl_5   0x007348    program     static                          
               __tmplbl_6   0x00afee    program     static                          
               __tmplbl_6   0x0078f2    program     static                          
               __tmplbl_7   0x0078ec    program     static                          
               __tmplbl_7   0x00b00c    program     static                          
              __tmplbl_73   0x002f4e    program     static                          
              __tmplbl_74   0x002f3e    program     static                          
              __tmplbl_75   0x0032c2    program     static                          
              __tmplbl_76   0x0032b2    program     static                          
              __tmplbl_77   0x00330c    program     static                          
              __tmplbl_78   0x003302    program     static                          
              __tmplbl_79   0x00373c    program     static                          
               __tmplbl_8   0x00b004    program     static                          
               __tmplbl_8   0x006c1a    program     static                          
              __tmplbl_80   0x003736    program     static                          
              __tmplbl_81   0x003730    program     static                          
              __tmplbl_82   0x003b7a    program     static                          
              __tmplbl_83   0x003b68    program     static                          
              __tmplbl_84   0x003dd2    program     static                          
              __tmplbl_85   0x003dcc    program     static                          
              __tmplbl_85   0x00b9c4    program     static                          
              __tmplbl_86   0x003dc6    program     static                          
              __tmplbl_87   0x004210    program     static                          
              __tmplbl_88   0x0041fe    program     static                          
              __tmplbl_89   0x004274    program     static                          
               __tmplbl_9   0x00b022    program     static                          
               __tmplbl_9   0x006d24    program     static                          
              __tmplbl_90   0x004406    program     static                          
              __tmplbl_91   0x004540    program     static                          
              __tmplbl_92   0x0046d2    program     static                          
              __tmplbl_93   0x004ba0    program     static                          
              __tmplbl_94   0x004c14    program     static                          
              __tmplbl_95   0x005202    program     static                          
              __tmplbl_96   0x0051cc    program     static                          
              __tmplbl_97   0x0051fe    program     static                          
              __tmplbl_98   0x005bea    program     static                          
              __tmplbl_99   0x005be4    program     static                          
            __zero_memory   0x00e35e    program     extern C:\MCC18\v3_39\src\traditional\proc\p18F8722.asm
                _do_cinit   0x00d98c    program     extern C:\MCC18\v3_39\src\traditional\startup\c018iz.c
                   _entry   0x000000    program     extern C:\MCC18\v3_39\src\traditional\startup\c018iz.c
                   _false   0x00df42    program     static                          
                 _startup   0x00e33e    program     extern C:\MCC18\v3_39\src\traditional\startup\c018iz.c
              _usart_putc   0x00e37e    program     extern C:\MCC18\v3_39\src\pmc_common\USART\_usartpc.asm
               _user_putc   0x000006    program     extern C:\MCC18\v3_39\src\traditional\stdclib\_user_putc.c
                    adcg0   0x009d93    program     extern /audio/mandm/mandm/mandm_msg.h
                    adcg1   0x009dd3    program     extern /audio/mandm/mandm/mandm_msg.h
                    adcg2   0x009dfe    program     extern /audio/mandm/mandm/mandm_msg.h
                    adcg3   0x009e31    program     extern /audio/mandm/mandm/mandm_msg.h
                    adcg4   0x009e9d    program     extern /audio/mandm/mandm/mandm_msg.h
                     ahfp   0x0012f0    program     extern /audio/mandm/mandm/mandm8722.c
                 almcode0   0x00a551    program     extern /audio/mandm/mandm/mandm_msg.h
                 almcode1   0x00a571    program     extern /audio/mandm/mandm/mandm_msg.h
                almcode10   0x00a718    program     extern /audio/mandm/mandm/mandm_msg.h
                almcode11   0x00a759    program     extern /audio/mandm/mandm/mandm_msg.h
                almcode12   0x00a77f    program     extern /audio/mandm/mandm/mandm_msg.h
                almcode13   0x00a7a5    program     extern /audio/mandm/mandm/mandm_msg.h
                almcode14   0x00a7d1    program     extern /audio/mandm/mandm/mandm_msg.h
                almcode15   0x00a7e9    program     extern /audio/mandm/mandm/mandm_msg.h
                almcode16   0x00a800    program     extern /audio/mandm/mandm/mandm_msg.h
                almcode17   0x00a82d    program     extern /audio/mandm/mandm/mandm_msg.h
                 almcode2   0x00a5a1    program     extern /audio/mandm/mandm/mandm_msg.h
                 almcode3   0x00a5c4    program     extern /audio/mandm/mandm/mandm_msg.h
                 almcode4   0x00a5e7    program     extern /audio/mandm/mandm/mandm_msg.h
                 almcode5   0x00a618    program     extern /audio/mandm/mandm/mandm_msg.h
                 almcode6   0x00a64c    program     extern /audio/mandm/mandm/mandm_msg.h
                 almcode7   0x00a681    program     extern /audio/mandm/mandm/mandm_msg.h
                 almcode8   0x00a6ba    program     extern /audio/mandm/mandm/mandm_msg.h
                 almcode9   0x00a6e8    program     extern /audio/mandm/mandm/mandm_msg.h
                almcode99   0x00a84c    program     extern /audio/mandm/mandm/mandm_msg.h
                 ansidraw   0x0017b4    program     extern /audio/mandm/mandm/mandm8722.c
              battbuffer0   0x00a43f    program     extern /audio/mandm/mandm/mandm_msg.h
              battheader0   0x00a30a    program     extern /audio/mandm/mandm/mandm_msg.h
              battheader1   0x00a37e    program     extern /audio/mandm/mandm/mandm_msg.h
                blink_led   0x00cf92    program     extern /audio/mandm/mandm/power.c
             buzzer_ticks   0x00b926    program     extern /audio/mandm/mandm/mandm_vector.c
                 charger0   0x00ab33    program     extern /audio/mandm/mandm/mandm_msg.h
                 charger1   0x00ab6a    program     extern /audio/mandm/mandm/mandm_msg.h
                 charger2   0x00aba4    program     extern /audio/mandm/mandm/mandm_msg.h
                 charger3   0x00abe2    program     extern /audio/mandm/mandm/mandm_msg.h
                 charger4   0x00ac01    program     extern /audio/mandm/mandm/mandm_msg.h
                charger99   0x00ac21    program     extern /audio/mandm/mandm/mandm_msg.h
              check_alarm   0x00138c    program     extern /audio/mandm/mandm/mandm8722.c
              check_cable   0x001e34    program     extern /audio/mandm/mandm/mandm8722.c
                checktime   0x000378    program     extern /audio/mandm/mandm/mandm8722.c
            checktime_cal   0x0004da    program     extern /audio/mandm/mandm/mandm8722.c
            checktime_eep   0x000550    program     extern /audio/mandm/mandm/mandm8722.c
          checktime_motor   0x000464    program     extern /audio/mandm/mandm/mandm8722.c
         checktime_select   0x0003ee    program     extern /audio/mandm/mandm/mandm8722.c
          checktime_track   0x0005c6    program     extern /audio/mandm/mandm/mandm8722.c
                chrgcode0   0x00a84d    program     extern /audio/mandm/mandm/mandm_msg.h
                chrgcode1   0x00a87e    program     extern /audio/mandm/mandm/mandm_msg.h
               chrgcode10   0x00a9f8    program     extern /audio/mandm/mandm/mandm_msg.h
               chrgcode11   0x00aa25    program     extern /audio/mandm/mandm/mandm_msg.h
               chrgcode12   0x00aa50    program     extern /audio/mandm/mandm/mandm_msg.h
               chrgcode13   0x00aa7e    program     extern /audio/mandm/mandm/mandm_msg.h
               chrgcode14   0x00aaab    program     extern /audio/mandm/mandm/mandm_msg.h
               chrgcode15   0x00aadf    program     extern /audio/mandm/mandm/mandm_msg.h
               chrgcode16   0x00ab09    program     extern /audio/mandm/mandm/mandm_msg.h
                chrgcode2   0x00a8b4    program     extern /audio/mandm/mandm/mandm_msg.h
                chrgcode3   0x00a8e0    program     extern /audio/mandm/mandm/mandm_msg.h
                chrgcode4   0x00a911    program     extern /audio/mandm/mandm/mandm_msg.h
                chrgcode5   0x00a949    program     extern /audio/mandm/mandm/mandm_msg.h
                chrgcode6   0x00a95c    program     extern /audio/mandm/mandm/mandm_msg.h
                chrgcode7   0x00a97c    program     extern /audio/mandm/mandm/mandm_msg.h
                chrgcode8   0x00a9a9    program     extern /audio/mandm/mandm/mandm_msg.h
                chrgcode9   0x00a9d3    program     extern /audio/mandm/mandm/mandm_msg.h
               clear_crit   0x00d4de    program     extern /audio/mandm/mandm/crit.c
                  clr_lcd   0x00068c    program     extern /audio/mandm/mandm/mandm8722.c
                compare_l   0x00e374    program     static C:\MCC18\v3_39\src\traditional\proc\p18F8722.asm
               config_pic   0x00d760    program     extern /audio/mandm/mandm/hwconf.c
                copy_loop   0x00d9fe    program     static                          
            copy_one_byte   0x00da04    program     static                          
          default_display   0x00287a    program     extern /audio/mandm/mandm/mandm8722.c
              display_cal   0x005310    program     extern /audio/mandm/mandm/mandm8722.c
                  divert0   0x00a50f    program     extern /audio/mandm/mandm/mandm_msg.h
                  divert1   0x00a52f    program     extern /audio/mandm/mandm/mandm_msg.h
                 divert99   0x00a550    program     extern /audio/mandm/mandm/mandm_msg.h
                     done   0x00da28    program     static                          
             done_copying   0x00da12    program     static                          
           e220_m_display   0x002600    program     extern /audio/mandm/mandm/mandm8722.c
         e220_qei_display   0x0027b2    program     extern /audio/mandm/mandm/mandm8722.c
            e220_qei_exer   0x002232    program     extern /audio/mandm/mandm/mandm8722.c
                   e_crit   0x00d476    program     extern /audio/mandm/mandm/crit.c
                emotor_cw   0x00cf1c    program     extern /audio/mandm/mandm/power.c
        emotor_is_all_off   0x00cf44    program     extern /audio/mandm/mandm/power.c
             emotor_power   0x00ceb2    program     extern /audio/mandm/mandm/power.c
         emotor_power_off   0x00cf62    program     extern /audio/mandm/mandm/power.c
          emotor_power_on   0x00cf68    program     extern /audio/mandm/mandm/power.c
            emotor_relays   0x00cefc    program     extern /audio/mandm/mandm/power.c
        emotor_slow_start   0x00cf00    program     extern /audio/mandm/mandm/power.c
         emotor_slow_stop   0x00cf18    program     extern /audio/mandm/mandm/power.c
        emotor_switch_ccw   0x00cf4e    program     extern /audio/mandm/mandm/power.c
         emotor_switch_cw   0x00cf5c    program     extern /audio/mandm/mandm/power.c
               emotor_v24   0x00cf6e    program     extern /audio/mandm/mandm/power.c
                  endloop   0x00e2e8    program     static                          
                exerciser   0x0024cc    program     extern /audio/mandm/mandm/mandm8722.c
          fail_all_motors   0x0029b0    program     extern /audio/mandm/mandm/mandm8722.c
                fail_safe   0x0016c2    program     extern /audio/mandm/mandm/mandm8722.c
                  get_hid   0x001f5a    program     extern /audio/mandm/mandm/mandm8722.c
            gsd_m_display   0x002594    program     extern /audio/mandm/mandm/mandm8722.c
                   hello0   0x00a115    program     extern /audio/mandm/mandm/mandm_msg.h
                   hello1   0x00a162    program     extern /audio/mandm/mandm/mandm_msg.h
           help_m_display   0x002532    program     extern /audio/mandm/mandm/mandm8722.c
                 hid_menu   0x002510    program     extern /audio/mandm/mandm/mandm8722.c
                       hm   0x0010b2    program     extern /audio/mandm/mandm/mandm8722.c
                      hms   0x000fd8    program     extern /audio/mandm/mandm/mandm8722.c
                    hold0   0x00a16f    program     extern /audio/mandm/mandm/mandm_msg.h
                    hold1   0x00a1cd    program     extern /audio/mandm/mandm/mandm_msg.h
             hold_process   0x0008bc    program     extern /audio/mandm/mandm/mandm8722.c
                idle_loop   0x00b8f8    program     extern /audio/mandm/mandm/mandm_vector.c
                 init_lcd   0x0053ac    program     extern /audio/mandm/mandm/mandm8722.c
           init_motordata   0x00d0d8    program     extern /audio/mandm/mandm/config.c
          is_led_blinking   0x00d038    program     extern /audio/mandm/mandm/power.c
                  isdigit   0x00e31a    program     extern C:\MCC18\v3_39\src\traditional\stdclib\isdigit.asm
                 jANotInf   0x00c73c    program     static C:\MCC18\v3_39\src\traditional\math\divFP.asm
                 jANotInf   0x00c61a    program     static C:\MCC18\v3_39\src\traditional\math\addFP.asm
                 jANotInf   0x00c7e2    program     static C:\MCC18\v3_39\src\traditional\math\mulFP.asm
                 jANotNeg   0x00c6ae    program     static C:\MCC18\v3_39\src\traditional\math\addFP.asm
                jANotZero   0x00c750    program     static C:\MCC18\v3_39\src\traditional\math\divFP.asm
              jAandWsetup   0x00c67e    program     static C:\MCC18\v3_39\src\traditional\math\addFP.asm
                 jAltBexp   0x00c66c    program     static C:\MCC18\v3_39\src\traditional\math\addFP.asm
                jBANotInf   0x00c610    program     static C:\MCC18\v3_39\src\traditional\math\addFP.asm
                 jBNotInf   0x00c628    program     static C:\MCC18\v3_39\src\traditional\math\addFP.asm
              jBothFinite   0x00c7f0    program     static C:\MCC18\v3_39\src\traditional\math\mulFP.asm
             jBothNotZero   0x00c7fc    program     static C:\MCC18\v3_39\src\traditional\math\mulFP.asm
            jDifOrPosSign   0x00c63c    program     static C:\MCC18\v3_39\src\traditional\math\addFP.asm
                     jEnd   0x00d75e    program     static C:\MCC18\v3_39\src\traditional\stdclib\strlen.asm
                     jEnd   0x00d742    program     static C:\MCC18\v3_39\src\traditional\stdclib\sncpyp2r.asm
                     jEnd   0x00d6e6    program     static C:\MCC18\v3_39\src\traditional\stdclib\strncpy.asm
                     jEnd   0x00d688    program     static C:\MCC18\v3_39\src\traditional\stdclib\slenpgm.asm
                     jEnd   0x00d650    program     static C:\MCC18\v3_39\src\traditional\stdclib\scpyp2r.asm
                     jEnd   0x00d60a    program     static C:\MCC18\v3_39\src\traditional\stdclib\memcmp.asm
                    jExit   0x00ca40    program     static C:\MCC18\v3_39\src\traditional\math\castFP16.asm
                    jExit   0x00caae    program     static C:\MCC18\v3_39\src\traditional\math\castFP32.asm
               jFinalSign   0x00c716    program     static C:\MCC18\v3_39\src\traditional\math\addFP.asm
                jHaveZero   0x00c7f8    program     static C:\MCC18\v3_39\src\traditional\math\mulFP.asm
                jI2F16Beg   0x00c5a4    program     static C:\MCC18\v3_39\src\traditional\math\cast16FP.asm
                jI2F32Beg   0x00c5d6    program     static C:\MCC18\v3_39\src\traditional\math\cast32FP.asm
                    jLoop   0x00d5ee    program     static C:\MCC18\v3_39\src\traditional\stdclib\memcmp.asm
                    jLoop   0x00d754    program     static C:\MCC18\v3_39\src\traditional\stdclib\strlen.asm
                    jLoop   0x00d71e    program     static C:\MCC18\v3_39\src\traditional\stdclib\sncpyp2r.asm
                    jLoop   0x00ca82    program     static C:\MCC18\v3_39\src\traditional\math\castFP32.asm
                    jLoop   0x00d6c4    program     static C:\MCC18\v3_39\src\traditional\stdclib\strncpy.asm
                    jLoop   0x00d670    program     static C:\MCC18\v3_39\src\traditional\stdclib\slenpgm.asm
                    jLoop   0x00c778    program     static C:\MCC18\v3_39\src\traditional\math\divFP.asm
                    jLoop   0x00ca20    program     static C:\MCC18\v3_39\src\traditional\math\castFP16.asm
                    jLoop   0x00d646    program     static C:\MCC18\v3_39\src\traditional\stdclib\scpyp2r.asm
                jLoopExit   0x00ca96    program     static C:\MCC18\v3_39\src\traditional\math\castFP32.asm
                jLoopExit   0x00ca30    program     static C:\MCC18\v3_39\src\traditional\math\castFP16.asm
                   jMatch   0x00e33a    program     static C:\MCC18\v3_39\src\traditional\stdclib\isdigit.asm
                     jMax   0x00ca52    program     static C:\MCC18\v3_39\src\traditional\math\castFP32.asm
                     jMax   0x00c9f4    program     static C:\MCC18\v3_39\src\traditional\math\castFP16.asm
                  jMaxNeg   0x00ca64    program     static C:\MCC18\v3_39\src\traditional\math\castFP32.asm
                  jMaxNeg   0x00ca02    program     static C:\MCC18\v3_39\src\traditional\math\castFP16.asm
                  jMaxPos   0x00c9f8    program     static C:\MCC18\v3_39\src\traditional\math\castFP16.asm
                  jMaxPos   0x00ca56    program     static C:\MCC18\v3_39\src\traditional\math\castFP32.asm
                    jNext   0x00c79e    program     static C:\MCC18\v3_39\src\traditional\math\divFP.asm
                jNoAdjust   0x00c79c    program     static C:\MCC18\v3_39\src\traditional\math\divFP.asm
                 jNoMatch   0x00e33c    program     static C:\MCC18\v3_39\src\traditional\stdclib\isdigit.asm
             jNotBothZero   0x00c640    program     static C:\MCC18\v3_39\src\traditional\math\addFP.asm
                  jNotInf   0x00ca10    program     static C:\MCC18\v3_39\src\traditional\math\castFP16.asm
                  jNotInf   0x00ca70    program     static C:\MCC18\v3_39\src\traditional\math\castFP32.asm
                  jPkLoop   0x00caf6    program     static C:\MCC18\v3_39\src\traditional\math\packFP.asm
             jPkRoundDone   0x00cb40    program     static C:\MCC18\v3_39\src\traditional\math\packFP.asm
               jPkRoundIt   0x00cb28    program     static C:\MCC18\v3_39\src\traditional\math\packFP.asm
             jPkShiftDone   0x00cb12    program     static C:\MCC18\v3_39\src\traditional\math\packFP.asm
           jReturnPosInf0   0x00cacc    program     static C:\MCC18\v3_39\src\traditional\math\packFP.asm
               jShiftDone   0x00c6d6    program     static C:\MCC18\v3_39\src\traditional\math\addFP.asm
               jShiftLoop   0x00c6c8    program     static C:\MCC18\v3_39\src\traditional\math\addFP.asm
                jSignDone   0x00c706    program     static C:\MCC18\v3_39\src\traditional\math\addFP.asm
              jSignedZero   0x00c746    program     static C:\MCC18\v3_39\src\traditional\math\divFP.asm
                  jUnpkA1   0x00cb6a    program     static C:\MCC18\v3_39\src\traditional\math\UnpackFP.asm
                  jUnpkA2   0x00cb82    program     static C:\MCC18\v3_39\src\traditional\math\UnpackFP.asm
                 jUnpkANZ   0x00cb78    program     static C:\MCC18\v3_39\src\traditional\math\UnpackFP.asm
                  jUnpkB1   0x00cb9a    program     static C:\MCC18\v3_39\src\traditional\math\UnpackFP.asm
                  jUnpkB2   0x00cbb2    program     static C:\MCC18\v3_39\src\traditional\math\UnpackFP.asm
                 jUnpkBNZ   0x00cba8    program     static C:\MCC18\v3_39\src\traditional\math\UnpackFP.asm
                 jUnpkNaN   0x00cb8c    program     static C:\MCC18\v3_39\src\traditional\math\UnpackFP.asm
                 jWNotNeg   0x00c6c2    program     static C:\MCC18\v3_39\src\traditional\math\addFP.asm
                   jWr123   0x00ca5c    program     static C:\MCC18\v3_39\src\traditional\math\castFP32.asm
                  jWrZ123   0x00ca6c    program     static C:\MCC18\v3_39\src\traditional\math\castFP32.asm
                    jZero   0x00ca0a    program     static C:\MCC18\v3_39\src\traditional\math\castFP16.asm
                    jZero   0x00ca6a    program     static C:\MCC18\v3_39\src\traditional\math\castFP32.asm
               jZero1and2   0x00cad0    program     static C:\MCC18\v3_39\src\traditional\math\packFP.asm
                 keycmds0   0x00a276    program     extern /audio/mandm/mandm/mandm_msg.h
                 keycmds1   0x00a2c0    program     extern /audio/mandm/mandm/mandm_msg.h
                     loop   0x00e352    program     static                          
                     loop   0x00e2cc    program     static                          
                     loop   0x00df0e    program     static                          
                     loop   0x00e38e    program     static C:\MCC18\v3_39\src\pmc_common\USART\_usartpc.asm
                   loop_h   0x00e36c    program     static C:\MCC18\v3_39\src\traditional\proc\p18F8722.asm
                   loop_l   0x00e376    program     static C:\MCC18\v3_39\src\traditional\proc\p18F8722.asm
                 lowbatt0   0x009c7c    program     extern /audio/mandm/mandm/mandm_msg.h
                lp_filter   0x00069c    program     extern /audio/mandm/mandm/mandm8722.c
                     main   0x00540c    program     extern /audio/mandm/mandm/mandm8722.c
                   memcmp   0x00d5ce    program     extern C:\MCC18\v3_39\src\traditional\stdclib\memcmp.asm
          menuselect_free   0x009af0    program     extern /audio/mandm/mandm/mandm_msg.h
         menuselect_track   0x009bb6    program     extern /audio/mandm/mandm/mandm_msg.h
                 menutext   0x009a29    program     extern /audio/mandm/mandm/mandm_msg.h
        menutext_template   0x009960    program     extern /audio/mandm/mandm/mandm_msg.h
             modelheader0   0x00a408    program     extern /audio/mandm/mandm/mandm_msg.h
             modelheader1   0x00a427    program     extern /audio/mandm/mandm/mandm_msg.h
            motor_control   0x00cc86    program     extern /audio/mandm/mandm/power.c
            my_struct_cmp   0x00cc52    program     extern /audio/mandm/mandm/power.c
                 nav_menu   0x0021ee    program     extern /audio/mandm/mandm/mandm8722.c
              nonqei_exer   0x002384    program     extern /audio/mandm/mandm/mandm8722.c
                     putc   0x00db4e    program     extern C:\MCC18\v3_39\src\traditional\stdclib\putc.c
                    putc2   0x00066e    program     extern /audio/mandm/mandm/mandm8722.c
              putrs2USART   0x00dcb0    program     extern C:\MCC18\v3_39\src\pmc_common\USART\u2putrs.c
                putrsXLCD   0x00ddd0    program     extern /media/usb1/mandm/mandm/xlcd/putrxlcd.c
               puts2USART   0x00de24    program     extern C:\MCC18\v3_39\src\pmc_common\USART\u2puts.c
                 putsXLCD   0x00e09e    program     extern /media/usb1/mandm/mandm/xlcd/putsxlcd.c
                     rand   0x00e12c    program     extern C:\MCC18\v3_39\src\traditional\stdclib\rand.asm
         read_data_eeprom   0x00d56e    program     extern /audio/mandm/mandm/crit.c
                relay_v24   0x00cf8c    program     extern /audio/mandm/mandm/power.c
                  run_cal   0x002a6a    program     extern /audio/mandm/mandm/mandm8722.c
                   s_crit   0x00d3dc    program     extern /audio/mandm/mandm/crit.c
                 s_digits   0x00e3c2    program     static C:\MCC18\v3_39\src\traditional\stdclib\vfprintf.c
            s_put_n_chars   0x00b96e    program     static C:\MCC18\v3_39\src\traditional\stdclib\vfprintf.c
                  sddump0   0x00a467    program     extern /audio/mandm/mandm/mandm_msg.h
                  sddump1   0x00a495    program     extern /audio/mandm/mandm/mandm_msg.h
                  sddump2   0x00a4cb    program     extern /audio/mandm/mandm/mandm_msg.h
                  sddump3   0x00a4e2    program     extern /audio/mandm/mandm/mandm_msg.h
           set_all_motors   0x002a22    program     extern /audio/mandm/mandm/mandm8722.c
         slow_timer_start   0x00b94e    program     extern /audio/mandm/mandm/mandm_vector.c
                     spin   0x0098e8    program     extern /audio/mandm/mandm/mandm_msg.h
                 spinners   0x000068    program     extern /audio/mandm/mandm/mandm8722.c
                  sprintf   0x00d8e0    program     extern C:\MCC18\v3_39\src\traditional\stdclib\sprintf.c
                    srand   0x00e11e    program     extern C:\MCC18\v3_39\src\traditional\stdclib\rand.asm
              start_delay   0x000686    program     extern /audio/mandm/mandm/mandm8722.c
                start_pic   0x00d8b6    program     extern /audio/mandm/mandm/hwconf.c
       start_workerthread   0x00d8dc    program     extern /audio/mandm/mandm/hwconf.c
            strcpypgm2ram   0x00d620    program     extern C:\MCC18\v3_39\src\traditional\stdclib\scpyp2r.asm
                   strlen   0x00d744    program     extern C:\MCC18\v3_39\src\traditional\stdclib\strlen.asm
                strlenpgm   0x00d652    program     extern C:\MCC18\v3_39\src\traditional\stdclib\slenpgm.asm
                  strncpy   0x00d69c    program     extern C:\MCC18\v3_39\src\traditional\stdclib\strncpy.asm
           strncpypgm2ram   0x00d6f8    program     extern C:\MCC18\v3_39\src\traditional\stdclib\sncpyp2r.asm
                    sync0   0x00a206    program     extern /audio/mandm/mandm/mandm_msg.h
                    sync1   0x00a23a    program     extern /audio/mandm/mandm/mandm_msg.h
                    sync2   0x00a258    program     extern /audio/mandm/mandm/mandm_msg.h
              system_data   0x000900    program     extern /audio/mandm/mandm/mandm8722.c
              system_help   0x000fbc    program     extern /audio/mandm/mandm/mandm8722.c
                term_time   0x00085e    program     extern /audio/mandm/mandm/mandm8722.c
                     test   0x00d9a6    program     static                          
             tick_handler   0x00ac22    program     extern /audio/mandm/mandm/mandm_vector.c
                 tick_int   0x000008    program     extern /audio/mandm/mandm/mandm8722.c
              track_motor   0x001934    program     extern /audio/mandm/mandm/mandm8722.c
                   tweak0   0x009ed4    program     extern /audio/mandm/mandm/mandm_msg.h
                   tweak1   0x009f71    program     extern /audio/mandm/mandm/mandm_msg.h
                   tweak2   0x009f9a    program     extern /audio/mandm/mandm/mandm_msg.h
                   tweak3   0x009fbe    program     extern /audio/mandm/mandm/mandm_msg.h
                   tweak4   0x00a03d    program     extern /audio/mandm/mandm/mandm_msg.h
                   tweak5   0x00a06d    program     extern /audio/mandm/mandm/mandm_msg.h
                 tweak_t1   0x00a0f3    program     extern /audio/mandm/mandm/mandm_msg.h
                 tweak_t2   0x00a0f8    program     extern /audio/mandm/mandm/mandm_msg.h
                 tweak_t3   0x00a0fc    program     extern /audio/mandm/mandm/mandm_msg.h
                 tweak_t4   0x00a100    program     extern /audio/mandm/mandm/mandm_msg.h
                 tweak_tw   0x00a105    program     extern /audio/mandm/mandm/mandm_msg.h
              update_hist   0x000234    program     extern /audio/mandm/mandm/mandm8722.c
          update_lcd_menu   0x0017f0    program     extern /audio/mandm/mandm/mandm8722.c
         varian_v_display   0x0028da    program     extern /audio/mandm/mandm/mandm8722.c
                 vfprintf   0x00b99a    program     extern C:\MCC18\v3_39\src\traditional\stdclib\vfprintf.c
        viision_m_display   0x00269a    program     extern /audio/mandm/mandm/mandm8722.c
       viision_ms_display   0x00274a    program     extern /audio/mandm/mandm/mandm8722.c
             voice1_ticks   0x00b932    program     extern /audio/mandm/mandm/mandm_vector.c
             voice2_ticks   0x00b940    program     extern /audio/mandm/mandm/mandm_vector.c
                   voltfp   0x0011de    program     extern /audio/mandm/mandm/mandm8722.c
                  voltfpi   0x00121e    program     extern /audio/mandm/mandm/mandm8722.c
                  voltfps   0x001200    program     extern /audio/mandm/mandm/mandm8722.c
                 wdtdelay   0x000282    program     extern /audio/mandm/mandm/mandm8722.c
                  wdttime   0x0002d4    program     extern /audio/mandm/mandm/mandm8722.c
             work_handler   0x00b8d6    program     extern /audio/mandm/mandm/mandm_vector.c
                 work_int   0x000018    program     extern /audio/mandm/mandm/mandm8722.c
        write_data_eeprom   0x00d4e8    program     extern /audio/mandm/mandm/crit.c
                    zero0   0x009cbf    program     extern /audio/mandm/mandm/mandm_msg.h
                    zero1   0x009ce9    program     extern /audio/mandm/mandm/mandm_msg.h
                    zero2   0x009d25    program     extern /audio/mandm/mandm/mandm_msg.h
                    zero3   0x009d59    program     extern /audio/mandm/mandm/mandm_msg.h
              zero_amploc   0x0082c6    program     extern /audio/mandm/mandm/daq.c 
               zero_block   0x00e36c    program     static C:\MCC18\v3_39\src\traditional\proc\p18F8722.asm
                   ADCON0   0x000fc2       data     extern C:\MCC18\v3_39\src\traditional\proc\p18F8722.asm
               ADCON0bits   0x000fc2       data     extern C:\MCC18\v3_39\src\traditional\proc\p18F8722.asm
                   ADCON1   0x000fc1       data     extern C:\MCC18\v3_39\src\traditional\proc\p18F8722.asm
               ADCON1bits   0x000fc1       data     extern C:\MCC18\v3_39\src\traditional\proc\p18F8722.asm
                   ADCON2   0x000fc0       data     extern C:\MCC18\v3_39\src\traditional\proc\p18F8722.asm
               ADCON2bits   0x000fc0       data     extern C:\MCC18\v3_39\src\traditional\proc\p18F8722.asm
                    ADRES   0x000fc3       data     extern C:\MCC18\v3_39\src\traditional\proc\p18F8722.asm
                   ADRESH   0x000fc4       data     extern C:\MCC18\v3_39\src\traditional\proc\p18F8722.asm
                   ADRESL   0x000fc3       data     extern C:\MCC18\v3_39\src\traditional\proc\p18F8722.asm
                  BAUDCON   0x000f7e       data     extern C:\MCC18\v3_39\src\traditional\proc\p18F8722.asm
                 BAUDCON1   0x000f7e       data     extern C:\MCC18\v3_39\src\traditional\proc\p18F8722.asm
             BAUDCON1bits   0x000f7e       data     extern C:\MCC18\v3_39\src\traditional\proc\p18F8722.asm
                 BAUDCON2   0x000f7c       data     extern C:\MCC18\v3_39\src\traditional\proc\p18F8722.asm
             BAUDCON2bits   0x000f7c       data     extern C:\MCC18\v3_39\src\traditional\proc\p18F8722.asm
              BAUDCONbits   0x000f7e       data     extern C:\MCC18\v3_39\src\traditional\proc\p18F8722.asm
                      BSR   0x000fe0       data     extern C:\MCC18\v3_39\src\traditional\proc\p18F8722.asm
                        C   0x000094       data     extern /audio/mandm/mandm/mandm8722.c
                    C2RAW   0x0005bf       data     extern /audio/mandm/mandm/mandm8722.c
                  CCP1CON   0x000fbd       data     extern C:\MCC18\v3_39\src\traditional\proc\p18F8722.asm
              CCP1CONbits   0x000fbd       data     extern C:\MCC18\v3_39\src\traditional\proc\p18F8722.asm
                  CCP2CON   0x000fba       data     extern C:\MCC18\v3_39\src\traditional\proc\p18F8722.asm
              CCP2CONbits   0x000fba       data     extern C:\MCC18\v3_39\src\traditional\proc\p18F8722.asm
                  CCP3CON   0x000fb7       data     extern C:\MCC18\v3_39\src\traditional\proc\p18F8722.asm
              CCP3CONbits   0x000fb7       data     extern C:\MCC18\v3_39\src\traditional\proc\p18F8722.asm
                  CCP4CON   0x000f73       data     extern C:\MCC18\v3_39\src\traditional\proc\p18F8722.asm
              CCP4CONbits   0x000f73       data     extern C:\MCC18\v3_39\src\traditional\proc\p18F8722.asm
                  CCP5CON   0x000f70       data     extern C:\MCC18\v3_39\src\traditional\proc\p18F8722.asm
              CCP5CONbits   0x000f70       data     extern C:\MCC18\v3_39\src\traditional\proc\p18F8722.asm
                    CCPR1   0x000fbe       data     extern C:\MCC18\v3_39\src\traditional\proc\p18F8722.asm
                   CCPR1H   0x000fbf       data     extern C:\MCC18\v3_39\src\traditional\proc\p18F8722.asm
                   CCPR1L   0x000fbe       data     extern C:\MCC18\v3_39\src\traditional\proc\p18F8722.asm
                    CCPR2   0x000fbb       data     extern C:\MCC18\v3_39\src\traditional\proc\p18F8722.asm
                   CCPR2H   0x000fbc       data     extern C:\MCC18\v3_39\src\traditional\proc\p18F8722.asm
                   CCPR2L   0x000fbb       data     extern C:\MCC18\v3_39\src\traditional\proc\p18F8722.asm
                    CCPR3   0x000fb8       data     extern C:\MCC18\v3_39\src\traditional\proc\p18F8722.asm
                   CCPR3H   0x000fb9       data     extern C:\MCC18\v3_39\src\traditional\proc\p18F8722.asm
                   CCPR3L   0x000fb8       data     extern C:\MCC18\v3_39\src\traditional\proc\p18F8722.asm
                    CCPR4   0x000f74       data     extern C:\MCC18\v3_39\src\traditional\proc\p18F8722.asm
                   CCPR4H   0x000f75       data     extern C:\MCC18\v3_39\src\traditional\proc\p18F8722.asm
                   CCPR4L   0x000f74       data     extern C:\MCC18\v3_39\src\traditional\proc\p18F8722.asm
                    CCPR5   0x000f71       data     extern C:\MCC18\v3_39\src\traditional\proc\p18F8722.asm
                   CCPR5H   0x000f72       data     extern C:\MCC18\v3_39\src\traditional\proc\p18F8722.asm
                   CCPR5L   0x000f71       data     extern C:\MCC18\v3_39\src\traditional\proc\p18F8722.asm
                    CMCON   0x000fb4       data     extern C:\MCC18\v3_39\src\traditional\proc\p18F8722.asm
                CMCONbits   0x000fb4       data     extern C:\MCC18\v3_39\src\traditional\proc\p18F8722.asm
                  COOLING   0x00060c       data     extern /audio/mandm/mandm/mandm8722.c
                    CRITC   0x000691       data     extern /audio/mandm/mandm/mandm8722.c
                   CVRCON   0x000fb5       data     extern C:\MCC18\v3_39\src\traditional\proc\p18F8722.asm
               CVRCONbits   0x000fb5       data     extern C:\MCC18\v3_39\src\traditional\proc\p18F8722.asm
                   Cursor   0x000520       data     extern /audio/mandm/mandm/mandm8722.c
                     DDRA   0x000f92       data     extern C:\MCC18\v3_39\src\traditional\proc\p18F8722.asm
                 DDRAbits   0x000f92       data     extern C:\MCC18\v3_39\src\traditional\proc\p18F8722.asm
                     DDRB   0x000f93       data     extern C:\MCC18\v3_39\src\traditional\proc\p18F8722.asm
                 DDRBbits   0x000f93       data     extern C:\MCC18\v3_39\src\traditional\proc\p18F8722.asm
                     DDRC   0x000f94       data     extern C:\MCC18\v3_39\src\traditional\proc\p18F8722.asm
                 DDRCbits   0x000f94       data     extern C:\MCC18\v3_39\src\traditional\proc\p18F8722.asm
                     DDRD   0x000f95       data     extern C:\MCC18\v3_39\src\traditional\proc\p18F8722.asm
                 DDRDbits   0x000f95       data     extern C:\MCC18\v3_39\src\traditional\proc\p18F8722.asm
                     DDRE   0x000f96       data     extern C:\MCC18\v3_39\src\traditional\proc\p18F8722.asm
                 DDREbits   0x000f96       data     extern C:\MCC18\v3_39\src\traditional\proc\p18F8722.asm
                     DDRF   0x000f97       data     extern C:\MCC18\v3_39\src\traditional\proc\p18F8722.asm
                 DDRFbits   0x000f97       data     extern C:\MCC18\v3_39\src\traditional\proc\p18F8722.asm
                     DDRG   0x000f98       data     extern C:\MCC18\v3_39\src\traditional\proc\p18F8722.asm
                 DDRGbits   0x000f98       data     extern C:\MCC18\v3_39\src\traditional\proc\p18F8722.asm
                     DDRH   0x000f99       data     extern C:\MCC18\v3_39\src\traditional\proc\p18F8722.asm
                 DDRHbits   0x000f99       data     extern C:\MCC18\v3_39\src\traditional\proc\p18F8722.asm
                     DDRJ   0x000f9a       data     extern C:\MCC18\v3_39\src\traditional\proc\p18F8722.asm
                 DDRJbits   0x000f9a       data     extern C:\MCC18\v3_39\src\traditional\proc\p18F8722.asm
             DISPLAY_MODE   0x000609       data     extern /audio/mandm/mandm/mandm8722.c
                 D_UPDATE   0x00060a       data     extern /audio/mandm/mandm/mandm8722.c
            DelayCounter1   0x00003d       data     extern C:\MCC18\v3_39\src\traditional\delays\delayd1.asm
            DelayCounter2   0x00003c       data     extern C:\MCC18\v3_39\src\traditional\delays\delayd2.asm
                  ECCP1AS   0x000fb6       data     extern C:\MCC18\v3_39\src\traditional\proc\p18F8722.asm
              ECCP1ASbits   0x000fb6       data     extern C:\MCC18\v3_39\src\traditional\proc\p18F8722.asm
                 ECCP1CON   0x000fbd       data     extern C:\MCC18\v3_39\src\traditional\proc\p18F8722.asm
             ECCP1CONbits   0x000fbd       data     extern C:\MCC18\v3_39\src\traditional\proc\p18F8722.asm
                 ECCP1DEL   0x000f79       data     extern C:\MCC18\v3_39\src\traditional\proc\p18F8722.asm
             ECCP1DELbits   0x000f79       data     extern C:\MCC18\v3_39\src\traditional\proc\p18F8722.asm
                  ECCP2AS   0x000f68       data     extern C:\MCC18\v3_39\src\traditional\proc\p18F8722.asm
              ECCP2ASbits   0x000f68       data     extern C:\MCC18\v3_39\src\traditional\proc\p18F8722.asm
                 ECCP2CON   0x000fba       data     extern C:\MCC18\v3_39\src\traditional\proc\p18F8722.asm
             ECCP2CONbits   0x000fba       data     extern C:\MCC18\v3_39\src\traditional\proc\p18F8722.asm
                 ECCP2DEL   0x000f67       data     extern C:\MCC18\v3_39\src\traditional\proc\p18F8722.asm
             ECCP2DELbits   0x000f67       data     extern C:\MCC18\v3_39\src\traditional\proc\p18F8722.asm
                  ECCP3AS   0x000f6a       data     extern C:\MCC18\v3_39\src\traditional\proc\p18F8722.asm
              ECCP3ASbits   0x000f6a       data     extern C:\MCC18\v3_39\src\traditional\proc\p18F8722.asm
                 ECCP3CON   0x000fb7       data     extern C:\MCC18\v3_39\src\traditional\proc\p18F8722.asm
             ECCP3CONbits   0x000fb7       data     extern C:\MCC18\v3_39\src\traditional\proc\p18F8722.asm
                 ECCP3DEL   0x000f69       data     extern C:\MCC18\v3_39\src\traditional\proc\p18F8722.asm
             ECCP3DELbits   0x000f69       data     extern C:\MCC18\v3_39\src\traditional\proc\p18F8722.asm
                    EEADR   0x000fa9       data     extern C:\MCC18\v3_39\src\traditional\proc\p18F8722.asm
                   EEADRH   0x000faa       data     extern C:\MCC18\v3_39\src\traditional\proc\p18F8722.asm
                   EECON1   0x000fa6       data     extern C:\MCC18\v3_39\src\traditional\proc\p18F8722.asm
               EECON1bits   0x000fa6       data     extern C:\MCC18\v3_39\src\traditional\proc\p18F8722.asm
                   EECON2   0x000fa7       data     extern C:\MCC18\v3_39\src\traditional\proc\p18F8722.asm
                   EEDATA   0x000fa8       data     extern C:\MCC18\v3_39\src\traditional\proc\p18F8722.asm
                   EEP_ER   0x000614       data     extern /audio/mandm/mandm/mandm8722.c
                 FAILSAFE   0x000606       data     extern /audio/mandm/mandm/mandm8722.c
                 FORCEOUT   0x000602       data     extern /audio/mandm/mandm/mandm8722.c
                     FSR0   0x000fe9       data     extern C:\MCC18\v3_39\src\traditional\proc\p18F8722.asm
                    FSR0H   0x000fea       data     extern C:\MCC18\v3_39\src\traditional\proc\p18F8722.asm
                    FSR0L   0x000fe9       data     extern C:\MCC18\v3_39\src\traditional\proc\p18F8722.asm
                     FSR1   0x000fe1       data     extern C:\MCC18\v3_39\src\traditional\proc\p18F8722.asm
                    FSR1H   0x000fe2       data     extern C:\MCC18\v3_39\src\traditional\proc\p18F8722.asm
                    FSR1L   0x000fe1       data     extern C:\MCC18\v3_39\src\traditional\proc\p18F8722.asm
                     FSR2   0x000fd9       data     extern C:\MCC18\v3_39\src\traditional\proc\p18F8722.asm
                    FSR2H   0x000fda       data     extern C:\MCC18\v3_39\src\traditional\proc\p18F8722.asm
                    FSR2L   0x000fd9       data     extern C:\MCC18\v3_39\src\traditional\proc\p18F8722.asm
             GLITCH_CHECK   0x00060b       data     extern /audio/mandm/mandm/mandm8722.c
                    HCRIT   0x000364       data     extern /audio/mandm/mandm/mandm8722.c
            HID_IDLE_FLAG   0x0004eb       data     static /audio/mandm/mandm/mandm_vector.c
                  HLVDCON   0x000fd2       data     extern C:\MCC18\v3_39\src\traditional\proc\p18F8722.asm
              HLVDCONbits   0x000fd2       data     extern C:\MCC18\v3_39\src\traditional\proc\p18F8722.asm
                HOLD_PROC   0x000608       data     extern /audio/mandm/mandm/mandm8722.c
                    H_tmp   0x0004fc       data     static /audio/mandm/mandm/crit.c
                    H_tmp   0x0004fd       data     static /audio/mandm/mandm/crit.c
                 IDLEFLAG   0x000677       data     extern /audio/mandm/mandm/mandm8722.c
                    INDF0   0x000fef       data     extern C:\MCC18\v3_39\src\traditional\proc\p18F8722.asm
                    INDF1   0x000fe7       data     extern C:\MCC18\v3_39\src\traditional\proc\p18F8722.asm
                    INDF2   0x000fdf       data     extern C:\MCC18\v3_39\src\traditional\proc\p18F8722.asm
                   INTCON   0x000ff2       data     extern C:\MCC18\v3_39\src\traditional\proc\p18F8722.asm
                  INTCON2   0x000ff1       data     extern C:\MCC18\v3_39\src\traditional\proc\p18F8722.asm
              INTCON2bits   0x000ff1       data     extern C:\MCC18\v3_39\src\traditional\proc\p18F8722.asm
                  INTCON3   0x000ff0       data     extern C:\MCC18\v3_39\src\traditional\proc\p18F8722.asm
              INTCON3bits   0x000ff0       data     extern C:\MCC18\v3_39\src\traditional\proc\p18F8722.asm
               INTCONbits   0x000ff2       data     extern C:\MCC18\v3_39\src\traditional\proc\p18F8722.asm
                     IPR1   0x000f9f       data     extern C:\MCC18\v3_39\src\traditional\proc\p18F8722.asm
                 IPR1bits   0x000f9f       data     extern C:\MCC18\v3_39\src\traditional\proc\p18F8722.asm
                     IPR2   0x000fa2       data     extern C:\MCC18\v3_39\src\traditional\proc\p18F8722.asm
                 IPR2bits   0x000fa2       data     extern C:\MCC18\v3_39\src\traditional\proc\p18F8722.asm
                     IPR3   0x000fa5       data     extern C:\MCC18\v3_39\src\traditional\proc\p18F8722.asm
                 IPR3bits   0x000fa5       data     extern C:\MCC18\v3_39\src\traditional\proc\p18F8722.asm
                   KEYNUM   0x000605       data     extern /audio/mandm/mandm/mandm8722.c
                     LATA   0x000f89       data     extern C:\MCC18\v3_39\src\traditional\proc\p18F8722.asm
                 LATAbits   0x000f89       data     extern C:\MCC18\v3_39\src\traditional\proc\p18F8722.asm
                     LATB   0x000f8a       data     extern C:\MCC18\v3_39\src\traditional\proc\p18F8722.asm
                 LATBbits   0x000f8a       data     extern C:\MCC18\v3_39\src\traditional\proc\p18F8722.asm
                     LATC   0x000f8b       data     extern C:\MCC18\v3_39\src\traditional\proc\p18F8722.asm
                 LATCbits   0x000f8b       data     extern C:\MCC18\v3_39\src\traditional\proc\p18F8722.asm
                     LATD   0x000f8c       data     extern C:\MCC18\v3_39\src\traditional\proc\p18F8722.asm
                 LATDbits   0x000f8c       data     extern C:\MCC18\v3_39\src\traditional\proc\p18F8722.asm
                     LATE   0x000f8d       data     extern C:\MCC18\v3_39\src\traditional\proc\p18F8722.asm
                 LATEbits   0x000f8d       data     extern C:\MCC18\v3_39\src\traditional\proc\p18F8722.asm
                     LATF   0x000f8e       data     extern C:\MCC18\v3_39\src\traditional\proc\p18F8722.asm
                 LATFbits   0x000f8e       data     extern C:\MCC18\v3_39\src\traditional\proc\p18F8722.asm
                     LATG   0x000f8f       data     extern C:\MCC18\v3_39\src\traditional\proc\p18F8722.asm
                 LATGbits   0x000f8f       data     extern C:\MCC18\v3_39\src\traditional\proc\p18F8722.asm
                     LATH   0x000f90       data     extern C:\MCC18\v3_39\src\traditional\proc\p18F8722.asm
                 LATHbits   0x000f90       data     extern C:\MCC18\v3_39\src\traditional\proc\p18F8722.asm
                     LATJ   0x000f91       data     extern C:\MCC18\v3_39\src\traditional\proc\p18F8722.asm
                 LATJbits   0x000f91       data     extern C:\MCC18\v3_39\src\traditional\proc\p18F8722.asm
                   LCD_OK   0x000692       data     extern /audio/mandm/mandm/mandm8722.c
                    LCRIT   0x00036c       data     extern /audio/mandm/mandm/mandm8722.c
                   LVDCON   0x000fd2       data     extern C:\MCC18\v3_39\src\traditional\proc\p18F8722.asm
               LVDCONbits   0x000fd2       data     extern C:\MCC18\v3_39\src\traditional\proc\p18F8722.asm
                   MEMCON   0x000f9c       data     extern C:\MCC18\v3_39\src\traditional\proc\p18F8722.asm
               MEMCONbits   0x000f9c       data     extern C:\MCC18\v3_39\src\traditional\proc\p18F8722.asm
                 MOD_DATA   0x000610       data     extern /audio/mandm/mandm/mandm8722.c
                   OSCCON   0x000fd3       data     extern C:\MCC18\v3_39\src\traditional\proc\p18F8722.asm
               OSCCONbits   0x000fd3       data     extern C:\MCC18\v3_39\src\traditional\proc\p18F8722.asm
                  OSCTUNE   0x000f9b       data     extern C:\MCC18\v3_39\src\traditional\proc\p18F8722.asm
              OSCTUNEbits   0x000f9b       data     extern C:\MCC18\v3_39\src\traditional\proc\p18F8722.asm
               OldEncoder   0x000524       data     extern /audio/mandm/mandm/mandm8722.c
                       PC   0x000ff9       data     extern C:\MCC18\v3_39\src\traditional\proc\p18F8722.asm
                      PCL   0x000ff9       data     extern C:\MCC18\v3_39\src\traditional\proc\p18F8722.asm
                   PCLATH   0x000ffa       data     extern C:\MCC18\v3_39\src\traditional\proc\p18F8722.asm
                   PCLATU   0x000ffb       data     extern C:\MCC18\v3_39\src\traditional\proc\p18F8722.asm
                     PIE1   0x000f9d       data     extern C:\MCC18\v3_39\src\traditional\proc\p18F8722.asm
                 PIE1bits   0x000f9d       data     extern C:\MCC18\v3_39\src\traditional\proc\p18F8722.asm
                     PIE2   0x000fa0       data     extern C:\MCC18\v3_39\src\traditional\proc\p18F8722.asm
                 PIE2bits   0x000fa0       data     extern C:\MCC18\v3_39\src\traditional\proc\p18F8722.asm
                     PIE3   0x000fa3       data     extern C:\MCC18\v3_39\src\traditional\proc\p18F8722.asm
                 PIE3bits   0x000fa3       data     extern C:\MCC18\v3_39\src\traditional\proc\p18F8722.asm
                     PIR1   0x000f9e       data     extern C:\MCC18\v3_39\src\traditional\proc\p18F8722.asm
                 PIR1bits   0x000f9e       data     extern C:\MCC18\v3_39\src\traditional\proc\p18F8722.asm
                     PIR2   0x000fa1       data     extern C:\MCC18\v3_39\src\traditional\proc\p18F8722.asm
                 PIR2bits   0x000fa1       data     extern C:\MCC18\v3_39\src\traditional\proc\p18F8722.asm
                     PIR3   0x000fa4       data     extern C:\MCC18\v3_39\src\traditional\proc\p18F8722.asm
                 PIR3bits   0x000fa4       data     extern C:\MCC18\v3_39\src\traditional\proc\p18F8722.asm
                   PLUSW0   0x000feb       data     extern C:\MCC18\v3_39\src\traditional\proc\p18F8722.asm
                   PLUSW1   0x000fe3       data     extern C:\MCC18\v3_39\src\traditional\proc\p18F8722.asm
                   PLUSW2   0x000fdb       data     extern C:\MCC18\v3_39\src\traditional\proc\p18F8722.asm
                    PORTA   0x000f80       data     extern C:\MCC18\v3_39\src\traditional\proc\p18F8722.asm
                PORTAbits   0x000f80       data     extern C:\MCC18\v3_39\src\traditional\proc\p18F8722.asm
                    PORTB   0x000f81       data     extern C:\MCC18\v3_39\src\traditional\proc\p18F8722.asm
                PORTBbits   0x000f81       data     extern C:\MCC18\v3_39\src\traditional\proc\p18F8722.asm
                    PORTC   0x000f82       data     extern C:\MCC18\v3_39\src\traditional\proc\p18F8722.asm
                PORTCbits   0x000f82       data     extern C:\MCC18\v3_39\src\traditional\proc\p18F8722.asm
                    PORTD   0x000f83       data     extern C:\MCC18\v3_39\src\traditional\proc\p18F8722.asm
                PORTDbits   0x000f83       data     extern C:\MCC18\v3_39\src\traditional\proc\p18F8722.asm
                    PORTE   0x000f84       data     extern C:\MCC18\v3_39\src\traditional\proc\p18F8722.asm
                PORTEbits   0x000f84       data     extern C:\MCC18\v3_39\src\traditional\proc\p18F8722.asm
                    PORTF   0x000f85       data     extern C:\MCC18\v3_39\src\traditional\proc\p18F8722.asm
                PORTFbits   0x000f85       data     extern C:\MCC18\v3_39\src\traditional\proc\p18F8722.asm
                    PORTG   0x000f86       data     extern C:\MCC18\v3_39\src\traditional\proc\p18F8722.asm
                PORTGbits   0x000f86       data     extern C:\MCC18\v3_39\src\traditional\proc\p18F8722.asm
                    PORTH   0x000f87       data     extern C:\MCC18\v3_39\src\traditional\proc\p18F8722.asm
                PORTHbits   0x000f87       data     extern C:\MCC18\v3_39\src\traditional\proc\p18F8722.asm
                    PORTJ   0x000f88       data     extern C:\MCC18\v3_39\src\traditional\proc\p18F8722.asm
                PORTJbits   0x000f88       data     extern C:\MCC18\v3_39\src\traditional\proc\p18F8722.asm
                 POSTDEC0   0x000fed       data     extern C:\MCC18\v3_39\src\traditional\proc\p18F8722.asm
                 POSTDEC1   0x000fe5       data     extern C:\MCC18\v3_39\src\traditional\proc\p18F8722.asm
                 POSTDEC2   0x000fdd       data     extern C:\MCC18\v3_39\src\traditional\proc\p18F8722.asm
                 POSTINC0   0x000fee       data     extern C:\MCC18\v3_39\src\traditional\proc\p18F8722.asm
                 POSTINC1   0x000fe6       data     extern C:\MCC18\v3_39\src\traditional\proc\p18F8722.asm
                 POSTINC2   0x000fde       data     extern C:\MCC18\v3_39\src\traditional\proc\p18F8722.asm
                      PR2   0x000fcb       data     extern C:\MCC18\v3_39\src\traditional\proc\p18F8722.asm
                      PR4   0x000f77       data     extern C:\MCC18\v3_39\src\traditional\proc\p18F8722.asm
                  PREINC0   0x000fec       data     extern C:\MCC18\v3_39\src\traditional\proc\p18F8722.asm
                  PREINC1   0x000fe4       data     extern C:\MCC18\v3_39\src\traditional\proc\p18F8722.asm
                  PREINC2   0x000fdc       data     extern C:\MCC18\v3_39\src\traditional\proc\p18F8722.asm
               PRIPOWEROK   0x000601       data     extern /audio/mandm/mandm/mandm8722.c
                     PROD   0x000ff3       data     extern C:\MCC18\v3_39\src\traditional\proc\p18F8722.asm
                    PRODH   0x000ff4       data     extern C:\MCC18\v3_39\src\traditional\proc\p18F8722.asm
                    PRODL   0x000ff3       data     extern C:\MCC18\v3_39\src\traditional\proc\p18F8722.asm
                   PSPCON   0x000fb0       data     extern C:\MCC18\v3_39\src\traditional\proc\p18F8722.asm
               PSPCONbits   0x000fb0       data     extern C:\MCC18\v3_39\src\traditional\proc\p18F8722.asm
                        R   0x000061       data     extern /audio/mandm/mandm/mandm8722.c
                     RCON   0x000fd0       data     extern C:\MCC18\v3_39\src\traditional\proc\p18F8722.asm
                 RCONbits   0x000fd0       data     extern C:\MCC18\v3_39\src\traditional\proc\p18F8722.asm
                    RCREG   0x000fae       data     extern C:\MCC18\v3_39\src\traditional\proc\p18F8722.asm
                   RCREG1   0x000fae       data     extern C:\MCC18\v3_39\src\traditional\proc\p18F8722.asm
                   RCREG2   0x000f6e       data     extern C:\MCC18\v3_39\src\traditional\proc\p18F8722.asm
                    RCSTA   0x000fab       data     extern C:\MCC18\v3_39\src\traditional\proc\p18F8722.asm
                   RCSTA1   0x000fab       data     extern C:\MCC18\v3_39\src\traditional\proc\p18F8722.asm
               RCSTA1bits   0x000fab       data     extern C:\MCC18\v3_39\src\traditional\proc\p18F8722.asm
                   RCSTA2   0x000f6b       data     extern C:\MCC18\v3_39\src\traditional\proc\p18F8722.asm
               RCSTA2bits   0x000f6b       data     extern C:\MCC18\v3_39\src\traditional\proc\p18F8722.asm
                RCSTAbits   0x000fab       data     extern C:\MCC18\v3_39\src\traditional\proc\p18F8722.asm
              RESET_ZEROS   0x00060e       data     extern /audio/mandm/mandm/mandm8722.c
              RS232_DEBUG   0x000628       data     extern /audio/mandm/mandm/mandm8722.c
                 SET_TLOG   0x000612       data     extern /audio/mandm/mandm/mandm8722.c
                     SIGN   0x000024       data     extern C:\MCC18\v3_39\src\traditional\math\cmath18.asm
              SLOW_STATUS   0x0005c2       data     extern /audio/mandm/mandm/mandm8722.c
                    SPBRG   0x000faf       data     extern C:\MCC18\v3_39\src\traditional\proc\p18F8722.asm
                   SPBRG1   0x000faf       data     extern C:\MCC18\v3_39\src\traditional\proc\p18F8722.asm
                   SPBRG2   0x000f6f       data     extern C:\MCC18\v3_39\src\traditional\proc\p18F8722.asm
                   SPBRGH   0x000f7f       data     extern C:\MCC18\v3_39\src\traditional\proc\p18F8722.asm
                  SPBRGH1   0x000f7f       data     extern C:\MCC18\v3_39\src\traditional\proc\p18F8722.asm
                  SPBRGH2   0x000f7d       data     extern C:\MCC18\v3_39\src\traditional\proc\p18F8722.asm
                  SSP1ADD   0x000fc8       data     extern C:\MCC18\v3_39\src\traditional\proc\p18F8722.asm
                  SSP1BUF   0x000fc9       data     extern C:\MCC18\v3_39\src\traditional\proc\p18F8722.asm
                 SSP1CON1   0x000fc6       data     extern C:\MCC18\v3_39\src\traditional\proc\p18F8722.asm
             SSP1CON1bits   0x000fc6       data     extern C:\MCC18\v3_39\src\traditional\proc\p18F8722.asm
                 SSP1CON2   0x000fc5       data     extern C:\MCC18\v3_39\src\traditional\proc\p18F8722.asm
             SSP1CON2bits   0x000fc5       data     extern C:\MCC18\v3_39\src\traditional\proc\p18F8722.asm
                 SSP1STAT   0x000fc7       data     extern C:\MCC18\v3_39\src\traditional\proc\p18F8722.asm
             SSP1STATbits   0x000fc7       data     extern C:\MCC18\v3_39\src\traditional\proc\p18F8722.asm
                  SSP2ADD   0x000f65       data     extern C:\MCC18\v3_39\src\traditional\proc\p18F8722.asm
                  SSP2BUF   0x000f66       data     extern C:\MCC18\v3_39\src\traditional\proc\p18F8722.asm
                 SSP2CON1   0x000f63       data     extern C:\MCC18\v3_39\src\traditional\proc\p18F8722.asm
             SSP2CON1bits   0x000f63       data     extern C:\MCC18\v3_39\src\traditional\proc\p18F8722.asm
                 SSP2CON2   0x000f62       data     extern C:\MCC18\v3_39\src\traditional\proc\p18F8722.asm
             SSP2CON2bits   0x000f62       data     extern C:\MCC18\v3_39\src\traditional\proc\p18F8722.asm
                 SSP2STAT   0x000f64       data     extern C:\MCC18\v3_39\src\traditional\proc\p18F8722.asm
             SSP2STATbits   0x000f64       data     extern C:\MCC18\v3_39\src\traditional\proc\p18F8722.asm
                   SSPADD   0x000fc8       data     extern C:\MCC18\v3_39\src\traditional\proc\p18F8722.asm
                   SSPBUF   0x000fc9       data     extern C:\MCC18\v3_39\src\traditional\proc\p18F8722.asm
                  SSPCON1   0x000fc6       data     extern C:\MCC18\v3_39\src\traditional\proc\p18F8722.asm
              SSPCON1bits   0x000fc6       data     extern C:\MCC18\v3_39\src\traditional\proc\p18F8722.asm
                  SSPCON2   0x000fc5       data     extern C:\MCC18\v3_39\src\traditional\proc\p18F8722.asm
              SSPCON2bits   0x000fc5       data     extern C:\MCC18\v3_39\src\traditional\proc\p18F8722.asm
                  SSPSTAT   0x000fc7       data     extern C:\MCC18\v3_39\src\traditional\proc\p18F8722.asm
              SSPSTATbits   0x000fc7       data     extern C:\MCC18\v3_39\src\traditional\proc\p18F8722.asm
                   STATUS   0x000fd8       data     extern C:\MCC18\v3_39\src\traditional\proc\p18F8722.asm
               STATUSbits   0x000fd8       data     extern C:\MCC18\v3_39\src\traditional\proc\p18F8722.asm
                   STKPTR   0x000ffc       data     extern C:\MCC18\v3_39\src\traditional\proc\p18F8722.asm
               STKPTRbits   0x000ffc       data     extern C:\MCC18\v3_39\src\traditional\proc\p18F8722.asm
            SYSTEM_STABLE   0x000607       data     extern /audio/mandm/mandm/mandm8722.c
                 SYS_DATA   0x00060f       data     extern /audio/mandm/mandm/mandm8722.c
                 SYS_HELP   0x000611       data     extern /audio/mandm/mandm/mandm8722.c
                     Seed   0x0003fe       data     static C:\MCC18\v3_39\src\traditional\stdclib\rand.asm
                    T0CON   0x000fd5       data     extern C:\MCC18\v3_39\src\traditional\proc\p18F8722.asm
                T0CONbits   0x000fd5       data     extern C:\MCC18\v3_39\src\traditional\proc\p18F8722.asm
                    T1CON   0x000fcd       data     extern C:\MCC18\v3_39\src\traditional\proc\p18F8722.asm
                T1CONbits   0x000fcd       data     extern C:\MCC18\v3_39\src\traditional\proc\p18F8722.asm
                    T2CON   0x000fca       data     extern C:\MCC18\v3_39\src\traditional\proc\p18F8722.asm
                T2CONbits   0x000fca       data     extern C:\MCC18\v3_39\src\traditional\proc\p18F8722.asm
                    T3CON   0x000fb1       data     extern C:\MCC18\v3_39\src\traditional\proc\p18F8722.asm
                T3CONbits   0x000fb1       data     extern C:\MCC18\v3_39\src\traditional\proc\p18F8722.asm
                    T4CON   0x000f76       data     extern C:\MCC18\v3_39\src\traditional\proc\p18F8722.asm
                T4CONbits   0x000f76       data     extern C:\MCC18\v3_39\src\traditional\proc\p18F8722.asm
                   TABLAT   0x000ff5       data     extern C:\MCC18\v3_39\src\traditional\proc\p18F8722.asm
                   TBLPTR   0x000ff6       data     extern C:\MCC18\v3_39\src\traditional\proc\p18F8722.asm
                  TBLPTRH   0x000ff7       data     extern C:\MCC18\v3_39\src\traditional\proc\p18F8722.asm
                  TBLPTRL   0x000ff6       data     extern C:\MCC18\v3_39\src\traditional\proc\p18F8722.asm
                  TBLPTRU   0x000ff8       data     extern C:\MCC18\v3_39\src\traditional\proc\p18F8722.asm
            TEST_SPINNERS   0x000616       data     extern /audio/mandm/mandm/mandm8722.c
                TIMERFLAG   0x000600       data     extern /audio/mandm/mandm/mandm8722.c
                     TLOG   0x000694       data     extern /audio/mandm/mandm/mandm8722.c
                    TMR0H   0x000fd7       data     extern C:\MCC18\v3_39\src\traditional\proc\p18F8722.asm
                    TMR0L   0x000fd6       data     extern C:\MCC18\v3_39\src\traditional\proc\p18F8722.asm
                    TMR1H   0x000fcf       data     extern C:\MCC18\v3_39\src\traditional\proc\p18F8722.asm
                    TMR1L   0x000fce       data     extern C:\MCC18\v3_39\src\traditional\proc\p18F8722.asm
                     TMR2   0x000fcc       data     extern C:\MCC18\v3_39\src\traditional\proc\p18F8722.asm
                    TMR3H   0x000fb3       data     extern C:\MCC18\v3_39\src\traditional\proc\p18F8722.asm
                    TMR3L   0x000fb2       data     extern C:\MCC18\v3_39\src\traditional\proc\p18F8722.asm
                     TMR4   0x000f78       data     extern C:\MCC18\v3_39\src\traditional\proc\p18F8722.asm
                      TOS   0x000ffd       data     extern C:\MCC18\v3_39\src\traditional\proc\p18F8722.asm
                     TOSH   0x000ffe       data     extern C:\MCC18\v3_39\src\traditional\proc\p18F8722.asm
                     TOSL   0x000ffd       data     extern C:\MCC18\v3_39\src\traditional\proc\p18F8722.asm
                     TOSU   0x000fff       data     extern C:\MCC18\v3_39\src\traditional\proc\p18F8722.asm
                    TRISA   0x000f92       data     extern C:\MCC18\v3_39\src\traditional\proc\p18F8722.asm
                TRISAbits   0x000f92       data     extern C:\MCC18\v3_39\src\traditional\proc\p18F8722.asm
                    TRISB   0x000f93       data     extern C:\MCC18\v3_39\src\traditional\proc\p18F8722.asm
                TRISBbits   0x000f93       data     extern C:\MCC18\v3_39\src\traditional\proc\p18F8722.asm
                    TRISC   0x000f94       data     extern C:\MCC18\v3_39\src\traditional\proc\p18F8722.asm
                TRISCbits   0x000f94       data     extern C:\MCC18\v3_39\src\traditional\proc\p18F8722.asm
                    TRISD   0x000f95       data     extern C:\MCC18\v3_39\src\traditional\proc\p18F8722.asm
                TRISDbits   0x000f95       data     extern C:\MCC18\v3_39\src\traditional\proc\p18F8722.asm
                    TRISE   0x000f96       data     extern C:\MCC18\v3_39\src\traditional\proc\p18F8722.asm
                TRISEbits   0x000f96       data     extern C:\MCC18\v3_39\src\traditional\proc\p18F8722.asm
                    TRISF   0x000f97       data     extern C:\MCC18\v3_39\src\traditional\proc\p18F8722.asm
                TRISFbits   0x000f97       data     extern C:\MCC18\v3_39\src\traditional\proc\p18F8722.asm
                    TRISG   0x000f98       data     extern C:\MCC18\v3_39\src\traditional\proc\p18F8722.asm
                TRISGbits   0x000f98       data     extern C:\MCC18\v3_39\src\traditional\proc\p18F8722.asm
                    TRISH   0x000f99       data     extern C:\MCC18\v3_39\src\traditional\proc\p18F8722.asm
                TRISHbits   0x000f99       data     extern C:\MCC18\v3_39\src\traditional\proc\p18F8722.asm
                    TRISJ   0x000f9a       data     extern C:\MCC18\v3_39\src\traditional\proc\p18F8722.asm
                TRISJbits   0x000f9a       data     extern C:\MCC18\v3_39\src\traditional\proc\p18F8722.asm
                    TWEAK   0x000615       data     extern /audio/mandm/mandm/mandm8722.c
                    TXREG   0x000fad       data     extern C:\MCC18\v3_39\src\traditional\proc\p18F8722.asm
                   TXREG1   0x000fad       data     extern C:\MCC18\v3_39\src\traditional\proc\p18F8722.asm
                   TXREG2   0x000f6d       data     extern C:\MCC18\v3_39\src\traditional\proc\p18F8722.asm
                    TXSTA   0x000fac       data     extern C:\MCC18\v3_39\src\traditional\proc\p18F8722.asm
                   TXSTA1   0x000fac       data     extern C:\MCC18\v3_39\src\traditional\proc\p18F8722.asm
               TXSTA1bits   0x000fac       data     extern C:\MCC18\v3_39\src\traditional\proc\p18F8722.asm
                   TXSTA2   0x000f6c       data     extern C:\MCC18\v3_39\src\traditional\proc\p18F8722.asm
               TXSTA2bits   0x000f6c       data     extern C:\MCC18\v3_39\src\traditional\proc\p18F8722.asm
                TXSTAbits   0x000fac       data     extern C:\MCC18\v3_39\src\traditional\proc\p18F8722.asm
               UPDATE_EEP   0x00060d       data     extern /audio/mandm/mandm/mandm8722.c
            USART2_Status   0x0004ff       data     extern C:\MCC18\v3_39\src\pmc_common\USART\u2defs.c
                        V   0x00009e       data     extern /audio/mandm/mandm/mandm8722.c
                      Vin   0x000667       data     extern /audio/mandm/mandm/mandm8722.c
                   WDTCON   0x000fd1       data     extern C:\MCC18\v3_39\src\traditional\proc\p18F8722.asm
               WDTCONbits   0x000fd1       data     extern C:\MCC18\v3_39\src\traditional\proc\p18F8722.asm
                   WDT_TO   0x000613       data     extern /audio/mandm/mandm/mandm8722.c
               WORKERFLAG   0x000603       data     extern /audio/mandm/mandm/mandm8722.c
                     WREG   0x000fe8       data     extern C:\MCC18\v3_39\src\traditional\proc\p18F8722.asm
                    YNKEY   0x000523       data     extern /audio/mandm/mandm/mandm8722.c
                      ZAP   0x0004ed       data     static /audio/mandm/mandm/mandm_vector.c
                 __AARGB0   0x00002d       data     extern C:\MCC18\v3_39\src\traditional\math\aarg.asm
                 __AARGB1   0x00002c       data     extern C:\MCC18\v3_39\src\traditional\math\aarg.asm
                 __AARGB2   0x00002b       data     extern C:\MCC18\v3_39\src\traditional\math\aarg.asm
                 __AARGB3   0x00002a       data     extern C:\MCC18\v3_39\src\traditional\math\aarg.asm
                 __AARGB4   0x000029       data     extern C:\MCC18\v3_39\src\traditional\math\aarg.asm
                 __AARGB5   0x000028       data     extern C:\MCC18\v3_39\src\traditional\math\aarg.asm
                 __AARGB6   0x000027       data     extern C:\MCC18\v3_39\src\traditional\math\aarg.asm
                 __AARGB7   0x000026       data     extern C:\MCC18\v3_39\src\traditional\math\aarg.asm
                   __AEXP   0x00002e       data     extern C:\MCC18\v3_39\src\traditional\math\aarg.asm
                 __BARGB0   0x000032       data     extern C:\MCC18\v3_39\src\traditional\math\barg.asm
                 __BARGB1   0x000031       data     extern C:\MCC18\v3_39\src\traditional\math\barg.asm
                 __BARGB2   0x000030       data     extern C:\MCC18\v3_39\src\traditional\math\barg.asm
                 __BARGB3   0x00002f       data     extern C:\MCC18\v3_39\src\traditional\math\barg.asm
                   __BEXP   0x000033       data     extern C:\MCC18\v3_39\src\traditional\math\barg.asm
                __FPFLAGS   0x000025       data     extern C:\MCC18\v3_39\src\traditional\math\cmath18.asm
            __FPFLAGSbits   0x000025       data     extern C:\MCC18\v3_39\src\traditional\math\cmath18.asm
                  __REMB0   0x000029       data     extern C:\MCC18\v3_39\src\traditional\math\aarg.asm
                  __REMB1   0x000028       data     extern C:\MCC18\v3_39\src\traditional\math\aarg.asm
                  __REMB2   0x000027       data     extern C:\MCC18\v3_39\src\traditional\math\aarg.asm
                  __REMB3   0x000026       data     extern C:\MCC18\v3_39\src\traditional\math\aarg.asm
                   __TEMP   0x000037       data     extern C:\MCC18\v3_39\src\traditional\math\temparg.asm
                 __TEMPB0   0x000037       data     extern C:\MCC18\v3_39\src\traditional\math\temparg.asm
                 __TEMPB1   0x000036       data     extern C:\MCC18\v3_39\src\traditional\math\temparg.asm
                 __TEMPB2   0x000035       data     extern C:\MCC18\v3_39\src\traditional\math\temparg.asm
                 __TEMPB3   0x000034       data     extern C:\MCC18\v3_39\src\traditional\math\temparg.asm
                  __tmp_0   0x000000       data     static C:\MCC18\v3_39\src\traditional\stdclib\putc.c
                  __tmp_0   0x000000       data     static C:\MCC18\v3_39\src\traditional\stdclib\vfprintf.c
                  __tmp_0   0x000000       data     static C:\MCC18\v3_39\src\pmc_common\EEP\read_B.c
                  __tmp_0   0x000000       data     static C:\MCC18\v3_39\src\traditional\stdclib\sprintf.c
                  __tmp_0   0x000000       data     static C:\MCC18\v3_39\src\pmc_common\ADC\adcread.c
                  __tmp_0   0x000000       data     static C:\MCC18\v3_39\src\pmc_common\ADC\adcopen.c
                  __tmp_0   0x000000       data     static C:\MCC18\v3_39\src\pmc_common\USART\u2open.c
                  __tmp_0   0x000000       data     static C:\MCC18\v3_39\src\pmc_common\ADC\adcsetch.c
                  __tmp_0   0x000000       data     static C:\MCC18\v3_39\src\pmc_common\EEP\write_B.c
                  __tmp_0   0x000000       data     static /audio/mandm/mandm/daq.c 
                  __tmp_0   0x000000       data     static /audio/mandm/mandm/crit.c
                  __tmp_0   0x000000       data     static /audio/mandm/mandm/mandm8722.c
                  __tmp_0   0x000000       data     static /audio/mandm/mandm/power.c
                  __tmp_1   0x000038       data     static /audio/mandm/mandm/mandm_vector.c
                    a10_x   0x0005b7       data     extern /audio/mandm/mandm/mandm8722.c
                  a10_x_t   0x0005c7       data     static /audio/mandm/mandm/daq.c 
                    a10_y   0x0005b9       data     extern /audio/mandm/mandm/mandm8722.c
                  a10_y_t   0x0005cb       data     static /audio/mandm/mandm/daq.c 
                    a10_z   0x0005bb       data     extern /audio/mandm/mandm/mandm8722.c
                  a10_z_t   0x0005cf       data     static /audio/mandm/mandm/daq.c 
                  adc_cal   0x000681       data     extern /audio/mandm/mandm/mandm8722.c
                   ahfrak   0x000663       data     extern /audio/mandm/mandm/mandm8722.c
             alarm_buffer   0x0003a0       data     extern /audio/mandm/mandm/mandm8722.c
              alarm_codes   0x000617       data     extern /audio/mandm/mandm/mandm8722.c
                  alm_num   0x0003ee       data     static /audio/mandm/mandm/mandm8722.c
                   almctr   0x0004fe       data     extern /audio/mandm/mandm/mandm8722.c
                   b_read   0x0004ec       data     static /audio/mandm/mandm/mandm_vector.c
                 band_max   0x0004f4       data     static /audio/mandm/mandm/mandm_vector.c
                 bootstr2   0x000200       data     extern /audio/mandm/mandm/mandm8722.c
               build_date   0x000636       data     extern /audio/mandm/mandm/mandm8722.c
               build_time   0x000639       data     extern /audio/mandm/mandm/mandm8722.c
                   button   0x000060       data     extern /audio/mandm/mandm/mandm8722.c
                       c1   0x0005ea       data     static /audio/mandm/mandm/mandm_vector.c
                       c2   0x0005eb       data     static /audio/mandm/mandm/mandm_vector.c
               cable_type   0x000693       data     extern /audio/mandm/mandm/mandm8722.c
                   cdelay   0x0005c1       data     extern /audio/mandm/mandm/mandm8722.c
                   change   0x0001fe       data     static /audio/mandm/mandm/daq.c 
             change_count   0x0001fc       data     extern /audio/mandm/mandm/daq.c 
               check_menu   0x0005a4       data     static /audio/mandm/mandm/mandm8722.c
                   chrg_v   0x00066b       data     extern /audio/mandm/mandm/mandm8722.c
                      cid   0x000352       data     extern /audio/mandm/mandm/mandm8722.c
                clocks_hz   0x000582       data     static /audio/mandm/mandm/mandm8722.c
                clocks_hz   0x00058e       data     static /audio/mandm/mandm/mandm8722.c
                clocks_hz   0x00059a       data     static /audio/mandm/mandm/mandm8722.c
                clocks_hz   0x000576       data     static /audio/mandm/mandm/mandm8722.c
                clocks_hz   0x00056a       data     static /audio/mandm/mandm/mandm8722.c
                clocks_hz   0x00055e       data     static /audio/mandm/mandm/mandm8722.c
                clocks_hz   0x000552       data     static /audio/mandm/mandm/mandm8722.c
              critc_count   0x000629       data     extern /audio/mandm/mandm/mandm8722.c
              critc_level   0x000604       data     extern /audio/mandm/mandm/mandm8722.c
                      csd   0x000340       data     extern /audio/mandm/mandm/mandm8722.c
                curr_byte   0x0005e3       data     static C:\MCC18\v3_39\src\traditional\startup\c018iz.c
               curr_entry   0x0005e5       data     static C:\MCC18\v3_39\src\traditional\startup\c018iz.c
                 data_ptr   0x0005e7       data     static C:\MCC18\v3_39\src\traditional\startup\c018iz.c
                   dcount   0x000562       data     static /audio/mandm/mandm/mandm8722.c
                   dcount   0x00056e       data     static /audio/mandm/mandm/mandm8722.c
                   dcount   0x000556       data     static /audio/mandm/mandm/mandm8722.c
                   dcount   0x00057a       data     static /audio/mandm/mandm/mandm8722.c
                   dcount   0x00054a       data     static /audio/mandm/mandm/mandm8722.c
                   dcount   0x000586       data     static /audio/mandm/mandm/mandm8722.c
                   dcount   0x000592       data     static /audio/mandm/mandm/mandm8722.c
                   dcount   0x000546       data     static /audio/mandm/mandm/mandm8722.c
                 deadband   0x0003f1       data     static /audio/mandm/mandm/mandm8722.c
                       ds   0x000100       data     extern /audio/mandm/mandm/mandm8722.c
                      dsi   0x00063c       data     extern /audio/mandm/mandm/mandm8722.c
                 eep_char   0x0003fc       data     static /audio/mandm/mandm/mandm8722.c
                emo_bumps   0x0004ea       data     static /audio/mandm/mandm/mandm_vector.c
                       f1   0x000374       data     extern /audio/mandm/mandm/mandm8722.c
                       f2   0x00037b       data     extern /audio/mandm/mandm/mandm8722.c
                       f3   0x000382       data     extern /audio/mandm/mandm/mandm8722.c
                       f4   0x000389       data     extern /audio/mandm/mandm/mandm8722.c
               fast_ticks   0x0004f1       data     static /audio/mandm/mandm/mandm_vector.c
                  get_out   0x0005a5       data     static /audio/mandm/mandm/mandm8722.c
             glitch_count   0x0005c0       data     extern /audio/mandm/mandm/mandm8722.c
                        h   0x0003d5       data     static /audio/mandm/mandm/mandm8722.c
                        h   0x0003e1       data     static /audio/mandm/mandm/mandm8722.c
                 help_pos   0x00063e       data     extern /audio/mandm/mandm/mandm8722.c
                 hid_idle   0x0004f8       data     static /audio/mandm/mandm/mandm_vector.c
               hms_string   0x0005a7       data     extern /audio/mandm/mandm/mandm8722.c
                        i   0x0003ed       data     static /audio/mandm/mandm/mandm8722.c
                        i   0x0005c3       data     static /audio/mandm/mandm/daq.c 
                       ib   0x0003d4       data     static /audio/mandm/mandm/mandm8722.c
                       ip   0x00067d       data     extern /audio/mandm/mandm/mandm8722.c
                       iw   0x000679       data     extern /audio/mandm/mandm/mandm8722.c
                    knob1   0x000500       data     extern /audio/mandm/mandm/mandm8722.c
                    knob2   0x000510       data     extern /audio/mandm/mandm/mandm8722.c
              knob_to_pot   0x000678       data     extern /audio/mandm/mandm/mandm8722.c
               last_shape   0x0003d3       data     static /audio/mandm/mandm/mandm8722.c
                lastmotor   0x0004b0       data     static /audio/mandm/mandm/power.c
                    lcd18   0x0003ce       data     extern /audio/mandm/mandm/mandm8722.c
                 lp_speed   0x00062e       data     extern /audio/mandm/mandm/mandm8722.c
                     lp_x   0x000632       data     extern /audio/mandm/mandm/mandm8722.c
                        m   0x0003e5       data     static /audio/mandm/mandm/mandm8722.c
                        m   0x0003d9       data     static /audio/mandm/mandm/mandm8722.c
                 menu_pos   0x0005a6       data     static /audio/mandm/mandm/mandm8722.c
                 menu_pos   0x0003fb       data     static /audio/mandm/mandm/mandm8722.c
                 menu_pos   0x0003fa       data     static /audio/mandm/mandm/mandm8722.c
                     mode   0x000619       data     extern /audio/mandm/mandm/mandm8722.c
                motor_ptr   0x0004ae       data     extern /audio/mandm/mandm/mandm8722.c
                motordata   0x000400       data     extern /audio/mandm/mandm/mandm8722.c
                      msi   0x00063d       data     extern /audio/mandm/mandm/mandm8722.c
                        n   0x00059e       data     static /audio/mandm/mandm/mandm8722.c
                 new_menu   0x0005a3       data     static /audio/mandm/mandm/mandm8722.c
                old_error   0x0003f7       data     static /audio/mandm/mandm/mandm8722.c
                 old_menu   0x0003f9       data     static /audio/mandm/mandm/mandm8722.c
                       p1   0x000300       data     extern /audio/mandm/mandm/mandm8722.c
                       p2   0x000310       data     extern /audio/mandm/mandm/mandm8722.c
                       p3   0x000390       data     extern /audio/mandm/mandm/mandm8722.c
                 position   0x0003ef       data     static /audio/mandm/mandm/mandm8722.c
                     prom   0x0005e0       data     static C:\MCC18\v3_39\src\traditional\startup\c018iz.c
                     qei1   0x000529       data     extern /audio/mandm/mandm/mandm8722.c
                     rawp   0x0005d4       data     extern /audio/mandm/mandm/mandm8722.c
               real_ticks   0x0004f0       data     static /audio/mandm/mandm/mandm_vector.c
                   rx_tmp   0x0004f2       data     static /audio/mandm/mandm/mandm_vector.c
                        s   0x0003dd       data     static /audio/mandm/mandm/mandm8722.c
                        s   0x0003e9       data     static /audio/mandm/mandm/mandm8722.c
                        s   0x000540       data     static /audio/mandm/mandm/mandm8722.c
                  s_delay   0x0005a2       data     static /audio/mandm/mandm/mandm8722.c
                    shape   0x0003f0       data     static /audio/mandm/mandm/mandm8722.c
                     sign   0x00062d       data     extern /audio/mandm/mandm/mandm8722.c
                     slow   0x0005a0       data     static /audio/mandm/mandm/mandm8722.c
               slow_timer   0x0003cf       data     extern /audio/mandm/mandm/mandm8722.c
                   smooth   0x0003ae       data     extern /audio/mandm/mandm/mandm8722.c
                  solar_t   0x000673       data     extern /audio/mandm/mandm/mandm8722.c
                       t1   0x00063f       data     extern /audio/mandm/mandm/mandm8722.c
                       t2   0x000643       data     extern /audio/mandm/mandm/mandm8722.c
                       t3   0x000647       data     extern /audio/mandm/mandm/mandm8722.c
                       t4   0x00064b       data     extern /audio/mandm/mandm/mandm8722.c
                       t5   0x00064f       data     extern /audio/mandm/mandm/mandm8722.c
                       t6   0x000653       data     extern /audio/mandm/mandm/mandm8722.c
                       t7   0x000657       data     extern /audio/mandm/mandm/mandm8722.c
                   t_time   0x00065b       data     extern /audio/mandm/mandm/mandm8722.c
                  termstr   0x000320       data     extern /audio/mandm/mandm/mandm8722.c
                    timer   0x0005ec       data     static /audio/mandm/mandm/mandm_vector.c
                   timerl   0x0005ee       data     static /audio/mandm/mandm/mandm_vector.c
                 timetemp   0x000596       data     static /audio/mandm/mandm/mandm8722.c
                 timetemp   0x00058a       data     static /audio/mandm/mandm/mandm8722.c
                 timetemp   0x00057e       data     static /audio/mandm/mandm/mandm8722.c
                 timetemp   0x000572       data     static /audio/mandm/mandm/mandm8722.c
                 timetemp   0x00054e       data     static /audio/mandm/mandm/mandm8722.c
                 timetemp   0x000566       data     static /audio/mandm/mandm/mandm8722.c
                 timetemp   0x00055a       data     static /audio/mandm/mandm/mandm8722.c
                 vbatol_t   0x00066f       data     extern /audio/mandm/mandm/mandm8722.c
                 vc_count   0x0004ee       data     static /audio/mandm/mandm/mandm_vector.c
                 voltfrak   0x00065f       data     extern /audio/mandm/mandm/mandm8722.c
              was_running   0x0003f5       data     static /audio/mandm/mandm/mandm8722.c
             worker_timer   0x0004ef       data     static /audio/mandm/mandm/mandm_vector.c
                 worktick   0x0005bd       data     extern /audio/mandm/mandm/mandm8722.c
                        z   0x0003fd       data     static /audio/mandm/mandm/mandm8722.c
                        z   0x0005c5       data     static /audio/mandm/mandm/daq.c 
                        z   0x0000fb       data     static /audio/mandm/mandm/hwconf.c
                        z   0x0005a1       data     static /audio/mandm/mandm/mandm8722.c
                        z   0x0005d3       data     static /audio/mandm/mandm/daq.c 
                        z   0x00059f       data     static /audio/mandm/mandm/mandm8722.c
                        z   0x0000fc       data     static /audio/mandm/mandm/config.c



                              Symbols - Sorted by Address
                     Name    Address   Location    Storage File                     
                ---------  ---------  ---------  --------- ---------                
                   _entry   0x000000    program     extern C:\MCC18\v3_39\src\traditional\startup\c018iz.c
       ___return_lbl00000   0x000004    program     static                          
               _user_putc   0x000006    program     extern C:\MCC18\v3_39\src\traditional\stdclib\_user_putc.c
                 tick_int   0x000008    program     extern /audio/mandm/mandm/mandm8722.c
       ___return_lbl00000   0x00000c    program     static                          
                  BusyADC   0x00000e    program     extern C:\MCC18\v3_39\src\pmc_common\ADC\adcbusy.c
                 work_int   0x000018    program     extern /audio/mandm/mandm/mandm8722.c
       ___return_lbl00001   0x00001c    program     static                          
                 spinners   0x000068    program     extern /audio/mandm/mandm/mandm8722.c
              LCD_VC_puts   0x00016e    program     extern /audio/mandm/mandm/mandm8722.c
              update_hist   0x000234    program     extern /audio/mandm/mandm/mandm8722.c
                 wdtdelay   0x000282    program     extern /audio/mandm/mandm/mandm8722.c
          ___for_lbl00030   0x000294    program     static                          
               __tmplbl_3   0x0002b8    program     static                          
          ___for_lbl00028   0x0002be    program     static                          
          ___for_lbl00029   0x0002cc    program     static                          
       ___return_lbl00027   0x0002cc    program     static                          
                  wdttime   0x0002d4    program     extern /audio/mandm/mandm/mandm8722.c
           ___do_lbl00034   0x00032e    program     static                          
           ___do_lbl00032   0x00034e    program     static                          
               __tmplbl_4   0x00036e    program     static                          
           ___do_lbl00033   0x000370    program     static                          
       ___return_lbl00031   0x000370    program     static                          
                checktime   0x000378    program     extern /audio/mandm/mandm/mandm8722.c
         checktime_select   0x0003ee    program     extern /audio/mandm/mandm/mandm8722.c
          checktime_motor   0x000464    program     extern /audio/mandm/mandm/mandm8722.c
            checktime_cal   0x0004da    program     extern /audio/mandm/mandm/mandm8722.c
            checktime_eep   0x000550    program     extern /audio/mandm/mandm/mandm8722.c
          checktime_track   0x0005c6    program     extern /audio/mandm/mandm/mandm8722.c
            DelayFor18TCY   0x00063c    program     extern /audio/mandm/mandm/mandm8722.c
          ___for_lbl00056   0x000642    program     static                          
          ___for_lbl00054   0x00064e    program     static                          
          ___for_lbl00055   0x000654    program     static                          
       ___return_lbl00053   0x000654    program     static                          
             DelayPORXLCD   0x000656    program     extern /audio/mandm/mandm/mandm8722.c
                DelayXLCD   0x000662    program     extern /audio/mandm/mandm/mandm8722.c
                    putc2   0x00066e    program     extern /audio/mandm/mandm/mandm8722.c
              start_delay   0x000686    program     extern /audio/mandm/mandm/mandm8722.c
                  clr_lcd   0x00068c    program     extern /audio/mandm/mandm/mandm8722.c
                lp_filter   0x00069c    program     extern /audio/mandm/mandm/mandm8722.c
                term_time   0x00085e    program     extern /audio/mandm/mandm/mandm8722.c
       ___return_lbl00072   0x0008ba    program     static                          
             hold_process   0x0008bc    program     extern /audio/mandm/mandm/mandm8722.c
              system_data   0x000900    program     extern /audio/mandm/mandm/mandm8722.c
          ___for_lbl00081   0x000c82    program     static                          
          ___for_lbl00078   0x000fb2    program     static                          
           ___if_lbl00080   0x000fb2    program     static                          
          ___for_lbl00079   0x000fb8    program     static                          
       ___return_lbl00077   0x000fba    program     static                          
              system_help   0x000fbc    program     extern /audio/mandm/mandm/mandm8722.c
                      hms   0x000fd8    program     extern /audio/mandm/mandm/mandm8722.c
                       hm   0x0010b2    program     extern /audio/mandm/mandm/mandm8722.c
                     ABSI   0x00117e    program     extern /audio/mandm/mandm/mandm8722.c
                     ABSL   0x0011ac    program     extern /audio/mandm/mandm/mandm8722.c
                   voltfp   0x0011de    program     extern /audio/mandm/mandm/mandm8722.c
                  voltfps   0x001200    program     extern /audio/mandm/mandm/mandm8722.c
                  voltfpi   0x00121e    program     extern /audio/mandm/mandm/mandm8722.c
                     ahfp   0x0012f0    program     extern /audio/mandm/mandm/mandm8722.c
              check_alarm   0x00138c    program     extern /audio/mandm/mandm/mandm8722.c
                fail_safe   0x0016c2    program     extern /audio/mandm/mandm/mandm8722.c
                 ansidraw   0x0017b4    program     extern /audio/mandm/mandm/mandm8722.c
          update_lcd_menu   0x0017f0    program     extern /audio/mandm/mandm/mandm8722.c
               Set_Cursor   0x0018bc    program     extern /audio/mandm/mandm/mandm8722.c
              track_motor   0x001934    program     extern /audio/mandm/mandm/mandm8722.c
              check_cable   0x001e34    program     extern /audio/mandm/mandm/mandm8722.c
                  get_hid   0x001f5a    program     extern /audio/mandm/mandm/mandm8722.c
                 nav_menu   0x0021ee    program     extern /audio/mandm/mandm/mandm8722.c
            e220_qei_exer   0x002232    program     extern /audio/mandm/mandm/mandm8722.c
              nonqei_exer   0x002384    program     extern /audio/mandm/mandm/mandm8722.c
                exerciser   0x0024cc    program     extern /audio/mandm/mandm/mandm8722.c
                 hid_menu   0x002510    program     extern /audio/mandm/mandm/mandm8722.c
           help_m_display   0x002532    program     extern /audio/mandm/mandm/mandm8722.c
            gsd_m_display   0x002594    program     extern /audio/mandm/mandm/mandm8722.c
           e220_m_display   0x002600    program     extern /audio/mandm/mandm/mandm8722.c
        viision_m_display   0x00269a    program     extern /audio/mandm/mandm/mandm8722.c
       viision_ms_display   0x00274a    program     extern /audio/mandm/mandm/mandm8722.c
         e220_qei_display   0x0027b2    program     extern /audio/mandm/mandm/mandm8722.c
          default_display   0x00287a    program     extern /audio/mandm/mandm/mandm8722.c
         varian_v_display   0x0028da    program     extern /audio/mandm/mandm/mandm8722.c
          fail_all_motors   0x0029b0    program     extern /audio/mandm/mandm/mandm8722.c
           set_all_motors   0x002a22    program     extern /audio/mandm/mandm/mandm8722.c
                  run_cal   0x002a6a    program     extern /audio/mandm/mandm/mandm8722.c
           ___if_lbl00423   0x002ae6    program     static                          
           ___if_lbl00424   0x002b20    program     static                          
           ___if_lbl00425   0x002b32    program     static                          
           ___if_lbl00426   0x002b6c    program     static                          
          ___for_lbl00449   0x002bca    program     static                          
           ___do_lbl00435   0x002c36    program     static                          
           ___if_lbl00431   0x002cfa    program     static                          
             __tmplbl_162   0x002d94    program     static                          
           ___if_lbl00432   0x002de6    program     static                          
             __tmplbl_163   0x002e84    program     static                          
           ___if_lbl00433   0x002ed6    program     static                          
           ___if_lbl00434   0x002eea    program     static                          
           ___do_lbl00429   0x002efc    program     static                          
           ___do_lbl00430   0x002f2a    program     static                          
             __tmplbl_164   0x002f36    program     static                          
              __tmplbl_74   0x002f3e    program     static                          
              __tmplbl_73   0x002f4e    program     static                          
           ___if_lbl00437   0x002f56    program     static                          
             __tmplbl_165   0x002f62    program     static                          
           ___if_lbl00438   0x002f70    program     static                          
           ___do_lbl00445   0x002faa    program     static                          
           ___if_lbl00441   0x00306e    program     static                          
             __tmplbl_166   0x003108    program     static                          
           ___if_lbl00442   0x00315a    program     static                          
             __tmplbl_167   0x0031f8    program     static                          
           ___if_lbl00443   0x00324a    program     static                          
           ___if_lbl00444   0x00325e    program     static                          
           ___do_lbl00439   0x003270    program     static                          
           ___do_lbl00440   0x00329e    program     static                          
             __tmplbl_168   0x0032aa    program     static                          
              __tmplbl_76   0x0032b2    program     static                          
              __tmplbl_75   0x0032c2    program     static                          
           ___if_lbl00447   0x0032ca    program     static                          
             __tmplbl_169   0x0032d6    program     static                          
           ___if_lbl00448   0x0032e4    program     static                          
          ___for_lbl00427   0x0032e4    program     static                          
          ___for_lbl00428   0x0032f0    program     static                          
              __tmplbl_78   0x003302    program     static                          
              __tmplbl_77   0x00330c    program     static                          
           ___if_lbl00451   0x0033f6    program     static                          
           ___if_lbl00452   0x003452    program     static                          
           ___do_lbl00455   0x003476    program     static                          
           ___do_lbl00453   0x003482    program     static                          
           ___do_lbl00454   0x003488    program     static                          
           ___if_lbl00456   0x0034de    program     static                          
           ___if_lbl00457   0x0034de    program     static                          
           ___if_lbl00458   0x0034f8    program     static                          
           ___do_lbl00475   0x003566    program     static                          
              __tmplbl_81   0x003730    program     static                          
              __tmplbl_80   0x003736    program     static                          
              __tmplbl_79   0x00373c    program     static                          
           ___if_lbl00464   0x003750    program     static                          
           ___if_lbl00465   0x003780    program     static                          
           ___if_lbl00466   0x003784    program     static                          
           ___if_lbl00467   0x0037ec    program     static                          
           ___if_lbl00468   0x0038f6    program     static                          
         ___else_lbl00471   0x0038f8    program     static                          
           ___if_lbl00469   0x00398a    program     static                          
           ___if_lbl00470   0x00398a    program     static                          
           ___if_lbl00472   0x003a50    program     static                          
           ___if_lbl00473   0x003b16    program     static                          
           ___if_lbl00474   0x003b2a    program     static                          
           ___do_lbl00459   0x003b3c    program     static                          
              __tmplbl_83   0x003b68    program     static                          
              __tmplbl_82   0x003b7a    program     static                          
           ___do_lbl00460   0x003b7a    program     static                          
           ___do_lbl00492   0x003bfc    program     static                          
              __tmplbl_86   0x003dc6    program     static                          
              __tmplbl_85   0x003dcc    program     static                          
              __tmplbl_84   0x003dd2    program     static                          
           ___if_lbl00481   0x003de6    program     static                          
           ___if_lbl00482   0x003e16    program     static                          
           ___if_lbl00483   0x003e1a    program     static                          
           ___if_lbl00484   0x003e82    program     static                          
           ___if_lbl00485   0x003f8c    program     static                          
         ___else_lbl00488   0x003f8e    program     static                          
           ___if_lbl00486   0x004020    program     static                          
           ___if_lbl00487   0x004020    program     static                          
           ___if_lbl00489   0x0040e6    program     static                          
           ___if_lbl00490   0x0041ac    program     static                          
           ___if_lbl00491   0x0041c0    program     static                          
           ___do_lbl00476   0x0041d2    program     static                          
              __tmplbl_88   0x0041fe    program     static                          
           ___do_lbl00477   0x004210    program     static                          
              __tmplbl_87   0x004210    program     static                          
           ___if_lbl00493   0x004210    program     static                          
         ___else_lbl00512   0x004214    program     static                          
          ___for_lbl00500   0x00425c    program     static                          
              __tmplbl_89   0x004274    program     static                          
           ___if_lbl00496   0x00431a    program     static                          
              __tmplbl_90   0x004406    program     static                          
           ___if_lbl00497   0x004418    program     static                          
           ___if_lbl00498   0x004430    program     static                          
           ___if_lbl00499   0x004498    program     static                          
          ___for_lbl00494   0x004498    program     static                          
          ___for_lbl00495   0x0044ac    program     static                          
          ___for_lbl00507   0x004528    program     static                          
              __tmplbl_91   0x004540    program     static                          
           ___if_lbl00503   0x0045e6    program     static                          
              __tmplbl_92   0x0046d2    program     static                          
           ___if_lbl00504   0x0046e4    program     static                          
           ___if_lbl00505   0x0046fc    program     static                          
           ___if_lbl00506   0x004764    program     static                          
          ___for_lbl00501   0x004764    program     static                          
          ___for_lbl00502   0x004778    program     static                          
          ___for_lbl00510   0x004b88    program     static                          
              __tmplbl_93   0x004ba0    program     static                          
          ___for_lbl00508   0x004bdc    program     static                          
          ___for_lbl00509   0x004bf0    program     static                          
           ___if_lbl00511   0x004bf0    program     static                          
          ___for_lbl00523   0x004bfc    program     static                          
              __tmplbl_94   0x004c14    program     static                          
         ___else_lbl00522   0x004d0c    program     static                          
         ___else_lbl00516   0x004d5c    program     static                          
           ___if_lbl00515   0x004d66    program     static                          
           ___do_lbl00519   0x004fce    program     static                          
           ___do_lbl00517   0x004fda    program     static                          
           ___do_lbl00518   0x004fe0    program     static                          
           ___if_lbl00520   0x004ff2    program     static                          
           ___if_lbl00521   0x004ff2    program     static                          
          ___for_lbl00513   0x004ff2    program     static                          
          ___for_lbl00514   0x005006    program     static                          
           ___do_lbl00528   0x00504c    program     static                          
           ___if_lbl00527   0x0051c0    program     static                          
           ___do_lbl00524   0x0051c2    program     static                          
              __tmplbl_96   0x0051cc    program     static                          
              __tmplbl_97   0x0051fe    program     static                          
              __tmplbl_95   0x005202    program     static                          
           ___do_lbl00525   0x005202    program     static                          
           ___if_lbl00529   0x0052da    program     static                          
         ___else_lbl00530   0x0052da    program     static                          
       ___return_lbl00422   0x0052fc    program     static                          
              display_cal   0x005310    program     extern /audio/mandm/mandm/mandm8722.c
                 init_lcd   0x0053ac    program     extern /audio/mandm/mandm/mandm8722.c
                     main   0x00540c    program     extern /audio/mandm/mandm/mandm8722.c
           ___if_lbl00542   0x0054da    program     static                          
           ___if_lbl00543   0x005510    program     static                          
           ___if_lbl00544   0x005546    program     static                          
           ___if_lbl00545   0x00557c    program     static                          
           ___if_lbl00546   0x0056f8    program     static                          
          ___for_lbl00549   0x005752    program     static                          
          ___for_lbl00547   0x00577c    program     static                          
           ___if_lbl00550   0x005782    program     static                          
          ___for_lbl00548   0x005782    program     static                          
         ___else_lbl00552   0x0057d6    program     static                          
           ___if_lbl00551   0x005828    program     static                          
          ___for_lbl00555   0x005862    program     static                          
          ___for_lbl00553   0x00589a    program     static                          
          ___for_lbl00554   0x0058a0    program     static                          
         ___else_lbl00560   0x0058a2    program     static                          
          ___for_lbl00558   0x0058c0    program     static                          
          ___for_lbl00556   0x0058f8    program     static                          
          ___for_lbl00557   0x0058fe    program     static                          
           ___if_lbl00559   0x005918    program     static                          
        ___while_lbl00561   0x005920    program     static                          
           ___if_lbl00563   0x005922    program     static                          
        ___while_lbl00562   0x005922    program     static                          
           ___if_lbl00564   0x005978    program     static                          
        ___while_lbl00565   0x005bd8    program     static                          
              __tmplbl_99   0x005be4    program     static                          
              __tmplbl_98   0x005bea    program     static                          
           ___if_lbl00568   0x005bee    program     static                          
           ___if_lbl00569   0x005c18    program     static                          
           ___if_lbl00570   0x005c2c    program     static                          
        ___while_lbl00566   0x005c2e    program     static                          
       ___return_lbl00541   0x005c2e    program     static                          
                   __pa_0   0x005c30    program     static /audio/mandm/mandm/mandm8722.c
                   __pa_1   0x005c44    program     static /audio/mandm/mandm/mandm8722.c
                   __pa_2   0x005c4e    program     static /audio/mandm/mandm/mandm8722.c
                   __pa_3   0x005c6c    program     static /audio/mandm/mandm/mandm8722.c
                   __pa_4   0x005c8a    program     static /audio/mandm/mandm/mandm8722.c
                   __pa_5   0x005c92    program     static /audio/mandm/mandm/mandm8722.c
                   __pa_6   0x005ca4    program     static /audio/mandm/mandm/mandm8722.c
                   __pa_7   0x005cae    program     static /audio/mandm/mandm/mandm8722.c
                   __pa_8   0x005cb8    program     static /audio/mandm/mandm/mandm8722.c
                   __pa_9   0x005cca    program     static /audio/mandm/mandm/mandm8722.c
                  __pa_10   0x005ce6    program     static /audio/mandm/mandm/mandm8722.c
                  __pa_11   0x005d00    program     static /audio/mandm/mandm/mandm8722.c
                  __pa_12   0x005d1e    program     static /audio/mandm/mandm/mandm8722.c
                  __pa_13   0x005d2a    program     static /audio/mandm/mandm/mandm8722.c
                  __pa_14   0x005d30    program     static /audio/mandm/mandm/mandm8722.c
                  __pa_15   0x005d3c    program     static /audio/mandm/mandm/mandm8722.c
                  __pa_16   0x005d66    program     static /audio/mandm/mandm/mandm8722.c
             __tmplbl_143   0x005d70    program     static                          
             __tmplbl_125   0x005d70    program     static                          
             __tmplbl_124   0x005d70    program     static                          
             __tmplbl_122   0x005d70    program     static                          
             __tmplbl_114   0x005d70    program     static                          
             __tmplbl_113   0x005d70    program     static                          
             __tmplbl_110   0x005d70    program     static                          
             __tmplbl_144   0x005d70    program     static                          
             __tmplbl_146   0x005d70    program     static                          
             __tmplbl_148   0x005d70    program     static                          
             __tmplbl_160   0x005d70    program     static                          
             __tmplbl_161   0x005d70    program     static                          
             __tmplbl_178   0x005d70    program     static                          
                  __pa_17   0x005d70    program     static /audio/mandm/mandm/mandm8722.c
             __tmplbl_100   0x005d70    program     static                          
             __tmplbl_101   0x005d70    program     static                          
             __tmplbl_102   0x005d70    program     static                          
             __tmplbl_103   0x005d70    program     static                          
             __tmplbl_104   0x005d70    program     static                          
             __tmplbl_105   0x005d70    program     static                          
             __tmplbl_106   0x005d70    program     static                          
             __tmplbl_107   0x005d70    program     static                          
             __tmplbl_109   0x005d70    program     static                          
                  __pa_18   0x005d78    program     static /audio/mandm/mandm/mandm8722.c
                  __pa_19   0x005d7e    program     static /audio/mandm/mandm/mandm8722.c
                  __pa_20   0x005d8c    program     static /audio/mandm/mandm/mandm8722.c
                  __pa_21   0x005daa    program     static /audio/mandm/mandm/mandm8722.c
                  __pa_22   0x005db4    program     static /audio/mandm/mandm/mandm8722.c
                  __pa_23   0x005dd6    program     static /audio/mandm/mandm/mandm8722.c
                  __pa_24   0x005de4    program     static /audio/mandm/mandm/mandm8722.c
                  __pa_25   0x005df0    program     static /audio/mandm/mandm/mandm8722.c
                  __pa_26   0x005df8    program     static /audio/mandm/mandm/mandm8722.c
                  __pa_27   0x005e06    program     static /audio/mandm/mandm/mandm8722.c
                  __pa_28   0x005e12    program     static /audio/mandm/mandm/mandm8722.c
                  __pa_29   0x005e28    program     static /audio/mandm/mandm/mandm8722.c
                  __pa_30   0x005e4e    program     static /audio/mandm/mandm/mandm8722.c
                  __pa_31   0x005e62    program     static /audio/mandm/mandm/mandm8722.c
                  __pa_32   0x005e78    program     static /audio/mandm/mandm/mandm8722.c
                  __pa_33   0x005e8a    program     static /audio/mandm/mandm/mandm8722.c
                  __pa_34   0x005e94    program     static /audio/mandm/mandm/mandm8722.c
                  __pa_35   0x005e9e    program     static /audio/mandm/mandm/mandm8722.c
                  __pa_36   0x005ea8    program     static /audio/mandm/mandm/mandm8722.c
                  __pa_37   0x005ec2    program     static /audio/mandm/mandm/mandm8722.c
                  __pa_38   0x005ec8    program     static /audio/mandm/mandm/mandm8722.c
                  __pa_39   0x005eda    program     static /audio/mandm/mandm/mandm8722.c
                  __pa_40   0x005ee6    program     static /audio/mandm/mandm/mandm8722.c
                  __pa_41   0x005ef4    program     static /audio/mandm/mandm/mandm8722.c
                  __pa_42   0x005efc    program     static /audio/mandm/mandm/mandm8722.c
                  __pa_43   0x005f10    program     static /audio/mandm/mandm/mandm8722.c
                  __pa_44   0x005f2a    program     static /audio/mandm/mandm/mandm8722.c
                  __pa_45   0x005f3e    program     static /audio/mandm/mandm/mandm8722.c
                  __pa_46   0x005f46    program     static /audio/mandm/mandm/mandm8722.c
                  __pa_47   0x005f4e    program     static /audio/mandm/mandm/mandm8722.c
                  __pa_48   0x005f5c    program     static /audio/mandm/mandm/mandm8722.c
                  __pa_49   0x005f64    program     static /audio/mandm/mandm/mandm8722.c
                  __pa_50   0x005f6c    program     static /audio/mandm/mandm/mandm8722.c
                  __pa_51   0x005f74    program     static /audio/mandm/mandm/mandm8722.c
                  __pa_52   0x005f9e    program     static /audio/mandm/mandm/mandm8722.c
                  __pa_53   0x005fa8    program     static /audio/mandm/mandm/mandm8722.c
                  __pa_54   0x005fb2    program     static /audio/mandm/mandm/mandm8722.c
                  __pa_55   0x005fc0    program     static /audio/mandm/mandm/mandm8722.c
                  __pa_56   0x005fc8    program     static /audio/mandm/mandm/mandm8722.c
                  __pa_57   0x005fe8    program     static /audio/mandm/mandm/mandm8722.c
                  __pa_58   0x006008    program     static /audio/mandm/mandm/mandm8722.c
                  __pa_59   0x006018    program     static /audio/mandm/mandm/mandm8722.c
                  __pa_60   0x006028    program     static /audio/mandm/mandm/mandm8722.c
                  __pa_61   0x006032    program     static /audio/mandm/mandm/mandm8722.c
                  __pa_62   0x006038    program     static /audio/mandm/mandm/mandm8722.c
                  __pa_63   0x00603e    program     static /audio/mandm/mandm/mandm8722.c
                  __pa_64   0x006056    program     static /audio/mandm/mandm/mandm8722.c
                  __pa_65   0x00605e    program     static /audio/mandm/mandm/mandm8722.c
                  __pa_66   0x006066    program     static /audio/mandm/mandm/mandm8722.c
                  __pa_67   0x006072    program     static /audio/mandm/mandm/mandm8722.c
                  __pa_68   0x006080    program     static /audio/mandm/mandm/mandm8722.c
                  __pa_69   0x00608e    program     static /audio/mandm/mandm/mandm8722.c
                  __pa_70   0x00609a    program     static /audio/mandm/mandm/mandm8722.c
                  __pa_71   0x0060a4    program     static /audio/mandm/mandm/mandm8722.c
                  __pa_72   0x0060ae    program     static /audio/mandm/mandm/mandm8722.c
                  __pa_73   0x0060b8    program     static /audio/mandm/mandm/mandm8722.c
                  __pa_74   0x0060d0    program     static /audio/mandm/mandm/mandm8722.c
                  __pa_75   0x0060e4    program     static /audio/mandm/mandm/mandm8722.c
                  __pa_76   0x0060ee    program     static /audio/mandm/mandm/mandm8722.c
                  __pa_77   0x0060f8    program     static /audio/mandm/mandm/mandm8722.c
                  __pa_78   0x006102    program     static /audio/mandm/mandm/mandm8722.c
                  __pa_79   0x00610c    program     static /audio/mandm/mandm/mandm8722.c
                  __pa_80   0x006122    program     static /audio/mandm/mandm/mandm8722.c
                  __pa_81   0x00612e    program     static /audio/mandm/mandm/mandm8722.c
                  __pa_82   0x00613a    program     static /audio/mandm/mandm/mandm8722.c
                  __pa_83   0x006142    program     static /audio/mandm/mandm/mandm8722.c
                  __pa_84   0x00614a    program     static /audio/mandm/mandm/mandm8722.c
                  __pa_85   0x006158    program     static /audio/mandm/mandm/mandm8722.c
                  __pa_86   0x006166    program     static /audio/mandm/mandm/mandm8722.c
                  __pa_87   0x006174    program     static /audio/mandm/mandm/mandm8722.c
                  __pa_88   0x006182    program     static /audio/mandm/mandm/mandm8722.c
                  __pa_89   0x00618c    program     static /audio/mandm/mandm/mandm8722.c
                  __pa_90   0x006196    program     static /audio/mandm/mandm/mandm8722.c
                  __pa_91   0x0061a8    program     static /audio/mandm/mandm/mandm8722.c
                  __pa_92   0x0061ba    program     static /audio/mandm/mandm/mandm8722.c
                  __pa_93   0x0061cc    program     static /audio/mandm/mandm/mandm8722.c
                  __pa_94   0x0061de    program     static /audio/mandm/mandm/mandm8722.c
                  __pa_95   0x0061f0    program     static /audio/mandm/mandm/mandm8722.c
                  __pa_96   0x006202    program     static /audio/mandm/mandm/mandm8722.c
                  __pa_97   0x00620a    program     static /audio/mandm/mandm/mandm8722.c
                  __pa_98   0x00621c    program     static /audio/mandm/mandm/mandm8722.c
                  __pa_99   0x00622e    program     static /audio/mandm/mandm/mandm8722.c
                 __pa_100   0x00623a    program     static /audio/mandm/mandm/mandm8722.c
                 __pa_101   0x006246    program     static /audio/mandm/mandm/mandm8722.c
                 __pa_102   0x00624c    program     static /audio/mandm/mandm/mandm8722.c
                 __pa_103   0x006256    program     static /audio/mandm/mandm/mandm8722.c
                 __pa_104   0x006260    program     static /audio/mandm/mandm/mandm8722.c
                 __pa_105   0x00626a    program     static /audio/mandm/mandm/mandm8722.c
                 __pa_106   0x006272    program     static /audio/mandm/mandm/mandm8722.c
                 __pa_107   0x006278    program     static /audio/mandm/mandm/mandm8722.c
                 __pa_108   0x006282    program     static /audio/mandm/mandm/mandm8722.c
                 __pa_109   0x006290    program     static /audio/mandm/mandm/mandm8722.c
                 __pa_110   0x00629e    program     static /audio/mandm/mandm/mandm8722.c
                 __pa_111   0x0062ac    program     static /audio/mandm/mandm/mandm8722.c
                 __pa_112   0x0062b4    program     static /audio/mandm/mandm/mandm8722.c
                 __pa_113   0x0062c2    program     static /audio/mandm/mandm/mandm8722.c
                 __pa_114   0x0062cc    program     static /audio/mandm/mandm/mandm8722.c
                 __pa_115   0x0062d6    program     static /audio/mandm/mandm/mandm8722.c
                 __pa_116   0x0062e0    program     static /audio/mandm/mandm/mandm8722.c
                 __pa_117   0x0062ea    program     static /audio/mandm/mandm/mandm8722.c
                 __pa_118   0x0062f4    program     static /audio/mandm/mandm/mandm8722.c
                 __pa_119   0x006316    program     static /audio/mandm/mandm/mandm8722.c
                 __pa_120   0x006328    program     static /audio/mandm/mandm/mandm8722.c
                 __pa_121   0x006342    program     static /audio/mandm/mandm/mandm8722.c
                 __pa_122   0x006362    program     static /audio/mandm/mandm/mandm8722.c
                 __pa_123   0x00637a    program     static /audio/mandm/mandm/mandm8722.c
                 __pa_124   0x006380    program     static /audio/mandm/mandm/mandm8722.c
                 __pa_125   0x006398    program     static /audio/mandm/mandm/mandm8722.c
                 __pa_126   0x0063ca    program     static /audio/mandm/mandm/mandm8722.c
                 __pa_127   0x0063d2    program     static /audio/mandm/mandm/mandm8722.c
                 __pa_128   0x0063e2    program     static /audio/mandm/mandm/mandm8722.c
                 __pa_129   0x0063fa    program     static /audio/mandm/mandm/mandm8722.c
                 __pa_130   0x006402    program     static /audio/mandm/mandm/mandm8722.c
             __tmplbl_159   0x00640a    program     static                          
             __tmplbl_152   0x00640a    program     static                          
             __tmplbl_151   0x00640a    program     static                          
             __tmplbl_154   0x00640a    program     static                          
                 __pa_131   0x00640a    program     static /audio/mandm/mandm/mandm8722.c
             __tmplbl_149   0x00640a    program     static                          
             __tmplbl_155   0x00640a    program     static                          
                 __pa_132   0x006414    program     static /audio/mandm/mandm/mandm8722.c
                 __pa_133   0x00641a    program     static /audio/mandm/mandm/mandm8722.c
                 __pa_134   0x006424    program     static /audio/mandm/mandm/mandm8722.c
                 __pa_135   0x006434    program     static /audio/mandm/mandm/mandm8722.c
                 __pa_136   0x00643c    program     static /audio/mandm/mandm/mandm8722.c
             __tmplbl_117   0x006440    program     static                          
             __tmplbl_118   0x006440    program     static                          
                 __pa_137   0x006440    program     static /audio/mandm/mandm/mandm8722.c
                 __pa_138   0x00644c    program     static /audio/mandm/mandm/mandm8722.c
                 __pa_139   0x00645c    program     static /audio/mandm/mandm/mandm8722.c
                 __pa_140   0x006472    program     static /audio/mandm/mandm/mandm8722.c
                 __pa_141   0x006488    program     static /audio/mandm/mandm/mandm8722.c
                 __pa_142   0x00649a    program     static /audio/mandm/mandm/mandm8722.c
                 __pa_143   0x0064a6    program     static /audio/mandm/mandm/mandm8722.c
                 __pa_144   0x0064ae    program     static /audio/mandm/mandm/mandm8722.c
                 __pa_145   0x0064b4    program     static /audio/mandm/mandm/mandm8722.c
                 __pa_146   0x0064ce    program     static /audio/mandm/mandm/mandm8722.c
                 __pa_147   0x0064e2    program     static /audio/mandm/mandm/mandm8722.c
                 __pa_148   0x0064e8    program     static /audio/mandm/mandm/mandm8722.c
                 __pa_149   0x0064f2    program     static /audio/mandm/mandm/mandm8722.c
                 __pa_150   0x0064fa    program     static /audio/mandm/mandm/mandm8722.c
                 __pa_151   0x006504    program     static /audio/mandm/mandm/mandm8722.c
                 __pa_152   0x006512    program     static /audio/mandm/mandm/mandm8722.c
                 __pa_153   0x006522    program     static /audio/mandm/mandm/mandm8722.c
                 __pa_154   0x006528    program     static /audio/mandm/mandm/mandm8722.c
             __tmplbl_170   0x006528    program     static                          
             __tmplbl_171   0x006528    program     static                          
             __tmplbl_174   0x006528    program     static                          
                 __pa_155   0x006532    program     static /audio/mandm/mandm/mandm8722.c
                 __pa_156   0x006548    program     static /audio/mandm/mandm/mandm8722.c
                 __pa_157   0x00655c    program     static /audio/mandm/mandm/mandm8722.c
                 __pa_158   0x006570    program     static /audio/mandm/mandm/mandm8722.c
                 __pa_159   0x006578    program     static /audio/mandm/mandm/mandm8722.c
                 __pa_160   0x006582    program     static /audio/mandm/mandm/mandm8722.c
                 __pa_161   0x00658c    program     static /audio/mandm/mandm/mandm8722.c
             __tmplbl_111   0x006594    program     static                          
                 __pa_162   0x006594    program     static /audio/mandm/mandm/mandm8722.c
             __tmplbl_112   0x006594    program     static                          
                 __pa_163   0x0065a8    program     static /audio/mandm/mandm/mandm8722.c
                 __pa_164   0x0065b2    program     static /audio/mandm/mandm/mandm8722.c
                 __pa_165   0x0065be    program     static /audio/mandm/mandm/mandm8722.c
                 __pa_166   0x0065d0    program     static /audio/mandm/mandm/mandm8722.c
                 __pa_167   0x0065e2    program     static /audio/mandm/mandm/mandm8722.c
                 __pa_168   0x0065f4    program     static /audio/mandm/mandm/mandm8722.c
                 __pa_169   0x006602    program     static /audio/mandm/mandm/mandm8722.c
                 __pa_170   0x006614    program     static /audio/mandm/mandm/mandm8722.c
                 __pa_171   0x006622    program     static /audio/mandm/mandm/mandm8722.c
             __tmplbl_153   0x006622    program     static                          
             __tmplbl_150   0x006622    program     static                          
                 __pa_172   0x00662a    program     static /audio/mandm/mandm/mandm8722.c
                 __pa_173   0x00663c    program     static /audio/mandm/mandm/mandm8722.c
                 __pa_174   0x00664e    program     static /audio/mandm/mandm/mandm8722.c
                 __pa_175   0x006660    program     static /audio/mandm/mandm/mandm8722.c
                 __pa_176   0x006672    program     static /audio/mandm/mandm/mandm8722.c
                 __pa_177   0x006684    program     static /audio/mandm/mandm/mandm8722.c
                 __pa_178   0x006696    program     static /audio/mandm/mandm/mandm8722.c
                 __pa_179   0x00669c    program     static /audio/mandm/mandm/mandm8722.c
                 __pa_180   0x0066a6    program     static /audio/mandm/mandm/mandm8722.c
                 __pa_181   0x0066b2    program     static /audio/mandm/mandm/mandm8722.c
                 __pa_182   0x0066bc    program     static /audio/mandm/mandm/mandm8722.c
                 __pa_183   0x0066c6    program     static /audio/mandm/mandm/mandm8722.c
                 __pa_184   0x0066d0    program     static /audio/mandm/mandm/mandm8722.c
                 __pa_185   0x0066d6    program     static /audio/mandm/mandm/mandm8722.c
                 __pa_186   0x0066e0    program     static /audio/mandm/mandm/mandm8722.c
                 __pa_187   0x0066ea    program     static /audio/mandm/mandm/mandm8722.c
                 __pa_188   0x0066f4    program     static /audio/mandm/mandm/mandm8722.c
                 __pa_189   0x006702    program     static /audio/mandm/mandm/mandm8722.c
                 __pa_190   0x006708    program     static /audio/mandm/mandm/mandm8722.c
                 __pa_191   0x006718    program     static /audio/mandm/mandm/mandm8722.c
                 __pa_192   0x006728    program     static /audio/mandm/mandm/mandm8722.c
                 __pa_193   0x006736    program     static /audio/mandm/mandm/mandm8722.c
                 __pa_194   0x006742    program     static /audio/mandm/mandm/mandm8722.c
                 __pa_195   0x00674c    program     static /audio/mandm/mandm/mandm8722.c
                 __pa_196   0x00675a    program     static /audio/mandm/mandm/mandm8722.c
                 __pa_197   0x006768    program     static /audio/mandm/mandm/mandm8722.c
                 __pa_198   0x006770    program     static /audio/mandm/mandm/mandm8722.c
                 __pa_199   0x00677a    program     static /audio/mandm/mandm/mandm8722.c
                 __pa_200   0x006780    program     static /audio/mandm/mandm/mandm8722.c
                 __pa_201   0x00678c    program     static /audio/mandm/mandm/mandm8722.c
                 __pa_202   0x006798    program     static /audio/mandm/mandm/mandm8722.c
             __tmplbl_176   0x0067a0    program     static                          
                 __pa_203   0x0067a0    program     static /audio/mandm/mandm/mandm8722.c
             __tmplbl_177   0x0067ac    program     static                          
                 __pa_204   0x0067ac    program     static /audio/mandm/mandm/mandm8722.c
                 __pa_205   0x0067b8    program     static /audio/mandm/mandm/mandm8722.c
                 __pa_206   0x0067c2    program     static /audio/mandm/mandm/mandm8722.c
                 __pa_207   0x0067cc    program     static /audio/mandm/mandm/mandm8722.c
                 __pa_208   0x0067d6    program     static /audio/mandm/mandm/mandm8722.c
                 __pa_209   0x0067e0    program     static /audio/mandm/mandm/mandm8722.c
                 __pa_210   0x0067e8    program     static /audio/mandm/mandm/mandm8722.c
                 __pa_211   0x0067f2    program     static /audio/mandm/mandm/mandm8722.c
             __tmplbl_175   0x0067f2    program     static                          
             __tmplbl_173   0x0067f2    program     static                          
                 __pa_212   0x0067f6    program     static /audio/mandm/mandm/mandm8722.c
                 __pa_213   0x006800    program     static /audio/mandm/mandm/mandm8722.c
                 __pa_214   0x006808    program     static /audio/mandm/mandm/mandm8722.c
                 __pa_215   0x006832    program     static /audio/mandm/mandm/mandm8722.c
                 __pa_216   0x00684c    program     static /audio/mandm/mandm/mandm8722.c
                 __pa_217   0x006858    program     static /audio/mandm/mandm/mandm8722.c
                 __pa_218   0x00685e    program     static /audio/mandm/mandm/mandm8722.c
                 __pa_219   0x006880    program     static /audio/mandm/mandm/mandm8722.c
                 __pa_220   0x006898    program     static /audio/mandm/mandm/mandm8722.c
                 __pa_221   0x0068a2    program     static /audio/mandm/mandm/mandm8722.c
                 __pa_222   0x0068be    program     static /audio/mandm/mandm/mandm8722.c
                 __pa_223   0x0068c6    program     static /audio/mandm/mandm/mandm8722.c
                 __pa_224   0x0068de    program     static /audio/mandm/mandm/mandm8722.c
                 __pa_225   0x0068fa    program     static /audio/mandm/mandm/mandm8722.c
                 __pa_226   0x006914    program     static /audio/mandm/mandm/mandm8722.c
                 __pa_227   0x006922    program     static /audio/mandm/mandm/mandm8722.c
                 __pa_228   0x00692a    program     static /audio/mandm/mandm/mandm8722.c
                 __pa_229   0x006932    program     static /audio/mandm/mandm/mandm8722.c
                 __pa_230   0x006946    program     static /audio/mandm/mandm/mandm8722.c
                 __pa_231   0x00695c    program     static /audio/mandm/mandm/mandm8722.c
                 __pa_232   0x006964    program     static /audio/mandm/mandm/mandm8722.c
                 __pa_233   0x00696a    program     static /audio/mandm/mandm/mandm8722.c
                 __pa_234   0x00697a    program     static /audio/mandm/mandm/mandm8722.c
                 __pa_235   0x006980    program     static /audio/mandm/mandm/mandm8722.c
                 __pa_236   0x006992    program     static /audio/mandm/mandm/mandm8722.c
             __tmplbl_116   0x00699a    program     static                          
             __tmplbl_115   0x00699a    program     static                          
                 __pa_237   0x00699a    program     static /audio/mandm/mandm/mandm8722.c
                 __pa_238   0x0069a8    program     static /audio/mandm/mandm/mandm8722.c
                 __pa_239   0x0069b6    program     static /audio/mandm/mandm/mandm8722.c
                 __pa_240   0x0069c4    program     static /audio/mandm/mandm/mandm8722.c
                 __pa_241   0x0069d0    program     static /audio/mandm/mandm/mandm8722.c
                 __pa_242   0x0069d8    program     static /audio/mandm/mandm/mandm8722.c
                 __pa_243   0x0069e0    program     static /audio/mandm/mandm/mandm8722.c
                 __pa_244   0x0069ea    program     static /audio/mandm/mandm/mandm8722.c
                 __pa_245   0x0069f2    program     static /audio/mandm/mandm/mandm8722.c
                 __pa_246   0x0069fa    program     static /audio/mandm/mandm/mandm8722.c
             __tmplbl_172   0x006a00    program     static                          
                 __pa_247   0x006a00    program     static /audio/mandm/mandm/mandm8722.c
                 __pa_248   0x006a08    program     static /audio/mandm/mandm/mandm8722.c
                 __pa_249   0x006a0e    program     static /audio/mandm/mandm/mandm8722.c
                 __pa_250   0x006a1e    program     static /audio/mandm/mandm/mandm8722.c
                 __pa_251   0x006a30    program     static /audio/mandm/mandm/mandm8722.c
                 __pa_252   0x006a3a    program     static /audio/mandm/mandm/mandm8722.c
                 __pa_253   0x006a42    program     static /audio/mandm/mandm/mandm8722.c
                 __pa_254   0x006a4a    program     static /audio/mandm/mandm/mandm8722.c
                 __pa_255   0x006a52    program     static /audio/mandm/mandm/mandm8722.c
                 ADC_zero   0x006a58    program     extern /audio/mandm/mandm/daq.c 
        ___while_lbl00001   0x006a72    program     static                          
        ___while_lbl00002   0x006a7c    program     static                          
       ___return_lbl00000   0x006a7c    program     static                          
       Reset_Change_Count   0x006a7e    program     extern /audio/mandm/mandm/daq.c 
             Change_Count   0x006abe    program     extern /audio/mandm/mandm/daq.c 
                 ADC_read   0x006b80    program     extern /audio/mandm/mandm/daq.c 
          ___for_lbl00014   0x006ba8    program     static                          
        ___while_lbl00012   0x006bb8    program     static                          
        ___while_lbl00013   0x006bc2    program     static                          
          ___for_lbl00010   0x006be4    program     static                          
          ___for_lbl00011   0x006bee    program     static                          
               __tmplbl_8   0x006c1a    program     static                          
          ___for_lbl00019   0x006cb2    program     static                          
        ___while_lbl00017   0x006cc2    program     static                          
        ___while_lbl00018   0x006ccc    program     static                          
          ___for_lbl00015   0x006cee    program     static                          
          ___for_lbl00016   0x006cf8    program     static                          
               __tmplbl_9   0x006d24    program     static                          
          ___for_lbl00024   0x006dbc    program     static                          
        ___while_lbl00022   0x006dcc    program     static                          
        ___while_lbl00023   0x006dd6    program     static                          
          ___for_lbl00020   0x006df8    program     static                          
          ___for_lbl00021   0x006e02    program     static                          
              __tmplbl_10   0x006e70    program     static                          
               __tmplbl_3   0x006ed8    program     static                          
           ___if_lbl00025   0x006ee4    program     static                          
           ___if_lbl00026   0x006fce    program     static                          
          ___for_lbl00031   0x006ff4    program     static                          
        ___while_lbl00029   0x007004    program     static                          
        ___while_lbl00030   0x00700e    program     static                          
          ___for_lbl00027   0x007030    program     static                          
          ___for_lbl00028   0x00703a    program     static                          
              __tmplbl_11   0x0070a8    program     static                          
               __tmplbl_4   0x007110    program     static                          
           ___if_lbl00032   0x00711c    program     static                          
           ___if_lbl00033   0x007206    program     static                          
          ___for_lbl00038   0x00722c    program     static                          
        ___while_lbl00036   0x00723c    program     static                          
        ___while_lbl00037   0x007246    program     static                          
          ___for_lbl00034   0x007268    program     static                          
          ___for_lbl00035   0x007272    program     static                          
              __tmplbl_12   0x0072e0    program     static                          
               __tmplbl_5   0x007348    program     static                          
           ___if_lbl00039   0x007354    program     static                          
           ___if_lbl00040   0x00743e    program     static                          
          ___for_lbl00045   0x007466    program     static                          
        ___while_lbl00043   0x007476    program     static                          
        ___while_lbl00044   0x007480    program     static                          
          ___for_lbl00041   0x0074a2    program     static                          
          ___for_lbl00042   0x0074ac    program     static                          
          ___for_lbl00050   0x0074f6    program     static                          
        ___while_lbl00048   0x007506    program     static                          
        ___while_lbl00049   0x007510    program     static                          
          ___for_lbl00046   0x007532    program     static                          
          ___for_lbl00047   0x00753c    program     static                          
          ___for_lbl00055   0x007586    program     static                          
        ___while_lbl00053   0x007596    program     static                          
        ___while_lbl00054   0x0075a0    program     static                          
          ___for_lbl00051   0x0075c2    program     static                          
          ___for_lbl00052   0x0075cc    program     static                          
          ___for_lbl00066   0x00768c    program     static                          
              __tmplbl_13   0x0077cc    program     static                          
           ___if_lbl00058   0x0078a0    program     static                          
               __tmplbl_7   0x0078ec    program     static                          
               __tmplbl_6   0x0078f2    program     static                          
           ___if_lbl00060   0x00792c    program     static                          
           ___if_lbl00061   0x007994    program     static                          
              __tmplbl_14   0x007a84    program     static                          
           ___if_lbl00062   0x007b00    program     static                          
              __tmplbl_15   0x007b7e    program     static                          
           ___if_lbl00063   0x007bfa    program     static                          
           ___if_lbl00064   0x007da6    program     static                          
           ___if_lbl00065   0x00811e    program     static                          
          ___for_lbl00056   0x0082b2    program     static                          
           ___if_lbl00067   0x0082be    program     static                          
          ___for_lbl00057   0x0082be    program     static                          
       ___return_lbl00009   0x0082c4    program     static                          
              zero_amploc   0x0082c6    program     extern /audio/mandm/mandm/daq.c 
                   __pa_0   0x0083b2    program     static /audio/mandm/mandm/daq.c 
                   __pa_1   0x0083da    program     static /audio/mandm/mandm/daq.c 
                   __pa_2   0x0083fe    program     static /audio/mandm/mandm/daq.c 
                   __pa_3   0x008410    program     static /audio/mandm/mandm/daq.c 
                   __pa_4   0x00842c    program     static /audio/mandm/mandm/daq.c 
                   __pa_5   0x00843a    program     static /audio/mandm/mandm/daq.c 
                   __pa_6   0x008448    program     static /audio/mandm/mandm/daq.c 
               __string_2   0x008452    program     static /audio/mandm/mandm/daq.c 
               __string_1   0x008481    program     static /audio/mandm/mandm/daq.c 
               __string_0   0x0084b0    program     static /audio/mandm/mandm/daq.c 
             __string_248   0x0084df    program     static /audio/mandm/mandm/mandm8722.c
             __string_247   0x0084fd    program     static /audio/mandm/mandm/mandm8722.c
             __string_246   0x00851f    program     static /audio/mandm/mandm/mandm8722.c
             __string_245   0x008538    program     static /audio/mandm/mandm/mandm8722.c
             __string_244   0x00854e    program     static /audio/mandm/mandm/mandm8722.c
             __string_243   0x008567    program     static /audio/mandm/mandm/mandm8722.c
             __string_242   0x008580    program     static /audio/mandm/mandm/mandm8722.c
             __string_241   0x00859c    program     static /audio/mandm/mandm/mandm8722.c
             __string_240   0x0085b5    program     static /audio/mandm/mandm/mandm8722.c
             __string_239   0x0085d5    program     static /audio/mandm/mandm/mandm8722.c
             __string_238   0x0085f8    program     static /audio/mandm/mandm/mandm8722.c
             __string_237   0x008618    program     static /audio/mandm/mandm/mandm8722.c
             __string_236   0x008635    program     static /audio/mandm/mandm/mandm8722.c
             __string_235   0x00864e    program     static /audio/mandm/mandm/mandm8722.c
             __string_234   0x00866d    program     static /audio/mandm/mandm/mandm8722.c
             __string_233   0x008685    program     static /audio/mandm/mandm/mandm8722.c
             __string_232   0x0086ae    program     static /audio/mandm/mandm/mandm8722.c
             __string_231   0x0086d7    program     static /audio/mandm/mandm/mandm8722.c
             __string_230   0x008701    program     static /audio/mandm/mandm/mandm8722.c
             __string_229   0x008726    program     static /audio/mandm/mandm/mandm8722.c
             __string_228   0x00873b    program     static /audio/mandm/mandm/mandm8722.c
             __string_227   0x008779    program     static /audio/mandm/mandm/mandm8722.c
             __string_226   0x00879c    program     static /audio/mandm/mandm/mandm8722.c
             __string_225   0x0087d1    program     static /audio/mandm/mandm/mandm8722.c
             __string_224   0x0087ff    program     static /audio/mandm/mandm/mandm8722.c
             __string_223   0x008814    program     static /audio/mandm/mandm/mandm8722.c
             __string_222   0x008829    program     static /audio/mandm/mandm/mandm8722.c
             __string_221   0x00883c    program     static /audio/mandm/mandm/mandm8722.c
             __string_220   0x00884f    program     static /audio/mandm/mandm/mandm8722.c
             __string_219   0x008862    program     static /audio/mandm/mandm/mandm8722.c
             __string_218   0x008878    program     static /audio/mandm/mandm/mandm8722.c
             __string_217   0x00889a    program     static /audio/mandm/mandm/mandm8722.c
             __string_216   0x0088b1    program     static /audio/mandm/mandm/mandm8722.c
             __string_215   0x0088d9    program     static /audio/mandm/mandm/mandm8722.c
             __string_214   0x008901    program     static /audio/mandm/mandm/mandm8722.c
             __string_213   0x008929    program     static /audio/mandm/mandm/mandm8722.c
             __string_212   0x008951    program     static /audio/mandm/mandm/mandm8722.c
             __string_211   0x008969    program     static /audio/mandm/mandm/mandm8722.c
             __string_210   0x00898e    program     static /audio/mandm/mandm/mandm8722.c
             __string_209   0x0089ab    program     static /audio/mandm/mandm/mandm8722.c
             __string_208   0x0089d1    program     static /audio/mandm/mandm/mandm8722.c
             __string_207   0x0089ef    program     static /audio/mandm/mandm/mandm8722.c
             __string_206   0x008a0b    program     static /audio/mandm/mandm/mandm8722.c
             __string_205   0x008a22    program     static /audio/mandm/mandm/mandm8722.c
             __string_204   0x008a39    program     static /audio/mandm/mandm/mandm8722.c
             __string_203   0x008a59    program     static /audio/mandm/mandm/mandm8722.c
             __string_202   0x008a84    program     static /audio/mandm/mandm/mandm8722.c
             __string_201   0x008a9f    program     static /audio/mandm/mandm/mandm8722.c
             __string_200   0x008acc    program     static /audio/mandm/mandm/mandm8722.c
             __string_199   0x008af4    program     static /audio/mandm/mandm/mandm8722.c
             __string_198   0x008b13    program     static /audio/mandm/mandm/mandm8722.c
             __string_197   0x008b3e    program     static /audio/mandm/mandm/mandm8722.c
             __string_196   0x008b5a    program     static /audio/mandm/mandm/mandm8722.c
             __string_195   0x008b88    program     static /audio/mandm/mandm/mandm8722.c
             __string_194   0x008bac    program     static /audio/mandm/mandm/mandm8722.c
             __string_193   0x008bca    program     static /audio/mandm/mandm/mandm8722.c
             __string_192   0x008be9    program     static /audio/mandm/mandm/mandm8722.c
             __string_191   0x008c08    program     static /audio/mandm/mandm/mandm8722.c
             __string_190   0x008c27    program     static /audio/mandm/mandm/mandm8722.c
             __string_189   0x008c3d    program     static /audio/mandm/mandm/mandm8722.c
             __string_188   0x008c53    program     static /audio/mandm/mandm/mandm8722.c
             __string_187   0x008c69    program     static /audio/mandm/mandm/mandm8722.c
             __string_186   0x008c90    program     static /audio/mandm/mandm/mandm8722.c
             __string_185   0x008cb7    program     static /audio/mandm/mandm/mandm8722.c
             __string_184   0x008cde    program     static /audio/mandm/mandm/mandm8722.c
             __string_183   0x008cff    program     static /audio/mandm/mandm/mandm8722.c
             __string_182   0x008d26    program     static /audio/mandm/mandm/mandm8722.c
             __string_181   0x008d48    program     static /audio/mandm/mandm/mandm8722.c
             __string_180   0x008d71    program     static /audio/mandm/mandm/mandm8722.c
             __string_179   0x008d86    program     static /audio/mandm/mandm/mandm8722.c
             __string_178   0x008daf    program     static /audio/mandm/mandm/mandm8722.c
             __string_177   0x008dc7    program     static /audio/mandm/mandm/mandm8722.c
             __string_176   0x008df0    program     static /audio/mandm/mandm/mandm8722.c
             __string_175   0x008e17    program     static /audio/mandm/mandm/mandm8722.c
             __string_174   0x008e3e    program     static /audio/mandm/mandm/mandm8722.c
             __string_173   0x008e65    program     static /audio/mandm/mandm/mandm8722.c
             __string_172   0x008e8e    program     static /audio/mandm/mandm/mandm8722.c
             __string_171   0x008eb7    program     static /audio/mandm/mandm/mandm8722.c
             __string_170   0x008ee0    program     static /audio/mandm/mandm/mandm8722.c
             __string_169   0x008efa    program     static /audio/mandm/mandm/mandm8722.c
             __string_168   0x008f21    program     static /audio/mandm/mandm/mandm8722.c
             __string_167   0x008f3e    program     static /audio/mandm/mandm/mandm8722.c
             __string_166   0x008f5f    program     static /audio/mandm/mandm/mandm8722.c
             __string_165   0x008f88    program     static /audio/mandm/mandm/mandm8722.c
             __string_164   0x008f9e    program     static /audio/mandm/mandm/mandm8722.c
             __string_163   0x008fb4    program     static /audio/mandm/mandm/mandm8722.c
             __string_162   0x008fca    program     static /audio/mandm/mandm/mandm8722.c
             __string_161   0x008fe0    program     static /audio/mandm/mandm/mandm8722.c
             __string_160   0x009005    program     static /audio/mandm/mandm/mandm8722.c
             __string_159   0x009018    program     static /audio/mandm/mandm/mandm8722.c
             __string_158   0x00902f    program     static /audio/mandm/mandm/mandm8722.c
             __string_157   0x009046    program     static /audio/mandm/mandm/mandm8722.c
             __string_156   0x00905e    program     static /audio/mandm/mandm/mandm8722.c
             __string_155   0x00906d    program     static /audio/mandm/mandm/mandm8722.c
             __string_154   0x009085    program     static /audio/mandm/mandm/mandm8722.c
             __string_153   0x0090a0    program     static /audio/mandm/mandm/mandm8722.c
             __string_152   0x0090af    program     static /audio/mandm/mandm/mandm8722.c
             __string_151   0x0090ca    program     static /audio/mandm/mandm/mandm8722.c
             __string_150   0x0090dc    program     static /audio/mandm/mandm/mandm8722.c
             __string_149   0x00912f    program     static /audio/mandm/mandm/mandm8722.c
             __string_148   0x009151    program     static /audio/mandm/mandm/mandm8722.c
             __string_147   0x009190    program     static /audio/mandm/mandm/mandm8722.c
             __string_146   0x0091e4    program     static /audio/mandm/mandm/mandm8722.c
             __string_145   0x009204    program     static /audio/mandm/mandm/mandm8722.c
             __string_144   0x009220    program     static /audio/mandm/mandm/mandm8722.c
             __string_143   0x009276    program     static /audio/mandm/mandm/mandm8722.c
             __string_142   0x0092c5    program     static /audio/mandm/mandm/mandm8722.c
             __string_141   0x0092dc    program     static /audio/mandm/mandm/mandm8722.c
             __string_140   0x0092f2    program     static /audio/mandm/mandm/mandm8722.c
             __string_139   0x009326    program     static /audio/mandm/mandm/mandm8722.c
             __string_138   0x009360    program     static /audio/mandm/mandm/mandm8722.c
             __string_137   0x00937b    program     static /audio/mandm/mandm/mandm8722.c
             __string_136   0x0093c2    program     static /audio/mandm/mandm/mandm8722.c
             __string_135   0x00940f    program     static /audio/mandm/mandm/mandm8722.c
             __string_134   0x009432    program     static /audio/mandm/mandm/mandm8722.c
             __string_133   0x009456    program     static /audio/mandm/mandm/mandm8722.c
             __string_132   0x00946f    program     static /audio/mandm/mandm/mandm8722.c
             __string_131   0x009489    program     static /audio/mandm/mandm/mandm8722.c
             __string_130   0x0094a9    program     static /audio/mandm/mandm/mandm8722.c
             __string_129   0x0094c3    program     static /audio/mandm/mandm/mandm8722.c
             __string_128   0x0094dd    program     static /audio/mandm/mandm/mandm8722.c
             __string_127   0x0094ef    program     static /audio/mandm/mandm/mandm8722.c
             __string_126   0x0094f9    program     static /audio/mandm/mandm/mandm8722.c
             __string_125   0x009506    program     static /audio/mandm/mandm/mandm8722.c
             __string_124   0x00950c    program     static /audio/mandm/mandm/mandm8722.c
             __string_123   0x009514    program     static /audio/mandm/mandm/mandm8722.c
             __string_122   0x00951c    program     static /audio/mandm/mandm/mandm8722.c
             __string_121   0x009528    program     static /audio/mandm/mandm/mandm8722.c
             __string_120   0x00953a    program     static /audio/mandm/mandm/mandm8722.c
             __string_119   0x00955b    program     static /audio/mandm/mandm/mandm8722.c
             __string_118   0x0095d3    program     static /audio/mandm/mandm/mandm8722.c
             __string_117   0x009632    program     static /audio/mandm/mandm/mandm8722.c
             __string_116   0x0096f1    program     static /audio/mandm/mandm/mandm8722.c
             __string_115   0x009780    program     static /audio/mandm/mandm/mandm8722.c
             __string_114   0x009796    program     static /audio/mandm/mandm/mandm8722.c
             __string_113   0x009798    program     static /audio/mandm/mandm/mandm8722.c
             __string_112   0x00979d    program     static /audio/mandm/mandm/mandm8722.c
             __string_111   0x0097a0    program     static /audio/mandm/mandm/mandm8722.c
             __string_110   0x0097a7    program     static /audio/mandm/mandm/mandm8722.c
             __string_109   0x0097c0    program     static /audio/mandm/mandm/mandm8722.c
             __string_108   0x0097c9    program     static /audio/mandm/mandm/mandm8722.c
               __string_8   0x0097d5    program     static /audio/mandm/mandm/config.c
               __string_7   0x0097f9    program     static /audio/mandm/mandm/config.c
               __string_6   0x00981d    program     static /audio/mandm/mandm/config.c
               __string_5   0x009834    program     static /audio/mandm/mandm/config.c
               __string_4   0x009856    program     static /audio/mandm/mandm/config.c
               __string_3   0x00987d    program     static /audio/mandm/mandm/config.c
               __string_2   0x0098a3    program     static /audio/mandm/mandm/config.c
               __string_1   0x0098c8    program     static /audio/mandm/mandm/config.c
               __string_0   0x0098e5    program     static /audio/mandm/mandm/config.c
                     spin   0x0098e8    program     extern /audio/mandm/mandm/mandm_msg.h
        menutext_template   0x009960    program     extern /audio/mandm/mandm/mandm_msg.h
                 menutext   0x009a29    program     extern /audio/mandm/mandm/mandm_msg.h
          menuselect_free   0x009af0    program     extern /audio/mandm/mandm/mandm_msg.h
         menuselect_track   0x009bb6    program     extern /audio/mandm/mandm/mandm_msg.h
                 lowbatt0   0x009c7c    program     extern /audio/mandm/mandm/mandm_msg.h
                    zero0   0x009cbf    program     extern /audio/mandm/mandm/mandm_msg.h
                    zero1   0x009ce9    program     extern /audio/mandm/mandm/mandm_msg.h
                    zero2   0x009d25    program     extern /audio/mandm/mandm/mandm_msg.h
                    zero3   0x009d59    program     extern /audio/mandm/mandm/mandm_msg.h
                    adcg0   0x009d93    program     extern /audio/mandm/mandm/mandm_msg.h
                    adcg1   0x009dd3    program     extern /audio/mandm/mandm/mandm_msg.h
                    adcg2   0x009dfe    program     extern /audio/mandm/mandm/mandm_msg.h
                    adcg3   0x009e31    program     extern /audio/mandm/mandm/mandm_msg.h
                    adcg4   0x009e9d    program     extern /audio/mandm/mandm/mandm_msg.h
                   tweak0   0x009ed4    program     extern /audio/mandm/mandm/mandm_msg.h
                   tweak1   0x009f71    program     extern /audio/mandm/mandm/mandm_msg.h
                   tweak2   0x009f9a    program     extern /audio/mandm/mandm/mandm_msg.h
                   tweak3   0x009fbe    program     extern /audio/mandm/mandm/mandm_msg.h
                   tweak4   0x00a03d    program     extern /audio/mandm/mandm/mandm_msg.h
                   tweak5   0x00a06d    program     extern /audio/mandm/mandm/mandm_msg.h
                 tweak_t1   0x00a0f3    program     extern /audio/mandm/mandm/mandm_msg.h
                 tweak_t2   0x00a0f8    program     extern /audio/mandm/mandm/mandm_msg.h
                 tweak_t3   0x00a0fc    program     extern /audio/mandm/mandm/mandm_msg.h
                 tweak_t4   0x00a100    program     extern /audio/mandm/mandm/mandm_msg.h
                 tweak_tw   0x00a105    program     extern /audio/mandm/mandm/mandm_msg.h
                   hello0   0x00a115    program     extern /audio/mandm/mandm/mandm_msg.h
                   hello1   0x00a162    program     extern /audio/mandm/mandm/mandm_msg.h
                    hold0   0x00a16f    program     extern /audio/mandm/mandm/mandm_msg.h
                    hold1   0x00a1cd    program     extern /audio/mandm/mandm/mandm_msg.h
                    sync0   0x00a206    program     extern /audio/mandm/mandm/mandm_msg.h
                    sync1   0x00a23a    program     extern /audio/mandm/mandm/mandm_msg.h
                    sync2   0x00a258    program     extern /audio/mandm/mandm/mandm_msg.h
                 keycmds0   0x00a276    program     extern /audio/mandm/mandm/mandm_msg.h
                 keycmds1   0x00a2c0    program     extern /audio/mandm/mandm/mandm_msg.h
              battheader0   0x00a30a    program     extern /audio/mandm/mandm/mandm_msg.h
              battheader1   0x00a37e    program     extern /audio/mandm/mandm/mandm_msg.h
             modelheader0   0x00a408    program     extern /audio/mandm/mandm/mandm_msg.h
             modelheader1   0x00a427    program     extern /audio/mandm/mandm/mandm_msg.h
              battbuffer0   0x00a43f    program     extern /audio/mandm/mandm/mandm_msg.h
                  sddump0   0x00a467    program     extern /audio/mandm/mandm/mandm_msg.h
                  sddump1   0x00a495    program     extern /audio/mandm/mandm/mandm_msg.h
                  sddump2   0x00a4cb    program     extern /audio/mandm/mandm/mandm_msg.h
                  sddump3   0x00a4e2    program     extern /audio/mandm/mandm/mandm_msg.h
                  divert0   0x00a50f    program     extern /audio/mandm/mandm/mandm_msg.h
                  divert1   0x00a52f    program     extern /audio/mandm/mandm/mandm_msg.h
                 divert99   0x00a550    program     extern /audio/mandm/mandm/mandm_msg.h
                 almcode0   0x00a551    program     extern /audio/mandm/mandm/mandm_msg.h
                 almcode1   0x00a571    program     extern /audio/mandm/mandm/mandm_msg.h
                 almcode2   0x00a5a1    program     extern /audio/mandm/mandm/mandm_msg.h
                 almcode3   0x00a5c4    program     extern /audio/mandm/mandm/mandm_msg.h
                 almcode4   0x00a5e7    program     extern /audio/mandm/mandm/mandm_msg.h
                 almcode5   0x00a618    program     extern /audio/mandm/mandm/mandm_msg.h
                 almcode6   0x00a64c    program     extern /audio/mandm/mandm/mandm_msg.h
                 almcode7   0x00a681    program     extern /audio/mandm/mandm/mandm_msg.h
                 almcode8   0x00a6ba    program     extern /audio/mandm/mandm/mandm_msg.h
                 almcode9   0x00a6e8    program     extern /audio/mandm/mandm/mandm_msg.h
                almcode10   0x00a718    program     extern /audio/mandm/mandm/mandm_msg.h
                almcode11   0x00a759    program     extern /audio/mandm/mandm/mandm_msg.h
                almcode12   0x00a77f    program     extern /audio/mandm/mandm/mandm_msg.h
                almcode13   0x00a7a5    program     extern /audio/mandm/mandm/mandm_msg.h
                almcode14   0x00a7d1    program     extern /audio/mandm/mandm/mandm_msg.h
                almcode15   0x00a7e9    program     extern /audio/mandm/mandm/mandm_msg.h
                almcode16   0x00a800    program     extern /audio/mandm/mandm/mandm_msg.h
                almcode17   0x00a82d    program     extern /audio/mandm/mandm/mandm_msg.h
                almcode99   0x00a84c    program     extern /audio/mandm/mandm/mandm_msg.h
                chrgcode0   0x00a84d    program     extern /audio/mandm/mandm/mandm_msg.h
                chrgcode1   0x00a87e    program     extern /audio/mandm/mandm/mandm_msg.h
                chrgcode2   0x00a8b4    program     extern /audio/mandm/mandm/mandm_msg.h
                chrgcode3   0x00a8e0    program     extern /audio/mandm/mandm/mandm_msg.h
                chrgcode4   0x00a911    program     extern /audio/mandm/mandm/mandm_msg.h
                chrgcode5   0x00a949    program     extern /audio/mandm/mandm/mandm_msg.h
                chrgcode6   0x00a95c    program     extern /audio/mandm/mandm/mandm_msg.h
                chrgcode7   0x00a97c    program     extern /audio/mandm/mandm/mandm_msg.h
                chrgcode8   0x00a9a9    program     extern /audio/mandm/mandm/mandm_msg.h
                chrgcode9   0x00a9d3    program     extern /audio/mandm/mandm/mandm_msg.h
               chrgcode10   0x00a9f8    program     extern /audio/mandm/mandm/mandm_msg.h
               chrgcode11   0x00aa25    program     extern /audio/mandm/mandm/mandm_msg.h
               chrgcode12   0x00aa50    program     extern /audio/mandm/mandm/mandm_msg.h
               chrgcode13   0x00aa7e    program     extern /audio/mandm/mandm/mandm_msg.h
               chrgcode14   0x00aaab    program     extern /audio/mandm/mandm/mandm_msg.h
               chrgcode15   0x00aadf    program     extern /audio/mandm/mandm/mandm_msg.h
               chrgcode16   0x00ab09    program     extern /audio/mandm/mandm/mandm_msg.h
                 charger0   0x00ab33    program     extern /audio/mandm/mandm/mandm_msg.h
                 charger1   0x00ab6a    program     extern /audio/mandm/mandm/mandm_msg.h
                 charger2   0x00aba4    program     extern /audio/mandm/mandm/mandm_msg.h
                 charger3   0x00abe2    program     extern /audio/mandm/mandm/mandm_msg.h
                 charger4   0x00ac01    program     extern /audio/mandm/mandm/mandm_msg.h
                charger99   0x00ac21    program     extern /audio/mandm/mandm/mandm_msg.h
             tick_handler   0x00ac22    program     extern /audio/mandm/mandm/mandm_vector.c
           ___if_lbl00001   0x00ac82    program     static                          
         ___else_lbl00003   0x00acb0    program     static                          
           ___if_lbl00002   0x00acc0    program     static                          
           ___if_lbl00004   0x00acca    program     static                          
           ___if_lbl00005   0x00acd4    program     static                          
           ___if_lbl00006   0x00acde    program     static                          
           ___if_lbl00007   0x00acde    program     static                          
         ___else_lbl00009   0x00ad6c    program     static                          
           ___if_lbl00008   0x00ad88    program     static                          
         ___else_lbl00011   0x00ad8a    program     static                          
           ___if_lbl00010   0x00ad98    program     static                          
           ___if_lbl00012   0x00ad98    program     static                          
         ___else_lbl00014   0x00adfa    program     static                          
           ___if_lbl00013   0x00ae16    program     static                          
         ___else_lbl00016   0x00ae18    program     static                          
           ___if_lbl00017   0x00ae26    program     static                          
           ___if_lbl00015   0x00ae26    program     static                          
           ___if_lbl00018   0x00ae2a    program     static                          
               __tmplbl_1   0x00ae30    program     static                          
               __tmplbl_0   0x00ae36    program     static                          
           ___if_lbl00020   0x00ae38    program     static                          
           ___if_lbl00021   0x00ae4c    program     static                          
               __tmplbl_3   0x00ae52    program     static                          
               __tmplbl_2   0x00ae58    program     static                          
           ___if_lbl00023   0x00ae66    program     static                          
           ___if_lbl00024   0x00ae94    program     static                          
               __tmplbl_4   0x00aec6    program     static                          
           ___if_lbl00025   0x00aec8    program     static                          
         ___else_lbl00027   0x00aed4    program     static                          
           ___if_lbl00026   0x00aedc    program     static                          
           ___if_lbl00028   0x00af08    program     static                          
       ___case_0_lbl00030   0x00af1a    program     static                          
       ___case_1_lbl00031   0x00af20    program     static                          
       ___case_2_lbl00032   0x00af28    program     static                          
      ___default_lbl00033   0x00af30    program     static                          
           ___if_lbl00035   0x00af36    program     static                          
   ___switchexit_lbl00029   0x00af36    program     static                          
           ___if_lbl00034   0x00af36    program     static                          
           ___if_lbl00036   0x00af3c    program     static                          
           ___if_lbl00037   0x00af42    program     static                          
           ___if_lbl00038   0x00af48    program     static                          
           ___if_lbl00040   0x00af4e    program     static                          
           ___if_lbl00039   0x00af4e    program     static                          
           ___if_lbl00041   0x00af6e    program     static                          
           ___if_lbl00042   0x00af72    program     static                          
           ___if_lbl00043   0x00af8a    program     static                          
           ___if_lbl00044   0x00afa0    program     static                          
           ___if_lbl00045   0x00afae    program     static                          
           ___if_lbl00046   0x00afbc    program     static                          
           ___if_lbl00047   0x00afca    program     static                          
           ___if_lbl00048   0x00afd8    program     static                          
           ___if_lbl00049   0x00afe6    program     static                          
               __tmplbl_6   0x00afee    program     static                          
               __tmplbl_5   0x00aff6    program     static                          
           ___if_lbl00051   0x00affc    program     static                          
               __tmplbl_8   0x00b004    program     static                          
               __tmplbl_7   0x00b00c    program     static                          
           ___if_lbl00053   0x00b012    program     static                          
              __tmplbl_10   0x00b01a    program     static                          
               __tmplbl_9   0x00b022    program     static                          
           ___if_lbl00055   0x00b026    program     static                          
        ___while_lbl00056   0x00b02e    program     static                          
           ___if_lbl00058   0x00b030    program     static                          
        ___while_lbl00057   0x00b030    program     static                          
              __tmplbl_12   0x00b038    program     static                          
              __tmplbl_11   0x00b03e    program     static                          
           ___if_lbl00060   0x00b042    program     static                          
           ___if_lbl00061   0x00b042    program     static                          
              __tmplbl_14   0x00b05a    program     static                          
              __tmplbl_13   0x00b060    program     static                          
           ___if_lbl00063   0x00b066    program     static                          
           ___if_lbl00064   0x00b06a    program     static                          
              __tmplbl_16   0x00b082    program     static                          
              __tmplbl_15   0x00b088    program     static                          
           ___if_lbl00066   0x00b08e    program     static                          
           ___if_lbl00067   0x00b092    program     static                          
              __tmplbl_18   0x00b0aa    program     static                          
              __tmplbl_17   0x00b0b0    program     static                          
           ___if_lbl00069   0x00b0cc    program     static                          
         ___else_lbl00071   0x00b0ce    program     static                          
           ___if_lbl00070   0x00b0d6    program     static                          
           ___if_lbl00072   0x00b0f4    program     static                          
           ___if_lbl00073   0x00b0f4    program     static                          
           ___if_lbl00074   0x00b0f8    program     static                          
              __tmplbl_20   0x00b0fe    program     static                          
              __tmplbl_19   0x00b104    program     static                          
           ___if_lbl00076   0x00b116    program     static                          
              __tmplbl_21   0x00b15a    program     static                          
              __tmplbl_22   0x00b184    program     static                          
           ___if_lbl00078   0x00b198    program     static                          
           ___if_lbl00079   0x00b198    program     static                          
           ___if_lbl00077   0x00b198    program     static                          
         ___else_lbl00081   0x00b1ae    program     static                          
           ___if_lbl00080   0x00b1b2    program     static                          
         ___else_lbl00083   0x00b1bc    program     static                          
           ___if_lbl00082   0x00b1c0    program     static                          
         ___else_lbl00085   0x00b1ca    program     static                          
           ___if_lbl00084   0x00b1ce    program     static                          
         ___else_lbl00087   0x00b202    program     static                          
           ___if_lbl00086   0x00b232    program     static                          
         ___else_lbl00089   0x00b268    program     static                          
           ___if_lbl00088   0x00b29a    program     static                          
         ___else_lbl00095   0x00b2d0    program     static                          
              __tmplbl_23   0x00b318    program     static                          
              __tmplbl_24   0x00b374    program     static                          
           ___if_lbl00090   0x00b382    program     static                          
              __tmplbl_25   0x00b39c    program     static                          
           ___if_lbl00091   0x00b3aa    program     static                          
           ___if_lbl00092   0x00b3da    program     static                          
              __tmplbl_26   0x00b426    program     static                          
           ___if_lbl00093   0x00b42e    program     static                          
           ___if_lbl00094   0x00b430    program     static                          
           ___if_lbl00096   0x00b490    program     static                          
           ___if_lbl00097   0x00b4f8    program     static                          
           ___if_lbl00098   0x00b558    program     static                          
           ___if_lbl00099   0x00b5c2    program     static                          
         ___else_lbl00101   0x00b652    program     static                          
           ___if_lbl00100   0x00b6a8    program     static                          
              __tmplbl_28   0x00b6ee    program     static                          
              __tmplbl_27   0x00b72a    program     static                          
           ___if_lbl00103   0x00b752    program     static                          
         ___else_lbl00105   0x00b754    program     static                          
           ___if_lbl00104   0x00b774    program     static                          
              __tmplbl_32   0x00b786    program     static                          
              __tmplbl_31   0x00b78c    program     static                          
              __tmplbl_30   0x00b792    program     static                          
              __tmplbl_29   0x00b7b4    program     static                          
         ___else_lbl00113   0x00b7b8    program     static                          
         ___else_lbl00111   0x00b7de    program     static                          
           ___if_lbl00109   0x00b802    program     static                          
           ___if_lbl00110   0x00b802    program     static                          
           ___if_lbl00112   0x00b802    program     static                          
           ___if_lbl00114   0x00b802    program     static                          
           ___if_lbl00115   0x00b802    program     static                          
              __tmplbl_33   0x00b83c    program     static                          
           ___if_lbl00116   0x00b854    program     static                          
           ___if_lbl00117   0x00b854    program     static                          
           ___if_lbl00118   0x00b870    program     static                          
           ___if_lbl00119   0x00b87e    program     static                          
              __tmplbl_35   0x00b884    program     static                          
              __tmplbl_34   0x00b88a    program     static                          
       ___return_lbl00000   0x00b89a    program     static                          
           ___if_lbl00122   0x00b89a    program     static                          
           ___if_lbl00121   0x00b89a    program     static                          
             work_handler   0x00b8d6    program     extern /audio/mandm/mandm/mandm_vector.c
                idle_loop   0x00b8f8    program     extern /audio/mandm/mandm/mandm_vector.c
       ___return_lbl00124   0x00b904    program     static                          
                   P1wait   0x00b906    program     extern /audio/mandm/mandm/mandm_vector.c
                   P2wait   0x00b90c    program     extern /audio/mandm/mandm/mandm_vector.c
        Clear_All_Buttons   0x00b912    program     extern /audio/mandm/mandm/mandm_vector.c
             buzzer_ticks   0x00b926    program     extern /audio/mandm/mandm/mandm_vector.c
             voice1_ticks   0x00b932    program     extern /audio/mandm/mandm/mandm_vector.c
             voice2_ticks   0x00b940    program     extern /audio/mandm/mandm/mandm_vector.c
         slow_timer_start   0x00b94e    program     extern /audio/mandm/mandm/mandm_vector.c
                   __pa_0   0x00b95c    program     static /audio/mandm/mandm/mandm_vector.c
                   __pa_1   0x00b966    program     static /audio/mandm/mandm/mandm_vector.c
            s_put_n_chars   0x00b96e    program     static C:\MCC18\v3_39\src\traditional\stdclib\vfprintf.c
                 vfprintf   0x00b99a    program     extern C:\MCC18\v3_39\src\traditional\stdclib\vfprintf.c
              __tmplbl_85   0x00b9c4    program     static                          
              __tmplbl_44   0x00c272    program     static                          
              __tmplbl_43   0x00c28c    program     static                          
                   __pa_0   0x00c2ae    program     static C:\MCC18\v3_39\src\traditional\stdclib\vfprintf.c
                   __pa_1   0x00c2b6    program     static C:\MCC18\v3_39\src\traditional\stdclib\vfprintf.c
                   __pa_2   0x00c2c0    program     static C:\MCC18\v3_39\src\traditional\stdclib\vfprintf.c
                   __pa_3   0x00c2ca    program     static C:\MCC18\v3_39\src\traditional\stdclib\vfprintf.c
                   __pa_4   0x00c2e2    program     static C:\MCC18\v3_39\src\traditional\stdclib\vfprintf.c
                   __pa_5   0x00c2f6    program     static C:\MCC18\v3_39\src\traditional\stdclib\vfprintf.c
                   __pa_6   0x00c312    program     static C:\MCC18\v3_39\src\traditional\stdclib\vfprintf.c
                   __pa_7   0x00c31c    program     static C:\MCC18\v3_39\src\traditional\stdclib\vfprintf.c
                   __pa_8   0x00c328    program     static C:\MCC18\v3_39\src\traditional\stdclib\vfprintf.c
                   __pa_9   0x00c34a    program     static C:\MCC18\v3_39\src\traditional\stdclib\vfprintf.c
                  __pa_10   0x00c36a    program     static C:\MCC18\v3_39\src\traditional\stdclib\vfprintf.c
                  __pa_11   0x00c378    program     static C:\MCC18\v3_39\src\traditional\stdclib\vfprintf.c
                  __pa_12   0x00c38e    program     static C:\MCC18\v3_39\src\traditional\stdclib\vfprintf.c
                  __pa_13   0x00c3a8    program     static C:\MCC18\v3_39\src\traditional\stdclib\vfprintf.c
                  __pa_14   0x00c3c0    program     static C:\MCC18\v3_39\src\traditional\stdclib\vfprintf.c
                  __pa_15   0x00c3d0    program     static C:\MCC18\v3_39\src\traditional\stdclib\vfprintf.c
                  __pa_16   0x00c3e6    program     static C:\MCC18\v3_39\src\traditional\stdclib\vfprintf.c
                  __pa_17   0x00c3f8    program     static C:\MCC18\v3_39\src\traditional\stdclib\vfprintf.c
                  __pa_18   0x00c40a    program     static C:\MCC18\v3_39\src\traditional\stdclib\vfprintf.c
                  __pa_19   0x00c414    program     static C:\MCC18\v3_39\src\traditional\stdclib\vfprintf.c
                  __pa_20   0x00c424    program     static C:\MCC18\v3_39\src\traditional\stdclib\vfprintf.c
                  __pa_21   0x00c434    program     static C:\MCC18\v3_39\src\traditional\stdclib\vfprintf.c
              __tmplbl_42   0x00c444    program     static                          
                  __pa_22   0x00c444    program     static C:\MCC18\v3_39\src\traditional\stdclib\vfprintf.c
                  __pa_23   0x00c450    program     static C:\MCC18\v3_39\src\traditional\stdclib\vfprintf.c
                  __pa_24   0x00c45e    program     static C:\MCC18\v3_39\src\traditional\stdclib\vfprintf.c
                  __pa_25   0x00c466    program     static C:\MCC18\v3_39\src\traditional\stdclib\vfprintf.c
                  __pa_26   0x00c470    program     static C:\MCC18\v3_39\src\traditional\stdclib\vfprintf.c
                  __pa_27   0x00c47a    program     static C:\MCC18\v3_39\src\traditional\stdclib\vfprintf.c
                  __pa_28   0x00c482    program     static C:\MCC18\v3_39\src\traditional\stdclib\vfprintf.c
                  __pa_29   0x00c490    program     static C:\MCC18\v3_39\src\traditional\stdclib\vfprintf.c
                  __pa_30   0x00c4ac    program     static C:\MCC18\v3_39\src\traditional\stdclib\vfprintf.c
                  __pa_31   0x00c4c6    program     static C:\MCC18\v3_39\src\traditional\stdclib\vfprintf.c
                  __pa_32   0x00c4e0    program     static C:\MCC18\v3_39\src\traditional\stdclib\vfprintf.c
                  __pa_33   0x00c4f8    program     static C:\MCC18\v3_39\src\traditional\stdclib\vfprintf.c
                  __pa_34   0x00c502    program     static C:\MCC18\v3_39\src\traditional\stdclib\vfprintf.c
                  __pa_35   0x00c510    program     static C:\MCC18\v3_39\src\traditional\stdclib\vfprintf.c
                  __pa_36   0x00c518    program     static C:\MCC18\v3_39\src\traditional\stdclib\vfprintf.c
                  __pa_37   0x00c522    program     static C:\MCC18\v3_39\src\traditional\stdclib\vfprintf.c
                  __pa_38   0x00c532    program     static C:\MCC18\v3_39\src\traditional\stdclib\vfprintf.c
                  __pa_39   0x00c540    program     static C:\MCC18\v3_39\src\traditional\stdclib\vfprintf.c
                  __pa_40   0x00c54c    program     static C:\MCC18\v3_39\src\traditional\stdclib\vfprintf.c
                  __pa_41   0x00c558    program     static C:\MCC18\v3_39\src\traditional\stdclib\vfprintf.c
                  __pa_42   0x00c560    program     static C:\MCC18\v3_39\src\traditional\stdclib\vfprintf.c
                  __pa_43   0x00c56a    program     static C:\MCC18\v3_39\src\traditional\stdclib\vfprintf.c
                  __pa_44   0x00c570    program     static C:\MCC18\v3_39\src\traditional\stdclib\vfprintf.c
                  __pa_45   0x00c57a    program     static C:\MCC18\v3_39\src\traditional\stdclib\vfprintf.c
                  __pa_46   0x00c586    program     static C:\MCC18\v3_39\src\traditional\stdclib\vfprintf.c
                 FLO1632U   0x00c590    program     extern C:\MCC18\v3_39\src\traditional\math\cast16FP.asm
                 FLO1632S   0x00c594    program     extern C:\MCC18\v3_39\src\traditional\math\cast16FP.asm
                jI2F16Beg   0x00c5a4    program     static C:\MCC18\v3_39\src\traditional\math\cast16FP.asm
                 FLO3232U   0x00c5ba    program     extern C:\MCC18\v3_39\src\traditional\math\cast32FP.asm
                 FLO3232S   0x00c5be    program     extern C:\MCC18\v3_39\src\traditional\math\cast32FP.asm
                jI2F32Beg   0x00c5d6    program     static C:\MCC18\v3_39\src\traditional\math\cast32FP.asm
                    FPS32   0x00c5f0    program     extern C:\MCC18\v3_39\src\traditional\math\addFP.asm
                    FPA32   0x00c5f2    program     extern C:\MCC18\v3_39\src\traditional\math\addFP.asm
                jBANotInf   0x00c610    program     static C:\MCC18\v3_39\src\traditional\math\addFP.asm
                 jANotInf   0x00c61a    program     static C:\MCC18\v3_39\src\traditional\math\addFP.asm
                 jBNotInf   0x00c628    program     static C:\MCC18\v3_39\src\traditional\math\addFP.asm
            jDifOrPosSign   0x00c63c    program     static C:\MCC18\v3_39\src\traditional\math\addFP.asm
             jNotBothZero   0x00c640    program     static C:\MCC18\v3_39\src\traditional\math\addFP.asm
                 jAltBexp   0x00c66c    program     static C:\MCC18\v3_39\src\traditional\math\addFP.asm
              jAandWsetup   0x00c67e    program     static C:\MCC18\v3_39\src\traditional\math\addFP.asm
                 jANotNeg   0x00c6ae    program     static C:\MCC18\v3_39\src\traditional\math\addFP.asm
                 jWNotNeg   0x00c6c2    program     static C:\MCC18\v3_39\src\traditional\math\addFP.asm
               jShiftLoop   0x00c6c8    program     static C:\MCC18\v3_39\src\traditional\math\addFP.asm
               jShiftDone   0x00c6d6    program     static C:\MCC18\v3_39\src\traditional\math\addFP.asm
                jSignDone   0x00c706    program     static C:\MCC18\v3_39\src\traditional\math\addFP.asm
               jFinalSign   0x00c716    program     static C:\MCC18\v3_39\src\traditional\math\addFP.asm
                    FPD32   0x00c71e    program     extern C:\MCC18\v3_39\src\traditional\math\divFP.asm
                 jANotInf   0x00c73c    program     static C:\MCC18\v3_39\src\traditional\math\divFP.asm
              jSignedZero   0x00c746    program     static C:\MCC18\v3_39\src\traditional\math\divFP.asm
                jANotZero   0x00c750    program     static C:\MCC18\v3_39\src\traditional\math\divFP.asm
                    jLoop   0x00c778    program     static C:\MCC18\v3_39\src\traditional\math\divFP.asm
                jNoAdjust   0x00c79c    program     static C:\MCC18\v3_39\src\traditional\math\divFP.asm
                    jNext   0x00c79e    program     static C:\MCC18\v3_39\src\traditional\math\divFP.asm
                    FPM32   0x00c7c4    program     extern C:\MCC18\v3_39\src\traditional\math\mulFP.asm
                 jANotInf   0x00c7e2    program     static C:\MCC18\v3_39\src\traditional\math\mulFP.asm
              jBothFinite   0x00c7f0    program     static C:\MCC18\v3_39\src\traditional\math\mulFP.asm
                jHaveZero   0x00c7f8    program     static C:\MCC18\v3_39\src\traditional\math\mulFP.asm
             jBothNotZero   0x00c7fc    program     static C:\MCC18\v3_39\src\traditional\math\mulFP.asm
                 FXD1616S   0x00c89e    program     extern C:\MCC18\v3_39\src\traditional\math\fxd1616s.asm
                  DA1616S   0x00c8b0    program     static C:\MCC18\v3_39\src\traditional\math\fxd1616s.asm
                   D1616S   0x00c8c0    program     static C:\MCC18\v3_39\src\traditional\math\fxd1616s.asm
                 D1616SOK   0x00c8ca    program     static C:\MCC18\v3_39\src\traditional\math\fxd1616s.asm
                D1616SNEG   0x00c8ce    program     static C:\MCC18\v3_39\src\traditional\math\fxd1616s.asm
                  D1616SX   0x00c8e0    program     static C:\MCC18\v3_39\src\traditional\math\fxd1616s.asm
                 FXD3232S   0x00c8ea    program     extern C:\MCC18\v3_39\src\traditional\math\fxd3232s.asm
                  DA3232S   0x00c904    program     static C:\MCC18\v3_39\src\traditional\math\fxd3232s.asm
                   D3232S   0x00c91a    program     static C:\MCC18\v3_39\src\traditional\math\fxd3232s.asm
                 D3232SOK   0x00c924    program     static C:\MCC18\v3_39\src\traditional\math\fxd3232s.asm
                D3232SNEG   0x00c928    program     static C:\MCC18\v3_39\src\traditional\math\fxd3232s.asm
                  D3232SX   0x00c948    program     static C:\MCC18\v3_39\src\traditional\math\fxd3232s.asm
                 FXM2424U   0x00c952    program     extern C:\MCC18\v3_39\src\traditional\math\fxm2424u.asm
                  INT3216   0x00c9e4    program     extern C:\MCC18\v3_39\src\traditional\math\castFP16.asm
                     jMax   0x00c9f4    program     static C:\MCC18\v3_39\src\traditional\math\castFP16.asm
                  jMaxPos   0x00c9f8    program     static C:\MCC18\v3_39\src\traditional\math\castFP16.asm
                  jMaxNeg   0x00ca02    program     static C:\MCC18\v3_39\src\traditional\math\castFP16.asm
                    jZero   0x00ca0a    program     static C:\MCC18\v3_39\src\traditional\math\castFP16.asm
                  jNotInf   0x00ca10    program     static C:\MCC18\v3_39\src\traditional\math\castFP16.asm
                    jLoop   0x00ca20    program     static C:\MCC18\v3_39\src\traditional\math\castFP16.asm
                jLoopExit   0x00ca30    program     static C:\MCC18\v3_39\src\traditional\math\castFP16.asm
                    jExit   0x00ca40    program     static C:\MCC18\v3_39\src\traditional\math\castFP16.asm
                  INT3232   0x00ca42    program     extern C:\MCC18\v3_39\src\traditional\math\castFP32.asm
                     jMax   0x00ca52    program     static C:\MCC18\v3_39\src\traditional\math\castFP32.asm
                  jMaxPos   0x00ca56    program     static C:\MCC18\v3_39\src\traditional\math\castFP32.asm
                   jWr123   0x00ca5c    program     static C:\MCC18\v3_39\src\traditional\math\castFP32.asm
                  jMaxNeg   0x00ca64    program     static C:\MCC18\v3_39\src\traditional\math\castFP32.asm
                    jZero   0x00ca6a    program     static C:\MCC18\v3_39\src\traditional\math\castFP32.asm
                  jWrZ123   0x00ca6c    program     static C:\MCC18\v3_39\src\traditional\math\castFP32.asm
                  jNotInf   0x00ca70    program     static C:\MCC18\v3_39\src\traditional\math\castFP32.asm
                    jLoop   0x00ca82    program     static C:\MCC18\v3_39\src\traditional\math\castFP32.asm
                jLoopExit   0x00ca96    program     static C:\MCC18\v3_39\src\traditional\math\castFP32.asm
                    jExit   0x00caae    program     static C:\MCC18\v3_39\src\traditional\math\castFP32.asm
            __FpReturnNaN   0x00cab0    program     extern C:\MCC18\v3_39\src\traditional\math\packFP.asm
                 __FpExit   0x00cabc    program     extern C:\MCC18\v3_39\src\traditional\math\packFP.asm
        __FpReturnSignInf   0x00cabe    program     extern C:\MCC18\v3_39\src\traditional\math\packFP.asm
         __FpReturnNegInf   0x00cac2    program     extern C:\MCC18\v3_39\src\traditional\math\packFP.asm
         __FpReturnPosInf   0x00cac8    program     extern C:\MCC18\v3_39\src\traditional\math\packFP.asm
           jReturnPosInf0   0x00cacc    program     static C:\MCC18\v3_39\src\traditional\math\packFP.asm
               jZero1and2   0x00cad0    program     static C:\MCC18\v3_39\src\traditional\math\packFP.asm
       __FpReturnSignZero   0x00cad6    program     extern C:\MCC18\v3_39\src\traditional\math\packFP.asm
        __FpReturnNegZero   0x00cada    program     extern C:\MCC18\v3_39\src\traditional\math\packFP.asm
        __FpReturnPosZero   0x00cae2    program     extern C:\MCC18\v3_39\src\traditional\math\packFP.asm
                 __FpPack   0x00cae8    program     extern C:\MCC18\v3_39\src\traditional\math\packFP.asm
                  jPkLoop   0x00caf6    program     static C:\MCC18\v3_39\src\traditional\math\packFP.asm
             jPkShiftDone   0x00cb12    program     static C:\MCC18\v3_39\src\traditional\math\packFP.asm
               jPkRoundIt   0x00cb28    program     static C:\MCC18\v3_39\src\traditional\math\packFP.asm
              __FpReturnW   0x00cb40    program     extern C:\MCC18\v3_39\src\traditional\math\packFP.asm
             jPkRoundDone   0x00cb40    program     static C:\MCC18\v3_39\src\traditional\math\packFP.asm
              __FpUnPackA   0x00cb60    program     extern C:\MCC18\v3_39\src\traditional\math\UnpackFP.asm
                  jUnpkA1   0x00cb6a    program     static C:\MCC18\v3_39\src\traditional\math\UnpackFP.asm
                 jUnpkANZ   0x00cb78    program     static C:\MCC18\v3_39\src\traditional\math\UnpackFP.asm
                  jUnpkA2   0x00cb82    program     static C:\MCC18\v3_39\src\traditional\math\UnpackFP.asm
                 jUnpkNaN   0x00cb8c    program     static C:\MCC18\v3_39\src\traditional\math\UnpackFP.asm
              __FpUnPackB   0x00cb90    program     extern C:\MCC18\v3_39\src\traditional\math\UnpackFP.asm
                  jUnpkB1   0x00cb9a    program     static C:\MCC18\v3_39\src\traditional\math\UnpackFP.asm
                 jUnpkBNZ   0x00cba8    program     static C:\MCC18\v3_39\src\traditional\math\UnpackFP.asm
                  jUnpkB2   0x00cbb2    program     static C:\MCC18\v3_39\src\traditional\math\UnpackFP.asm
                 FXM1616U   0x00cbbc    program     extern C:\MCC18\v3_39\src\traditional\math\fxm1616u.asm
                 FXM1616S   0x00cbf8    program     extern C:\MCC18\v3_39\src\traditional\math\fxm1616s.asm
               TSIGN1616A   0x00cc44    program     static C:\MCC18\v3_39\src\traditional\math\fxm1616s.asm
            my_struct_cmp   0x00cc52    program     extern /audio/mandm/mandm/power.c
            motor_control   0x00cc86    program     extern /audio/mandm/mandm/power.c
             emotor_power   0x00ceb2    program     extern /audio/mandm/mandm/power.c
            emotor_relays   0x00cefc    program     extern /audio/mandm/mandm/power.c
        emotor_slow_start   0x00cf00    program     extern /audio/mandm/mandm/power.c
         emotor_slow_stop   0x00cf18    program     extern /audio/mandm/mandm/power.c
                emotor_cw   0x00cf1c    program     extern /audio/mandm/mandm/power.c
        emotor_is_all_off   0x00cf44    program     extern /audio/mandm/mandm/power.c
        emotor_switch_ccw   0x00cf4e    program     extern /audio/mandm/mandm/power.c
         emotor_switch_cw   0x00cf5c    program     extern /audio/mandm/mandm/power.c
         emotor_power_off   0x00cf62    program     extern /audio/mandm/mandm/power.c
          emotor_power_on   0x00cf68    program     extern /audio/mandm/mandm/power.c
               emotor_v24   0x00cf6e    program     extern /audio/mandm/mandm/power.c
                relay_v24   0x00cf8c    program     extern /audio/mandm/mandm/power.c
                blink_led   0x00cf92    program     extern /audio/mandm/mandm/power.c
          is_led_blinking   0x00d038    program     extern /audio/mandm/mandm/power.c
                   __pa_0   0x00d050    program     static /audio/mandm/mandm/power.c
                   __pa_1   0x00d05e    program     static /audio/mandm/mandm/power.c
                   __pa_2   0x00d068    program     static /audio/mandm/mandm/power.c
                   __pa_3   0x00d072    program     static /audio/mandm/mandm/power.c
                   __pa_4   0x00d07a    program     static /audio/mandm/mandm/power.c
                   __pa_5   0x00d088    program     static /audio/mandm/mandm/power.c
                   __pa_6   0x00d0a0    program     static /audio/mandm/mandm/power.c
                   __pa_7   0x00d0ae    program     static /audio/mandm/mandm/power.c
                   __pa_8   0x00d0b8    program     static /audio/mandm/mandm/power.c
                   __pa_9   0x00d0c0    program     static /audio/mandm/mandm/power.c
                  __pa_10   0x00d0c8    program     static /audio/mandm/mandm/power.c
                  __pa_11   0x00d0d0    program     static /audio/mandm/mandm/power.c
           init_motordata   0x00d0d8    program     extern /audio/mandm/mandm/config.c
                   __pa_0   0x00d32c    program     static /audio/mandm/mandm/config.c
                   __pa_1   0x00d342    program     static /audio/mandm/mandm/config.c
                   __pa_2   0x00d34a    program     static /audio/mandm/mandm/config.c
                   __pa_3   0x00d358    program     static /audio/mandm/mandm/config.c
                   __pa_4   0x00d360    program     static /audio/mandm/mandm/config.c
                   __pa_5   0x00d370    program     static /audio/mandm/mandm/config.c
                   __pa_6   0x00d378    program     static /audio/mandm/mandm/config.c
                   __pa_7   0x00d380    program     static /audio/mandm/mandm/config.c
                   __pa_8   0x00d388    program     static /audio/mandm/mandm/config.c
                   __pa_9   0x00d394    program     static /audio/mandm/mandm/config.c
                  __pa_10   0x00d39a    program     static /audio/mandm/mandm/config.c
                  __pa_11   0x00d3a6    program     static /audio/mandm/mandm/config.c
                  __pa_12   0x00d3ae    program     static /audio/mandm/mandm/config.c
                  __pa_13   0x00d3b2    program     static /audio/mandm/mandm/config.c
                  __pa_14   0x00d3ba    program     static /audio/mandm/mandm/config.c
                  __pa_15   0x00d3c2    program     static /audio/mandm/mandm/config.c
                  __pa_16   0x00d3cc    program     static /audio/mandm/mandm/config.c
                  __pa_17   0x00d3d0    program     static /audio/mandm/mandm/config.c
                  __pa_18   0x00d3d6    program     static /audio/mandm/mandm/config.c
                   s_crit   0x00d3dc    program     extern /audio/mandm/mandm/crit.c
           ___if_lbl00001   0x00d40a    program     static                          
           ___if_lbl00002   0x00d42e    program     static                          
           ___if_lbl00003   0x00d44e    program     static                          
           ___if_lbl00004   0x00d46e    program     static                          
       ___return_lbl00000   0x00d46e    program     static                          
                   e_crit   0x00d476    program     extern /audio/mandm/mandm/crit.c
           ___if_lbl00006   0x00d4a2    program     static                          
         ___else_lbl00008   0x00d4d4    program     static                          
       ___return_lbl00005   0x00d4dc    program     static                          
           ___if_lbl00007   0x00d4dc    program     static                          
               clear_crit   0x00d4de    program     extern /audio/mandm/mandm/crit.c
        write_data_eeprom   0x00d4e8    program     extern /audio/mandm/mandm/crit.c
         read_data_eeprom   0x00d56e    program     extern /audio/mandm/mandm/crit.c
                   __pa_0   0x00d598    program     static /audio/mandm/mandm/crit.c
                   __pa_1   0x00d5a6    program     static /audio/mandm/mandm/crit.c
                   __pa_2   0x00d5b2    program     static /audio/mandm/mandm/crit.c
                   __pa_3   0x00d5c0    program     static /audio/mandm/mandm/crit.c
                   memcmp   0x00d5ce    program     extern C:\MCC18\v3_39\src\traditional\stdclib\memcmp.asm
                    jLoop   0x00d5ee    program     static C:\MCC18\v3_39\src\traditional\stdclib\memcmp.asm
              _4jContinue   0x00d5fa    program     static C:\MCC18\v3_39\src\traditional\stdclib\memcmp.asm
                   _5jEnd   0x00d604    program     static C:\MCC18\v3_39\src\traditional\stdclib\memcmp.asm
                     jEnd   0x00d60a    program     static C:\MCC18\v3_39\src\traditional\stdclib\memcmp.asm
            strcpypgm2ram   0x00d620    program     extern C:\MCC18\v3_39\src\traditional\stdclib\scpyp2r.asm
                    jLoop   0x00d646    program     static C:\MCC18\v3_39\src\traditional\stdclib\scpyp2r.asm
                     jEnd   0x00d650    program     static C:\MCC18\v3_39\src\traditional\stdclib\scpyp2r.asm
                strlenpgm   0x00d652    program     extern C:\MCC18\v3_39\src\traditional\stdclib\slenpgm.asm
                    jLoop   0x00d670    program     static C:\MCC18\v3_39\src\traditional\stdclib\slenpgm.asm
                   _2jEnd   0x00d686    program     static C:\MCC18\v3_39\src\traditional\stdclib\slenpgm.asm
                     jEnd   0x00d688    program     static C:\MCC18\v3_39\src\traditional\stdclib\slenpgm.asm
                  strncpy   0x00d69c    program     extern C:\MCC18\v3_39\src\traditional\stdclib\strncpy.asm
                    jLoop   0x00d6c4    program     static C:\MCC18\v3_39\src\traditional\stdclib\strncpy.asm
              _4jContinue   0x00d6d0    program     static C:\MCC18\v3_39\src\traditional\stdclib\strncpy.asm
                   _5jEnd   0x00d6da    program     static C:\MCC18\v3_39\src\traditional\stdclib\strncpy.asm
                     jEnd   0x00d6e6    program     static C:\MCC18\v3_39\src\traditional\stdclib\strncpy.asm
           strncpypgm2ram   0x00d6f8    program     extern C:\MCC18\v3_39\src\traditional\stdclib\sncpyp2r.asm
                    jLoop   0x00d71e    program     static C:\MCC18\v3_39\src\traditional\stdclib\sncpyp2r.asm
              _3jContinue   0x00d72a    program     static C:\MCC18\v3_39\src\traditional\stdclib\sncpyp2r.asm
                   _4jEnd   0x00d734    program     static C:\MCC18\v3_39\src\traditional\stdclib\sncpyp2r.asm
                     jEnd   0x00d742    program     static C:\MCC18\v3_39\src\traditional\stdclib\sncpyp2r.asm
                   strlen   0x00d744    program     extern C:\MCC18\v3_39\src\traditional\stdclib\strlen.asm
                    jLoop   0x00d754    program     static C:\MCC18\v3_39\src\traditional\stdclib\strlen.asm
                     jEnd   0x00d75e    program     static C:\MCC18\v3_39\src\traditional\stdclib\strlen.asm
               config_pic   0x00d760    program     extern /audio/mandm/mandm/hwconf.c
           ___if_lbl00001   0x00d78e    program     static                          
               __tmplbl_1   0x00d794    program     static                          
               __tmplbl_0   0x00d79a    program     static                          
           ___if_lbl00003   0x00d7a0    program     static                          
        ___while_lbl00004   0x00d7fe    program     static                          
        ___while_lbl00005   0x00d80c    program     static                          
           ___if_lbl00006   0x00d8ae    program     static                          
       ___return_lbl00000   0x00d8ae    program     static                          
                start_pic   0x00d8b6    program     extern /audio/mandm/mandm/hwconf.c
       start_workerthread   0x00d8dc    program     extern /audio/mandm/mandm/hwconf.c
                  sprintf   0x00d8e0    program     extern C:\MCC18\v3_39\src\traditional\stdclib\sprintf.c
                _do_cinit   0x00d98c    program     extern C:\MCC18\v3_39\src\traditional\startup\c018iz.c
                     test   0x00d9a6    program     static                          
                copy_loop   0x00d9fe    program     static                          
            copy_one_byte   0x00da04    program     static                          
             done_copying   0x00da12    program     static                          
                     done   0x00da28    program     static                          
       ___return_lbl00002   0x00da28    program     static                          
                 OpenXLCD   0x00da2a    program     extern /media/usb1/mandm/mandm/xlcd/openxlcd.c
                   __pa_0   0x00dab2    program     static /media/usb1/mandm/mandm/xlcd/openxlcd.c
                   __pa_1   0x00dabc    program     static /media/usb1/mandm/mandm/xlcd/openxlcd.c
               Open2USART   0x00dac4    program     extern C:\MCC18\v3_39\src\pmc_common\USART\u2open.c
                     putc   0x00db4e    program     extern C:\MCC18\v3_39\src\traditional\stdclib\putc.c
                  FXM3232   0x00dbd2    program     extern C:\MCC18\v3_39\src\traditional\math\fxm3232.c
       ___return_lbl00000   0x00dc40    program     static                          
                  OpenADC   0x00dc42    program     extern C:\MCC18\v3_39\src\pmc_common\ADC\adcopen.c
              putrs2USART   0x00dcb0    program     extern C:\MCC18\v3_39\src\pmc_common\USART\u2putrs.c
              Write_b_eep   0x00dd14    program     extern C:\MCC18\v3_39\src\pmc_common\EEP\write_B.c
               Read_b_eep   0x00dd74    program     extern C:\MCC18\v3_39\src\pmc_common\EEP\read_B.c
       ___return_lbl00000   0x00ddc4    program     static                          
                putrsXLCD   0x00ddd0    program     extern /media/usb1/mandm/mandm/xlcd/putrxlcd.c
                   __pa_0   0x00de0c    program     static /media/usb1/mandm/mandm/xlcd/putrxlcd.c
               puts2USART   0x00de24    program     extern C:\MCC18\v3_39\src\pmc_common\USART\u2puts.c
             SetDDRamAddr   0x00de70    program     extern /media/usb1/mandm/mandm/xlcd/setddram.c
                   __pa_0   0x00deaa    program     static /media/usb1/mandm/mandm/xlcd/setddram.c
             SetCGRamAddr   0x00deb8    program     extern /media/usb1/mandm/mandm/xlcd/setcgram.c
                   __pa_0   0x00def2    program     static /media/usb1/mandm/mandm/xlcd/setcgram.c
                 FXD3232U   0x00df00    program     extern C:\MCC18\v3_39\src\traditional\math\fxd3232u.c
                     loop   0x00df0e    program     static                          
                   _false   0x00df42    program     static                          
       ___return_lbl00000   0x00df46    program     static                          
            WriteDataXLCD   0x00df48    program     extern /media/usb1/mandm/mandm/xlcd/writdata.c
                   __pa_0   0x00df80    program     static /media/usb1/mandm/mandm/xlcd/writdata.c
             WriteCmdXLCD   0x00df8e    program     extern /media/usb1/mandm/mandm/xlcd/wcmdxlcd.c
                   __pa_0   0x00dfc6    program     static /media/usb1/mandm/mandm/xlcd/wcmdxlcd.c
             ReadDataXLCD   0x00dfd4    program     extern /media/usb1/mandm/mandm/xlcd/readdata.c
             ReadAddrXLCD   0x00e018    program     extern /media/usb1/mandm/mandm/xlcd/readaddr.c
               OpenTimer3   0x00e05c    program     extern C:\MCC18\v3_39\src\pmc_common\Timers\t3open.c
                 putsXLCD   0x00e09e    program     extern /media/usb1/mandm/mandm/xlcd/putsxlcd.c
                   __pa_0   0x00e0d0    program     static /media/usb1/mandm/mandm/xlcd/putsxlcd.c
               Read2USART   0x00e0e0    program     extern C:\MCC18\v3_39\src\pmc_common\USART\u2read.c
                    srand   0x00e11e    program     extern C:\MCC18\v3_39\src\traditional\stdclib\rand.asm
                     rand   0x00e12c    program     extern C:\MCC18\v3_39\src\traditional\stdclib\rand.asm
              WriteTimer3   0x00e15a    program     extern C:\MCC18\v3_39\src\pmc_common\Timers\t3write.c
              WriteTimer0   0x00e192    program     extern C:\MCC18\v3_39\src\pmc_common\Timers\t0write.c
               OpenTimer0   0x00e1ca    program     extern C:\MCC18\v3_39\src\pmc_common\Timers\t0open.c
               OpenTimer4   0x00e202    program     extern C:\MCC18\v3_39\src\pmc_common\Timers\t4open.c
             Delay10KTCYx   0x00e238    program     extern C:\MCC18\v3_39\src\traditional\delays\d10ktcyx.asm
                    D10Kx   0x00e242    program     static C:\MCC18\v3_39\src\traditional\delays\d10ktcyx.asm
                   D10K_1   0x00e244    program     static C:\MCC18\v3_39\src\traditional\delays\d10ktcyx.asm
       _D10KTCYXCODE_0010   0x00e248    program     static C:\MCC18\v3_39\src\traditional\delays\d10ktcyx.asm
                    D10Kl   0x00e250    program     static C:\MCC18\v3_39\src\traditional\delays\d10ktcyx.asm
       _D10KTCYXCODE_001C   0x00e254    program     static C:\MCC18\v3_39\src\traditional\delays\d10ktcyx.asm
              Write2USART   0x00e266    program     extern C:\MCC18\v3_39\src\pmc_common\USART\u2write.c
               SetChanADC   0x00e294    program     extern C:\MCC18\v3_39\src\pmc_common\ADC\adcsetch.c
                 FXD1616U   0x00e2c2    program     extern C:\MCC18\v3_39\src\traditional\math\fxd1616u.c
                     loop   0x00e2cc    program     static                          
                  endloop   0x00e2e8    program     static                          
       ___return_lbl00000   0x00e2ec    program     static                          
                 BusyXLCD   0x00e2ee    program     extern /media/usb1/mandm/mandm/xlcd/busyxlcd.c
                   __pa_0   0x00e308    program     static /media/usb1/mandm/mandm/xlcd/busyxlcd.c
                  isdigit   0x00e31a    program     extern C:\MCC18\v3_39\src\traditional\stdclib\isdigit.asm
                   jMatch   0x00e33a    program     static C:\MCC18\v3_39\src\traditional\stdclib\isdigit.asm
                 jNoMatch   0x00e33c    program     static C:\MCC18\v3_39\src\traditional\stdclib\isdigit.asm
                 _startup   0x00e33e    program     extern C:\MCC18\v3_39\src\traditional\startup\c018iz.c
                     loop   0x00e352    program     static                          
       ___return_lbl00001   0x00e35c    program     static                          
            __zero_memory   0x00e35e    program     extern C:\MCC18\v3_39\src\traditional\proc\p18F8722.asm
               zero_block   0x00e36c    program     static C:\MCC18\v3_39\src\traditional\proc\p18F8722.asm
                   loop_h   0x00e36c    program     static C:\MCC18\v3_39\src\traditional\proc\p18F8722.asm
                compare_l   0x00e374    program     static C:\MCC18\v3_39\src\traditional\proc\p18F8722.asm
                   loop_l   0x00e376    program     static C:\MCC18\v3_39\src\traditional\proc\p18F8722.asm
              _usart_putc   0x00e37e    program     extern C:\MCC18\v3_39\src\pmc_common\USART\_usartpc.asm
                     loop   0x00e38e    program     static C:\MCC18\v3_39\src\pmc_common\USART\_usartpc.asm
              Delay10TCYx   0x00e39a    program     extern C:\MCC18\v3_39\src\traditional\delays\d10tcyx.asm
                     D10x   0x00e3a2    program     static C:\MCC18\v3_39\src\traditional\delays\d10tcyx.asm
        _D10TCYXCODE_000A   0x00e3a4    program     static C:\MCC18\v3_39\src\traditional\delays\d10tcyx.asm
        _D10TCYXCODE_000C   0x00e3a6    program     static C:\MCC18\v3_39\src\traditional\delays\d10tcyx.asm
        _D10TCYXCODE_000E   0x00e3a8    program     static C:\MCC18\v3_39\src\traditional\delays\d10tcyx.asm
                    D10_1   0x00e3aa    program     static C:\MCC18\v3_39\src\traditional\delays\d10tcyx.asm
                  ReadADC   0x00e3b0    program     extern C:\MCC18\v3_39\src\pmc_common\ADC\adcread.c
                 s_digits   0x00e3c2    program     static C:\MCC18\v3_39\src\traditional\stdclib\vfprintf.c
                 Busy_eep   0x00e3d4    program     extern C:\MCC18\v3_39\src\pmc_common\EEP\busy_eep.c
               ConvertADC   0x00e3da    program     extern C:\MCC18\v3_39\src\pmc_common\ADC\adcconv.c
                   __init   0x00e3de    program     extern C:\MCC18\v3_39\src\traditional\stdclib\__init.c
               __config_0   0x300001    program     static /audio/mandm/mandm/mandm8722.c
               __config_1   0x300002    program     static /audio/mandm/mandm/mandm8722.c
               __config_2   0x300003    program     static /audio/mandm/mandm/mandm8722.c
               __config_3   0x300006    program     static /audio/mandm/mandm/mandm8722.c
                  __tmp_0   0x000000       data     static C:\MCC18\v3_39\src\traditional\stdclib\putc.c
                  __tmp_0   0x000000       data     static C:\MCC18\v3_39\src\traditional\stdclib\vfprintf.c
                  __tmp_0   0x000000       data     static C:\MCC18\v3_39\src\pmc_common\EEP\read_B.c
                  __tmp_0   0x000000       data     static C:\MCC18\v3_39\src\traditional\stdclib\sprintf.c
                  __tmp_0   0x000000       data     static C:\MCC18\v3_39\src\pmc_common\ADC\adcread.c
                  __tmp_0   0x000000       data     static /audio/mandm/mandm/power.c
                  __tmp_0   0x000000       data     static /audio/mandm/mandm/mandm8722.c
                  __tmp_0   0x000000       data     static C:\MCC18\v3_39\src\pmc_common\ADC\adcopen.c
                  __tmp_0   0x000000       data     static /audio/mandm/mandm/crit.c
                  __tmp_0   0x000000       data     static /audio/mandm/mandm/daq.c 
                  __tmp_0   0x000000       data     static C:\MCC18\v3_39\src\pmc_common\EEP\write_B.c
                  __tmp_0   0x000000       data     static C:\MCC18\v3_39\src\pmc_common\ADC\adcsetch.c
                  __tmp_0   0x000000       data     static C:\MCC18\v3_39\src\pmc_common\USART\u2open.c
                     SIGN   0x000024       data     extern C:\MCC18\v3_39\src\traditional\math\cmath18.asm
            __FPFLAGSbits   0x000025       data     extern C:\MCC18\v3_39\src\traditional\math\cmath18.asm
                __FPFLAGS   0x000025       data     extern C:\MCC18\v3_39\src\traditional\math\cmath18.asm
                 __AARGB7   0x000026       data     extern C:\MCC18\v3_39\src\traditional\math\aarg.asm
                  __REMB3   0x000026       data     extern C:\MCC18\v3_39\src\traditional\math\aarg.asm
                 __AARGB6   0x000027       data     extern C:\MCC18\v3_39\src\traditional\math\aarg.asm
                  __REMB2   0x000027       data     extern C:\MCC18\v3_39\src\traditional\math\aarg.asm
                  __REMB1   0x000028       data     extern C:\MCC18\v3_39\src\traditional\math\aarg.asm
                 __AARGB5   0x000028       data     extern C:\MCC18\v3_39\src\traditional\math\aarg.asm
                  __REMB0   0x000029       data     extern C:\MCC18\v3_39\src\traditional\math\aarg.asm
                 __AARGB4   0x000029       data     extern C:\MCC18\v3_39\src\traditional\math\aarg.asm
                 __AARGB3   0x00002a       data     extern C:\MCC18\v3_39\src\traditional\math\aarg.asm
                 __AARGB2   0x00002b       data     extern C:\MCC18\v3_39\src\traditional\math\aarg.asm
                 __AARGB1   0x00002c       data     extern C:\MCC18\v3_39\src\traditional\math\aarg.asm
                 __AARGB0   0x00002d       data     extern C:\MCC18\v3_39\src\traditional\math\aarg.asm
                   __AEXP   0x00002e       data     extern C:\MCC18\v3_39\src\traditional\math\aarg.asm
                 __BARGB3   0x00002f       data     extern C:\MCC18\v3_39\src\traditional\math\barg.asm
                 __BARGB2   0x000030       data     extern C:\MCC18\v3_39\src\traditional\math\barg.asm
                 __BARGB1   0x000031       data     extern C:\MCC18\v3_39\src\traditional\math\barg.asm
                 __BARGB0   0x000032       data     extern C:\MCC18\v3_39\src\traditional\math\barg.asm
                   __BEXP   0x000033       data     extern C:\MCC18\v3_39\src\traditional\math\barg.asm
                 __TEMPB3   0x000034       data     extern C:\MCC18\v3_39\src\traditional\math\temparg.asm
                 __TEMPB2   0x000035       data     extern C:\MCC18\v3_39\src\traditional\math\temparg.asm
                 __TEMPB1   0x000036       data     extern C:\MCC18\v3_39\src\traditional\math\temparg.asm
                   __TEMP   0x000037       data     extern C:\MCC18\v3_39\src\traditional\math\temparg.asm
                 __TEMPB0   0x000037       data     extern C:\MCC18\v3_39\src\traditional\math\temparg.asm
                  __tmp_1   0x000038       data     static /audio/mandm/mandm/mandm_vector.c
            DelayCounter2   0x00003c       data     extern C:\MCC18\v3_39\src\traditional\delays\delayd2.asm
            DelayCounter1   0x00003d       data     extern C:\MCC18\v3_39\src\traditional\delays\delayd1.asm
                   button   0x000060       data     extern /audio/mandm/mandm/mandm8722.c
                        R   0x000061       data     extern /audio/mandm/mandm/mandm8722.c
                        C   0x000094       data     extern /audio/mandm/mandm/mandm8722.c
                        V   0x00009e       data     extern /audio/mandm/mandm/mandm8722.c
                        z   0x0000fb       data     static /audio/mandm/mandm/hwconf.c
                        z   0x0000fc       data     static /audio/mandm/mandm/config.c
                       ds   0x000100       data     extern /audio/mandm/mandm/mandm8722.c
             change_count   0x0001fc       data     extern /audio/mandm/mandm/daq.c 
                   change   0x0001fe       data     static /audio/mandm/mandm/daq.c 
                 bootstr2   0x000200       data     extern /audio/mandm/mandm/mandm8722.c
                       p1   0x000300       data     extern /audio/mandm/mandm/mandm8722.c
                       p2   0x000310       data     extern /audio/mandm/mandm/mandm8722.c
                  termstr   0x000320       data     extern /audio/mandm/mandm/mandm8722.c
                      csd   0x000340       data     extern /audio/mandm/mandm/mandm8722.c
                      cid   0x000352       data     extern /audio/mandm/mandm/mandm8722.c
                    HCRIT   0x000364       data     extern /audio/mandm/mandm/mandm8722.c
                    LCRIT   0x00036c       data     extern /audio/mandm/mandm/mandm8722.c
                       f1   0x000374       data     extern /audio/mandm/mandm/mandm8722.c
                       f2   0x00037b       data     extern /audio/mandm/mandm/mandm8722.c
                       f3   0x000382       data     extern /audio/mandm/mandm/mandm8722.c
                       f4   0x000389       data     extern /audio/mandm/mandm/mandm8722.c
                       p3   0x000390       data     extern /audio/mandm/mandm/mandm8722.c
             alarm_buffer   0x0003a0       data     extern /audio/mandm/mandm/mandm8722.c
                   smooth   0x0003ae       data     extern /audio/mandm/mandm/mandm8722.c
                    lcd18   0x0003ce       data     extern /audio/mandm/mandm/mandm8722.c
               slow_timer   0x0003cf       data     extern /audio/mandm/mandm/mandm8722.c
               last_shape   0x0003d3       data     static /audio/mandm/mandm/mandm8722.c
                       ib   0x0003d4       data     static /audio/mandm/mandm/mandm8722.c
                        h   0x0003d5       data     static /audio/mandm/mandm/mandm8722.c
                        m   0x0003d9       data     static /audio/mandm/mandm/mandm8722.c
                        s   0x0003dd       data     static /audio/mandm/mandm/mandm8722.c
                        h   0x0003e1       data     static /audio/mandm/mandm/mandm8722.c
                        m   0x0003e5       data     static /audio/mandm/mandm/mandm8722.c
                        s   0x0003e9       data     static /audio/mandm/mandm/mandm8722.c
                        i   0x0003ed       data     static /audio/mandm/mandm/mandm8722.c
                  alm_num   0x0003ee       data     static /audio/mandm/mandm/mandm8722.c
                 position   0x0003ef       data     static /audio/mandm/mandm/mandm8722.c
                    shape   0x0003f0       data     static /audio/mandm/mandm/mandm8722.c
                 deadband   0x0003f1       data     static /audio/mandm/mandm/mandm8722.c
              was_running   0x0003f5       data     static /audio/mandm/mandm/mandm8722.c
                old_error   0x0003f7       data     static /audio/mandm/mandm/mandm8722.c
                 old_menu   0x0003f9       data     static /audio/mandm/mandm/mandm8722.c
                 menu_pos   0x0003fa       data     static /audio/mandm/mandm/mandm8722.c
                 menu_pos   0x0003fb       data     static /audio/mandm/mandm/mandm8722.c
                 eep_char   0x0003fc       data     static /audio/mandm/mandm/mandm8722.c
                        z   0x0003fd       data     static /audio/mandm/mandm/mandm8722.c
                     Seed   0x0003fe       data     static C:\MCC18\v3_39\src\traditional\stdclib\rand.asm
                motordata   0x000400       data     extern /audio/mandm/mandm/mandm8722.c
                motor_ptr   0x0004ae       data     extern /audio/mandm/mandm/mandm8722.c
                lastmotor   0x0004b0       data     static /audio/mandm/mandm/power.c
                emo_bumps   0x0004ea       data     static /audio/mandm/mandm/mandm_vector.c
            HID_IDLE_FLAG   0x0004eb       data     static /audio/mandm/mandm/mandm_vector.c
                   b_read   0x0004ec       data     static /audio/mandm/mandm/mandm_vector.c
                      ZAP   0x0004ed       data     static /audio/mandm/mandm/mandm_vector.c
                 vc_count   0x0004ee       data     static /audio/mandm/mandm/mandm_vector.c
             worker_timer   0x0004ef       data     static /audio/mandm/mandm/mandm_vector.c
               real_ticks   0x0004f0       data     static /audio/mandm/mandm/mandm_vector.c
               fast_ticks   0x0004f1       data     static /audio/mandm/mandm/mandm_vector.c
                   rx_tmp   0x0004f2       data     static /audio/mandm/mandm/mandm_vector.c
                 band_max   0x0004f4       data     static /audio/mandm/mandm/mandm_vector.c
                 hid_idle   0x0004f8       data     static /audio/mandm/mandm/mandm_vector.c
                    H_tmp   0x0004fc       data     static /audio/mandm/mandm/crit.c
                    H_tmp   0x0004fd       data     static /audio/mandm/mandm/crit.c
                   almctr   0x0004fe       data     extern /audio/mandm/mandm/mandm8722.c
            USART2_Status   0x0004ff       data     extern C:\MCC18\v3_39\src\pmc_common\USART\u2defs.c
                    knob1   0x000500       data     extern /audio/mandm/mandm/mandm8722.c
                    knob2   0x000510       data     extern /audio/mandm/mandm/mandm8722.c
                   Cursor   0x000520       data     extern /audio/mandm/mandm/mandm8722.c
                    YNKEY   0x000523       data     extern /audio/mandm/mandm/mandm8722.c
               OldEncoder   0x000524       data     extern /audio/mandm/mandm/mandm8722.c
                     qei1   0x000529       data     extern /audio/mandm/mandm/mandm8722.c
                        s   0x000540       data     static /audio/mandm/mandm/mandm8722.c
                   dcount   0x000546       data     static /audio/mandm/mandm/mandm8722.c
                   dcount   0x00054a       data     static /audio/mandm/mandm/mandm8722.c
                 timetemp   0x00054e       data     static /audio/mandm/mandm/mandm8722.c
                clocks_hz   0x000552       data     static /audio/mandm/mandm/mandm8722.c
                   dcount   0x000556       data     static /audio/mandm/mandm/mandm8722.c
                 timetemp   0x00055a       data     static /audio/mandm/mandm/mandm8722.c
                clocks_hz   0x00055e       data     static /audio/mandm/mandm/mandm8722.c
                   dcount   0x000562       data     static /audio/mandm/mandm/mandm8722.c
                 timetemp   0x000566       data     static /audio/mandm/mandm/mandm8722.c
                clocks_hz   0x00056a       data     static /audio/mandm/mandm/mandm8722.c
                   dcount   0x00056e       data     static /audio/mandm/mandm/mandm8722.c
                 timetemp   0x000572       data     static /audio/mandm/mandm/mandm8722.c
                clocks_hz   0x000576       data     static /audio/mandm/mandm/mandm8722.c
                   dcount   0x00057a       data     static /audio/mandm/mandm/mandm8722.c
                 timetemp   0x00057e       data     static /audio/mandm/mandm/mandm8722.c
                clocks_hz   0x000582       data     static /audio/mandm/mandm/mandm8722.c
                   dcount   0x000586       data     static /audio/mandm/mandm/mandm8722.c
                 timetemp   0x00058a       data     static /audio/mandm/mandm/mandm8722.c
                clocks_hz   0x00058e       data     static /audio/mandm/mandm/mandm8722.c
                   dcount   0x000592       data     static /audio/mandm/mandm/mandm8722.c
                 timetemp   0x000596       data     static /audio/mandm/mandm/mandm8722.c
                clocks_hz   0x00059a       data     static /audio/mandm/mandm/mandm8722.c
                        n   0x00059e       data     static /audio/mandm/mandm/mandm8722.c
                        z   0x00059f       data     static /audio/mandm/mandm/mandm8722.c
                     slow   0x0005a0       data     static /audio/mandm/mandm/mandm8722.c
                        z   0x0005a1       data     static /audio/mandm/mandm/mandm8722.c
                  s_delay   0x0005a2       data     static /audio/mandm/mandm/mandm8722.c
                 new_menu   0x0005a3       data     static /audio/mandm/mandm/mandm8722.c
               check_menu   0x0005a4       data     static /audio/mandm/mandm/mandm8722.c
                  get_out   0x0005a5       data     static /audio/mandm/mandm/mandm8722.c
                 menu_pos   0x0005a6       data     static /audio/mandm/mandm/mandm8722.c
               hms_string   0x0005a7       data     extern /audio/mandm/mandm/mandm8722.c
                    a10_x   0x0005b7       data     extern /audio/mandm/mandm/mandm8722.c
                    a10_y   0x0005b9       data     extern /audio/mandm/mandm/mandm8722.c
                    a10_z   0x0005bb       data     extern /audio/mandm/mandm/mandm8722.c
                 worktick   0x0005bd       data     extern /audio/mandm/mandm/mandm8722.c
                    C2RAW   0x0005bf       data     extern /audio/mandm/mandm/mandm8722.c
             glitch_count   0x0005c0       data     extern /audio/mandm/mandm/mandm8722.c
                   cdelay   0x0005c1       data     extern /audio/mandm/mandm/mandm8722.c
              SLOW_STATUS   0x0005c2       data     extern /audio/mandm/mandm/mandm8722.c
                        i   0x0005c3       data     static /audio/mandm/mandm/daq.c 
                        z   0x0005c5       data     static /audio/mandm/mandm/daq.c 
                  a10_x_t   0x0005c7       data     static /audio/mandm/mandm/daq.c 
                  a10_y_t   0x0005cb       data     static /audio/mandm/mandm/daq.c 
                  a10_z_t   0x0005cf       data     static /audio/mandm/mandm/daq.c 
                        z   0x0005d3       data     static /audio/mandm/mandm/daq.c 
                     rawp   0x0005d4       data     extern /audio/mandm/mandm/mandm8722.c
                     prom   0x0005e0       data     static C:\MCC18\v3_39\src\traditional\startup\c018iz.c
                curr_byte   0x0005e3       data     static C:\MCC18\v3_39\src\traditional\startup\c018iz.c
               curr_entry   0x0005e5       data     static C:\MCC18\v3_39\src\traditional\startup\c018iz.c
                 data_ptr   0x0005e7       data     static C:\MCC18\v3_39\src\traditional\startup\c018iz.c
                       c1   0x0005ea       data     static /audio/mandm/mandm/mandm_vector.c
                       c2   0x0005eb       data     static /audio/mandm/mandm/mandm_vector.c
                    timer   0x0005ec       data     static /audio/mandm/mandm/mandm_vector.c
                   timerl   0x0005ee       data     static /audio/mandm/mandm/mandm_vector.c
                TIMERFLAG   0x000600       data     extern /audio/mandm/mandm/mandm8722.c
               PRIPOWEROK   0x000601       data     extern /audio/mandm/mandm/mandm8722.c
                 FORCEOUT   0x000602       data     extern /audio/mandm/mandm/mandm8722.c
               WORKERFLAG   0x000603       data     extern /audio/mandm/mandm/mandm8722.c
              critc_level   0x000604       data     extern /audio/mandm/mandm/mandm8722.c
                   KEYNUM   0x000605       data     extern /audio/mandm/mandm/mandm8722.c
                 FAILSAFE   0x000606       data     extern /audio/mandm/mandm/mandm8722.c
            SYSTEM_STABLE   0x000607       data     extern /audio/mandm/mandm/mandm8722.c
                HOLD_PROC   0x000608       data     extern /audio/mandm/mandm/mandm8722.c
             DISPLAY_MODE   0x000609       data     extern /audio/mandm/mandm/mandm8722.c
                 D_UPDATE   0x00060a       data     extern /audio/mandm/mandm/mandm8722.c
             GLITCH_CHECK   0x00060b       data     extern /audio/mandm/mandm/mandm8722.c
                  COOLING   0x00060c       data     extern /audio/mandm/mandm/mandm8722.c
               UPDATE_EEP   0x00060d       data     extern /audio/mandm/mandm/mandm8722.c
              RESET_ZEROS   0x00060e       data     extern /audio/mandm/mandm/mandm8722.c
                 SYS_DATA   0x00060f       data     extern /audio/mandm/mandm/mandm8722.c
                 MOD_DATA   0x000610       data     extern /audio/mandm/mandm/mandm8722.c
                 SYS_HELP   0x000611       data     extern /audio/mandm/mandm/mandm8722.c
                 SET_TLOG   0x000612       data     extern /audio/mandm/mandm/mandm8722.c
                   WDT_TO   0x000613       data     extern /audio/mandm/mandm/mandm8722.c
                   EEP_ER   0x000614       data     extern /audio/mandm/mandm/mandm8722.c
                    TWEAK   0x000615       data     extern /audio/mandm/mandm/mandm8722.c
            TEST_SPINNERS   0x000616       data     extern /audio/mandm/mandm/mandm8722.c
              alarm_codes   0x000617       data     extern /audio/mandm/mandm/mandm8722.c
                     mode   0x000619       data     extern /audio/mandm/mandm/mandm8722.c
              RS232_DEBUG   0x000628       data     extern /audio/mandm/mandm/mandm8722.c
              critc_count   0x000629       data     extern /audio/mandm/mandm/mandm8722.c
                     sign   0x00062d       data     extern /audio/mandm/mandm/mandm8722.c
                 lp_speed   0x00062e       data     extern /audio/mandm/mandm/mandm8722.c
                     lp_x   0x000632       data     extern /audio/mandm/mandm/mandm8722.c
               build_date   0x000636       data     extern /audio/mandm/mandm/mandm8722.c
               build_time   0x000639       data     extern /audio/mandm/mandm/mandm8722.c
                      dsi   0x00063c       data     extern /audio/mandm/mandm/mandm8722.c
                      msi   0x00063d       data     extern /audio/mandm/mandm/mandm8722.c
                 help_pos   0x00063e       data     extern /audio/mandm/mandm/mandm8722.c
                       t1   0x00063f       data     extern /audio/mandm/mandm/mandm8722.c
                       t2   0x000643       data     extern /audio/mandm/mandm/mandm8722.c
                       t3   0x000647       data     extern /audio/mandm/mandm/mandm8722.c
                       t4   0x00064b       data     extern /audio/mandm/mandm/mandm8722.c
                       t5   0x00064f       data     extern /audio/mandm/mandm/mandm8722.c
                       t6   0x000653       data     extern /audio/mandm/mandm/mandm8722.c
                       t7   0x000657       data     extern /audio/mandm/mandm/mandm8722.c
                   t_time   0x00065b       data     extern /audio/mandm/mandm/mandm8722.c
                 voltfrak   0x00065f       data     extern /audio/mandm/mandm/mandm8722.c
                   ahfrak   0x000663       data     extern /audio/mandm/mandm/mandm8722.c
                      Vin   0x000667       data     extern /audio/mandm/mandm/mandm8722.c
                   chrg_v   0x00066b       data     extern /audio/mandm/mandm/mandm8722.c
                 vbatol_t   0x00066f       data     extern /audio/mandm/mandm/mandm8722.c
                  solar_t   0x000673       data     extern /audio/mandm/mandm/mandm8722.c
                 IDLEFLAG   0x000677       data     extern /audio/mandm/mandm/mandm8722.c
              knob_to_pot   0x000678       data     extern /audio/mandm/mandm/mandm8722.c
                       iw   0x000679       data     extern /audio/mandm/mandm/mandm8722.c
                       ip   0x00067d       data     extern /audio/mandm/mandm/mandm8722.c
                  adc_cal   0x000681       data     extern /audio/mandm/mandm/mandm8722.c
                    CRITC   0x000691       data     extern /audio/mandm/mandm/mandm8722.c
                   LCD_OK   0x000692       data     extern /audio/mandm/mandm/mandm8722.c
               cable_type   0x000693       data     extern /audio/mandm/mandm/mandm8722.c
                     TLOG   0x000694       data     extern /audio/mandm/mandm/mandm8722.c
             SSP2CON2bits   0x000f62       data     extern C:\MCC18\v3_39\src\traditional\proc\p18F8722.asm
                 SSP2CON2   0x000f62       data     extern C:\MCC18\v3_39\src\traditional\proc\p18F8722.asm
             SSP2CON1bits   0x000f63       data     extern C:\MCC18\v3_39\src\traditional\proc\p18F8722.asm
                 SSP2CON1   0x000f63       data     extern C:\MCC18\v3_39\src\traditional\proc\p18F8722.asm
             SSP2STATbits   0x000f64       data     extern C:\MCC18\v3_39\src\traditional\proc\p18F8722.asm
                 SSP2STAT   0x000f64       data     extern C:\MCC18\v3_39\src\traditional\proc\p18F8722.asm
                  SSP2ADD   0x000f65       data     extern C:\MCC18\v3_39\src\traditional\proc\p18F8722.asm
                  SSP2BUF   0x000f66       data     extern C:\MCC18\v3_39\src\traditional\proc\p18F8722.asm
                 ECCP2DEL   0x000f67       data     extern C:\MCC18\v3_39\src\traditional\proc\p18F8722.asm
             ECCP2DELbits   0x000f67       data     extern C:\MCC18\v3_39\src\traditional\proc\p18F8722.asm
              ECCP2ASbits   0x000f68       data     extern C:\MCC18\v3_39\src\traditional\proc\p18F8722.asm
                  ECCP2AS   0x000f68       data     extern C:\MCC18\v3_39\src\traditional\proc\p18F8722.asm
             ECCP3DELbits   0x000f69       data     extern C:\MCC18\v3_39\src\traditional\proc\p18F8722.asm
                 ECCP3DEL   0x000f69       data     extern C:\MCC18\v3_39\src\traditional\proc\p18F8722.asm
              ECCP3ASbits   0x000f6a       data     extern C:\MCC18\v3_39\src\traditional\proc\p18F8722.asm
                  ECCP3AS   0x000f6a       data     extern C:\MCC18\v3_39\src\traditional\proc\p18F8722.asm
               RCSTA2bits   0x000f6b       data     extern C:\MCC18\v3_39\src\traditional\proc\p18F8722.asm
                   RCSTA2   0x000f6b       data     extern C:\MCC18\v3_39\src\traditional\proc\p18F8722.asm
               TXSTA2bits   0x000f6c       data     extern C:\MCC18\v3_39\src\traditional\proc\p18F8722.asm
                   TXSTA2   0x000f6c       data     extern C:\MCC18\v3_39\src\traditional\proc\p18F8722.asm
                   TXREG2   0x000f6d       data     extern C:\MCC18\v3_39\src\traditional\proc\p18F8722.asm
                   RCREG2   0x000f6e       data     extern C:\MCC18\v3_39\src\traditional\proc\p18F8722.asm
                   SPBRG2   0x000f6f       data     extern C:\MCC18\v3_39\src\traditional\proc\p18F8722.asm
                  CCP5CON   0x000f70       data     extern C:\MCC18\v3_39\src\traditional\proc\p18F8722.asm
              CCP5CONbits   0x000f70       data     extern C:\MCC18\v3_39\src\traditional\proc\p18F8722.asm
                   CCPR5L   0x000f71       data     extern C:\MCC18\v3_39\src\traditional\proc\p18F8722.asm
                    CCPR5   0x000f71       data     extern C:\MCC18\v3_39\src\traditional\proc\p18F8722.asm
                   CCPR5H   0x000f72       data     extern C:\MCC18\v3_39\src\traditional\proc\p18F8722.asm
                  CCP4CON   0x000f73       data     extern C:\MCC18\v3_39\src\traditional\proc\p18F8722.asm
              CCP4CONbits   0x000f73       data     extern C:\MCC18\v3_39\src\traditional\proc\p18F8722.asm
                    CCPR4   0x000f74       data     extern C:\MCC18\v3_39\src\traditional\proc\p18F8722.asm
                   CCPR4L   0x000f74       data     extern C:\MCC18\v3_39\src\traditional\proc\p18F8722.asm
                   CCPR4H   0x000f75       data     extern C:\MCC18\v3_39\src\traditional\proc\p18F8722.asm
                T4CONbits   0x000f76       data     extern C:\MCC18\v3_39\src\traditional\proc\p18F8722.asm
                    T4CON   0x000f76       data     extern C:\MCC18\v3_39\src\traditional\proc\p18F8722.asm
                      PR4   0x000f77       data     extern C:\MCC18\v3_39\src\traditional\proc\p18F8722.asm
                     TMR4   0x000f78       data     extern C:\MCC18\v3_39\src\traditional\proc\p18F8722.asm
             ECCP1DELbits   0x000f79       data     extern C:\MCC18\v3_39\src\traditional\proc\p18F8722.asm
                 ECCP1DEL   0x000f79       data     extern C:\MCC18\v3_39\src\traditional\proc\p18F8722.asm
                 BAUDCON2   0x000f7c       data     extern C:\MCC18\v3_39\src\traditional\proc\p18F8722.asm
             BAUDCON2bits   0x000f7c       data     extern C:\MCC18\v3_39\src\traditional\proc\p18F8722.asm
                  SPBRGH2   0x000f7d       data     extern C:\MCC18\v3_39\src\traditional\proc\p18F8722.asm
                  BAUDCON   0x000f7e       data     extern C:\MCC18\v3_39\src\traditional\proc\p18F8722.asm
              BAUDCONbits   0x000f7e       data     extern C:\MCC18\v3_39\src\traditional\proc\p18F8722.asm
             BAUDCON1bits   0x000f7e       data     extern C:\MCC18\v3_39\src\traditional\proc\p18F8722.asm
                 BAUDCON1   0x000f7e       data     extern C:\MCC18\v3_39\src\traditional\proc\p18F8722.asm
                  SPBRGH1   0x000f7f       data     extern C:\MCC18\v3_39\src\traditional\proc\p18F8722.asm
                   SPBRGH   0x000f7f       data     extern C:\MCC18\v3_39\src\traditional\proc\p18F8722.asm
                    PORTA   0x000f80       data     extern C:\MCC18\v3_39\src\traditional\proc\p18F8722.asm
                PORTAbits   0x000f80       data     extern C:\MCC18\v3_39\src\traditional\proc\p18F8722.asm
                PORTBbits   0x000f81       data     extern C:\MCC18\v3_39\src\traditional\proc\p18F8722.asm
                    PORTB   0x000f81       data     extern C:\MCC18\v3_39\src\traditional\proc\p18F8722.asm
                PORTCbits   0x000f82       data     extern C:\MCC18\v3_39\src\traditional\proc\p18F8722.asm
                    PORTC   0x000f82       data     extern C:\MCC18\v3_39\src\traditional\proc\p18F8722.asm
                PORTDbits   0x000f83       data     extern C:\MCC18\v3_39\src\traditional\proc\p18F8722.asm
                    PORTD   0x000f83       data     extern C:\MCC18\v3_39\src\traditional\proc\p18F8722.asm
                PORTEbits   0x000f84       data     extern C:\MCC18\v3_39\src\traditional\proc\p18F8722.asm
                    PORTE   0x000f84       data     extern C:\MCC18\v3_39\src\traditional\proc\p18F8722.asm
                    PORTF   0x000f85       data     extern C:\MCC18\v3_39\src\traditional\proc\p18F8722.asm
                PORTFbits   0x000f85       data     extern C:\MCC18\v3_39\src\traditional\proc\p18F8722.asm
                PORTGbits   0x000f86       data     extern C:\MCC18\v3_39\src\traditional\proc\p18F8722.asm
                    PORTG   0x000f86       data     extern C:\MCC18\v3_39\src\traditional\proc\p18F8722.asm
                PORTHbits   0x000f87       data     extern C:\MCC18\v3_39\src\traditional\proc\p18F8722.asm
                    PORTH   0x000f87       data     extern C:\MCC18\v3_39\src\traditional\proc\p18F8722.asm
                PORTJbits   0x000f88       data     extern C:\MCC18\v3_39\src\traditional\proc\p18F8722.asm
                    PORTJ   0x000f88       data     extern C:\MCC18\v3_39\src\traditional\proc\p18F8722.asm
                 LATAbits   0x000f89       data     extern C:\MCC18\v3_39\src\traditional\proc\p18F8722.asm
                     LATA   0x000f89       data     extern C:\MCC18\v3_39\src\traditional\proc\p18F8722.asm
                     LATB   0x000f8a       data     extern C:\MCC18\v3_39\src\traditional\proc\p18F8722.asm
                 LATBbits   0x000f8a       data     extern C:\MCC18\v3_39\src\traditional\proc\p18F8722.asm
                 LATCbits   0x000f8b       data     extern C:\MCC18\v3_39\src\traditional\proc\p18F8722.asm
                     LATC   0x000f8b       data     extern C:\MCC18\v3_39\src\traditional\proc\p18F8722.asm
                 LATDbits   0x000f8c       data     extern C:\MCC18\v3_39\src\traditional\proc\p18F8722.asm
                     LATD   0x000f8c       data     extern C:\MCC18\v3_39\src\traditional\proc\p18F8722.asm
                 LATEbits   0x000f8d       data     extern C:\MCC18\v3_39\src\traditional\proc\p18F8722.asm
                     LATE   0x000f8d       data     extern C:\MCC18\v3_39\src\traditional\proc\p18F8722.asm
                     LATF   0x000f8e       data     extern C:\MCC18\v3_39\src\traditional\proc\p18F8722.asm
                 LATFbits   0x000f8e       data     extern C:\MCC18\v3_39\src\traditional\proc\p18F8722.asm
                     LATG   0x000f8f       data     extern C:\MCC18\v3_39\src\traditional\proc\p18F8722.asm
                 LATGbits   0x000f8f       data     extern C:\MCC18\v3_39\src\traditional\proc\p18F8722.asm
                     LATH   0x000f90       data     extern C:\MCC18\v3_39\src\traditional\proc\p18F8722.asm
                 LATHbits   0x000f90       data     extern C:\MCC18\v3_39\src\traditional\proc\p18F8722.asm
                     LATJ   0x000f91       data     extern C:\MCC18\v3_39\src\traditional\proc\p18F8722.asm
                 LATJbits   0x000f91       data     extern C:\MCC18\v3_39\src\traditional\proc\p18F8722.asm
                    TRISA   0x000f92       data     extern C:\MCC18\v3_39\src\traditional\proc\p18F8722.asm
                TRISAbits   0x000f92       data     extern C:\MCC18\v3_39\src\traditional\proc\p18F8722.asm
                     DDRA   0x000f92       data     extern C:\MCC18\v3_39\src\traditional\proc\p18F8722.asm
                 DDRAbits   0x000f92       data     extern C:\MCC18\v3_39\src\traditional\proc\p18F8722.asm
                    TRISB   0x000f93       data     extern C:\MCC18\v3_39\src\traditional\proc\p18F8722.asm
                TRISBbits   0x000f93       data     extern C:\MCC18\v3_39\src\traditional\proc\p18F8722.asm
                     DDRB   0x000f93       data     extern C:\MCC18\v3_39\src\traditional\proc\p18F8722.asm
                 DDRBbits   0x000f93       data     extern C:\MCC18\v3_39\src\traditional\proc\p18F8722.asm
                     DDRC   0x000f94       data     extern C:\MCC18\v3_39\src\traditional\proc\p18F8722.asm
                    TRISC   0x000f94       data     extern C:\MCC18\v3_39\src\traditional\proc\p18F8722.asm
                TRISCbits   0x000f94       data     extern C:\MCC18\v3_39\src\traditional\proc\p18F8722.asm
                 DDRCbits   0x000f94       data     extern C:\MCC18\v3_39\src\traditional\proc\p18F8722.asm
                TRISDbits   0x000f95       data     extern C:\MCC18\v3_39\src\traditional\proc\p18F8722.asm
                    TRISD   0x000f95       data     extern C:\MCC18\v3_39\src\traditional\proc\p18F8722.asm
                     DDRD   0x000f95       data     extern C:\MCC18\v3_39\src\traditional\proc\p18F8722.asm
                 DDRDbits   0x000f95       data     extern C:\MCC18\v3_39\src\traditional\proc\p18F8722.asm
                TRISEbits   0x000f96       data     extern C:\MCC18\v3_39\src\traditional\proc\p18F8722.asm
                    TRISE   0x000f96       data     extern C:\MCC18\v3_39\src\traditional\proc\p18F8722.asm
                     DDRE   0x000f96       data     extern C:\MCC18\v3_39\src\traditional\proc\p18F8722.asm
                 DDREbits   0x000f96       data     extern C:\MCC18\v3_39\src\traditional\proc\p18F8722.asm
                    TRISF   0x000f97       data     extern C:\MCC18\v3_39\src\traditional\proc\p18F8722.asm
                TRISFbits   0x000f97       data     extern C:\MCC18\v3_39\src\traditional\proc\p18F8722.asm
                     DDRF   0x000f97       data     extern C:\MCC18\v3_39\src\traditional\proc\p18F8722.asm
                 DDRFbits   0x000f97       data     extern C:\MCC18\v3_39\src\traditional\proc\p18F8722.asm
                TRISGbits   0x000f98       data     extern C:\MCC18\v3_39\src\traditional\proc\p18F8722.asm
                     DDRG   0x000f98       data     extern C:\MCC18\v3_39\src\traditional\proc\p18F8722.asm
                 DDRGbits   0x000f98       data     extern C:\MCC18\v3_39\src\traditional\proc\p18F8722.asm
                    TRISG   0x000f98       data     extern C:\MCC18\v3_39\src\traditional\proc\p18F8722.asm
                     DDRH   0x000f99       data     extern C:\MCC18\v3_39\src\traditional\proc\p18F8722.asm
                 DDRHbits   0x000f99       data     extern C:\MCC18\v3_39\src\traditional\proc\p18F8722.asm
                    TRISH   0x000f99       data     extern C:\MCC18\v3_39\src\traditional\proc\p18F8722.asm
                TRISHbits   0x000f99       data     extern C:\MCC18\v3_39\src\traditional\proc\p18F8722.asm
                     DDRJ   0x000f9a       data     extern C:\MCC18\v3_39\src\traditional\proc\p18F8722.asm
                 DDRJbits   0x000f9a       data     extern C:\MCC18\v3_39\src\traditional\proc\p18F8722.asm
                    TRISJ   0x000f9a       data     extern C:\MCC18\v3_39\src\traditional\proc\p18F8722.asm
                TRISJbits   0x000f9a       data     extern C:\MCC18\v3_39\src\traditional\proc\p18F8722.asm
              OSCTUNEbits   0x000f9b       data     extern C:\MCC18\v3_39\src\traditional\proc\p18F8722.asm
                  OSCTUNE   0x000f9b       data     extern C:\MCC18\v3_39\src\traditional\proc\p18F8722.asm
               MEMCONbits   0x000f9c       data     extern C:\MCC18\v3_39\src\traditional\proc\p18F8722.asm
                   MEMCON   0x000f9c       data     extern C:\MCC18\v3_39\src\traditional\proc\p18F8722.asm
                     PIE1   0x000f9d       data     extern C:\MCC18\v3_39\src\traditional\proc\p18F8722.asm
                 PIE1bits   0x000f9d       data     extern C:\MCC18\v3_39\src\traditional\proc\p18F8722.asm
                     PIR1   0x000f9e       data     extern C:\MCC18\v3_39\src\traditional\proc\p18F8722.asm
                 PIR1bits   0x000f9e       data     extern C:\MCC18\v3_39\src\traditional\proc\p18F8722.asm
                 IPR1bits   0x000f9f       data     extern C:\MCC18\v3_39\src\traditional\proc\p18F8722.asm
                     IPR1   0x000f9f       data     extern C:\MCC18\v3_39\src\traditional\proc\p18F8722.asm
                 PIE2bits   0x000fa0       data     extern C:\MCC18\v3_39\src\traditional\proc\p18F8722.asm
                     PIE2   0x000fa0       data     extern C:\MCC18\v3_39\src\traditional\proc\p18F8722.asm
                     PIR2   0x000fa1       data     extern C:\MCC18\v3_39\src\traditional\proc\p18F8722.asm
                 PIR2bits   0x000fa1       data     extern C:\MCC18\v3_39\src\traditional\proc\p18F8722.asm
                 IPR2bits   0x000fa2       data     extern C:\MCC18\v3_39\src\traditional\proc\p18F8722.asm
                     IPR2   0x000fa2       data     extern C:\MCC18\v3_39\src\traditional\proc\p18F8722.asm
                 PIE3bits   0x000fa3       data     extern C:\MCC18\v3_39\src\traditional\proc\p18F8722.asm
                     PIE3   0x000fa3       data     extern C:\MCC18\v3_39\src\traditional\proc\p18F8722.asm
                     PIR3   0x000fa4       data     extern C:\MCC18\v3_39\src\traditional\proc\p18F8722.asm
                 PIR3bits   0x000fa4       data     extern C:\MCC18\v3_39\src\traditional\proc\p18F8722.asm
                 IPR3bits   0x000fa5       data     extern C:\MCC18\v3_39\src\traditional\proc\p18F8722.asm
                     IPR3   0x000fa5       data     extern C:\MCC18\v3_39\src\traditional\proc\p18F8722.asm
               EECON1bits   0x000fa6       data     extern C:\MCC18\v3_39\src\traditional\proc\p18F8722.asm
                   EECON1   0x000fa6       data     extern C:\MCC18\v3_39\src\traditional\proc\p18F8722.asm
                   EECON2   0x000fa7       data     extern C:\MCC18\v3_39\src\traditional\proc\p18F8722.asm
                   EEDATA   0x000fa8       data     extern C:\MCC18\v3_39\src\traditional\proc\p18F8722.asm
                    EEADR   0x000fa9       data     extern C:\MCC18\v3_39\src\traditional\proc\p18F8722.asm
                   EEADRH   0x000faa       data     extern C:\MCC18\v3_39\src\traditional\proc\p18F8722.asm
               RCSTA1bits   0x000fab       data     extern C:\MCC18\v3_39\src\traditional\proc\p18F8722.asm
                RCSTAbits   0x000fab       data     extern C:\MCC18\v3_39\src\traditional\proc\p18F8722.asm
                   RCSTA1   0x000fab       data     extern C:\MCC18\v3_39\src\traditional\proc\p18F8722.asm
                    RCSTA   0x000fab       data     extern C:\MCC18\v3_39\src\traditional\proc\p18F8722.asm
                TXSTAbits   0x000fac       data     extern C:\MCC18\v3_39\src\traditional\proc\p18F8722.asm
               TXSTA1bits   0x000fac       data     extern C:\MCC18\v3_39\src\traditional\proc\p18F8722.asm
                   TXSTA1   0x000fac       data     extern C:\MCC18\v3_39\src\traditional\proc\p18F8722.asm
                    TXSTA   0x000fac       data     extern C:\MCC18\v3_39\src\traditional\proc\p18F8722.asm
                    TXREG   0x000fad       data     extern C:\MCC18\v3_39\src\traditional\proc\p18F8722.asm
                   TXREG1   0x000fad       data     extern C:\MCC18\v3_39\src\traditional\proc\p18F8722.asm
                    RCREG   0x000fae       data     extern C:\MCC18\v3_39\src\traditional\proc\p18F8722.asm
                   RCREG1   0x000fae       data     extern C:\MCC18\v3_39\src\traditional\proc\p18F8722.asm
                   SPBRG1   0x000faf       data     extern C:\MCC18\v3_39\src\traditional\proc\p18F8722.asm
                    SPBRG   0x000faf       data     extern C:\MCC18\v3_39\src\traditional\proc\p18F8722.asm
                   PSPCON   0x000fb0       data     extern C:\MCC18\v3_39\src\traditional\proc\p18F8722.asm
               PSPCONbits   0x000fb0       data     extern C:\MCC18\v3_39\src\traditional\proc\p18F8722.asm
                T3CONbits   0x000fb1       data     extern C:\MCC18\v3_39\src\traditional\proc\p18F8722.asm
                    T3CON   0x000fb1       data     extern C:\MCC18\v3_39\src\traditional\proc\p18F8722.asm
                    TMR3L   0x000fb2       data     extern C:\MCC18\v3_39\src\traditional\proc\p18F8722.asm
                    TMR3H   0x000fb3       data     extern C:\MCC18\v3_39\src\traditional\proc\p18F8722.asm
                CMCONbits   0x000fb4       data     extern C:\MCC18\v3_39\src\traditional\proc\p18F8722.asm
                    CMCON   0x000fb4       data     extern C:\MCC18\v3_39\src\traditional\proc\p18F8722.asm
                   CVRCON   0x000fb5       data     extern C:\MCC18\v3_39\src\traditional\proc\p18F8722.asm
               CVRCONbits   0x000fb5       data     extern C:\MCC18\v3_39\src\traditional\proc\p18F8722.asm
                  ECCP1AS   0x000fb6       data     extern C:\MCC18\v3_39\src\traditional\proc\p18F8722.asm
              ECCP1ASbits   0x000fb6       data     extern C:\MCC18\v3_39\src\traditional\proc\p18F8722.asm
                 ECCP3CON   0x000fb7       data     extern C:\MCC18\v3_39\src\traditional\proc\p18F8722.asm
             ECCP3CONbits   0x000fb7       data     extern C:\MCC18\v3_39\src\traditional\proc\p18F8722.asm
              CCP3CONbits   0x000fb7       data     extern C:\MCC18\v3_39\src\traditional\proc\p18F8722.asm
                  CCP3CON   0x000fb7       data     extern C:\MCC18\v3_39\src\traditional\proc\p18F8722.asm
                    CCPR3   0x000fb8       data     extern C:\MCC18\v3_39\src\traditional\proc\p18F8722.asm
                   CCPR3L   0x000fb8       data     extern C:\MCC18\v3_39\src\traditional\proc\p18F8722.asm
                   CCPR3H   0x000fb9       data     extern C:\MCC18\v3_39\src\traditional\proc\p18F8722.asm
              CCP2CONbits   0x000fba       data     extern C:\MCC18\v3_39\src\traditional\proc\p18F8722.asm
                  CCP2CON   0x000fba       data     extern C:\MCC18\v3_39\src\traditional\proc\p18F8722.asm
                 ECCP2CON   0x000fba       data     extern C:\MCC18\v3_39\src\traditional\proc\p18F8722.asm
             ECCP2CONbits   0x000fba       data     extern C:\MCC18\v3_39\src\traditional\proc\p18F8722.asm
                    CCPR2   0x000fbb       data     extern C:\MCC18\v3_39\src\traditional\proc\p18F8722.asm
                   CCPR2L   0x000fbb       data     extern C:\MCC18\v3_39\src\traditional\proc\p18F8722.asm
                   CCPR2H   0x000fbc       data     extern C:\MCC18\v3_39\src\traditional\proc\p18F8722.asm
              CCP1CONbits   0x000fbd       data     extern C:\MCC18\v3_39\src\traditional\proc\p18F8722.asm
                  CCP1CON   0x000fbd       data     extern C:\MCC18\v3_39\src\traditional\proc\p18F8722.asm
             ECCP1CONbits   0x000fbd       data     extern C:\MCC18\v3_39\src\traditional\proc\p18F8722.asm
                 ECCP1CON   0x000fbd       data     extern C:\MCC18\v3_39\src\traditional\proc\p18F8722.asm
                   CCPR1L   0x000fbe       data     extern C:\MCC18\v3_39\src\traditional\proc\p18F8722.asm
                    CCPR1   0x000fbe       data     extern C:\MCC18\v3_39\src\traditional\proc\p18F8722.asm
                   CCPR1H   0x000fbf       data     extern C:\MCC18\v3_39\src\traditional\proc\p18F8722.asm
               ADCON2bits   0x000fc0       data     extern C:\MCC18\v3_39\src\traditional\proc\p18F8722.asm
                   ADCON2   0x000fc0       data     extern C:\MCC18\v3_39\src\traditional\proc\p18F8722.asm
                   ADCON1   0x000fc1       data     extern C:\MCC18\v3_39\src\traditional\proc\p18F8722.asm
               ADCON1bits   0x000fc1       data     extern C:\MCC18\v3_39\src\traditional\proc\p18F8722.asm
                   ADCON0   0x000fc2       data     extern C:\MCC18\v3_39\src\traditional\proc\p18F8722.asm
               ADCON0bits   0x000fc2       data     extern C:\MCC18\v3_39\src\traditional\proc\p18F8722.asm
                    ADRES   0x000fc3       data     extern C:\MCC18\v3_39\src\traditional\proc\p18F8722.asm
                   ADRESL   0x000fc3       data     extern C:\MCC18\v3_39\src\traditional\proc\p18F8722.asm
                   ADRESH   0x000fc4       data     extern C:\MCC18\v3_39\src\traditional\proc\p18F8722.asm
                 SSP1CON2   0x000fc5       data     extern C:\MCC18\v3_39\src\traditional\proc\p18F8722.asm
             SSP1CON2bits   0x000fc5       data     extern C:\MCC18\v3_39\src\traditional\proc\p18F8722.asm
                  SSPCON2   0x000fc5       data     extern C:\MCC18\v3_39\src\traditional\proc\p18F8722.asm
              SSPCON2bits   0x000fc5       data     extern C:\MCC18\v3_39\src\traditional\proc\p18F8722.asm
                 SSP1CON1   0x000fc6       data     extern C:\MCC18\v3_39\src\traditional\proc\p18F8722.asm
             SSP1CON1bits   0x000fc6       data     extern C:\MCC18\v3_39\src\traditional\proc\p18F8722.asm
                  SSPCON1   0x000fc6       data     extern C:\MCC18\v3_39\src\traditional\proc\p18F8722.asm
              SSPCON1bits   0x000fc6       data     extern C:\MCC18\v3_39\src\traditional\proc\p18F8722.asm
                 SSP1STAT   0x000fc7       data     extern C:\MCC18\v3_39\src\traditional\proc\p18F8722.asm
             SSP1STATbits   0x000fc7       data     extern C:\MCC18\v3_39\src\traditional\proc\p18F8722.asm
                  SSPSTAT   0x000fc7       data     extern C:\MCC18\v3_39\src\traditional\proc\p18F8722.asm
              SSPSTATbits   0x000fc7       data     extern C:\MCC18\v3_39\src\traditional\proc\p18F8722.asm
                   SSPADD   0x000fc8       data     extern C:\MCC18\v3_39\src\traditional\proc\p18F8722.asm
                  SSP1ADD   0x000fc8       data     extern C:\MCC18\v3_39\src\traditional\proc\p18F8722.asm
                   SSPBUF   0x000fc9       data     extern C:\MCC18\v3_39\src\traditional\proc\p18F8722.asm
                  SSP1BUF   0x000fc9       data     extern C:\MCC18\v3_39\src\traditional\proc\p18F8722.asm
                T2CONbits   0x000fca       data     extern C:\MCC18\v3_39\src\traditional\proc\p18F8722.asm
                    T2CON   0x000fca       data     extern C:\MCC18\v3_39\src\traditional\proc\p18F8722.asm
                      PR2   0x000fcb       data     extern C:\MCC18\v3_39\src\traditional\proc\p18F8722.asm
                     TMR2   0x000fcc       data     extern C:\MCC18\v3_39\src\traditional\proc\p18F8722.asm
                    T1CON   0x000fcd       data     extern C:\MCC18\v3_39\src\traditional\proc\p18F8722.asm
                T1CONbits   0x000fcd       data     extern C:\MCC18\v3_39\src\traditional\proc\p18F8722.asm
                    TMR1L   0x000fce       data     extern C:\MCC18\v3_39\src\traditional\proc\p18F8722.asm
                    TMR1H   0x000fcf       data     extern C:\MCC18\v3_39\src\traditional\proc\p18F8722.asm
                 RCONbits   0x000fd0       data     extern C:\MCC18\v3_39\src\traditional\proc\p18F8722.asm
                     RCON   0x000fd0       data     extern C:\MCC18\v3_39\src\traditional\proc\p18F8722.asm
               WDTCONbits   0x000fd1       data     extern C:\MCC18\v3_39\src\traditional\proc\p18F8722.asm
                   WDTCON   0x000fd1       data     extern C:\MCC18\v3_39\src\traditional\proc\p18F8722.asm
                  HLVDCON   0x000fd2       data     extern C:\MCC18\v3_39\src\traditional\proc\p18F8722.asm
              HLVDCONbits   0x000fd2       data     extern C:\MCC18\v3_39\src\traditional\proc\p18F8722.asm
                   LVDCON   0x000fd2       data     extern C:\MCC18\v3_39\src\traditional\proc\p18F8722.asm
               LVDCONbits   0x000fd2       data     extern C:\MCC18\v3_39\src\traditional\proc\p18F8722.asm
                   OSCCON   0x000fd3       data     extern C:\MCC18\v3_39\src\traditional\proc\p18F8722.asm
               OSCCONbits   0x000fd3       data     extern C:\MCC18\v3_39\src\traditional\proc\p18F8722.asm
                    T0CON   0x000fd5       data     extern C:\MCC18\v3_39\src\traditional\proc\p18F8722.asm
                T0CONbits   0x000fd5       data     extern C:\MCC18\v3_39\src\traditional\proc\p18F8722.asm
                    TMR0L   0x000fd6       data     extern C:\MCC18\v3_39\src\traditional\proc\p18F8722.asm
                    TMR0H   0x000fd7       data     extern C:\MCC18\v3_39\src\traditional\proc\p18F8722.asm
                   STATUS   0x000fd8       data     extern C:\MCC18\v3_39\src\traditional\proc\p18F8722.asm
               STATUSbits   0x000fd8       data     extern C:\MCC18\v3_39\src\traditional\proc\p18F8722.asm
                    FSR2L   0x000fd9       data     extern C:\MCC18\v3_39\src\traditional\proc\p18F8722.asm
                     FSR2   0x000fd9       data     extern C:\MCC18\v3_39\src\traditional\proc\p18F8722.asm
                    FSR2H   0x000fda       data     extern C:\MCC18\v3_39\src\traditional\proc\p18F8722.asm
                   PLUSW2   0x000fdb       data     extern C:\MCC18\v3_39\src\traditional\proc\p18F8722.asm
                  PREINC2   0x000fdc       data     extern C:\MCC18\v3_39\src\traditional\proc\p18F8722.asm
                 POSTDEC2   0x000fdd       data     extern C:\MCC18\v3_39\src\traditional\proc\p18F8722.asm
                 POSTINC2   0x000fde       data     extern C:\MCC18\v3_39\src\traditional\proc\p18F8722.asm
                    INDF2   0x000fdf       data     extern C:\MCC18\v3_39\src\traditional\proc\p18F8722.asm
                      BSR   0x000fe0       data     extern C:\MCC18\v3_39\src\traditional\proc\p18F8722.asm
                    FSR1L   0x000fe1       data     extern C:\MCC18\v3_39\src\traditional\proc\p18F8722.asm
                     FSR1   0x000fe1       data     extern C:\MCC18\v3_39\src\traditional\proc\p18F8722.asm
                    FSR1H   0x000fe2       data     extern C:\MCC18\v3_39\src\traditional\proc\p18F8722.asm
                   PLUSW1   0x000fe3       data     extern C:\MCC18\v3_39\src\traditional\proc\p18F8722.asm
                  PREINC1   0x000fe4       data     extern C:\MCC18\v3_39\src\traditional\proc\p18F8722.asm
                 POSTDEC1   0x000fe5       data     extern C:\MCC18\v3_39\src\traditional\proc\p18F8722.asm
                 POSTINC1   0x000fe6       data     extern C:\MCC18\v3_39\src\traditional\proc\p18F8722.asm
                    INDF1   0x000fe7       data     extern C:\MCC18\v3_39\src\traditional\proc\p18F8722.asm
                     WREG   0x000fe8       data     extern C:\MCC18\v3_39\src\traditional\proc\p18F8722.asm
                     FSR0   0x000fe9       data     extern C:\MCC18\v3_39\src\traditional\proc\p18F8722.asm
                    FSR0L   0x000fe9       data     extern C:\MCC18\v3_39\src\traditional\proc\p18F8722.asm
                    FSR0H   0x000fea       data     extern C:\MCC18\v3_39\src\traditional\proc\p18F8722.asm
                   PLUSW0   0x000feb       data     extern C:\MCC18\v3_39\src\traditional\proc\p18F8722.asm
                  PREINC0   0x000fec       data     extern C:\MCC18\v3_39\src\traditional\proc\p18F8722.asm
                 POSTDEC0   0x000fed       data     extern C:\MCC18\v3_39\src\traditional\proc\p18F8722.asm
                 POSTINC0   0x000fee       data     extern C:\MCC18\v3_39\src\traditional\proc\p18F8722.asm
                    INDF0   0x000fef       data     extern C:\MCC18\v3_39\src\traditional\proc\p18F8722.asm
                  INTCON3   0x000ff0       data     extern C:\MCC18\v3_39\src\traditional\proc\p18F8722.asm
              INTCON3bits   0x000ff0       data     extern C:\MCC18\v3_39\src\traditional\proc\p18F8722.asm
              INTCON2bits   0x000ff1       data     extern C:\MCC18\v3_39\src\traditional\proc\p18F8722.asm
                  INTCON2   0x000ff1       data     extern C:\MCC18\v3_39\src\traditional\proc\p18F8722.asm
                   INTCON   0x000ff2       data     extern C:\MCC18\v3_39\src\traditional\proc\p18F8722.asm
               INTCONbits   0x000ff2       data     extern C:\MCC18\v3_39\src\traditional\proc\p18F8722.asm
                     PROD   0x000ff3       data     extern C:\MCC18\v3_39\src\traditional\proc\p18F8722.asm
                    PRODL   0x000ff3       data     extern C:\MCC18\v3_39\src\traditional\proc\p18F8722.asm
                    PRODH   0x000ff4       data     extern C:\MCC18\v3_39\src\traditional\proc\p18F8722.asm
                   TABLAT   0x000ff5       data     extern C:\MCC18\v3_39\src\traditional\proc\p18F8722.asm
                   TBLPTR   0x000ff6       data     extern C:\MCC18\v3_39\src\traditional\proc\p18F8722.asm
                  TBLPTRL   0x000ff6       data     extern C:\MCC18\v3_39\src\traditional\proc\p18F8722.asm
                  TBLPTRH   0x000ff7       data     extern C:\MCC18\v3_39\src\traditional\proc\p18F8722.asm
                  TBLPTRU   0x000ff8       data     extern C:\MCC18\v3_39\src\traditional\proc\p18F8722.asm
                       PC   0x000ff9       data     extern C:\MCC18\v3_39\src\traditional\proc\p18F8722.asm
                      PCL   0x000ff9       data     extern C:\MCC18\v3_39\src\traditional\proc\p18F8722.asm
                   PCLATH   0x000ffa       data     extern C:\MCC18\v3_39\src\traditional\proc\p18F8722.asm
                   PCLATU   0x000ffb       data     extern C:\MCC18\v3_39\src\traditional\proc\p18F8722.asm
                   STKPTR   0x000ffc       data     extern C:\MCC18\v3_39\src\traditional\proc\p18F8722.asm
               STKPTRbits   0x000ffc       data     extern C:\MCC18\v3_39\src\traditional\proc\p18F8722.asm
                      TOS   0x000ffd       data     extern C:\MCC18\v3_39\src\traditional\proc\p18F8722.asm
                     TOSL   0x000ffd       data     extern C:\MCC18\v3_39\src\traditional\proc\p18F8722.asm
                     TOSH   0x000ffe       data     extern C:\MCC18\v3_39\src\traditional\proc\p18F8722.asm
                     TOSU   0x000fff       data     extern C:\MCC18\v3_39\src\traditional\proc\p18F8722.asm


