MPLINK 4.40, Linker
Linker Map File - Created Mon Nov 17 17:45:29 2014

                                 Section Info
                  Section       Type    Address   Location Size(Bytes)
                ---------  ---------  ---------  ---------  ---------
               _entry_scn       code   0x000000    program   0x000006
       .code__user_putc.o       code   0x000006    program   0x000002
           tick_interrupt       code   0x000008    program   0x000006
          .code_adcbusy.o       code   0x00000e    program   0x00000a
           work_interrupt       code   0x000018    program   0x000006
                   .cinit    romdata   0x00001e    program   0x000056
        .code_mandm8722.o       code   0x000074    program   0x006610
              .code_daq.o       code   0x006684    program   0x001e0c
             .stringtable    romdata   0x008490    program   0x0016c0
     .romdata_mandm8722.o    romdata   0x009b50    program   0x0014c8
     .code_mandm_vector.o       code   0x00b018    program   0x000dbc
                     PROG       code   0x00bdd4    program   0x000ace
         .code_vfprintf.o       code   0x00c8a2    program   0x000816
           .code_config.o       code   0x00d0b8    program   0x0004b4
            .code_power.o       code   0x00d56c    program   0x000476
             .code_crit.o       code   0x00d9e2    program   0x0001c0
                   STRING       code   0x00dba2    program   0x000192
           .code_hwconf.o       code   0x00dd34    program   0x000186
               _cinit_scn       code   0x00deba    program   0x00009e
         .code_openxlcd.o       code   0x00df58    program   0x00009a
           .code_u2open.o       code   0x00dff2    program   0x000084
           .code_u1open.o       code   0x00e076    program   0x00007a
          .code_sprintf.o       code   0x00e0f0    program   0x000072
             .code_putc.o       code   0x00e162    program   0x000066
          .code_adcopen.o       code   0x00e1c8    program   0x000064
          .code_u2putrs.o       code   0x00e22c    program   0x00005c
          .code_write_B.o       code   0x00e288    program   0x00004e
         .code_putrxlcd.o       code   0x00e2d6    program   0x00004e
           .code_u2puts.o       code   0x00e324    program   0x000046
         .code_setddram.o       code   0x00e36a    program   0x000046
         .code_setcgram.o       code   0x00e3b0    program   0x000046
         .code_writdata.o       code   0x00e3f6    program   0x000044
         .code_wcmdxlcd.o       code   0x00e43a    program   0x000044
         .code_readdata.o       code   0x00e47e    program   0x000044
         .code_readaddr.o       code   0x00e4c2    program   0x000044
           .code_read_B.o       code   0x00e506    program   0x000042
                   STDLIB       code   0x00e548    program   0x000040
           .code_t3open.o       code   0x00e588    program   0x000040
         .code_putsxlcd.o       code   0x00e5c8    program   0x000040
           .code_u2read.o       code   0x00e608    program   0x00003e
           .code_u1read.o       code   0x00e646    program   0x00003e
             D10KTCYXCODE       code   0x00e684    program   0x000036
           .code_t0open.o       code   0x00e6ba    program   0x000036
           .code_t4open.o       code   0x00e6f0    program   0x000034
          .code_t3write.o       code   0x00e724    program   0x000030
          .code_t0write.o       code   0x00e754    program   0x000030
         .code_adcsetch.o       code   0x00e784    program   0x000030
          .code_u2write.o       code   0x00e7b4    program   0x00002e
         .code_busyxlcd.o       code   0x00e7e2    program   0x00002c
                    CTYPE       code   0x00e80e    program   0x000024
                    .code       code   0x00e832    program   0x000020
                    STDIO       code   0x00e852    program   0x00001c
             _startup_scn       code   0x00e86e    program   0x00001a
          .code_adcread.o       code   0x00e888    program   0x000018
              D10TCYXCODE       code   0x00e8a0    program   0x000016
      .romdata_vfprintf.o    romdata   0x00e8b6    program   0x000011
        .romdata___init.o    romdata   0x00e8c7    program   0x000000
        .idata_t4open.o_i    romdata   0x00e8c7    program   0x000000
        .idata_u2open.o_i    romdata   0x00e8c7    program   0x000000
        .romdata_u2open.o    romdata   0x00e8c7    program   0x000000
        .idata_u2puts.o_i    romdata   0x00e8c7    program   0x000000
        .romdata_t3open.o    romdata   0x00e8c7    program   0x000000
       .romdata_adcopen.o    romdata   0x00e8c7    program   0x000000
        .idata_t3open.o_i    romdata   0x00e8c7    program   0x000000
        .idata_t0open.o_i    romdata   0x00e8c7    program   0x000000
       .romdata_write_B.o    romdata   0x00e8c7    program   0x000000
        .romdata_t0open.o    romdata   0x00e8c7    program   0x000000
       .romdata_u2write.o    romdata   0x00e8c7    program   0x000000
       .idata_t0write.o_i    romdata   0x00e8c7    program   0x000000
       .idata_u2write.o_i    romdata   0x00e8c7    program   0x000000
       .romdata_t0write.o    romdata   0x00e8c7    program   0x000000
       .idata_t3write.o_i    romdata   0x00e8c7    program   0x000000
        .romdata_u2defs.o    romdata   0x00e8c7    program   0x000000
        .idata_u2defs.o_i    romdata   0x00e8c7    program   0x000000
       .romdata_t3write.o    romdata   0x00e8c7    program   0x000000
       .idata_u2putrs.o_i    romdata   0x00e8c7    program   0x000000
        .romdata_u1defs.o    romdata   0x00e8c7    program   0x000000
        .idata_u1defs.o_i    romdata   0x00e8c7    program   0x000000
      .romdata_adcsetch.o    romdata   0x00e8c7    program   0x000000
       .romdata_u2putrs.o    romdata   0x00e8c7    program   0x000000
        .romdata_read_B.o    romdata   0x00e8c7    program   0x000000
       .idata_write_B.o_i    romdata   0x00e8c7    program   0x000000
        .idata_read_B.o_i    romdata   0x00e8c7    program   0x000000
       .romdata_adcread.o    romdata   0x00e8c7    program   0x000000
        .romdata_u2read.o    romdata   0x00e8c7    program   0x000000
        .idata_u2read.o_i    romdata   0x00e8c7    program   0x000000
        .romdata_u1read.o    romdata   0x00e8c7    program   0x000000
        .idata_u1read.o_i    romdata   0x00e8c7    program   0x000000
        .romdata_t4open.o    romdata   0x00e8c7    program   0x000000
      .romdata_putsxlcd.o    romdata   0x00e8c7    program   0x000000
      .idata_putsxlcd.o_i    romdata   0x00e8c7    program   0x000000
      .romdata_putrxlcd.o    romdata   0x00e8c7    program   0x000000
      .idata_putrxlcd.o_i    romdata   0x00e8c7    program   0x000000
      .romdata_openxlcd.o    romdata   0x00e8c7    program   0x000000
      .idata_openxlcd.o_i    romdata   0x00e8c7    program   0x000000
      .romdata_writdata.o    romdata   0x00e8c7    program   0x000000
      .idata_writdata.o_i    romdata   0x00e8c7    program   0x000000
  .romdata_mandm_vector.o    romdata   0x00e8c7    program   0x000000
      .idata_vfprintf.o_i    romdata   0x00e8c7    program   0x000000
          .idata_putc.o_i    romdata   0x00e8c7    program   0x000000
          .romdata_putc.o    romdata   0x00e8c7    program   0x000000
           .romdata_daq.o    romdata   0x00e8c7    program   0x000000
         .romdata_power.o    romdata   0x00e8c7    program   0x000000
         .idata_power.o_i    romdata   0x00e8c7    program   0x000000
    .romdata__user_putc.o    romdata   0x00e8c7    program   0x000000
         .romdata_model.o    romdata   0x00e8c7    program   0x000000
         .idata_model.o_i    romdata   0x00e8c7    program   0x000000
        .romdata_hwconf.o    romdata   0x00e8c7    program   0x000000
        .idata_hwconf.o_i    romdata   0x00e8c7    program   0x000000
          .romdata_crit.o    romdata   0x00e8c7    program   0x000000
       .romdata_c018i_e.o    romdata   0x00e8c7    program   0x000000
        .romdata_u1open.o    romdata   0x00e8c7    program   0x000000
        .idata_u1open.o_i    romdata   0x00e8c7    program   0x000000
       .romdata_adcconv.o    romdata   0x00e8c7    program   0x000000
        .romdata_u2puts.o    romdata   0x00e8c7    program   0x000000
      .romdata_busy_eep.o    romdata   0x00e8c7    program   0x000000
       .romdata_adcbusy.o    romdata   0x00e8c7    program   0x000000
       .idata_sprintf.o_i    romdata   0x00e8c7    program   0x000000
        .romdata_config.o    romdata   0x00e8c7    program   0x000000
        .idata_config.o_i    romdata   0x00e8c7    program   0x000001
      .romdata_busyxlcd.o    romdata   0x00e8c7    program   0x000000
       .romdata_sprintf.o    romdata   0x00e8c7    program   0x000000
      .idata_readaddr.o_i    romdata   0x00e8c7    program   0x000000
      .romdata_readaddr.o    romdata   0x00e8c7    program   0x000000
      .idata_readdata.o_i    romdata   0x00e8c7    program   0x000000
      .romdata_readdata.o    romdata   0x00e8c7    program   0x000000
      .idata_setcgram.o_i    romdata   0x00e8c7    program   0x000000
      .romdata_setcgram.o    romdata   0x00e8c7    program   0x000000
      .idata_setddram.o_i    romdata   0x00e8c7    program   0x000000
      .romdata_setddram.o    romdata   0x00e8c7    program   0x000000
      .idata_wcmdxlcd.o_i    romdata   0x00e8c7    program   0x000000
      .romdata_wcmdxlcd.o    romdata   0x00e8c7    program   0x000000
         .code_busy_eep.o       code   0x00e8c8    program   0x000006
          .code_adcconv.o       code   0x00e8ce    program   0x000004
           .code___init.o       code   0x00e8d2    program   0x000002
                  gpr10_i    romdata   0x00e8d4    program   0x000033
              SEED_DATA_i    romdata   0x00e907    program   0x000002
  .idata_mandm_vector.o_i    romdata   0x00e909    program   0x000012
     .idata_mandm8722.o_i    romdata   0x00e91b    program   0x000099
           .idata_daq.o_i    romdata   0x00e9b4    program   0x000004
          .idata_crit.o_i    romdata   0x00e9b8    program   0x000002
    .idata__user_putc.o_i    romdata   0x00e9ba    program   0x000000
       .idata_c018i_e.o_i    romdata   0x00e9ba    program   0x000000
          .code_c018i_e.o       code   0x00e9ba    program   0x000000
            .code_model.o       code   0x00e9ba    program   0x000000
      .idata_busyxlcd.o_i    romdata   0x00e9ba    program   0x000000
       .idata_adcbusy.o_i    romdata   0x00e9ba    program   0x000000
      .idata_busy_eep.o_i    romdata   0x00e9ba    program   0x000000
        .idata___init.o_i    romdata   0x00e9ba    program   0x000000
           .code_u2defs.o       code   0x00e9ba    program   0x000000
           .code_u1defs.o       code   0x00e9ba    program   0x000000
      .idata_adcsetch.o_i    romdata   0x00e9ba    program   0x000000
       .idata_adcread.o_i    romdata   0x00e9ba    program   0x000000
       .idata_adcopen.o_i    romdata   0x00e9ba    program   0x000000
       .idata_adcconv.o_i    romdata   0x00e9ba    program   0x000000
.config_300001_mandm8722.o    romdata   0x300001    program   0x000001
.config_300002_mandm8722.o    romdata   0x300002    program   0x000001
.config_300003_mandm8722.o    romdata   0x300003    program   0x000001
.config_300004_mandm8722.o    romdata   0x300004    program   0x000001
.config_300005_mandm8722.o    romdata   0x300005    program   0x000001
.config_300006_mandm8722.o    romdata   0x300006    program   0x000001
.config_300008_mandm8722.o    romdata   0x300008    program   0x000001
.config_300009_mandm8722.o    romdata   0x300009    program   0x000001
.config_30000a_mandm8722.o    romdata   0x30000a    program   0x000001
.config_30000b_mandm8722.o    romdata   0x30000b    program   0x000001
.config_30000c_mandm8722.o    romdata   0x30000c    program   0x000001
.config_30000d_mandm8722.o    romdata   0x30000d    program   0x000001
                 .tmpdata      udata   0x000000       data   0x000018
             .udata_daq.o      udata   0x000018       data   0x000011
       .idata_mandm8722.o      idata   0x000060       data   0x000099
    .udata_mandm_vector.o      udata   0x0000f9       data   0x000006
                     gpr4      udata   0x0000ff       data   0x000001
                     gpr2      udata   0x000100       data   0x0000fc
         tick_handler_tmp      udata   0x0001fc       data   0x000004
                    gpr13      udata   0x000200       data   0x0000fb
             .idata_daq.o      idata   0x0002fb       data   0x000004
                DELAYDAT2      udata   0x0002ff       data   0x000001
                     gpr1      udata   0x000300       data   0x0000ea
    .idata_mandm_vector.o      idata   0x0003ea       data   0x000012
                MATH_DATA      udata   0x0003fc       data   0x000004
                     gpr9      udata   0x000400       data   0x0000d6
                     gpr3      udata   0x0004d6       data   0x00001c
                SEED_DATA      idata   0x0004f2       data   0x000002
            .idata_crit.o      idata   0x0004f4       data   0x000002
          .udata_u1defs.o      udata   0x0004f6       data   0x000001
          .udata_hwconf.o      udata   0x0004f7       data   0x000001
          .udata_config.o      udata   0x0004f8       data   0x000001
          .idata_config.o      idata   0x0004f9       data   0x000001
          .idata_u2open.o      idata   0x0004fa       data   0x000000
        .idata_adcsetch.o      idata   0x0004fa       data   0x000000
        .udata_adcsetch.o      udata   0x0004fa       data   0x000000
          .idata_read_B.o      idata   0x0004fa       data   0x000000
          .udata_read_B.o      udata   0x0004fa       data   0x000000
         .idata_adcread.o      idata   0x0004fa       data   0x000000
         .udata_adcread.o      udata   0x0004fa       data   0x000000
          .idata_u2read.o      idata   0x0004fa       data   0x000000
          .udata_u2read.o      udata   0x0004fa       data   0x000000
         .udata_adcopen.o      udata   0x0004fa       data   0x000000
         .idata_adcopen.o      idata   0x0004fa       data   0x000000
          .udata_t0open.o      udata   0x0004fa       data   0x000000
          .idata_t0open.o      idata   0x0004fa       data   0x000000
          .idata_u1read.o      idata   0x0004fa       data   0x000000
          .udata_u1read.o      udata   0x0004fa       data   0x000000
          .idata_t4open.o      idata   0x0004fa       data   0x000000
          .udata_t4open.o      udata   0x0004fa       data   0x000000
          .udata_t3open.o      udata   0x0004fa       data   0x000000
          .idata_t3open.o      idata   0x0004fa       data   0x000000
      .idata__user_putc.o      idata   0x0004fa       data   0x000000
      .udata__user_putc.o      udata   0x0004fa       data   0x000000
            .idata_putc.o      idata   0x0004fa       data   0x000000
            .udata_putc.o      udata   0x0004fa       data   0x000000
        .idata_vfprintf.o      idata   0x0004fa       data   0x000000
        .udata_vfprintf.o      udata   0x0004fa       data   0x000000
         .idata_sprintf.o      idata   0x0004fa       data   0x000000
         .udata_sprintf.o      udata   0x0004fa       data   0x000000
          .idata_u2puts.o      idata   0x0004fa       data   0x000000
          .udata_u2puts.o      udata   0x0004fa       data   0x000000
         .idata_u2putrs.o      idata   0x0004fa       data   0x000000
         .udata_u2putrs.o      udata   0x0004fa       data   0x000000
          .idata___init.o      idata   0x0004fa       data   0x000000
          .udata___init.o      udata   0x0004fa       data   0x000000
         .idata_write_B.o      idata   0x0004fa       data   0x000000
         .udata_write_B.o      udata   0x0004fa       data   0x000000
         .idata_t3write.o      idata   0x0004fa       data   0x000000
         .udata_t3write.o      udata   0x0004fa       data   0x000000
         .idata_t0write.o      idata   0x0004fa       data   0x000000
         .udata_t0write.o      udata   0x0004fa       data   0x000000
         .idata_u2write.o      idata   0x0004fa       data   0x000000
         .udata_u2write.o      udata   0x0004fa       data   0x000000
          .idata_u2defs.o      idata   0x0004fa       data   0x000000
          .idata_u1defs.o      idata   0x0004fa       data   0x000000
        .udata_readdata.o      udata   0x0004fa       data   0x000000
        .idata_readaddr.o      idata   0x0004fa       data   0x000000
        .udata_readaddr.o      udata   0x0004fa       data   0x000000
        .idata_putsxlcd.o      idata   0x0004fa       data   0x000000
        .udata_putsxlcd.o      udata   0x0004fa       data   0x000000
        .idata_putrxlcd.o      idata   0x0004fa       data   0x000000
        .udata_putrxlcd.o      udata   0x0004fa       data   0x000000
        .idata_openxlcd.o      idata   0x0004fa       data   0x000000
        .udata_openxlcd.o      udata   0x0004fa       data   0x000000
        .idata_writdata.o      idata   0x0004fa       data   0x000000
        .udata_writdata.o      udata   0x0004fa       data   0x000000
              ISRHtmpdata      udata   0x0004fa       data   0x000000
                     gpr6      udata   0x0004fa       data   0x000000
       .udata_mandm8722.o      udata   0x0004fa       data   0x000000
           .idata_power.o      idata   0x0004fa       data   0x000000
           .idata_model.o      idata   0x0004fa       data   0x000000
           .udata_model.o      udata   0x0004fa       data   0x000000
          .idata_hwconf.o      idata   0x0004fa       data   0x000000
            .udata_crit.o      udata   0x0004fa       data   0x000000
         .idata_c018i_e.o      idata   0x0004fa       data   0x000000
        .idata_busy_eep.o      idata   0x0004fa       data   0x000000
        .udata_busy_eep.o      udata   0x0004fa       data   0x000000
         .udata_adcconv.o      udata   0x0004fa       data   0x000000
         .idata_adcconv.o      idata   0x0004fa       data   0x000000
          .udata_u1open.o      udata   0x0004fa       data   0x000000
         .idata_adcbusy.o      idata   0x0004fa       data   0x000000
         .udata_adcbusy.o      udata   0x0004fa       data   0x000000
          .idata_u1open.o      idata   0x0004fa       data   0x000000
        .idata_busyxlcd.o      idata   0x0004fa       data   0x000000
        .udata_busyxlcd.o      udata   0x0004fa       data   0x000000
        .idata_wcmdxlcd.o      idata   0x0004fa       data   0x000000
        .udata_wcmdxlcd.o      udata   0x0004fa       data   0x000000
        .idata_setddram.o      idata   0x0004fa       data   0x000000
        .udata_setddram.o      udata   0x0004fa       data   0x000000
        .idata_setcgram.o      idata   0x0004fa       data   0x000000
        .udata_setcgram.o      udata   0x0004fa       data   0x000000
          .udata_u2open.o      udata   0x0004fa       data   0x000000
        .idata_readdata.o      idata   0x0004fa       data   0x000000
                     gpr8      udata   0x000500       data   0x0000c2
                    gpr10      idata   0x0005c2       data   0x000033
         .udata_c018i_e.o      udata   0x0005f5       data   0x00000a
                DELAYDAT1      udata   0x0005ff       data   0x000001
                     gpr5      udata   0x000600       data   0x0000a7
           .udata_power.o      udata   0x0006a7       data   0x000040
                     gpr7      udata   0x0006e7       data   0x000018
          .udata_u2defs.o      udata   0x0006ff       data   0x000001
                   .stack      udata   0x000e00       data   0x000100
            SFR_UNBANKED0      udata   0x000f62       data   0x00009e



                              Program Memory Usage 
                               Start         End      
                           ---------   ---------      
                            0x000000    0x00e9b9      
                            0x300001    0x300006      
                            0x300008    0x30000d      
            59846 out of 132120 program addresses used, program memory utilization is 45%



                              Symbols - Sorted by Name
                     Name    Address   Location    Storage File                     
                ---------  ---------  ---------  --------- ---------                
                     ABSI   0x000f4e    program     extern /fred/mandm/mandm/mandm8722.c
                     ABSL   0x000f7c    program     extern /fred/mandm/mandm/mandm8722.c
                 ADC_read   0x0067e4    program     extern /fred/mandm/mandm/daq.c  
                 ADC_zero   0x006684    program     extern /fred/mandm/mandm/daq.c  
                  BusyADC   0x00000e    program     extern C:\MCC18\v3_39\src\pmc_common\ADC\adcbusy.c
                 BusyXLCD   0x00e7e2    program     extern /fred/mandm/mandm/xlcd/busyxlcd.c
                 Busy_eep   0x00e8c8    program     extern C:\MCC18\v3_39\src\pmc_common\EEP\busy_eep.c
             Change_Count   0x0066ea    program     extern /fred/mandm/mandm/daq.c  
        Clear_All_Buttons   0x00bd7c    program     extern /fred/mandm/mandm/mandm_vector.c
               ConvertADC   0x00e8ce    program     extern C:\MCC18\v3_39\src\pmc_common\ADC\adcconv.c
                   D10K_1   0x00e694    program     static C:\MCC18\v3_39\src\extended\delays\d10ktcyx.asm
                    D10Kl   0x00e6a2    program     static C:\MCC18\v3_39\src\extended\delays\d10ktcyx.asm
                    D10Kx   0x00e690    program     static C:\MCC18\v3_39\src\extended\delays\d10ktcyx.asm
                    D10_1   0x00e8b0    program     static C:\MCC18\v3_39\src\extended\delays\d10tcyx.asm
                     D10x   0x00e8a8    program     static C:\MCC18\v3_39\src\extended\delays\d10tcyx.asm
                   D1616S   0x00c22a    program     static C:\MCC18\v3_39\src\extended\math\div16s.asm
                D1616SNEG   0x00c238    program     static C:\MCC18\v3_39\src\extended\math\div16s.asm
                 D1616SOK   0x00c234    program     static C:\MCC18\v3_39\src\extended\math\div16s.asm
                D1616SPOS   0x00c248    program     static C:\MCC18\v3_39\src\extended\math\div16s.asm
                  D1616SX   0x00c26e    program     static C:\MCC18\v3_39\src\extended\math\div16s.asm
                   D3232S   0x00c2c8    program     static C:\MCC18\v3_39\src\extended\math\div32s.asm
                D3232SNEG   0x00c2d6    program     static C:\MCC18\v3_39\src\extended\math\div32s.asm
                 D3232SOK   0x00c2d2    program     static C:\MCC18\v3_39\src\extended\math\div32s.asm
                D3232SPOS   0x00c2f4    program     static C:\MCC18\v3_39\src\extended\math\div32s.asm
                  D3232SX   0x00c32a    program     static C:\MCC18\v3_39\src\extended\math\div32s.asm
                  DA1616S   0x00c21a    program     static C:\MCC18\v3_39\src\extended\math\div16s.asm
                  DA3232S   0x00c2b2    program     static C:\MCC18\v3_39\src\extended\math\div32s.asm
             Delay10KTCYx   0x00e684    program     extern C:\MCC18\v3_39\src\extended\delays\d10ktcyx.asm
              Delay10TCYx   0x00e8a0    program     extern C:\MCC18\v3_39\src\extended\delays\d10tcyx.asm
            DelayFor18TCY   0x00060c    program     extern /fred/mandm/mandm/mandm8722.c
             DelayPORXLCD   0x000626    program     extern /fred/mandm/mandm/mandm8722.c
                DelayXLCD   0x000632    program     extern /fred/mandm/mandm/mandm8722.c
              LCD_VC_puts   0x00016e    program     extern /fred/mandm/mandm/mandm8722.c
               Open1USART   0x00e076    program     extern C:\MCC18\v3_39\src\pmc_common\USART\u1open.c
               Open2USART   0x00dff2    program     extern C:\MCC18\v3_39\src\pmc_common\USART\u2open.c
                  OpenADC   0x00e1c8    program     extern C:\MCC18\v3_39\src\pmc_common\ADC\adcopen.c
               OpenTimer0   0x00e6ba    program     extern C:\MCC18\v3_39\src\pmc_common\Timers\t0open.c
               OpenTimer3   0x00e588    program     extern C:\MCC18\v3_39\src\pmc_common\Timers\t3open.c
               OpenTimer4   0x00e6f0    program     extern C:\MCC18\v3_39\src\pmc_common\Timers\t4open.c
                 OpenXLCD   0x00df58    program     extern /fred/mandm/mandm/xlcd/openxlcd.c
                   P1wait   0x00bd70    program     extern /fred/mandm/mandm/mandm_vector.c
                   P2wait   0x00bd76    program     extern /fred/mandm/mandm/mandm_vector.c
                  RESTORE   0x00c82c    program     static C:\MCC18\v3_39\src\extended\math\div16u.asm
                  RESTORE   0x00c3ca    program     static C:\MCC18\v3_39\src\extended\math\div32u.asm
                  RESTORE   0x00c31c    program     static C:\MCC18\v3_39\src\extended\math\div32s.asm
                  RESTORE   0x00c260    program     static C:\MCC18\v3_39\src\extended\math\div16s.asm
              RETQUOTIENT   0x00c824    program     static C:\MCC18\v3_39\src\extended\math\div16u.asm
              RETQUOTIENT   0x00c30c    program     static C:\MCC18\v3_39\src\extended\math\div32s.asm
              RETQUOTIENT   0x00c3ba    program     static C:\MCC18\v3_39\src\extended\math\div32u.asm
              RETQUOTIENT   0x00c258    program     static C:\MCC18\v3_39\src\extended\math\div16s.asm
               Read1USART   0x00e646    program     extern C:\MCC18\v3_39\src\pmc_common\USART\u1read.c
               Read2USART   0x00e608    program     extern C:\MCC18\v3_39\src\pmc_common\USART\u2read.c
                  ReadADC   0x00e888    program     extern C:\MCC18\v3_39\src\pmc_common\ADC\adcread.c
             ReadAddrXLCD   0x00e4c2    program     extern /fred/mandm/mandm/xlcd/readaddr.c
             ReadDataXLCD   0x00e47e    program     extern /fred/mandm/mandm/xlcd/readdata.c
               Read_b_eep   0x00e506    program     extern C:\MCC18\v3_39\src\pmc_common\EEP\read_B.c
       Reset_Change_Count   0x0066aa    program     extern /fred/mandm/mandm/daq.c  
                  SETSIGN   0x00c298    program     static C:\MCC18\v3_39\src\extended\math\div32s.asm
                  SETSIGN   0x00c208    program     static C:\MCC18\v3_39\src\extended\math\div16s.asm
                 SETUPSTK   0x00c334    program     static C:\MCC18\v3_39\src\extended\math\div32u.asm
                 SETUPSTK   0x00c278    program     static C:\MCC18\v3_39\src\extended\math\div32s.asm
                 SETUPSTK   0x00c7c2    program     static C:\MCC18\v3_39\src\extended\math\div16u.asm
                 SETUPSTK   0x00c1e8    program     static C:\MCC18\v3_39\src\extended\math\div16s.asm
             SetCGRamAddr   0x00e3b0    program     extern /fred/mandm/mandm/xlcd/setcgram.c
               SetChanADC   0x00e784    program     extern C:\MCC18\v3_39\src\pmc_common\ADC\adcsetch.c
             SetDDRamAddr   0x00e36a    program     extern /fred/mandm/mandm/xlcd/setddram.c
               Set_Cursor   0x00165e    program     extern /fred/mandm/mandm/mandm8722.c
              Write2USART   0x00e7b4    program     extern C:\MCC18\v3_39\src\pmc_common\USART\u2write.c
             WriteCmdXLCD   0x00e43a    program     extern /fred/mandm/mandm/xlcd/wcmdxlcd.c
            WriteDataXLCD   0x00e3f6    program     extern /fred/mandm/mandm/xlcd/writdata.c
              WriteTimer0   0x00e754    program     extern C:\MCC18\v3_39\src\pmc_common\Timers\t0write.c
              WriteTimer3   0x00e724    program     extern C:\MCC18\v3_39\src\pmc_common\Timers\t3write.c
              Write_b_eep   0x00e288    program     extern C:\MCC18\v3_39\src\pmc_common\EEP\write_B.c
                   _2jEnd   0x00dc5a    program     static C:\MCC18\v3_39\src\extended\stdclib\slenpgm.asm
              _3jContinue   0x00dcfe    program     static C:\MCC18\v3_39\src\extended\stdclib\sncpyp2r.asm
              _4jContinue   0x00dca4    program     static C:\MCC18\v3_39\src\extended\stdclib\strncpy.asm
              _4jContinue   0x00dbce    program     static C:\MCC18\v3_39\src\extended\stdclib\memcmp.asm
                   _4jEnd   0x00dd08    program     static C:\MCC18\v3_39\src\extended\stdclib\sncpyp2r.asm
                   _5jEnd   0x00dbd8    program     static C:\MCC18\v3_39\src\extended\stdclib\memcmp.asm
                   _5jEnd   0x00dcae    program     static C:\MCC18\v3_39\src\extended\stdclib\strncpy.asm
       _D10KTCYXCODE_0014   0x00e698    program     static C:\MCC18\v3_39\src\extended\delays\d10ktcyx.asm
       _D10KTCYXCODE_0022   0x00e6a6    program     static C:\MCC18\v3_39\src\extended\delays\d10ktcyx.asm
        _D10TCYXCODE_000A   0x00e8aa    program     static C:\MCC18\v3_39\src\extended\delays\d10tcyx.asm
        _D10TCYXCODE_000C   0x00e8ac    program     static C:\MCC18\v3_39\src\extended\delays\d10tcyx.asm
        _D10TCYXCODE_000E   0x00e8ae    program     static C:\MCC18\v3_39\src\extended\delays\d10tcyx.asm
              __FpCompare   0x00c4a4    program     extern C:\MCC18\v3_39\src\extended\math\compFP.asm
                 __FpPack   0x00bf1e    program     extern C:\MCC18\v3_39\src\extended\math\packFP.asm
            __FpReturnNaN   0x00bfa0    program     extern C:\MCC18\v3_39\src\extended\math\packFP.asm
         __FpReturnNegInf   0x00bfb2    program     extern C:\MCC18\v3_39\src\extended\math\packFP.asm
        __FpReturnNegZero   0x00bfca    program     extern C:\MCC18\v3_39\src\extended\math\packFP.asm
         __FpReturnPosInf   0x00bfb8    program     extern C:\MCC18\v3_39\src\extended\math\packFP.asm
        __FpReturnPosZero   0x00bfd2    program     extern C:\MCC18\v3_39\src\extended\math\packFP.asm
        __FpReturnSignInf   0x00bfae    program     extern C:\MCC18\v3_39\src\extended\math\packFP.asm
       __FpReturnSignZero   0x00bfc6    program     extern C:\MCC18\v3_39\src\extended\math\packFP.asm
              __FpReturnW   0x00bf76    program     extern C:\MCC18\v3_39\src\extended\math\packFP.asm
              __FpUnPackA   0x00bfd8    program     extern C:\MCC18\v3_39\src\extended\math\unpackFP.asm
              __FpUnPackB   0x00c008    program     extern C:\MCC18\v3_39\src\extended\math\unpackFP.asm
       ___case_0_lbl00030   0x00b316    program     static                          
       ___case_1_lbl00031   0x00b31c    program     static                          
       ___case_2_lbl00032   0x00b324    program     static                          
      ___default_lbl00033   0x00b32c    program     static                          
           ___do_lbl00032   0x000324    program     static                          
           ___do_lbl00033   0x000340    program     static                          
           ___do_lbl00034   0x000304    program     static                          
           ___do_lbl00432   0x002b9c    program     static                          
           ___do_lbl00433   0x002bba    program     static                          
           ___do_lbl00438   0x00298a    program     static                          
           ___do_lbl00442   0x002e34    program     static                          
           ___do_lbl00443   0x002e52    program     static                          
           ___do_lbl00448   0x002c22    program     static                          
           ___do_lbl00456   0x003072    program     static                          
           ___do_lbl00457   0x003078    program     static                          
           ___do_lbl00458   0x003066    program     static                          
           ___do_lbl00462   0x0035da    program     static                          
           ___do_lbl00463   0x0035fe    program     static                          
           ___do_lbl00478   0x00312e    program     static                          
           ___do_lbl00479   0x003b08    program     static                          
           ___do_lbl00480   0x003b2c    program     static                          
           ___do_lbl00495   0x00365c    program     static                          
           ___do_lbl00530   0x004d52    program     static                          
           ___do_lbl00531   0x004d58    program     static                          
           ___do_lbl00532   0x004d46    program     static                          
           ___do_lbl00537   0x004f22    program     static                          
           ___do_lbl00538   0x004f66    program     static                          
           ___do_lbl00541   0x004dbc    program     static                          
         ___else_lbl00003   0x00b092    program     static                          
         ___else_lbl00008   0x00dad8    program     static                          
         ___else_lbl00009   0x00b15a    program     static                          
         ___else_lbl00011   0x00b17a    program     static                          
         ___else_lbl00014   0x00b1f4    program     static                          
         ___else_lbl00016   0x00b214    program     static                          
         ___else_lbl00027   0x00b2d0    program     static                          
         ___else_lbl00071   0x00b4ca    program     static                          
         ___else_lbl00082   0x007928    program     static                          
         ___else_lbl00084   0x00b624    program     static                          
         ___else_lbl00086   0x00b632    program     static                          
         ___else_lbl00088   0x00b640    program     static                          
         ___else_lbl00090   0x00b678    program     static                          
         ___else_lbl00092   0x00b6de    program     static                          
         ___else_lbl00098   0x00b746    program     static                          
         ___else_lbl00104   0x00baca    program     static                          
         ___else_lbl00108   0x00bbd8    program     static                          
         ___else_lbl00114   0x00bc62    program     static                          
         ___else_lbl00116   0x00bc3c    program     static                          
         ___else_lbl00474   0x00344e    program     static                          
         ___else_lbl00491   0x00397c    program     static                          
         ___else_lbl00515   0x003b30    program     static                          
         ___else_lbl00524   0x004784    program     static                          
         ___else_lbl00527   0x004a22    program     static                          
         ___else_lbl00529   0x004d02    program     static                          
         ___else_lbl00535   0x0049e4    program     static                          
         ___else_lbl00543   0x00500e    program     static                          
         ___else_lbl00565   0x00549a    program     static                          
         ___else_lbl00573   0x005548    program     static                          
          ___for_lbl00013   0x006848    program     static                          
          ___for_lbl00014   0x006852    program     static                          
          ___for_lbl00017   0x00680c    program     static                          
          ___for_lbl00018   0x006968    program     static                          
          ___for_lbl00019   0x006972    program     static                          
          ___for_lbl00022   0x00692c    program     static                          
          ___for_lbl00023   0x006a88    program     static                          
          ___for_lbl00024   0x006a92    program     static                          
          ___for_lbl00027   0x006a4c    program     static                          
          ___for_lbl00028   0x000296    program     static                          
          ___for_lbl00029   0x0002a4    program     static                          
          ___for_lbl00030   0x00027e    program     static                          
          ___for_lbl00031   0x006ce0    program     static                          
          ___for_lbl00032   0x006cea    program     static                          
          ___for_lbl00035   0x006ca4    program     static                          
          ___for_lbl00039   0x006f40    program     static                          
          ___for_lbl00040   0x006f4a    program     static                          
          ___for_lbl00043   0x006f04    program     static                          
          ___for_lbl00047   0x007198    program     static                          
          ___for_lbl00048   0x0071a2    program     static                          
          ___for_lbl00051   0x00715c    program     static                          
          ___for_lbl00052   0x007246    program     static                          
          ___for_lbl00053   0x007250    program     static                          
          ___for_lbl00054   0x00061e    program     static                          
          ___for_lbl00055   0x000624    program     static                          
          ___for_lbl00056   0x000612    program     static                          
          ___for_lbl00056   0x00720a    program     static                          
          ___for_lbl00057   0x0072f4    program     static                          
          ___for_lbl00058   0x0072fe    program     static                          
          ___for_lbl00061   0x0072b8    program     static                          
          ___for_lbl00062   0x0073a2    program     static                          
          ___for_lbl00063   0x0073ac    program     static                          
          ___for_lbl00066   0x007366    program     static                          
          ___for_lbl00067   0x007450    program     static                          
          ___for_lbl00068   0x00745a    program     static                          
          ___for_lbl00071   0x007414    program     static                          
          ___for_lbl00072   0x0074fe    program     static                          
          ___for_lbl00073   0x007508    program     static                          
          ___for_lbl00076   0x0074c2    program     static                          
          ___for_lbl00077   0x008216    program     static                          
          ___for_lbl00078   0x008222    program     static                          
          ___for_lbl00078   0x000de0    program     static                          
          ___for_lbl00079   0x000de6    program     static                          
          ___for_lbl00081   0x000b00    program     static                          
          ___for_lbl00091   0x007616    program     static                          
          ___for_lbl00430   0x002e94    program     static                          
          ___for_lbl00431   0x002e9c    program     static                          
          ___for_lbl00452   0x00294a    program     static                          
          ___for_lbl00497   0x003d30    program     static                          
          ___for_lbl00498   0x003d46    program     static                          
          ___for_lbl00503   0x003b68    program     static                          
          ___for_lbl00504   0x003f6e    program     static                          
          ___for_lbl00505   0x003f84    program     static                          
          ___for_lbl00510   0x003da6    program     static                          
          ___for_lbl00511   0x004346    program     static                          
          ___for_lbl00512   0x00435c    program     static                          
          ___for_lbl00513   0x004304    program     static                          
          ___for_lbl00516   0x004d68    program     static                          
          ___for_lbl00517   0x004d80    program     static                          
          ___for_lbl00536   0x004364    program     static                          
          ___for_lbl00560   0x005450    program     static                          
          ___for_lbl00561   0x005456    program     static                          
          ___for_lbl00562   0x00542c    program     static                          
          ___for_lbl00566   0x005540    program     static                          
          ___for_lbl00567   0x005546    program     static                          
          ___for_lbl00568   0x00550e    program     static                          
          ___for_lbl00569   0x005594    program     static                          
          ___for_lbl00570   0x00559a    program     static                          
          ___for_lbl00571   0x005562    program     static                          
           ___if_lbl00001   0x00b05c    program     static                          
           ___if_lbl00001   0x00da10    program     static                          
           ___if_lbl00001   0x00dd58    program     static                          
           ___if_lbl00002   0x00da32    program     static                          
           ___if_lbl00002   0x00b0a4    program     static                          
           ___if_lbl00003   0x00da52    program     static                          
           ___if_lbl00003   0x00dd6a    program     static                          
           ___if_lbl00004   0x00b0ae    program     static                          
           ___if_lbl00004   0x00da72    program     static                          
           ___if_lbl00005   0x00b0b8    program     static                          
           ___if_lbl00006   0x00b0c2    program     static                          
           ___if_lbl00006   0x00daa6    program     static                          
           ___if_lbl00007   0x00b0c2    program     static                          
           ___if_lbl00007   0x00dae0    program     static                          
           ___if_lbl00008   0x00b178    program     static                          
           ___if_lbl00008   0x00de8e    program     static                          
           ___if_lbl00010   0x00b188    program     static                          
           ___if_lbl00012   0x00b188    program     static                          
           ___if_lbl00013   0x00b212    program     static                          
           ___if_lbl00015   0x00b222    program     static                          
           ___if_lbl00017   0x00b222    program     static                          
           ___if_lbl00018   0x00b226    program     static                          
           ___if_lbl00020   0x00b234    program     static                          
           ___if_lbl00021   0x00b248    program     static                          
           ___if_lbl00023   0x00b262    program     static                          
           ___if_lbl00024   0x00b290    program     static                          
           ___if_lbl00025   0x00b2c4    program     static                          
           ___if_lbl00026   0x00b2d8    program     static                          
           ___if_lbl00028   0x00b304    program     static                          
           ___if_lbl00028   0x006bb0    program     static                          
           ___if_lbl00030   0x006c7e    program     static                          
           ___if_lbl00034   0x00b332    program     static                          
           ___if_lbl00035   0x00b332    program     static                          
           ___if_lbl00036   0x006e08    program     static                          
           ___if_lbl00036   0x00b338    program     static                          
           ___if_lbl00037   0x00b33e    program     static                          
           ___if_lbl00038   0x006edc    program     static                          
           ___if_lbl00038   0x00b344    program     static                          
           ___if_lbl00039   0x00b34a    program     static                          
           ___if_lbl00040   0x00b34a    program     static                          
           ___if_lbl00041   0x00b36a    program     static                          
           ___if_lbl00042   0x00b36e    program     static                          
           ___if_lbl00043   0x00b386    program     static                          
           ___if_lbl00044   0x00b39c    program     static                          
           ___if_lbl00044   0x007068    program     static                          
           ___if_lbl00045   0x00b3aa    program     static                          
           ___if_lbl00046   0x00b3b8    program     static                          
           ___if_lbl00046   0x007134    program     static                          
           ___if_lbl00047   0x00b3c6    program     static                          
           ___if_lbl00048   0x00b3d4    program     static                          
           ___if_lbl00049   0x00b3e2    program     static                          
           ___if_lbl00051   0x00b3f8    program     static                          
           ___if_lbl00053   0x00b40e    program     static                          
           ___if_lbl00055   0x00b422    program     static                          
           ___if_lbl00058   0x00b42c    program     static                          
           ___if_lbl00060   0x00b43e    program     static                          
           ___if_lbl00061   0x00b43e    program     static                          
           ___if_lbl00063   0x00b462    program     static                          
           ___if_lbl00064   0x00b466    program     static                          
           ___if_lbl00066   0x00b48a    program     static                          
           ___if_lbl00067   0x00b48e    program     static                          
           ___if_lbl00069   0x00b4c8    program     static                          
           ___if_lbl00070   0x00b4d2    program     static                          
           ___if_lbl00072   0x00b4f0    program     static                          
           ___if_lbl00073   0x00b4f0    program     static                          
           ___if_lbl00074   0x00b4f4    program     static                          
           ___if_lbl00076   0x00b512    program     static                          
           ___if_lbl00077   0x00b596    program     static                          
           ___if_lbl00078   0x00b596    program     static                          
           ___if_lbl00079   0x00b596    program     static                          
           ___if_lbl00079   0x007806    program     static                          
           ___if_lbl00080   0x000de0    program     static                          
           ___if_lbl00081   0x007a02    program     static                          
           ___if_lbl00082   0x00b61a    program     static                          
           ___if_lbl00082   0x000dfe    program     static                          
           ___if_lbl00083   0x007a02    program     static                          
           ___if_lbl00083   0x00b628    program     static                          
           ___if_lbl00085   0x00b636    program     static                          
           ___if_lbl00085   0x007a80    program     static                          
           ___if_lbl00086   0x007ad8    program     static                          
           ___if_lbl00087   0x007c1c    program     static                          
           ___if_lbl00087   0x00b644    program     static                          
           ___if_lbl00088   0x007cfe    program     static                          
           ___if_lbl00089   0x007e78    program     static                          
           ___if_lbl00089   0x00b6a8    program     static                          
           ___if_lbl00090   0x008120    program     static                          
           ___if_lbl00091   0x00b710    program     static                          
           ___if_lbl00093   0x00b7f2    program     static                          
           ___if_lbl00094   0x00b81a    program     static                          
           ___if_lbl00094   0x0082fc    program     static                          
           ___if_lbl00095   0x00b84a    program     static                          
           ___if_lbl00095   0x0082fc    program     static                          
           ___if_lbl00096   0x00b89e    program     static                          
           ___if_lbl00097   0x00b8a0    program     static                          
           ___if_lbl00099   0x00b8fe    program     static                          
           ___if_lbl00100   0x00b968    program     static                          
           ___if_lbl00101   0x00b9c6    program     static                          
           ___if_lbl00102   0x00ba32    program     static                          
           ___if_lbl00103   0x00bb28    program     static                          
           ___if_lbl00106   0x00bbd6    program     static                          
           ___if_lbl00107   0x00bbf8    program     static                          
           ___if_lbl00112   0x00bc86    program     static                          
           ___if_lbl00113   0x00bc86    program     static                          
           ___if_lbl00115   0x00bc86    program     static                          
           ___if_lbl00117   0x00bc86    program     static                          
           ___if_lbl00118   0x00bc86    program     static                          
           ___if_lbl00119   0x00bcda    program     static                          
           ___if_lbl00120   0x00bcda    program     static                          
           ___if_lbl00121   0x00bcf6    program     static                          
           ___if_lbl00122   0x00bd04    program     static                          
           ___if_lbl00124   0x00bd20    program     static                          
           ___if_lbl00125   0x00bd20    program     static                          
           ___if_lbl00424   0x002812    program     static                          
           ___if_lbl00425   0x00283c    program     static                          
           ___if_lbl00426   0x00284e    program     static                          
           ___if_lbl00427   0x002898    program     static                          
           ___if_lbl00428   0x0028d0    program     static                          
           ___if_lbl00429   0x002906    program     static                          
           ___if_lbl00434   0x002a34    program     static                          
           ___if_lbl00435   0x002ad4    program     static                          
           ___if_lbl00436   0x002b78    program     static                          
           ___if_lbl00437   0x002b88    program     static                          
           ___if_lbl00440   0x002be4    program     static                          
           ___if_lbl00441   0x002bfc    program     static                          
           ___if_lbl00444   0x002ccc    program     static                          
           ___if_lbl00445   0x002d6c    program     static                          
           ___if_lbl00446   0x002e10    program     static                          
           ___if_lbl00447   0x002e20    program     static                          
           ___if_lbl00450   0x002e7c    program     static                          
           ___if_lbl00451   0x002e94    program     static                          
           ___if_lbl00454   0x002fbc    program     static                          
           ___if_lbl00455   0x003028    program     static                          
           ___if_lbl00459   0x0030c6    program     static                          
           ___if_lbl00460   0x0030c6    program     static                          
           ___if_lbl00461   0x0030e0    program     static                          
           ___if_lbl00467   0x0032fe    program     static                          
           ___if_lbl00468   0x00332a    program     static                          
           ___if_lbl00469   0x00332e    program     static                          
           ___if_lbl00470   0x003390    program     static                          
           ___if_lbl00471   0x00344c    program     static                          
           ___if_lbl00472   0x0034aa    program     static                          
           ___if_lbl00473   0x0034aa    program     static                          
           ___if_lbl00475   0x003530    program     static                          
           ___if_lbl00476   0x0035b6    program     static                          
           ___if_lbl00477   0x0035c6    program     static                          
           ___if_lbl00484   0x00382c    program     static                          
           ___if_lbl00485   0x003858    program     static                          
           ___if_lbl00486   0x00385c    program     static                          
           ___if_lbl00487   0x0038be    program     static                          
           ___if_lbl00488   0x00397a    program     static                          
           ___if_lbl00489   0x0039d8    program     static                          
           ___if_lbl00490   0x0039d8    program     static                          
           ___if_lbl00492   0x003a5e    program     static                          
           ___if_lbl00493   0x003ae4    program     static                          
           ___if_lbl00494   0x003af4    program     static                          
           ___if_lbl00496   0x003b2c    program     static                          
           ___if_lbl00499   0x003c00    program     static                          
           ___if_lbl00500   0x003cbc    program     static                          
           ___if_lbl00501   0x003cce    program     static                          
           ___if_lbl00502   0x003d30    program     static                          
           ___if_lbl00506   0x003e3e    program     static                          
           ___if_lbl00507   0x003efa    program     static                          
           ___if_lbl00508   0x003f0c    program     static                          
           ___if_lbl00509   0x003f6e    program     static                          
           ___if_lbl00514   0x00435c    program     static                          
           ___if_lbl00518   0x00445c    program     static                          
           ___if_lbl00519   0x004514    program     static                          
           ___if_lbl00521   0x004652    program     static                          
           ___if_lbl00522   0x004652    program     static                          
           ___if_lbl00523   0x004788    program     static                          
           ___if_lbl00525   0x0049e2    program     static                          
           ___if_lbl00526   0x004a26    program     static                          
           ___if_lbl00528   0x004d06    program     static                          
           ___if_lbl00533   0x004d68    program     static                          
           ___if_lbl00534   0x004d68    program     static                          
           ___if_lbl00540   0x004f20    program     static                          
           ___if_lbl00542   0x00500e    program     static                          
           ___if_lbl00555   0x005206    program     static                          
           ___if_lbl00556   0x005234    program     static                          
           ___if_lbl00557   0x005262    program     static                          
           ___if_lbl00558   0x005290    program     static                          
           ___if_lbl00559   0x0053e0    program     static                          
           ___if_lbl00563   0x005456    program     static                          
           ___if_lbl00564   0x0054de    program     static                          
           ___if_lbl00572   0x0055b0    program     static                          
           ___if_lbl00576   0x0055ba    program     static                          
           ___if_lbl00577   0x005602    program     static                          
           ___if_lbl00578   0x005622    program     static                          
           ___if_lbl00582   0x005876    program     static                          
           ___if_lbl00583   0x0058a6    program     static                          
           ___if_lbl00584   0x0058ba    program     static                          
       ___return_lbl00000   0x00e53c    program     static                          
       ___return_lbl00000   0x00bd20    program     static                          
       ___return_lbl00000   0x000004    program     static                          
       ___return_lbl00000   0x00da72    program     static                          
       ___return_lbl00000   0x0066a8    program     static                          
       ___return_lbl00000   0x00000c    program     static                          
       ___return_lbl00000   0x00de8e    program     static                          
       ___return_lbl00001   0x00001c    program     static                          
       ___return_lbl00001   0x00e886    program     static                          
       ___return_lbl00002   0x00df56    program     static                          
       ___return_lbl00005   0x00dae0    program     static                          
       ___return_lbl00012   0x008302    program     static                          
       ___return_lbl00027   0x0002a4    program     static                          
       ___return_lbl00031   0x000340    program     static                          
       ___return_lbl00053   0x000624    program     static                          
       ___return_lbl00072   0x00079a    program     static                          
       ___return_lbl00077   0x000e00    program     static                          
       ___return_lbl00127   0x00bd6e    program     static                          
       ___return_lbl00423   0x005044    program     static                          
       ___return_lbl00554   0x0058bc    program     static                          
   ___switchexit_lbl00029   0x00b332    program     static                          
        ___while_lbl00001   0x00669e    program     static                          
        ___while_lbl00002   0x0066a8    program     static                          
        ___while_lbl00004   0x00ddc4    program     static                          
        ___while_lbl00005   0x00ddd2    program     static                          
        ___while_lbl00006   0x00dde8    program     static                          
        ___while_lbl00007   0x00ddf6    program     static                          
        ___while_lbl00015   0x00681c    program     static                          
        ___while_lbl00016   0x006826    program     static                          
        ___while_lbl00020   0x00693c    program     static                          
        ___while_lbl00021   0x006946    program     static                          
        ___while_lbl00025   0x006a5c    program     static                          
        ___while_lbl00026   0x006a66    program     static                          
        ___while_lbl00033   0x006cb4    program     static                          
        ___while_lbl00034   0x006cbe    program     static                          
        ___while_lbl00041   0x006f14    program     static                          
        ___while_lbl00042   0x006f1e    program     static                          
        ___while_lbl00049   0x00716c    program     static                          
        ___while_lbl00050   0x007176    program     static                          
        ___while_lbl00054   0x00721a    program     static                          
        ___while_lbl00055   0x007224    program     static                          
        ___while_lbl00056   0x00b42a    program     static                          
        ___while_lbl00057   0x00b42c    program     static                          
        ___while_lbl00059   0x0072c8    program     static                          
        ___while_lbl00060   0x0072d2    program     static                          
        ___while_lbl00064   0x007376    program     static                          
        ___while_lbl00065   0x007380    program     static                          
        ___while_lbl00069   0x007424    program     static                          
        ___while_lbl00070   0x00742e    program     static                          
        ___while_lbl00074   0x0074d2    program     static                          
        ___while_lbl00075   0x0074dc    program     static                          
        ___while_lbl00092   0x0082ea    program     static                          
        ___while_lbl00093   0x0082fc    program     static                          
        ___while_lbl00574   0x0055b8    program     static                          
        ___while_lbl00575   0x0055ba    program     static                          
        ___while_lbl00579   0x005860    program     static                          
        ___while_lbl00580   0x0058bc    program     static                          
                  __addFP   0x00bdd8    program     extern C:\MCC18\v3_39\src\extended\math\addFP.asm
              __cast16sFP   0x00c038    program     extern C:\MCC18\v3_39\src\extended\math\cast16FP.asm
              __cast16uFP   0x00c034    program     extern C:\MCC18\v3_39\src\extended\math\cast16FP.asm
              __cast32sFP   0x00c07a    program     extern C:\MCC18\v3_39\src\extended\math\cast32FP.asm
              __cast32uFP   0x00c076    program     extern C:\MCC18\v3_39\src\extended\math\cast32FP.asm
               __castFP16   0x00c0c4    program     extern C:\MCC18\v3_39\src\extended\math\castFP16.asm
               __castFP32   0x00c14a    program     extern C:\MCC18\v3_39\src\extended\math\castFP32.asm
               __config_0   0x300001    program     static /fred/mandm/mandm/mandm8722.c
               __config_1   0x300002    program     static /fred/mandm/mandm/mandm8722.c
              __config_10   0x30000c    program     static /fred/mandm/mandm/mandm8722.c
              __config_11   0x30000d    program     static /fred/mandm/mandm/mandm8722.c
               __config_2   0x300003    program     static /fred/mandm/mandm/mandm8722.c
               __config_3   0x300004    program     static /fred/mandm/mandm/mandm8722.c
               __config_4   0x300005    program     static /fred/mandm/mandm/mandm8722.c
               __config_5   0x300006    program     static /fred/mandm/mandm/mandm8722.c
               __config_6   0x300008    program     static /fred/mandm/mandm/mandm8722.c
               __config_7   0x300009    program     static /fred/mandm/mandm/mandm8722.c
               __config_8   0x30000a    program     static /fred/mandm/mandm/mandm8722.c
               __config_9   0x30000b    program     static /fred/mandm/mandm/mandm8722.c
                 __div16s   0x00c200    program     extern C:\MCC18\v3_39\src\extended\math\div16s.asm
                 __div16u   0x00c7da    program     extern C:\MCC18\v3_39\src\extended\math\div16u.asm
                 __div32s   0x00c290    program     extern C:\MCC18\v3_39\src\extended\math\div32s.asm
                 __div32u   0x00c34c    program     extern C:\MCC18\v3_39\src\extended\math\div32u.asm
                  __divFP   0x00c3d8    program     extern C:\MCC18\v3_39\src\extended\math\divFP.asm
                   __init   0x00e8d2    program     extern C:\MCC18\v3_39\src\extended\stdclib\__init.c
                   __ltFP   0x00c492    program     extern C:\MCC18\v3_39\src\extended\math\ltFP.asm
                 __mod16s   0x00c206    program     extern C:\MCC18\v3_39\src\extended\math\div16s.asm
                 __mod16u   0x00c7e0    program     extern C:\MCC18\v3_39\src\extended\math\div16u.asm
                 __mod32s   0x00c296    program     extern C:\MCC18\v3_39\src\extended\math\div32s.asm
                 __mod32u   0x00c352    program     extern C:\MCC18\v3_39\src\extended\math\div32u.asm
                  __mul16   0x00c83a    program     extern C:\MCC18\v3_39\src\extended\math\mul16.asm
                  __mul24   0x00c572    program     extern C:\MCC18\v3_39\src\extended\math\mul24.asm
                  __mul32   0x00c632    program     extern C:\MCC18\v3_39\src\extended\math\mul32.asm
                  __mulFP   0x00c6d4    program     extern C:\MCC18\v3_39\src\extended\math\mulFP.asm
                   __pa_0   0x00db80    program     static /fred/mandm/mandm/crit.c 
                   __pa_0   0x00cf64    program     static C:\MCC18\v3_39\src\extended\stdclib\vfprintf.c
                   __pa_0   0x0058be    program     static /fred/mandm/mandm/mandm8722.c
                   __pa_0   0x00d962    program     static /fred/mandm/mandm/power.c
                   __pa_0   0x00e314    program     static /fred/mandm/mandm/xlcd/putrxlcd.c
                   __pa_0   0x0083fc    program     static /fred/mandm/mandm/daq.c  
                   __pa_0   0x00e470    program     static /fred/mandm/mandm/xlcd/wcmdxlcd.c
                   __pa_0   0x00e3a2    program     static /fred/mandm/mandm/xlcd/setddram.c
                   __pa_0   0x00dfe0    program     static /fred/mandm/mandm/xlcd/openxlcd.c
                   __pa_0   0x00e42c    program     static /fred/mandm/mandm/xlcd/writdata.c
                   __pa_0   0x00bdc0    program     static /fred/mandm/mandm/mandm_vector.c
                   __pa_0   0x00e7fc    program     static /fred/mandm/mandm/xlcd/busyxlcd.c
                   __pa_0   0x00d452    program     static /fred/mandm/mandm/config.c
                   __pa_0   0x00e3e8    program     static /fred/mandm/mandm/xlcd/setcgram.c
                   __pa_1   0x00dfea    program     static /fred/mandm/mandm/xlcd/openxlcd.c
                   __pa_1   0x00842e    program     static /fred/mandm/mandm/daq.c  
                   __pa_1   0x00bdcc    program     static /fred/mandm/mandm/mandm_vector.c
                   __pa_1   0x00db96    program     static /fred/mandm/mandm/crit.c 
                   __pa_1   0x00d96e    program     static /fred/mandm/mandm/power.c
                   __pa_1   0x00d462    program     static /fred/mandm/mandm/config.c
                   __pa_1   0x00cf72    program     static C:\MCC18\v3_39\src\extended\stdclib\vfprintf.c
                   __pa_1   0x0058ce    program     static /fred/mandm/mandm/mandm8722.c
                  __pa_10   0x00d4b6    program     static /fred/mandm/mandm/config.c
                  __pa_10   0x0059e6    program     static /fred/mandm/mandm/mandm8722.c
                  __pa_10   0x00d9c8    program     static /fred/mandm/mandm/power.c
                  __pa_10   0x00d000    program     static C:\MCC18\v3_39\src\extended\stdclib\vfprintf.c
                 __pa_100   0x005f00    program     static /fred/mandm/mandm/mandm8722.c
                 __pa_101   0x005f12    program     static /fred/mandm/mandm/mandm8722.c
                 __pa_102   0x005f24    program     static /fred/mandm/mandm/mandm8722.c
                 __pa_103   0x005f36    program     static /fred/mandm/mandm/mandm8722.c
                 __pa_104   0x005f3c    program     static /fred/mandm/mandm/mandm8722.c
                 __pa_105   0x005f42    program     static /fred/mandm/mandm/mandm8722.c
                 __pa_106   0x005f4e    program     static /fred/mandm/mandm/mandm8722.c
                 __pa_107   0x005f5a    program     static /fred/mandm/mandm/mandm8722.c
                 __pa_108   0x005f64    program     static /fred/mandm/mandm/mandm8722.c
                 __pa_109   0x005f6c    program     static /fred/mandm/mandm/mandm8722.c
                  __pa_11   0x00d4c0    program     static /fred/mandm/mandm/config.c
                  __pa_11   0x00d010    program     static C:\MCC18\v3_39\src\extended\stdclib\vfprintf.c
                  __pa_11   0x0059f2    program     static /fred/mandm/mandm/mandm8722.c
                  __pa_11   0x00d9d0    program     static /fred/mandm/mandm/power.c
                 __pa_110   0x005f74    program     static /fred/mandm/mandm/mandm8722.c
                 __pa_111   0x005f82    program     static /fred/mandm/mandm/mandm8722.c
                 __pa_112   0x005f92    program     static /fred/mandm/mandm/mandm8722.c
                 __pa_113   0x005fa2    program     static /fred/mandm/mandm/mandm8722.c
                 __pa_114   0x005fb2    program     static /fred/mandm/mandm/mandm8722.c
                 __pa_115   0x005fba    program     static /fred/mandm/mandm/mandm8722.c
                 __pa_116   0x005fc8    program     static /fred/mandm/mandm/mandm8722.c
                 __pa_117   0x005fd6    program     static /fred/mandm/mandm/mandm8722.c
                 __pa_118   0x005fe0    program     static /fred/mandm/mandm/mandm8722.c
                 __pa_119   0x005fea    program     static /fred/mandm/mandm/mandm8722.c
                  __pa_12   0x005a06    program     static /fred/mandm/mandm/mandm8722.c
                  __pa_12   0x00d9da    program     static /fred/mandm/mandm/power.c
                  __pa_12   0x00d020    program     static C:\MCC18\v3_39\src\extended\stdclib\vfprintf.c
                  __pa_12   0x00d4ca    program     static /fred/mandm/mandm/config.c
                 __pa_120   0x005ff4    program     static /fred/mandm/mandm/mandm8722.c
                 __pa_121   0x005ffe    program     static /fred/mandm/mandm/mandm8722.c
                 __pa_122   0x006006    program     static /fred/mandm/mandm/mandm8722.c
                 __pa_123   0x006030    program     static /fred/mandm/mandm/mandm8722.c
                 __pa_124   0x006068    program     static /fred/mandm/mandm/mandm8722.c
                 __pa_125   0x006072    program     static /fred/mandm/mandm/mandm8722.c
                 __pa_126   0x006078    program     static /fred/mandm/mandm/mandm8722.c
                 __pa_127   0x00607e    program     static /fred/mandm/mandm/mandm8722.c
                 __pa_128   0x00608a    program     static /fred/mandm/mandm/mandm8722.c
                 __pa_129   0x006094    program     static /fred/mandm/mandm/mandm8722.c
                  __pa_13   0x00d4d0    program     static /fred/mandm/mandm/config.c
                  __pa_13   0x00d02e    program     static C:\MCC18\v3_39\src\extended\stdclib\vfprintf.c
                  __pa_13   0x005a1c    program     static /fred/mandm/mandm/mandm8722.c
                 __pa_130   0x0060a4    program     static /fred/mandm/mandm/mandm8722.c
                 __pa_131   0x0060b4    program     static /fred/mandm/mandm/mandm8722.c
                 __pa_132   0x0060ce    program     static /fred/mandm/mandm/mandm8722.c
                 __pa_133   0x0060ec    program     static /fred/mandm/mandm/mandm8722.c
                 __pa_134   0x0060fc    program     static /fred/mandm/mandm/mandm8722.c
                 __pa_135   0x006126    program     static /fred/mandm/mandm/mandm8722.c
                 __pa_136   0x00612c    program     static /fred/mandm/mandm/mandm8722.c
                 __pa_137   0x006132    program     static /fred/mandm/mandm/mandm8722.c
                 __pa_138   0x00613e    program     static /fred/mandm/mandm/mandm8722.c
                 __pa_139   0x006158    program     static /fred/mandm/mandm/mandm8722.c
                  __pa_14   0x00d4dc    program     static /fred/mandm/mandm/config.c
                  __pa_14   0x005a22    program     static /fred/mandm/mandm/mandm8722.c
                  __pa_14   0x00d04c    program     static C:\MCC18\v3_39\src\extended\stdclib\vfprintf.c
                 __pa_140   0x00615e    program     static /fred/mandm/mandm/mandm8722.c
                 __pa_141   0x006176    program     static /fred/mandm/mandm/mandm8722.c
                 __pa_142   0x006182    program     static /fred/mandm/mandm/mandm8722.c
                 __pa_143   0x00618a    program     static /fred/mandm/mandm/mandm8722.c
                 __pa_144   0x00619e    program     static /fred/mandm/mandm/mandm8722.c
                 __pa_145   0x0061b8    program     static /fred/mandm/mandm/mandm8722.c
                 __pa_146   0x0061c0    program     static /fred/mandm/mandm/mandm8722.c
                 __pa_147   0x0061ce    program     static /fred/mandm/mandm/mandm8722.c
                 __pa_148   0x0061d4    program     static /fred/mandm/mandm/mandm8722.c
                 __pa_149   0x0061da    program     static /fred/mandm/mandm/mandm8722.c
                  __pa_15   0x00d056    program     static C:\MCC18\v3_39\src\extended\stdclib\vfprintf.c
                  __pa_15   0x00d4e6    program     static /fred/mandm/mandm/config.c
                  __pa_15   0x005a3a    program     static /fred/mandm/mandm/mandm8722.c
                 __pa_150   0x0061e4    program     static /fred/mandm/mandm/mandm8722.c
                 __pa_151   0x0061ee    program     static /fred/mandm/mandm/mandm8722.c
                 __pa_152   0x00620a    program     static /fred/mandm/mandm/mandm8722.c
                 __pa_153   0x00621e    program     static /fred/mandm/mandm/mandm8722.c
                 __pa_154   0x006232    program     static /fred/mandm/mandm/mandm8722.c
                 __pa_155   0x006244    program     static /fred/mandm/mandm/mandm8722.c
                 __pa_156   0x006256    program     static /fred/mandm/mandm/mandm8722.c
                 __pa_157   0x006260    program     static /fred/mandm/mandm/mandm8722.c
                 __pa_158   0x00626a    program     static /fred/mandm/mandm/mandm8722.c
                 __pa_159   0x006274    program     static /fred/mandm/mandm/mandm8722.c
                  __pa_16   0x00d05c    program     static C:\MCC18\v3_39\src\extended\stdclib\vfprintf.c
                  __pa_16   0x005a40    program     static /fred/mandm/mandm/mandm8722.c
                  __pa_16   0x00d4ee    program     static /fred/mandm/mandm/config.c
                 __pa_160   0x006288    program     static /fred/mandm/mandm/mandm8722.c
                 __pa_161   0x006296    program     static /fred/mandm/mandm/mandm8722.c
                 __pa_162   0x0062a6    program     static /fred/mandm/mandm/mandm8722.c
                 __pa_163   0x0062ae    program     static /fred/mandm/mandm/mandm8722.c
                 __pa_164   0x0062b6    program     static /fred/mandm/mandm/mandm8722.c
                 __pa_165   0x0062c0    program     static /fred/mandm/mandm/mandm8722.c
                 __pa_166   0x0062d4    program     static /fred/mandm/mandm/mandm8722.c
                 __pa_167   0x0062e4    program     static /fred/mandm/mandm/mandm8722.c
                 __pa_168   0x0062f8    program     static /fred/mandm/mandm/mandm8722.c
                 __pa_169   0x00630a    program     static /fred/mandm/mandm/mandm8722.c
                  __pa_17   0x00d06c    program     static C:\MCC18\v3_39\src\extended\stdclib\vfprintf.c
                  __pa_17   0x005a4a    program     static /fred/mandm/mandm/mandm8722.c
                  __pa_17   0x00d4f8    program     static /fred/mandm/mandm/config.c
                 __pa_170   0x00631c    program     static /fred/mandm/mandm/mandm8722.c
                 __pa_171   0x00632a    program     static /fred/mandm/mandm/mandm8722.c
                 __pa_172   0x00633c    program     static /fred/mandm/mandm/mandm8722.c
                 __pa_173   0x00634e    program     static /fred/mandm/mandm/mandm8722.c
                 __pa_174   0x006360    program     static /fred/mandm/mandm/mandm8722.c
                 __pa_175   0x006372    program     static /fred/mandm/mandm/mandm8722.c
                 __pa_176   0x006384    program     static /fred/mandm/mandm/mandm8722.c
                 __pa_177   0x006396    program     static /fred/mandm/mandm/mandm8722.c
                 __pa_178   0x0063a8    program     static /fred/mandm/mandm/mandm8722.c
                 __pa_179   0x0063b2    program     static /fred/mandm/mandm/mandm8722.c
                  __pa_18   0x005a54    program     static /fred/mandm/mandm/mandm8722.c
                  __pa_18   0x00d502    program     static /fred/mandm/mandm/config.c
                  __pa_18   0x00d078    program     static C:\MCC18\v3_39\src\extended\stdclib\vfprintf.c
                 __pa_180   0x0063b8    program     static /fred/mandm/mandm/mandm8722.c
                 __pa_181   0x0063be    program     static /fred/mandm/mandm/mandm8722.c
                 __pa_182   0x0063c8    program     static /fred/mandm/mandm/mandm8722.c
                 __pa_183   0x0063d2    program     static /fred/mandm/mandm/mandm8722.c
                 __pa_184   0x0063dc    program     static /fred/mandm/mandm/mandm8722.c
                 __pa_185   0x0063e2    program     static /fred/mandm/mandm/mandm8722.c
                 __pa_186   0x0063f2    program     static /fred/mandm/mandm/mandm8722.c
                 __pa_187   0x0063fa    program     static /fred/mandm/mandm/mandm8722.c
                 __pa_188   0x006408    program     static /fred/mandm/mandm/mandm8722.c
                 __pa_189   0x006412    program     static /fred/mandm/mandm/mandm8722.c
                  __pa_19   0x005a5c    program     static /fred/mandm/mandm/mandm8722.c
                  __pa_19   0x00d086    program     static C:\MCC18\v3_39\src\extended\stdclib\vfprintf.c
                  __pa_19   0x00d50a    program     static /fred/mandm/mandm/config.c
                 __pa_190   0x006420    program     static /fred/mandm/mandm/mandm8722.c
                 __pa_191   0x00642a    program     static /fred/mandm/mandm/mandm8722.c
                 __pa_192   0x006436    program     static /fred/mandm/mandm/mandm8722.c
                 __pa_193   0x006444    program     static /fred/mandm/mandm/mandm8722.c
                 __pa_194   0x006452    program     static /fred/mandm/mandm/mandm8722.c
                 __pa_195   0x00645e    program     static /fred/mandm/mandm/mandm8722.c
                 __pa_196   0x006464    program     static /fred/mandm/mandm/mandm8722.c
                 __pa_197   0x006470    program     static /fred/mandm/mandm/mandm8722.c
                 __pa_198   0x00647e    program     static /fred/mandm/mandm/mandm8722.c
                 __pa_199   0x006488    program     static /fred/mandm/mandm/mandm8722.c
                   __pa_2   0x00cf82    program     static C:\MCC18\v3_39\src\extended\stdclib\vfprintf.c
                   __pa_2   0x0058d8    program     static /fred/mandm/mandm/mandm8722.c
                   __pa_2   0x00d976    program     static /fred/mandm/mandm/power.c
                   __pa_2   0x00844e    program     static /fred/mandm/mandm/daq.c  
                   __pa_2   0x00d46a    program     static /fred/mandm/mandm/config.c
                  __pa_20   0x00d090    program     static C:\MCC18\v3_39\src\extended\stdclib\vfprintf.c
                  __pa_20   0x00d524    program     static /fred/mandm/mandm/config.c
                  __pa_20   0x005a6e    program     static /fred/mandm/mandm/mandm8722.c
                 __pa_200   0x006492    program     static /fred/mandm/mandm/mandm8722.c
                 __pa_201   0x00649a    program     static /fred/mandm/mandm/mandm8722.c
                 __pa_202   0x00649e    program     static /fred/mandm/mandm/mandm8722.c
                 __pa_203   0x0064a6    program     static /fred/mandm/mandm/mandm8722.c
                 __pa_204   0x0064b4    program     static /fred/mandm/mandm/mandm8722.c
                 __pa_205   0x0064c2    program     static /fred/mandm/mandm/mandm8722.c
                 __pa_206   0x0064f8    program     static /fred/mandm/mandm/mandm8722.c
                 __pa_207   0x006500    program     static /fred/mandm/mandm/mandm8722.c
                 __pa_208   0x00650e    program     static /fred/mandm/mandm/mandm8722.c
                 __pa_209   0x006524    program     static /fred/mandm/mandm/mandm8722.c
                  __pa_21   0x005a76    program     static /fred/mandm/mandm/mandm8722.c
                  __pa_21   0x00d534    program     static /fred/mandm/mandm/config.c
                  __pa_21   0x00d09a    program     static C:\MCC18\v3_39\src\extended\stdclib\vfprintf.c
                 __pa_210   0x00652a    program     static /fred/mandm/mandm/mandm8722.c
                 __pa_211   0x006532    program     static /fred/mandm/mandm/mandm8722.c
                 __pa_212   0x006544    program     static /fred/mandm/mandm/mandm8722.c
                 __pa_213   0x00654c    program     static /fred/mandm/mandm/mandm8722.c
                 __pa_214   0x006554    program     static /fred/mandm/mandm/mandm8722.c
                 __pa_215   0x00655a    program     static /fred/mandm/mandm/mandm8722.c
                 __pa_216   0x006562    program     static /fred/mandm/mandm/mandm8722.c
                 __pa_217   0x00656a    program     static /fred/mandm/mandm/mandm8722.c
                 __pa_218   0x006572    program     static /fred/mandm/mandm/mandm8722.c
                 __pa_219   0x00657a    program     static /fred/mandm/mandm/mandm8722.c
                  __pa_22   0x00d0a4    program     static C:\MCC18\v3_39\src\extended\stdclib\vfprintf.c
                  __pa_22   0x00d53c    program     static /fred/mandm/mandm/config.c
                  __pa_22   0x005a8c    program     static /fred/mandm/mandm/mandm8722.c
                 __pa_220   0x00658a    program     static /fred/mandm/mandm/mandm8722.c
                 __pa_221   0x006598    program     static /fred/mandm/mandm/mandm8722.c
                 __pa_222   0x0065a6    program     static /fred/mandm/mandm/mandm8722.c
                 __pa_223   0x0065b0    program     static /fred/mandm/mandm/mandm8722.c
                 __pa_224   0x0065b8    program     static /fred/mandm/mandm/mandm8722.c
                 __pa_225   0x0065c0    program     static /fred/mandm/mandm/mandm8722.c
                 __pa_226   0x0065ca    program     static /fred/mandm/mandm/mandm8722.c
                 __pa_227   0x0065d6    program     static /fred/mandm/mandm/mandm8722.c
                 __pa_228   0x0065e0    program     static /fred/mandm/mandm/mandm8722.c
                 __pa_229   0x0065ec    program     static /fred/mandm/mandm/mandm8722.c
                  __pa_23   0x00d0b2    program     static C:\MCC18\v3_39\src\extended\stdclib\vfprintf.c
                  __pa_23   0x00d548    program     static /fred/mandm/mandm/config.c
                  __pa_23   0x005aaa    program     static /fred/mandm/mandm/mandm8722.c
                 __pa_230   0x0065f8    program     static /fred/mandm/mandm/mandm8722.c
                 __pa_231   0x006604    program     static /fred/mandm/mandm/mandm8722.c
                 __pa_232   0x006610    program     static /fred/mandm/mandm/mandm8722.c
                 __pa_233   0x00661c    program     static /fred/mandm/mandm/mandm8722.c
                 __pa_234   0x006622    program     static /fred/mandm/mandm/mandm8722.c
                 __pa_235   0x00662c    program     static /fred/mandm/mandm/mandm8722.c
                 __pa_236   0x006636    program     static /fred/mandm/mandm/mandm8722.c
                 __pa_237   0x00663e    program     static /fred/mandm/mandm/mandm8722.c
                 __pa_238   0x006646    program     static /fred/mandm/mandm/mandm8722.c
                 __pa_239   0x006650    program     static /fred/mandm/mandm/mandm8722.c
                  __pa_24   0x00d552    program     static /fred/mandm/mandm/config.c
                  __pa_24   0x005ab0    program     static /fred/mandm/mandm/mandm8722.c
                 __pa_240   0x00665a    program     static /fred/mandm/mandm/mandm8722.c
                 __pa_241   0x006662    program     static /fred/mandm/mandm/mandm8722.c
                 __pa_242   0x006668    program     static /fred/mandm/mandm/mandm8722.c
                 __pa_243   0x00666e    program     static /fred/mandm/mandm/mandm8722.c
                 __pa_244   0x006678    program     static /fred/mandm/mandm/mandm8722.c
                 __pa_245   0x00667e    program     static /fred/mandm/mandm/mandm8722.c
                  __pa_25   0x005abc    program     static /fred/mandm/mandm/mandm8722.c
                  __pa_25   0x00d55a    program     static /fred/mandm/mandm/config.c
                  __pa_26   0x005ac2    program     static /fred/mandm/mandm/mandm8722.c
                  __pa_26   0x00d566    program     static /fred/mandm/mandm/config.c
                  __pa_27   0x005acc    program     static /fred/mandm/mandm/mandm8722.c
                  __pa_28   0x005ae0    program     static /fred/mandm/mandm/mandm8722.c
                  __pa_29   0x005aec    program     static /fred/mandm/mandm/mandm8722.c
                   __pa_3   0x00cf8e    program     static C:\MCC18\v3_39\src\extended\stdclib\vfprintf.c
                   __pa_3   0x00d478    program     static /fred/mandm/mandm/config.c
                   __pa_3   0x00d980    program     static /fred/mandm/mandm/power.c
                   __pa_3   0x008460    program     static /fred/mandm/mandm/daq.c  
                   __pa_3   0x0058ec    program     static /fred/mandm/mandm/mandm8722.c
                  __pa_30   0x005af4    program     static /fred/mandm/mandm/mandm8722.c
                  __pa_31   0x005b0e    program     static /fred/mandm/mandm/mandm8722.c
                  __pa_32   0x005b14    program     static /fred/mandm/mandm/mandm8722.c
                  __pa_33   0x005b1e    program     static /fred/mandm/mandm/mandm8722.c
                  __pa_34   0x005b24    program     static /fred/mandm/mandm/mandm8722.c
                  __pa_35   0x005b2e    program     static /fred/mandm/mandm/mandm8722.c
                  __pa_36   0x005b3e    program     static /fred/mandm/mandm/mandm8722.c
                  __pa_37   0x005b4a    program     static /fred/mandm/mandm/mandm8722.c
                  __pa_38   0x005b58    program     static /fred/mandm/mandm/mandm8722.c
                  __pa_39   0x005b8a    program     static /fred/mandm/mandm/mandm8722.c
                   __pa_4   0x00cfa2    program     static C:\MCC18\v3_39\src\extended\stdclib\vfprintf.c
                   __pa_4   0x00d988    program     static /fred/mandm/mandm/power.c
                   __pa_4   0x005934    program     static /fred/mandm/mandm/mandm8722.c
                   __pa_4   0x008476    program     static /fred/mandm/mandm/daq.c  
                   __pa_4   0x00d480    program     static /fred/mandm/mandm/config.c
                  __pa_40   0x005bbc    program     static /fred/mandm/mandm/mandm8722.c
                  __pa_41   0x005bc6    program     static /fred/mandm/mandm/mandm8722.c
                  __pa_42   0x005bf2    program     static /fred/mandm/mandm/mandm8722.c
                  __pa_43   0x005bfc    program     static /fred/mandm/mandm/mandm8722.c
                  __pa_44   0x005c10    program     static /fred/mandm/mandm/mandm8722.c
                  __pa_45   0x005c1c    program     static /fred/mandm/mandm/mandm8722.c
                  __pa_46   0x005c28    program     static /fred/mandm/mandm/mandm8722.c
                  __pa_47   0x005c46    program     static /fred/mandm/mandm/mandm8722.c
                  __pa_48   0x005c54    program     static /fred/mandm/mandm/mandm8722.c
                  __pa_49   0x005c5a    program     static /fred/mandm/mandm/mandm8722.c
                   __pa_5   0x00cfb4    program     static C:\MCC18\v3_39\src\extended\stdclib\vfprintf.c
                   __pa_5   0x00d488    program     static /fred/mandm/mandm/config.c
                   __pa_5   0x00d990    program     static /fred/mandm/mandm/power.c
                   __pa_5   0x008486    program     static /fred/mandm/mandm/daq.c  
                   __pa_5   0x00593e    program     static /fred/mandm/mandm/mandm8722.c
                  __pa_50   0x005c66    program     static /fred/mandm/mandm/mandm8722.c
                  __pa_51   0x005c72    program     static /fred/mandm/mandm/mandm8722.c
                  __pa_52   0x005c7c    program     static /fred/mandm/mandm/mandm8722.c
                  __pa_53   0x005c86    program     static /fred/mandm/mandm/mandm8722.c
                  __pa_54   0x005c92    program     static /fred/mandm/mandm/mandm8722.c
                  __pa_55   0x005c98    program     static /fred/mandm/mandm/mandm8722.c
                  __pa_56   0x005caa    program     static /fred/mandm/mandm/mandm8722.c
                  __pa_57   0x005cbc    program     static /fred/mandm/mandm/mandm8722.c
                  __pa_58   0x005cce    program     static /fred/mandm/mandm/mandm8722.c
                  __pa_59   0x005cd6    program     static /fred/mandm/mandm/mandm8722.c
                   __pa_6   0x00d99c    program     static /fred/mandm/mandm/power.c
                   __pa_6   0x00d496    program     static /fred/mandm/mandm/config.c
                   __pa_6   0x00cfc4    program     static C:\MCC18\v3_39\src\extended\stdclib\vfprintf.c
                   __pa_6   0x005962    program     static /fred/mandm/mandm/mandm8722.c
                  __pa_60   0x005cdc    program     static /fred/mandm/mandm/mandm8722.c
                  __pa_61   0x005cea    program     static /fred/mandm/mandm/mandm8722.c
                  __pa_62   0x005cf4    program     static /fred/mandm/mandm/mandm8722.c
                  __pa_63   0x005d00    program     static /fred/mandm/mandm/mandm8722.c
                  __pa_64   0x005d0c    program     static /fred/mandm/mandm/mandm8722.c
                  __pa_65   0x005d12    program     static /fred/mandm/mandm/mandm8722.c
                  __pa_66   0x005d1c    program     static /fred/mandm/mandm/mandm8722.c
                  __pa_67   0x005d34    program     static /fred/mandm/mandm/mandm8722.c
                  __pa_68   0x005d48    program     static /fred/mandm/mandm/mandm8722.c
                  __pa_69   0x005d52    program     static /fred/mandm/mandm/mandm8722.c
                   __pa_7   0x00cfd6    program     static C:\MCC18\v3_39\src\extended\stdclib\vfprintf.c
                   __pa_7   0x00d49e    program     static /fred/mandm/mandm/config.c
                   __pa_7   0x005986    program     static /fred/mandm/mandm/mandm8722.c
                   __pa_7   0x00d9ae    program     static /fred/mandm/mandm/power.c
                  __pa_70   0x005d5c    program     static /fred/mandm/mandm/mandm8722.c
                  __pa_71   0x005d70    program     static /fred/mandm/mandm/mandm8722.c
                  __pa_72   0x005d7e    program     static /fred/mandm/mandm/mandm8722.c
                  __pa_73   0x005d96    program     static /fred/mandm/mandm/mandm8722.c
                  __pa_74   0x005d9c    program     static /fred/mandm/mandm/mandm8722.c
                  __pa_75   0x005daa    program     static /fred/mandm/mandm/mandm8722.c
                  __pa_76   0x005db2    program     static /fred/mandm/mandm/mandm8722.c
                  __pa_77   0x005dc0    program     static /fred/mandm/mandm/mandm8722.c
                  __pa_78   0x005dce    program     static /fred/mandm/mandm/mandm8722.c
                  __pa_79   0x005ddc    program     static /fred/mandm/mandm/mandm8722.c
                   __pa_8   0x00d9b8    program     static /fred/mandm/mandm/power.c
                   __pa_8   0x00d4a6    program     static /fred/mandm/mandm/config.c
                   __pa_8   0x00cfe2    program     static C:\MCC18\v3_39\src\extended\stdclib\vfprintf.c
                   __pa_8   0x0059a4    program     static /fred/mandm/mandm/mandm8722.c
                  __pa_80   0x005de2    program     static /fred/mandm/mandm/mandm8722.c
                  __pa_81   0x005dec    program     static /fred/mandm/mandm/mandm8722.c
                  __pa_82   0x005df6    program     static /fred/mandm/mandm/mandm8722.c
                  __pa_83   0x005e00    program     static /fred/mandm/mandm/mandm8722.c
                  __pa_84   0x005e14    program     static /fred/mandm/mandm/mandm8722.c
                  __pa_85   0x005e28    program     static /fred/mandm/mandm/mandm8722.c
                  __pa_86   0x005e3a    program     static /fred/mandm/mandm/mandm8722.c
                  __pa_87   0x005e4c    program     static /fred/mandm/mandm/mandm8722.c
                  __pa_88   0x005e5e    program     static /fred/mandm/mandm/mandm8722.c
                  __pa_89   0x005e70    program     static /fred/mandm/mandm/mandm8722.c
                   __pa_9   0x0059c4    program     static /fred/mandm/mandm/mandm8722.c
                   __pa_9   0x00d9c2    program     static /fred/mandm/mandm/power.c
                   __pa_9   0x00cff4    program     static C:\MCC18\v3_39\src\extended\stdclib\vfprintf.c
                   __pa_9   0x00d4ae    program     static /fred/mandm/mandm/config.c
                  __pa_90   0x005e82    program     static /fred/mandm/mandm/mandm8722.c
                  __pa_91   0x005e8e    program     static /fred/mandm/mandm/mandm8722.c
                  __pa_92   0x005ea0    program     static /fred/mandm/mandm/mandm8722.c
                  __pa_93   0x005eb2    program     static /fred/mandm/mandm/mandm8722.c
                  __pa_94   0x005eb8    program     static /fred/mandm/mandm/mandm8722.c
                  __pa_95   0x005ec4    program     static /fred/mandm/mandm/mandm8722.c
                  __pa_96   0x005eca    program     static /fred/mandm/mandm/mandm8722.c
                  __pa_97   0x005edc    program     static /fred/mandm/mandm/mandm8722.c
                  __pa_98   0x005eee    program     static /fred/mandm/mandm/mandm8722.c
                  __pa_99   0x005ef4    program     static /fred/mandm/mandm/mandm8722.c
               __string_0   0x008598    program     static /fred/mandm/mandm/daq.c  
               __string_0   0x009b4d    program     static /fred/mandm/mandm/config.c
               __string_1   0x008558    program     static /fred/mandm/mandm/daq.c  
               __string_1   0x009b28    program     static /fred/mandm/mandm/config.c
              __string_10   0x0099f1    program     static /fred/mandm/mandm/config.c
             __string_118   0x0099e5    program     static /fred/mandm/mandm/mandm8722.c
             __string_119   0x0099dc    program     static /fred/mandm/mandm/mandm8722.c
             __string_120   0x0099c3    program     static /fred/mandm/mandm/mandm8722.c
             __string_121   0x0099bc    program     static /fred/mandm/mandm/mandm8722.c
             __string_122   0x0099b9    program     static /fred/mandm/mandm/mandm8722.c
             __string_123   0x0099b4    program     static /fred/mandm/mandm/mandm8722.c
             __string_124   0x0099b2    program     static /fred/mandm/mandm/mandm8722.c
             __string_125   0x00999c    program     static /fred/mandm/mandm/mandm8722.c
             __string_126   0x00990d    program     static /fred/mandm/mandm/mandm8722.c
             __string_127   0x00984e    program     static /fred/mandm/mandm/mandm8722.c
             __string_128   0x0097eb    program     static /fred/mandm/mandm/mandm8722.c
             __string_129   0x009773    program     static /fred/mandm/mandm/mandm8722.c
             __string_130   0x009752    program     static /fred/mandm/mandm/mandm8722.c
             __string_131   0x00973a    program     static /fred/mandm/mandm/mandm8722.c
             __string_132   0x009728    program     static /fred/mandm/mandm/mandm8722.c
             __string_133   0x00971c    program     static /fred/mandm/mandm/mandm8722.c
             __string_134   0x009714    program     static /fred/mandm/mandm/mandm8722.c
             __string_135   0x00970c    program     static /fred/mandm/mandm/mandm8722.c
             __string_136   0x009706    program     static /fred/mandm/mandm/mandm8722.c
             __string_137   0x0096f9    program     static /fred/mandm/mandm/mandm8722.c
             __string_138   0x0096ef    program     static /fred/mandm/mandm/mandm8722.c
             __string_139   0x0096dd    program     static /fred/mandm/mandm/mandm8722.c
             __string_140   0x0096c3    program     static /fred/mandm/mandm/mandm8722.c
             __string_141   0x0096a9    program     static /fred/mandm/mandm/mandm8722.c
             __string_142   0x009689    program     static /fred/mandm/mandm/mandm8722.c
             __string_143   0x00966f    program     static /fred/mandm/mandm/mandm8722.c
             __string_144   0x009656    program     static /fred/mandm/mandm/mandm8722.c
             __string_145   0x009632    program     static /fred/mandm/mandm/mandm8722.c
             __string_146   0x00960f    program     static /fred/mandm/mandm/mandm8722.c
             __string_147   0x0095c2    program     static /fred/mandm/mandm/mandm8722.c
             __string_148   0x00957b    program     static /fred/mandm/mandm/mandm8722.c
             __string_149   0x009560    program     static /fred/mandm/mandm/mandm8722.c
             __string_150   0x009523    program     static /fred/mandm/mandm/mandm8722.c
             __string_151   0x0094ec    program     static /fred/mandm/mandm/mandm8722.c
             __string_152   0x0094d6    program     static /fred/mandm/mandm/mandm8722.c
             __string_153   0x0094bf    program     static /fred/mandm/mandm/mandm8722.c
             __string_154   0x009470    program     static /fred/mandm/mandm/mandm8722.c
             __string_155   0x00941a    program     static /fred/mandm/mandm/mandm8722.c
             __string_156   0x009400    program     static /fred/mandm/mandm/mandm8722.c
             __string_157   0x0093e1    program     static /fred/mandm/mandm/mandm8722.c
             __string_158   0x00938f    program     static /fred/mandm/mandm/mandm8722.c
             __string_159   0x009352    program     static /fred/mandm/mandm/mandm8722.c
             __string_160   0x009335    program     static /fred/mandm/mandm/mandm8722.c
             __string_161   0x0092e4    program     static /fred/mandm/mandm/mandm8722.c
             __string_162   0x0092d2    program     static /fred/mandm/mandm/mandm8722.c
             __string_163   0x0092b7    program     static /fred/mandm/mandm/mandm8722.c
             __string_164   0x0092a8    program     static /fred/mandm/mandm/mandm8722.c
             __string_165   0x00928d    program     static /fred/mandm/mandm/mandm8722.c
             __string_166   0x009275    program     static /fred/mandm/mandm/mandm8722.c
             __string_167   0x009266    program     static /fred/mandm/mandm/mandm8722.c
             __string_168   0x00924e    program     static /fred/mandm/mandm/mandm8722.c
             __string_169   0x009237    program     static /fred/mandm/mandm/mandm8722.c
             __string_170   0x009220    program     static /fred/mandm/mandm/mandm8722.c
             __string_171   0x00920d    program     static /fred/mandm/mandm/mandm8722.c
             __string_172   0x0091e2    program     static /fred/mandm/mandm/mandm8722.c
             __string_173   0x0091cc    program     static /fred/mandm/mandm/mandm8722.c
             __string_174   0x0091b6    program     static /fred/mandm/mandm/mandm8722.c
             __string_175   0x0091a0    program     static /fred/mandm/mandm/mandm8722.c
             __string_176   0x00918a    program     static /fred/mandm/mandm/mandm8722.c
             __string_177   0x009161    program     static /fred/mandm/mandm/mandm8722.c
             __string_178   0x009140    program     static /fred/mandm/mandm/mandm8722.c
             __string_179   0x009123    program     static /fred/mandm/mandm/mandm8722.c
             __string_180   0x0090fc    program     static /fred/mandm/mandm/mandm8722.c
             __string_181   0x0090e2    program     static /fred/mandm/mandm/mandm8722.c
             __string_182   0x0090b9    program     static /fred/mandm/mandm/mandm8722.c
             __string_183   0x009090    program     static /fred/mandm/mandm/mandm8722.c
             __string_184   0x009067    program     static /fred/mandm/mandm/mandm8722.c
             __string_185   0x009040    program     static /fred/mandm/mandm/mandm8722.c
             __string_186   0x009019    program     static /fred/mandm/mandm/mandm8722.c
             __string_187   0x008ff2    program     static /fred/mandm/mandm/mandm8722.c
             __string_188   0x008fc9    program     static /fred/mandm/mandm/mandm8722.c
             __string_189   0x008fb1    program     static /fred/mandm/mandm/mandm8722.c
             __string_190   0x008f88    program     static /fred/mandm/mandm/mandm8722.c
             __string_191   0x008f73    program     static /fred/mandm/mandm/mandm8722.c
             __string_192   0x008f4a    program     static /fred/mandm/mandm/mandm8722.c
             __string_193   0x008f28    program     static /fred/mandm/mandm/mandm8722.c
             __string_194   0x008f01    program     static /fred/mandm/mandm/mandm8722.c
             __string_195   0x008ee0    program     static /fred/mandm/mandm/mandm8722.c
             __string_196   0x008eb9    program     static /fred/mandm/mandm/mandm8722.c
             __string_197   0x008e92    program     static /fred/mandm/mandm/mandm8722.c
             __string_198   0x008e6b    program     static /fred/mandm/mandm/mandm8722.c
             __string_199   0x008e55    program     static /fred/mandm/mandm/mandm8722.c
               __string_2   0x009b03    program     static /fred/mandm/mandm/config.c
               __string_2   0x00851d    program     static /fred/mandm/mandm/daq.c  
             __string_200   0x008e3f    program     static /fred/mandm/mandm/mandm8722.c
             __string_201   0x008e29    program     static /fred/mandm/mandm/mandm8722.c
             __string_202   0x008e12    program     static /fred/mandm/mandm/mandm8722.c
             __string_203   0x008dfb    program     static /fred/mandm/mandm/mandm8722.c
             __string_204   0x008de4    program     static /fred/mandm/mandm/mandm8722.c
             __string_205   0x008dc5    program     static /fred/mandm/mandm/mandm8722.c
             __string_206   0x008da6    program     static /fred/mandm/mandm/mandm8722.c
             __string_207   0x008d87    program     static /fred/mandm/mandm/mandm8722.c
             __string_208   0x008d69    program     static /fred/mandm/mandm/mandm8722.c
             __string_209   0x008d45    program     static /fred/mandm/mandm/mandm8722.c
             __string_210   0x008d17    program     static /fred/mandm/mandm/mandm8722.c
             __string_211   0x008cfb    program     static /fred/mandm/mandm/mandm8722.c
             __string_212   0x008cd0    program     static /fred/mandm/mandm/mandm8722.c
             __string_213   0x008cb1    program     static /fred/mandm/mandm/mandm8722.c
             __string_214   0x008c89    program     static /fred/mandm/mandm/mandm8722.c
             __string_215   0x008c5c    program     static /fred/mandm/mandm/mandm8722.c
             __string_216   0x008c41    program     static /fred/mandm/mandm/mandm8722.c
             __string_217   0x008c16    program     static /fred/mandm/mandm/mandm8722.c
             __string_218   0x008bf6    program     static /fred/mandm/mandm/mandm8722.c
             __string_219   0x008bdf    program     static /fred/mandm/mandm/mandm8722.c
             __string_220   0x008bc8    program     static /fred/mandm/mandm/mandm8722.c
             __string_221   0x008bac    program     static /fred/mandm/mandm/mandm8722.c
             __string_222   0x008b8e    program     static /fred/mandm/mandm/mandm8722.c
             __string_223   0x008b68    program     static /fred/mandm/mandm/mandm8722.c
             __string_224   0x008b4b    program     static /fred/mandm/mandm/mandm8722.c
             __string_225   0x008b26    program     static /fred/mandm/mandm/mandm8722.c
             __string_226   0x008b0e    program     static /fred/mandm/mandm/mandm8722.c
             __string_227   0x008ae6    program     static /fred/mandm/mandm/mandm8722.c
             __string_228   0x008abe    program     static /fred/mandm/mandm/mandm8722.c
             __string_229   0x008a96    program     static /fred/mandm/mandm/mandm8722.c
             __string_230   0x008a6e    program     static /fred/mandm/mandm/mandm8722.c
             __string_231   0x008a57    program     static /fred/mandm/mandm/mandm8722.c
             __string_232   0x008a35    program     static /fred/mandm/mandm/mandm8722.c
             __string_233   0x008a09    program     static /fred/mandm/mandm/mandm8722.c
             __string_234   0x0089f2    program     static /fred/mandm/mandm/mandm8722.c
             __string_235   0x0089db    program     static /fred/mandm/mandm/mandm8722.c
             __string_236   0x0089c4    program     static /fred/mandm/mandm/mandm8722.c
             __string_237   0x0089ae    program     static /fred/mandm/mandm/mandm8722.c
             __string_238   0x008997    program     static /fred/mandm/mandm/mandm8722.c
             __string_239   0x008980    program     static /fred/mandm/mandm/mandm8722.c
             __string_240   0x008954    program     static /fred/mandm/mandm/mandm8722.c
             __string_241   0x00893f    program     static /fred/mandm/mandm/mandm8722.c
             __string_242   0x008921    program     static /fred/mandm/mandm/mandm8722.c
             __string_243   0x008904    program     static /fred/mandm/mandm/mandm8722.c
             __string_244   0x0088e6    program     static /fred/mandm/mandm/mandm8722.c
             __string_245   0x0088b1    program     static /fred/mandm/mandm/mandm8722.c
             __string_246   0x00888e    program     static /fred/mandm/mandm/mandm8722.c
             __string_247   0x008850    program     static /fred/mandm/mandm/mandm8722.c
             __string_248   0x00883b    program     static /fred/mandm/mandm/mandm8722.c
             __string_249   0x008816    program     static /fred/mandm/mandm/mandm8722.c
             __string_250   0x0087ec    program     static /fred/mandm/mandm/mandm8722.c
             __string_251   0x0087c3    program     static /fred/mandm/mandm/mandm8722.c
             __string_252   0x00879a    program     static /fred/mandm/mandm/mandm8722.c
             __string_253   0x008782    program     static /fred/mandm/mandm/mandm8722.c
             __string_254   0x008763    program     static /fred/mandm/mandm/mandm8722.c
             __string_255   0x00874b    program     static /fred/mandm/mandm/mandm8722.c
             __string_256   0x008732    program     static /fred/mandm/mandm/mandm8722.c
             __string_257   0x008715    program     static /fred/mandm/mandm/mandm8722.c
             __string_258   0x0086f5    program     static /fred/mandm/mandm/mandm8722.c
             __string_259   0x0086d2    program     static /fred/mandm/mandm/mandm8722.c
             __string_260   0x0086b2    program     static /fred/mandm/mandm/mandm8722.c
             __string_261   0x008699    program     static /fred/mandm/mandm/mandm8722.c
             __string_262   0x00867d    program     static /fred/mandm/mandm/mandm8722.c
             __string_263   0x008664    program     static /fred/mandm/mandm/mandm8722.c
             __string_264   0x00864b    program     static /fred/mandm/mandm/mandm8722.c
             __string_265   0x008635    program     static /fred/mandm/mandm/mandm8722.c
             __string_266   0x008618    program     static /fred/mandm/mandm/mandm8722.c
             __string_267   0x0085ff    program     static /fred/mandm/mandm/mandm8722.c
             __string_268   0x0085d6    program     static /fred/mandm/mandm/mandm8722.c
             __string_269   0x0085b5    program     static /fred/mandm/mandm/mandm8722.c
               __string_3   0x0084ee    program     static /fred/mandm/mandm/daq.c  
               __string_3   0x009ae1    program     static /fred/mandm/mandm/config.c
               __string_4   0x009abe    program     static /fred/mandm/mandm/config.c
               __string_4   0x0084bf    program     static /fred/mandm/mandm/daq.c  
               __string_5   0x009a99    program     static /fred/mandm/mandm/config.c
               __string_5   0x008490    program     static /fred/mandm/mandm/daq.c  
               __string_6   0x009a72    program     static /fred/mandm/mandm/config.c
               __string_7   0x009a50    program     static /fred/mandm/mandm/config.c
               __string_8   0x009a39    program     static /fred/mandm/mandm/config.c
               __string_9   0x009a15    program     static /fred/mandm/mandm/config.c
                  __subFP   0x00bdd4    program     extern C:\MCC18\v3_39\src\extended\math\addFP.asm
               __tmplbl_0   0x00dd64    program     static                          
               __tmplbl_0   0x00b232    program     static                          
               __tmplbl_1   0x00b22c    program     static                          
               __tmplbl_1   0x00dd5e    program     static                          
              __tmplbl_10   0x006c74    program     static                          
              __tmplbl_10   0x00b416    program     static                          
             __tmplbl_100   0x005a6e    program     static                          
             __tmplbl_101   0x00630a    program     static                          
             __tmplbl_102   0x00630a    program     static                          
             __tmplbl_103   0x005a6e    program     static                          
             __tmplbl_104   0x005a6e    program     static                          
             __tmplbl_105   0x006408    program     static                          
             __tmplbl_106   0x006408    program     static                          
             __tmplbl_107   0x005a6e    program     static                          
             __tmplbl_108   0x005a6e    program     static                          
              __tmplbl_11   0x00b43a    program     static                          
              __tmplbl_11   0x006c50    program     static                          
             __tmplbl_113   0x005a6e    program     static                          
             __tmplbl_115   0x005a6e    program     static                          
             __tmplbl_116   0x005a6e    program     static                          
              __tmplbl_12   0x00b434    program     static                          
              __tmplbl_12   0x006dfc    program     static                          
              __tmplbl_13   0x006ed2    program     static                          
              __tmplbl_13   0x00b45c    program     static                          
             __tmplbl_131   0x005a6e    program     static                          
             __tmplbl_133   0x005b24    program     static                          
             __tmplbl_134   0x0063d2    program     static                          
             __tmplbl_135   0x0063d2    program     static                          
             __tmplbl_136   0x0063d2    program     static                          
             __tmplbl_137   0x0063d2    program     static                          
              __tmplbl_14   0x00b456    program     static                          
              __tmplbl_14   0x006eae    program     static                          
             __tmplbl_142   0x002aa6    program     static                          
             __tmplbl_143   0x002b4a    program     static                          
             __tmplbl_144   0x002bca    program     static                          
             __tmplbl_145   0x002bf4    program     static                          
             __tmplbl_146   0x002d3e    program     static                          
             __tmplbl_147   0x002de2    program     static                          
             __tmplbl_148   0x002e62    program     static                          
             __tmplbl_149   0x002e8c    program     static                          
              __tmplbl_15   0x00705c    program     static                          
              __tmplbl_15   0x00b484    program     static                          
             __tmplbl_150   0x00649a    program     static                          
             __tmplbl_151   0x00649a    program     static                          
             __tmplbl_152   0x005a6e    program     static                          
             __tmplbl_153   0x005b24    program     static                          
             __tmplbl_154   0x005a6e    program     static                          
              __tmplbl_16   0x00712a    program     static                          
              __tmplbl_16   0x00b47e    program     static                          
              __tmplbl_17   0x007106    program     static                          
              __tmplbl_17   0x00b4ac    program     static                          
              __tmplbl_18   0x0078b8    program     static                          
              __tmplbl_18   0x00b4a6    program     static                          
              __tmplbl_19   0x00b500    program     static                          
              __tmplbl_19   0x007830    program     static                          
               __tmplbl_2   0x00b254    program     static                          
              __tmplbl_20   0x00b4fa    program     static                          
              __tmplbl_20   0x007a4e    program     static                          
              __tmplbl_21   0x00b558    program     static                          
              __tmplbl_21   0x007a48    program     static                          
              __tmplbl_22   0x00b582    program     static                          
              __tmplbl_23   0x00b796    program     static                          
              __tmplbl_23   0x0068a0    program     static                          
              __tmplbl_24   0x00b7e4    program     static                          
              __tmplbl_24   0x0069c0    program     static                          
              __tmplbl_25   0x00b80c    program     static                          
              __tmplbl_25   0x006b2e    program     static                          
              __tmplbl_26   0x00b896    program     static                          
              __tmplbl_26   0x006d86    program     static                          
              __tmplbl_27   0x00bbae    program     static                          
              __tmplbl_27   0x006fe6    program     static                          
              __tmplbl_28   0x007a46    program     static                          
              __tmplbl_28   0x00bb70    program     static                          
              __tmplbl_29   0x00bc38    program     static                          
               __tmplbl_3   0x00b24e    program     static                          
               __tmplbl_3   0x000290    program     static                          
              __tmplbl_30   0x00bc16    program     static                          
              __tmplbl_31   0x00bc10    program     static                          
              __tmplbl_32   0x00bc0a    program     static                          
              __tmplbl_33   0x00bcc2    program     static                          
              __tmplbl_34   0x00bd10    program     static                          
              __tmplbl_35   0x00bd0a    program     static                          
              __tmplbl_36   0x00bb6e    program     static                          
               __tmplbl_4   0x00033e    program     static                          
               __tmplbl_4   0x00b2c2    program     static                          
               __tmplbl_5   0x00b3f2    program     static                          
               __tmplbl_6   0x00b3ea    program     static                          
              __tmplbl_66   0x002bdc    program     static                          
              __tmplbl_67   0x002bcc    program     static                          
              __tmplbl_68   0x002e74    program     static                          
              __tmplbl_69   0x002e64    program     static                          
               __tmplbl_7   0x00b408    program     static                          
              __tmplbl_70   0x002eb8    program     static                          
              __tmplbl_71   0x002eae    program     static                          
              __tmplbl_72   0x0032f2    program     static                          
              __tmplbl_73   0x0032ec    program     static                          
              __tmplbl_74   0x0032e6    program     static                          
              __tmplbl_75   0x0035fe    program     static                          
              __tmplbl_76   0x0035f6    program     static                          
              __tmplbl_77   0x003820    program     static                          
              __tmplbl_78   0x00381a    program     static                          
              __tmplbl_79   0x003814    program     static                          
               __tmplbl_8   0x00b400    program     static                          
              __tmplbl_80   0x003b2c    program     static                          
              __tmplbl_81   0x003b24    program     static                          
              __tmplbl_82   0x003cae    program     static                          
              __tmplbl_83   0x003eec    program     static                          
              __tmplbl_84   0x004620    program     static                          
              __tmplbl_85   0x00459a    program     static                          
              __tmplbl_86   0x004f66    program     static                          
              __tmplbl_87   0x004f2c    program     static                          
              __tmplbl_88   0x004f62    program     static                          
              __tmplbl_89   0x005872    program     static                          
               __tmplbl_9   0x006ba4    program     static                          
               __tmplbl_9   0x00b41e    program     static                          
              __tmplbl_90   0x00586c    program     static                          
              __tmplbl_91   0x005a6e    program     static                          
              __tmplbl_92   0x005a6e    program     static                          
              __tmplbl_93   0x005a6e    program     static                          
              __tmplbl_94   0x005a6e    program     static                          
              __tmplbl_95   0x005a6e    program     static                          
              __tmplbl_96   0x005a6e    program     static                          
              __tmplbl_97   0x005a6e    program     static                          
              __tmplbl_99   0x005a6e    program     static                          
            __zero_memory   0x00e832    program     extern C:\MCC18\v3_39\src\extended\proc\p18F8722.asm
                _do_cinit   0x00deba    program     extern C:\MCC18\v3_39\src\extended\startup\c018i_e.c
            _early16uexit   0x00c7e4    program     extern C:\MCC18\v3_39\src\extended\math\div16u.asm
            _early32uexit   0x00c356    program     extern C:\MCC18\v3_39\src\extended\math\div32u.asm
                   _entry   0x000000    program     extern C:\MCC18\v3_39\src\extended\startup\c018i_e.c
                   _false   0x00c39a    program     static C:\MCC18\v3_39\src\extended\math\div32u.asm
                 _startup   0x00e86e    program     extern C:\MCC18\v3_39\src\extended\startup\c018i_e.c
              _usart_putc   0x00e852    program     extern C:\MCC18\v3_39\src\pmc_common\USART\_usartpc.asm
               _user_putc   0x000006    program     extern C:\MCC18\v3_39\src\extended\stdclib\_user_putc.c
                    adcg0   0x00a189    program     extern /fred/mandm/mandm/mandm_msg.h
                    adcg1   0x00a1c9    program     extern /fred/mandm/mandm/mandm_msg.h
                    adcg2   0x00a1f4    program     extern /fred/mandm/mandm/mandm_msg.h
                    adcg3   0x00a227    program     extern /fred/mandm/mandm/mandm_msg.h
                    adcg4   0x00a293    program     extern /fred/mandm/mandm/mandm_msg.h
                     ahfp   0x0010d4    program     extern /fred/mandm/mandm/mandm8722.c
                 almcode0   0x00a947    program     extern /fred/mandm/mandm/mandm_msg.h
                 almcode1   0x00a967    program     extern /fred/mandm/mandm/mandm_msg.h
                almcode10   0x00ab0e    program     extern /fred/mandm/mandm/mandm_msg.h
                almcode11   0x00ab4f    program     extern /fred/mandm/mandm/mandm_msg.h
                almcode12   0x00ab75    program     extern /fred/mandm/mandm/mandm_msg.h
                almcode13   0x00ab9b    program     extern /fred/mandm/mandm/mandm_msg.h
                almcode14   0x00abc7    program     extern /fred/mandm/mandm/mandm_msg.h
                almcode15   0x00abdf    program     extern /fred/mandm/mandm/mandm_msg.h
                almcode16   0x00abf6    program     extern /fred/mandm/mandm/mandm_msg.h
                almcode17   0x00ac23    program     extern /fred/mandm/mandm/mandm_msg.h
                 almcode2   0x00a997    program     extern /fred/mandm/mandm/mandm_msg.h
                 almcode3   0x00a9ba    program     extern /fred/mandm/mandm/mandm_msg.h
                 almcode4   0x00a9dd    program     extern /fred/mandm/mandm/mandm_msg.h
                 almcode5   0x00aa0e    program     extern /fred/mandm/mandm/mandm_msg.h
                 almcode6   0x00aa42    program     extern /fred/mandm/mandm/mandm_msg.h
                 almcode7   0x00aa77    program     extern /fred/mandm/mandm/mandm_msg.h
                 almcode8   0x00aab0    program     extern /fred/mandm/mandm/mandm_msg.h
                 almcode9   0x00aade    program     extern /fred/mandm/mandm/mandm_msg.h
                almcode99   0x00ac42    program     extern /fred/mandm/mandm/mandm_msg.h
                 ansidraw   0x00153e    program     extern /fred/mandm/mandm/mandm8722.c
              battbuffer0   0x00a835    program     extern /fred/mandm/mandm/mandm_msg.h
              battheader0   0x00a700    program     extern /fred/mandm/mandm/mandm_msg.h
              battheader1   0x00a774    program     extern /fred/mandm/mandm/mandm_msg.h
                blink_led   0x00d8a8    program     extern /fred/mandm/mandm/power.c
             buzzer_ticks   0x00bd90    program     extern /fred/mandm/mandm/mandm_vector.c
                 charger0   0x00af29    program     extern /fred/mandm/mandm/mandm_msg.h
                 charger1   0x00af60    program     extern /fred/mandm/mandm/mandm_msg.h
                 charger2   0x00af9a    program     extern /fred/mandm/mandm/mandm_msg.h
                 charger3   0x00afd8    program     extern /fred/mandm/mandm/mandm_msg.h
                 charger4   0x00aff7    program     extern /fred/mandm/mandm/mandm_msg.h
                charger99   0x00b017    program     extern /fred/mandm/mandm/mandm_msg.h
              check_alarm   0x001158    program     extern /fred/mandm/mandm/mandm8722.c
              check_cable   0x001bce    program     extern /fred/mandm/mandm/mandm8722.c
                checktime   0x000348    program     extern /fred/mandm/mandm/mandm8722.c
            checktime_cal   0x0004aa    program     extern /fred/mandm/mandm/mandm8722.c
            checktime_eep   0x000520    program     extern /fred/mandm/mandm/mandm8722.c
          checktime_motor   0x000434    program     extern /fred/mandm/mandm/mandm8722.c
         checktime_select   0x0003be    program     extern /fred/mandm/mandm/mandm8722.c
          checktime_track   0x000596    program     extern /fred/mandm/mandm/mandm8722.c
                chrgcode0   0x00ac43    program     extern /fred/mandm/mandm/mandm_msg.h
                chrgcode1   0x00ac74    program     extern /fred/mandm/mandm/mandm_msg.h
               chrgcode10   0x00adee    program     extern /fred/mandm/mandm/mandm_msg.h
               chrgcode11   0x00ae1b    program     extern /fred/mandm/mandm/mandm_msg.h
               chrgcode12   0x00ae46    program     extern /fred/mandm/mandm/mandm_msg.h
               chrgcode13   0x00ae74    program     extern /fred/mandm/mandm/mandm_msg.h
               chrgcode14   0x00aea1    program     extern /fred/mandm/mandm/mandm_msg.h
               chrgcode15   0x00aed5    program     extern /fred/mandm/mandm/mandm_msg.h
               chrgcode16   0x00aeff    program     extern /fred/mandm/mandm/mandm_msg.h
                chrgcode2   0x00acaa    program     extern /fred/mandm/mandm/mandm_msg.h
                chrgcode3   0x00acd6    program     extern /fred/mandm/mandm/mandm_msg.h
                chrgcode4   0x00ad07    program     extern /fred/mandm/mandm/mandm_msg.h
                chrgcode5   0x00ad3f    program     extern /fred/mandm/mandm/mandm_msg.h
                chrgcode6   0x00ad52    program     extern /fred/mandm/mandm/mandm_msg.h
                chrgcode7   0x00ad72    program     extern /fred/mandm/mandm/mandm_msg.h
                chrgcode8   0x00ad9f    program     extern /fred/mandm/mandm/mandm_msg.h
                chrgcode9   0x00adc9    program     extern /fred/mandm/mandm/mandm_msg.h
               clear_crit   0x00dae2    program     extern /fred/mandm/mandm/crit.c 
                  clr_lcd   0x00065c    program     extern /fred/mandm/mandm/mandm8722.c
                compare_l   0x00e848    program     static C:\MCC18\v3_39\src\extended\proc\p18F8722.asm
               config_pic   0x00dd34    program     extern /fred/mandm/mandm/hwconf.c
                copy_loop   0x00df2c    program     static                          
            copy_one_byte   0x00df32    program     static                          
          default_display   0x0025de    program     extern /fred/mandm/mandm/mandm8722.c
              display_cal   0x00504c    program     extern /fred/mandm/mandm/mandm8722.c
                  divert0   0x00a905    program     extern /fred/mandm/mandm/mandm_msg.h
                  divert1   0x00a925    program     extern /fred/mandm/mandm/mandm_msg.h
                 divert99   0x00a946    program     extern /fred/mandm/mandm/mandm_msg.h
                divmod16u   0x00c7e6    program     static C:\MCC18\v3_39\src\extended\math\div16u.asm
                divmod32u   0x00c358    program     static C:\MCC18\v3_39\src\extended\math\div32u.asm
                     done   0x00df56    program     static                          
             done_copying   0x00df40    program     static                          
           e220_m_display   0x00237c    program     extern /fred/mandm/mandm/mandm8722.c
         e220_qei_display   0x002522    program     extern /fred/mandm/mandm/mandm8722.c
            e220_qei_exer   0x001ff6    program     extern /fred/mandm/mandm/mandm8722.c
                   e_crit   0x00da7a    program     extern /fred/mandm/mandm/crit.c 
              emo_display   0x002640    program     extern /fred/mandm/mandm/mandm8722.c
                emotor_cw   0x00d836    program     extern /fred/mandm/mandm/power.c
        emotor_is_all_off   0x00d856    program     extern /fred/mandm/mandm/power.c
             emotor_power   0x00d7de    program     extern /fred/mandm/mandm/power.c
         emotor_power_off   0x00d874    program     extern /fred/mandm/mandm/power.c
          emotor_power_on   0x00d87a    program     extern /fred/mandm/mandm/power.c
            emotor_relays   0x00d816    program     extern /fred/mandm/mandm/power.c
        emotor_slow_start   0x00d81a    program     extern /fred/mandm/mandm/power.c
         emotor_slow_stop   0x00d832    program     extern /fred/mandm/mandm/power.c
        emotor_switch_ccw   0x00d860    program     extern /fred/mandm/mandm/power.c
         emotor_switch_cw   0x00d86e    program     extern /fred/mandm/mandm/power.c
               emotor_v24   0x00d880    program     extern /fred/mandm/mandm/power.c
                  endloop   0x00c80c    program     static C:\MCC18\v3_39\src\extended\math\div16u.asm
                exerciser   0x002242    program     extern /fred/mandm/mandm/mandm8722.c
          fail_all_motors   0x002730    program     extern /fred/mandm/mandm/mandm8722.c
                fail_safe   0x00149c    program     extern /fred/mandm/mandm/mandm8722.c
                  get_hid   0x001d4e    program     extern /fred/mandm/mandm/mandm8722.c
            gsd_m_display   0x002308    program     extern /fred/mandm/mandm/mandm8722.c
                   hello0   0x00a50b    program     extern /fred/mandm/mandm/mandm_msg.h
                   hello1   0x00a558    program     extern /fred/mandm/mandm/mandm_msg.h
           help_m_display   0x0022b4    program     extern /fred/mandm/mandm/mandm8722.c
                 hid_menu   0x002294    program     extern /fred/mandm/mandm/mandm8722.c
                       hm   0x000ec4    program     extern /fred/mandm/mandm/mandm8722.c
                      hms   0x000e34    program     extern /fred/mandm/mandm/mandm8722.c
                    hold0   0x00a565    program     extern /fred/mandm/mandm/mandm_msg.h
                    hold1   0x00a5c3    program     extern /fred/mandm/mandm/mandm_msg.h
             hold_process   0x00079c    program     extern /fred/mandm/mandm/mandm8722.c
                idle_loop   0x00bd62    program     extern /fred/mandm/mandm/mandm_vector.c
                 init_lcd   0x0050fa    program     extern /fred/mandm/mandm/mandm8722.c
           init_motordata   0x00d0b8    program     extern /fred/mandm/mandm/config.c
          is_led_blinking   0x00d946    program     extern /fred/mandm/mandm/power.c
                  isdigit   0x00e80e    program     extern C:\MCC18\v3_39\src\extended\stdclib\isdigit.asm
                 jANotInf   0x00c706    program     static C:\MCC18\v3_39\src\extended\math\mulFP.asm
                 jANotInf   0x00be1a    program     static C:\MCC18\v3_39\src\extended\math\addFP.asm
                 jANotNeg   0x00beae    program     static C:\MCC18\v3_39\src\extended\math\addFP.asm
              jAandWsetup   0x00be7e    program     static C:\MCC18\v3_39\src\extended\math\addFP.asm
                  jAisNeg   0x00c534    program     static C:\MCC18\v3_39\src\extended\math\compFP.asm
                 jAltBexp   0x00be6c    program     static C:\MCC18\v3_39\src\extended\math\addFP.asm
                jBANotInf   0x00be10    program     static C:\MCC18\v3_39\src\extended\math\addFP.asm
                 jBNotInf   0x00be28    program     static C:\MCC18\v3_39\src\extended\math\addFP.asm
                     jBeg   0x00c03a    program     static C:\MCC18\v3_39\src\extended\math\cast16FP.asm
                     jBeg   0x00c07c    program     static C:\MCC18\v3_39\src\extended\math\cast32FP.asm
                     jBeg   0x00bdda    program     static C:\MCC18\v3_39\src\extended\math\addFP.asm
              jBothFinite   0x00c714    program     static C:\MCC18\v3_39\src\extended\math\mulFP.asm
             jBothNotZero   0x00c4d6    program     static C:\MCC18\v3_39\src\extended\math\compFP.asm
             jBothNotZero   0x00c720    program     static C:\MCC18\v3_39\src\extended\math\mulFP.asm
            jDifOrPosSign   0x00be3c    program     static C:\MCC18\v3_39\src\extended\math\addFP.asm
              jDivANotInf   0x00c40a    program     static C:\MCC18\v3_39\src\extended\math\divFP.asm
             jDivANotZero   0x00c41e    program     static C:\MCC18\v3_39\src\extended\math\divFP.asm
                 jDivLoop   0x00c446    program     static C:\MCC18\v3_39\src\extended\math\divFP.asm
                 jDivNext   0x00c46c    program     static C:\MCC18\v3_39\src\extended\math\divFP.asm
                    jDone   0x00c134    program     static C:\MCC18\v3_39\src\extended\math\castFP16.asm
                    jDone   0x00c1ca    program     static C:\MCC18\v3_39\src\extended\math\castFP32.asm
                      jEQ   0x00c4f2    program     static C:\MCC18\v3_39\src\extended\math\compFP.asm
                     jEnd   0x00dd16    program     static C:\MCC18\v3_39\src\extended\stdclib\sncpyp2r.asm
                     jEnd   0x00dcba    program     static C:\MCC18\v3_39\src\extended\stdclib\strncpy.asm
                     jEnd   0x00dc5c    program     static C:\MCC18\v3_39\src\extended\stdclib\slenpgm.asm
                     jEnd   0x00dc24    program     static C:\MCC18\v3_39\src\extended\stdclib\scpyp2r.asm
                     jEnd   0x00dd32    program     static C:\MCC18\v3_39\src\extended\stdclib\strlen.asm
                     jEnd   0x00dbde    program     static C:\MCC18\v3_39\src\extended\stdclib\memcmp.asm
                    jExch   0x00c4fe    program     static C:\MCC18\v3_39\src\extended\math\compFP.asm
                    jExit   0x00c562    program     static C:\MCC18\v3_39\src\extended\math\compFP.asm
                    jExit   0x00c1da    program     static C:\MCC18\v3_39\src\extended\math\castFP32.asm
                    jExit   0x00bf92    program     static C:\MCC18\v3_39\src\extended\math\packFP.asm
                    jExit   0x00c13c    program     static C:\MCC18\v3_39\src\extended\math\castFP16.asm
                   jExpEQ   0x00c544    program     static C:\MCC18\v3_39\src\extended\math\compFP.asm
                   jFinal   0x00c528    program     static C:\MCC18\v3_39\src\extended\math\compFP.asm
               jFinalSign   0x00bf16    program     static C:\MCC18\v3_39\src\extended\math\addFP.asm
                jHaveZero   0x00c71c    program     static C:\MCC18\v3_39\src\extended\math\mulFP.asm
                    jLoop   0x00c19e    program     static C:\MCC18\v3_39\src\extended\math\castFP32.asm
                    jLoop   0x00dd28    program     static C:\MCC18\v3_39\src\extended\stdclib\strlen.asm
                    jLoop   0x00dcf2    program     static C:\MCC18\v3_39\src\extended\stdclib\sncpyp2r.asm
                    jLoop   0x00dc98    program     static C:\MCC18\v3_39\src\extended\stdclib\strncpy.asm
                    jLoop   0x00dc44    program     static C:\MCC18\v3_39\src\extended\stdclib\slenpgm.asm
                    jLoop   0x00dc1a    program     static C:\MCC18\v3_39\src\extended\stdclib\scpyp2r.asm
                    jLoop   0x00dbc2    program     static C:\MCC18\v3_39\src\extended\stdclib\memcmp.asm
                    jLoop   0x00c114    program     static C:\MCC18\v3_39\src\extended\math\castFP16.asm
                jLoopExit   0x00c1b2    program     static C:\MCC18\v3_39\src\extended\math\castFP32.asm
                jLoopExit   0x00c124    program     static C:\MCC18\v3_39\src\extended\math\castFP16.asm
                   jMatch   0x00e82e    program     static C:\MCC18\v3_39\src\extended\stdclib\isdigit.asm
                     jMax   0x00c0e8    program     static C:\MCC18\v3_39\src\extended\math\castFP16.asm
                     jMax   0x00c16e    program     static C:\MCC18\v3_39\src\extended\math\castFP32.asm
                  jMaxNeg   0x00c0f6    program     static C:\MCC18\v3_39\src\extended\math\castFP16.asm
                  jMaxNeg   0x00c180    program     static C:\MCC18\v3_39\src\extended\math\castFP32.asm
                  jMaxPos   0x00c0ec    program     static C:\MCC18\v3_39\src\extended\math\castFP16.asm
                  jMaxPos   0x00c172    program     static C:\MCC18\v3_39\src\extended\math\castFP32.asm
                      jNE   0x00c4f6    program     static C:\MCC18\v3_39\src\extended\math\compFP.asm
                jNoAdjust   0x00c46a    program     static C:\MCC18\v3_39\src\extended\math\divFP.asm
                  jNoExch   0x00c51e    program     static C:\MCC18\v3_39\src\extended\math\compFP.asm
                 jNoMatch   0x00e830    program     static C:\MCC18\v3_39\src\extended\stdclib\isdigit.asm
             jNotBothZero   0x00be40    program     static C:\MCC18\v3_39\src\extended\math\addFP.asm
                  jNotInf   0x00c104    program     static C:\MCC18\v3_39\src\extended\math\castFP16.asm
                  jNotInf   0x00c18c    program     static C:\MCC18\v3_39\src\extended\math\castFP32.asm
                  jNotNeg   0x00c060    program     static C:\MCC18\v3_39\src\extended\math\cast16FP.asm
                  jNotNeg   0x00c0aa    program     static C:\MCC18\v3_39\src\extended\math\cast32FP.asm
                  jPkLoop   0x00bf2c    program     static C:\MCC18\v3_39\src\extended\math\packFP.asm
             jPkRoundDone   0x00bf76    program     static C:\MCC18\v3_39\src\extended\math\packFP.asm
               jPkRoundIt   0x00bf5e    program     static C:\MCC18\v3_39\src\extended\math\packFP.asm
             jPkShiftDone   0x00bf48    program     static C:\MCC18\v3_39\src\extended\math\packFP.asm
           jReturnPosInf0   0x00bfbc    program     static C:\MCC18\v3_39\src\extended\math\packFP.asm
                  jRotate   0x00c550    program     static C:\MCC18\v3_39\src\extended\math\compFP.asm
                   jShift   0x00c53a    program     static C:\MCC18\v3_39\src\extended\math\compFP.asm
               jShiftDone   0x00bed6    program     static C:\MCC18\v3_39\src\extended\math\addFP.asm
               jShiftLoop   0x00bec8    program     static C:\MCC18\v3_39\src\extended\math\addFP.asm
                jSignDone   0x00bf06    program     static C:\MCC18\v3_39\src\extended\math\addFP.asm
                 jSignsEQ   0x00c4da    program     static C:\MCC18\v3_39\src\extended\math\compFP.asm
                  jUnpkA1   0x00bfe2    program     static C:\MCC18\v3_39\src\extended\math\unpackFP.asm
                  jUnpkA2   0x00bffa    program     static C:\MCC18\v3_39\src\extended\math\unpackFP.asm
                 jUnpkANZ   0x00bff0    program     static C:\MCC18\v3_39\src\extended\math\unpackFP.asm
                  jUnpkB1   0x00c012    program     static C:\MCC18\v3_39\src\extended\math\unpackFP.asm
                  jUnpkB2   0x00c02a    program     static C:\MCC18\v3_39\src\extended\math\unpackFP.asm
                 jUnpkBNZ   0x00c020    program     static C:\MCC18\v3_39\src\extended\math\unpackFP.asm
                 jUnpkNaN   0x00c004    program     static C:\MCC18\v3_39\src\extended\math\unpackFP.asm
                 jWNotNeg   0x00bec2    program     static C:\MCC18\v3_39\src\extended\math\addFP.asm
                   jWr123   0x00c178    program     static C:\MCC18\v3_39\src\extended\math\castFP32.asm
                  jWrZ123   0x00c188    program     static C:\MCC18\v3_39\src\extended\math\castFP32.asm
                    jZero   0x00c186    program     static C:\MCC18\v3_39\src\extended\math\castFP32.asm
                    jZero   0x00c0fe    program     static C:\MCC18\v3_39\src\extended\math\castFP16.asm
               jZero1and2   0x00bfc0    program     static C:\MCC18\v3_39\src\extended\math\packFP.asm
                 keycmds0   0x00a66c    program     extern /fred/mandm/mandm/mandm_msg.h
                 keycmds1   0x00a6b6    program     extern /fred/mandm/mandm/mandm_msg.h
                     loop   0x00c7f0    program     static C:\MCC18\v3_39\src\extended\math\div16u.asm
                     loop   0x00e87c    program     static                          
                     loop   0x00e862    program     static C:\MCC18\v3_39\src\pmc_common\USART\_usartpc.asm
                     loop   0x00c366    program     static C:\MCC18\v3_39\src\extended\math\div32u.asm
                   loop_h   0x00e840    program     static C:\MCC18\v3_39\src\extended\proc\p18F8722.asm
                   loop_l   0x00e84a    program     static C:\MCC18\v3_39\src\extended\proc\p18F8722.asm
                 lowbatt0   0x00a072    program     extern /fred/mandm/mandm/mandm_msg.h
                lp_filter   0x00066c    program     extern /fred/mandm/mandm/mandm8722.c
                     main   0x00515a    program     extern /fred/mandm/mandm/mandm8722.c
                   memcmp   0x00dba2    program     extern C:\MCC18\v3_39\src\extended\stdclib\memcmp.asm
          menuselect_free   0x009d5a    program     extern /fred/mandm/mandm/mandm_msg.h
         menuselect_track   0x009ee6    program     extern /fred/mandm/mandm/mandm_msg.h
                 menutext   0x009c91    program     extern /fred/mandm/mandm/mandm_msg.h
        menutext_template   0x009bc8    program     extern /fred/mandm/mandm/mandm_msg.h
             modelheader0   0x00a7fe    program     extern /fred/mandm/mandm/mandm_msg.h
             modelheader1   0x00a81d    program     extern /fred/mandm/mandm/mandm_msg.h
            motor_control   0x00d5a2    program     extern /fred/mandm/mandm/power.c
            my_struct_cmp   0x00d56c    program     extern /fred/mandm/mandm/power.c
                 nav_menu   0x001fe2    program     extern /fred/mandm/mandm/mandm8722.c
              nonqei_exer   0x00211c    program     extern /fred/mandm/mandm/mandm8722.c
                     putc   0x00e162    program     extern C:\MCC18\v3_39\src\extended\stdclib\putc.c
                    putc2   0x00063e    program     extern /fred/mandm/mandm/mandm8722.c
              putrs2USART   0x00e22c    program     extern C:\MCC18\v3_39\src\pmc_common\USART\u2putrs.c
                putrsXLCD   0x00e2d6    program     extern /fred/mandm/mandm/xlcd/putrxlcd.c
               puts2USART   0x00e324    program     extern C:\MCC18\v3_39\src\pmc_common\USART\u2puts.c
                 putsXLCD   0x00e5c8    program     extern /fred/mandm/mandm/xlcd/putsxlcd.c
                     rand   0x00e556    program     extern C:\MCC18\v3_39\src\extended\stdclib\rand.asm
         read_data_eeprom   0x00db50    program     extern /fred/mandm/mandm/crit.c 
                relay_v24   0x00d8a2    program     extern /fred/mandm/mandm/power.c
                  run_cal   0x0027b2    program     extern /fred/mandm/mandm/mandm8722.c
                   s_crit   0x00d9e2    program     extern /fred/mandm/mandm/crit.c 
                 s_digits   0x00e8b6    program     static C:\MCC18\v3_39\src\extended\stdclib\vfprintf.c
            s_put_n_chars   0x00c8a2    program     static C:\MCC18\v3_39\src\extended\stdclib\vfprintf.c
                  sddump0   0x00a85d    program     extern /fred/mandm/mandm/mandm_msg.h
                  sddump1   0x00a88b    program     extern /fred/mandm/mandm/mandm_msg.h
                  sddump2   0x00a8c1    program     extern /fred/mandm/mandm/mandm_msg.h
                  sddump3   0x00a8d8    program     extern /fred/mandm/mandm/mandm_msg.h
           set_all_motors   0x002788    program     extern /fred/mandm/mandm/mandm8722.c
         slow_timer_start   0x00bdb2    program     extern /fred/mandm/mandm/mandm_vector.c
                     spin   0x009b50    program     extern /fred/mandm/mandm/mandm_msg.h
                 spinners   0x000074    program     extern /fred/mandm/mandm/mandm8722.c
                  sprintf   0x00e0f0    program     extern C:\MCC18\v3_39\src\extended\stdclib\sprintf.c
                    srand   0x00e548    program     extern C:\MCC18\v3_39\src\extended\stdclib\rand.asm
              start_delay   0x000656    program     extern /fred/mandm/mandm/mandm8722.c
                start_pic   0x00de96    program     extern /fred/mandm/mandm/hwconf.c
       start_workerthread   0x00deb6    program     extern /fred/mandm/mandm/hwconf.c
            strcpypgm2ram   0x00dbf4    program     extern C:\MCC18\v3_39\src\extended\stdclib\scpyp2r.asm
                   strlen   0x00dd18    program     extern C:\MCC18\v3_39\src\extended\stdclib\strlen.asm
                strlenpgm   0x00dc26    program     extern C:\MCC18\v3_39\src\extended\stdclib\slenpgm.asm
                  strncpy   0x00dc70    program     extern C:\MCC18\v3_39\src\extended\stdclib\strncpy.asm
           strncpypgm2ram   0x00dccc    program     extern C:\MCC18\v3_39\src\extended\stdclib\sncpyp2r.asm
                    sync0   0x00a5fc    program     extern /fred/mandm/mandm/mandm_msg.h
                    sync1   0x00a630    program     extern /fred/mandm/mandm/mandm_msg.h
                    sync2   0x00a64e    program     extern /fred/mandm/mandm/mandm_msg.h
              system_data   0x0007de    program     extern /fred/mandm/mandm/mandm8722.c
              system_help   0x000e02    program     extern /fred/mandm/mandm/mandm8722.c
                term_time   0x000754    program     extern /fred/mandm/mandm/mandm8722.c
                     test   0x00ded4    program     static                          
             tick_handler   0x00b018    program     extern /fred/mandm/mandm/mandm_vector.c
                 tick_int   0x000008    program     extern /fred/mandm/mandm/mandm8722.c
              track_motor   0x0016d4    program     extern /fred/mandm/mandm/mandm8722.c
                   tweak0   0x00a2ca    program     extern /fred/mandm/mandm/mandm_msg.h
                   tweak1   0x00a367    program     extern /fred/mandm/mandm/mandm_msg.h
                   tweak2   0x00a390    program     extern /fred/mandm/mandm/mandm_msg.h
                   tweak3   0x00a3b4    program     extern /fred/mandm/mandm/mandm_msg.h
                   tweak4   0x00a433    program     extern /fred/mandm/mandm/mandm_msg.h
                   tweak5   0x00a463    program     extern /fred/mandm/mandm/mandm_msg.h
                 tweak_t1   0x00a4e9    program     extern /fred/mandm/mandm/mandm_msg.h
                 tweak_t2   0x00a4ee    program     extern /fred/mandm/mandm/mandm_msg.h
                 tweak_t3   0x00a4f2    program     extern /fred/mandm/mandm/mandm_msg.h
                 tweak_t4   0x00a4f6    program     extern /fred/mandm/mandm/mandm_msg.h
                 tweak_tw   0x00a4fb    program     extern /fred/mandm/mandm/mandm_msg.h
              update_hist   0x00021c    program     extern /fred/mandm/mandm/mandm8722.c
          update_lcd_menu   0x00157c    program     extern /fred/mandm/mandm/mandm8722.c
          v810_ms_display   0x0024ec    program     extern /fred/mandm/mandm/mandm8722.c
         varian_v_display   0x00266e    program     extern /fred/mandm/mandm/mandm8722.c
                 vfprintf   0x00c8d4    program     extern C:\MCC18\v3_39\src\extended\stdclib\vfprintf.c
        viision_m_display   0x002412    program     extern /fred/mandm/mandm/mandm8722.c
       viision_ms_display   0x00249e    program     extern /fred/mandm/mandm/mandm8722.c
             voice1_ticks   0x00bd9a    program     extern /fred/mandm/mandm/mandm_vector.c
             voice2_ticks   0x00bda6    program     extern /fred/mandm/mandm/mandm_vector.c
                   voltfp   0x000fc0    program     extern /fred/mandm/mandm/mandm8722.c
                  voltfpi   0x000ff8    program     extern /fred/mandm/mandm/mandm8722.c
                  voltfps   0x000fde    program     extern /fred/mandm/mandm/mandm8722.c
                 wdtdelay   0x00026a    program     extern /fred/mandm/mandm/mandm8722.c
                  wdttime   0x0002ac    program     extern /fred/mandm/mandm/mandm8722.c
             work_handler   0x00bd40    program     extern /fred/mandm/mandm/mandm_vector.c
                 work_int   0x000018    program     extern /fred/mandm/mandm/mandm8722.c
        write_data_eeprom   0x00daec    program     extern /fred/mandm/mandm/crit.c 
                    zero0   0x00a0b5    program     extern /fred/mandm/mandm/mandm_msg.h
                    zero1   0x00a0df    program     extern /fred/mandm/mandm/mandm_msg.h
                    zero2   0x00a11b    program     extern /fred/mandm/mandm/mandm_msg.h
                    zero3   0x00a14f    program     extern /fred/mandm/mandm/mandm_msg.h
              zero_amploc   0x008304    program     extern /fred/mandm/mandm/daq.c  
               zero_block   0x00e840    program     static C:\MCC18\v3_39\src\extended\proc\p18F8722.asm
                   ADCON0   0x000fc2       data     extern C:\MCC18\v3_39\src\extended\proc\p18F8722.asm
               ADCON0bits   0x000fc2       data     extern C:\MCC18\v3_39\src\extended\proc\p18F8722.asm
                   ADCON1   0x000fc1       data     extern C:\MCC18\v3_39\src\extended\proc\p18F8722.asm
               ADCON1bits   0x000fc1       data     extern C:\MCC18\v3_39\src\extended\proc\p18F8722.asm
                   ADCON2   0x000fc0       data     extern C:\MCC18\v3_39\src\extended\proc\p18F8722.asm
               ADCON2bits   0x000fc0       data     extern C:\MCC18\v3_39\src\extended\proc\p18F8722.asm
                    ADRES   0x000fc3       data     extern C:\MCC18\v3_39\src\extended\proc\p18F8722.asm
                   ADRESH   0x000fc4       data     extern C:\MCC18\v3_39\src\extended\proc\p18F8722.asm
                   ADRESL   0x000fc3       data     extern C:\MCC18\v3_39\src\extended\proc\p18F8722.asm
                  BAUDCON   0x000f7e       data     extern C:\MCC18\v3_39\src\extended\proc\p18F8722.asm
                 BAUDCON1   0x000f7e       data     extern C:\MCC18\v3_39\src\extended\proc\p18F8722.asm
             BAUDCON1bits   0x000f7e       data     extern C:\MCC18\v3_39\src\extended\proc\p18F8722.asm
                 BAUDCON2   0x000f7c       data     extern C:\MCC18\v3_39\src\extended\proc\p18F8722.asm
             BAUDCON2bits   0x000f7c       data     extern C:\MCC18\v3_39\src\extended\proc\p18F8722.asm
              BAUDCONbits   0x000f7e       data     extern C:\MCC18\v3_39\src\extended\proc\p18F8722.asm
                      BSR   0x000fe0       data     extern C:\MCC18\v3_39\src\extended\proc\p18F8722.asm
                        C   0x000640       data     extern /fred/mandm/mandm/mandm8722.c
                    C2RAW   0x0004ee       data     extern /fred/mandm/mandm/mandm8722.c
                  CCP1CON   0x000fbd       data     extern C:\MCC18\v3_39\src\extended\proc\p18F8722.asm
              CCP1CONbits   0x000fbd       data     extern C:\MCC18\v3_39\src\extended\proc\p18F8722.asm
                  CCP2CON   0x000fba       data     extern C:\MCC18\v3_39\src\extended\proc\p18F8722.asm
              CCP2CONbits   0x000fba       data     extern C:\MCC18\v3_39\src\extended\proc\p18F8722.asm
                  CCP3CON   0x000fb7       data     extern C:\MCC18\v3_39\src\extended\proc\p18F8722.asm
              CCP3CONbits   0x000fb7       data     extern C:\MCC18\v3_39\src\extended\proc\p18F8722.asm
                  CCP4CON   0x000f73       data     extern C:\MCC18\v3_39\src\extended\proc\p18F8722.asm
              CCP4CONbits   0x000f73       data     extern C:\MCC18\v3_39\src\extended\proc\p18F8722.asm
                  CCP5CON   0x000f70       data     extern C:\MCC18\v3_39\src\extended\proc\p18F8722.asm
              CCP5CONbits   0x000f70       data     extern C:\MCC18\v3_39\src\extended\proc\p18F8722.asm
                    CCPR1   0x000fbe       data     extern C:\MCC18\v3_39\src\extended\proc\p18F8722.asm
                   CCPR1H   0x000fbf       data     extern C:\MCC18\v3_39\src\extended\proc\p18F8722.asm
                   CCPR1L   0x000fbe       data     extern C:\MCC18\v3_39\src\extended\proc\p18F8722.asm
                    CCPR2   0x000fbb       data     extern C:\MCC18\v3_39\src\extended\proc\p18F8722.asm
                   CCPR2H   0x000fbc       data     extern C:\MCC18\v3_39\src\extended\proc\p18F8722.asm
                   CCPR2L   0x000fbb       data     extern C:\MCC18\v3_39\src\extended\proc\p18F8722.asm
                    CCPR3   0x000fb8       data     extern C:\MCC18\v3_39\src\extended\proc\p18F8722.asm
                   CCPR3H   0x000fb9       data     extern C:\MCC18\v3_39\src\extended\proc\p18F8722.asm
                   CCPR3L   0x000fb8       data     extern C:\MCC18\v3_39\src\extended\proc\p18F8722.asm
                    CCPR4   0x000f74       data     extern C:\MCC18\v3_39\src\extended\proc\p18F8722.asm
                   CCPR4H   0x000f75       data     extern C:\MCC18\v3_39\src\extended\proc\p18F8722.asm
                   CCPR4L   0x000f74       data     extern C:\MCC18\v3_39\src\extended\proc\p18F8722.asm
                    CCPR5   0x000f71       data     extern C:\MCC18\v3_39\src\extended\proc\p18F8722.asm
                   CCPR5H   0x000f72       data     extern C:\MCC18\v3_39\src\extended\proc\p18F8722.asm
                   CCPR5L   0x000f71       data     extern C:\MCC18\v3_39\src\extended\proc\p18F8722.asm
                    CMCON   0x000fb4       data     extern C:\MCC18\v3_39\src\extended\proc\p18F8722.asm
                CMCONbits   0x000fb4       data     extern C:\MCC18\v3_39\src\extended\proc\p18F8722.asm
                  COOLING   0x00006c       data     extern /fred/mandm/mandm/mandm8722.c
                    CRITC   0x0000f5       data     extern /fred/mandm/mandm/mandm8722.c
                   CVRCON   0x000fb5       data     extern C:\MCC18\v3_39\src\extended\proc\p18F8722.asm
               CVRCONbits   0x000fb5       data     extern C:\MCC18\v3_39\src\extended\proc\p18F8722.asm
                   Cursor   0x000420       data     extern /fred/mandm/mandm/mandm8722.c
                     DDRA   0x000f92       data     extern C:\MCC18\v3_39\src\extended\proc\p18F8722.asm
                 DDRAbits   0x000f92       data     extern C:\MCC18\v3_39\src\extended\proc\p18F8722.asm
                     DDRB   0x000f93       data     extern C:\MCC18\v3_39\src\extended\proc\p18F8722.asm
                 DDRBbits   0x000f93       data     extern C:\MCC18\v3_39\src\extended\proc\p18F8722.asm
                     DDRC   0x000f94       data     extern C:\MCC18\v3_39\src\extended\proc\p18F8722.asm
                 DDRCbits   0x000f94       data     extern C:\MCC18\v3_39\src\extended\proc\p18F8722.asm
                     DDRD   0x000f95       data     extern C:\MCC18\v3_39\src\extended\proc\p18F8722.asm
                 DDRDbits   0x000f95       data     extern C:\MCC18\v3_39\src\extended\proc\p18F8722.asm
                     DDRE   0x000f96       data     extern C:\MCC18\v3_39\src\extended\proc\p18F8722.asm
                 DDREbits   0x000f96       data     extern C:\MCC18\v3_39\src\extended\proc\p18F8722.asm
                     DDRF   0x000f97       data     extern C:\MCC18\v3_39\src\extended\proc\p18F8722.asm
                 DDRFbits   0x000f97       data     extern C:\MCC18\v3_39\src\extended\proc\p18F8722.asm
                     DDRG   0x000f98       data     extern C:\MCC18\v3_39\src\extended\proc\p18F8722.asm
                 DDRGbits   0x000f98       data     extern C:\MCC18\v3_39\src\extended\proc\p18F8722.asm
                     DDRH   0x000f99       data     extern C:\MCC18\v3_39\src\extended\proc\p18F8722.asm
                 DDRHbits   0x000f99       data     extern C:\MCC18\v3_39\src\extended\proc\p18F8722.asm
                     DDRJ   0x000f9a       data     extern C:\MCC18\v3_39\src\extended\proc\p18F8722.asm
                 DDRJbits   0x000f9a       data     extern C:\MCC18\v3_39\src\extended\proc\p18F8722.asm
             DISPLAY_MODE   0x000069       data     extern /fred/mandm/mandm/mandm8722.c
                 D_UPDATE   0x00006a       data     extern /fred/mandm/mandm/mandm8722.c
            DelayCounter1   0x0005ff       data     extern C:\MCC18\v3_39\src\extended\delays\delayd1.asm
            DelayCounter2   0x0002ff       data     extern C:\MCC18\v3_39\src\extended\delays\delayd2.asm
                  ECCP1AS   0x000fb6       data     extern C:\MCC18\v3_39\src\extended\proc\p18F8722.asm
              ECCP1ASbits   0x000fb6       data     extern C:\MCC18\v3_39\src\extended\proc\p18F8722.asm
                 ECCP1CON   0x000fbd       data     extern C:\MCC18\v3_39\src\extended\proc\p18F8722.asm
             ECCP1CONbits   0x000fbd       data     extern C:\MCC18\v3_39\src\extended\proc\p18F8722.asm
                 ECCP1DEL   0x000f79       data     extern C:\MCC18\v3_39\src\extended\proc\p18F8722.asm
             ECCP1DELbits   0x000f79       data     extern C:\MCC18\v3_39\src\extended\proc\p18F8722.asm
                  ECCP2AS   0x000f68       data     extern C:\MCC18\v3_39\src\extended\proc\p18F8722.asm
              ECCP2ASbits   0x000f68       data     extern C:\MCC18\v3_39\src\extended\proc\p18F8722.asm
                 ECCP2CON   0x000fba       data     extern C:\MCC18\v3_39\src\extended\proc\p18F8722.asm
             ECCP2CONbits   0x000fba       data     extern C:\MCC18\v3_39\src\extended\proc\p18F8722.asm
                 ECCP2DEL   0x000f67       data     extern C:\MCC18\v3_39\src\extended\proc\p18F8722.asm
             ECCP2DELbits   0x000f67       data     extern C:\MCC18\v3_39\src\extended\proc\p18F8722.asm
                  ECCP3AS   0x000f6a       data     extern C:\MCC18\v3_39\src\extended\proc\p18F8722.asm
              ECCP3ASbits   0x000f6a       data     extern C:\MCC18\v3_39\src\extended\proc\p18F8722.asm
                 ECCP3CON   0x000fb7       data     extern C:\MCC18\v3_39\src\extended\proc\p18F8722.asm
             ECCP3CONbits   0x000fb7       data     extern C:\MCC18\v3_39\src\extended\proc\p18F8722.asm
                 ECCP3DEL   0x000f69       data     extern C:\MCC18\v3_39\src\extended\proc\p18F8722.asm
             ECCP3DELbits   0x000f69       data     extern C:\MCC18\v3_39\src\extended\proc\p18F8722.asm
                    EEADR   0x000fa9       data     extern C:\MCC18\v3_39\src\extended\proc\p18F8722.asm
                   EEADRH   0x000faa       data     extern C:\MCC18\v3_39\src\extended\proc\p18F8722.asm
                   EECON1   0x000fa6       data     extern C:\MCC18\v3_39\src\extended\proc\p18F8722.asm
               EECON1bits   0x000fa6       data     extern C:\MCC18\v3_39\src\extended\proc\p18F8722.asm
                   EECON2   0x000fa7       data     extern C:\MCC18\v3_39\src\extended\proc\p18F8722.asm
                   EEDATA   0x000fa8       data     extern C:\MCC18\v3_39\src\extended\proc\p18F8722.asm
                   EEP_ER   0x000074       data     extern /fred/mandm/mandm/mandm8722.c
                 FAILSAFE   0x000066       data     extern /fred/mandm/mandm/mandm8722.c
                 FORCEOUT   0x000064       data     extern /fred/mandm/mandm/mandm8722.c
                     FSR0   0x000fe9       data     extern C:\MCC18\v3_39\src\extended\proc\p18F8722.asm
                    FSR0H   0x000fea       data     extern C:\MCC18\v3_39\src\extended\proc\p18F8722.asm
                    FSR0L   0x000fe9       data     extern C:\MCC18\v3_39\src\extended\proc\p18F8722.asm
                     FSR1   0x000fe1       data     extern C:\MCC18\v3_39\src\extended\proc\p18F8722.asm
                    FSR1H   0x000fe2       data     extern C:\MCC18\v3_39\src\extended\proc\p18F8722.asm
                    FSR1L   0x000fe1       data     extern C:\MCC18\v3_39\src\extended\proc\p18F8722.asm
                     FSR2   0x000fd9       data     extern C:\MCC18\v3_39\src\extended\proc\p18F8722.asm
                    FSR2H   0x000fda       data     extern C:\MCC18\v3_39\src\extended\proc\p18F8722.asm
                    FSR2L   0x000fd9       data     extern C:\MCC18\v3_39\src\extended\proc\p18F8722.asm
             GLITCH_CHECK   0x00006b       data     extern /fred/mandm/mandm/mandm8722.c
                    HCRIT   0x000364       data     extern /fred/mandm/mandm/mandm8722.c
            HID_IDLE_FLAG   0x0003eb       data     static /fred/mandm/mandm/mandm_vector.c
                  HLVDCON   0x000fd2       data     extern C:\MCC18\v3_39\src\extended\proc\p18F8722.asm
              HLVDCONbits   0x000fd2       data     extern C:\MCC18\v3_39\src\extended\proc\p18F8722.asm
                HOLD_PROC   0x000068       data     extern /fred/mandm/mandm/mandm8722.c
                    H_tmp   0x0004f5       data     static /fred/mandm/mandm/crit.c 
                    H_tmp   0x0004f4       data     static /fred/mandm/mandm/crit.c 
                 IDLEFLAG   0x0000db       data     extern /fred/mandm/mandm/mandm8722.c
                    INDF0   0x000fef       data     extern C:\MCC18\v3_39\src\extended\proc\p18F8722.asm
                    INDF1   0x000fe7       data     extern C:\MCC18\v3_39\src\extended\proc\p18F8722.asm
                    INDF2   0x000fdf       data     extern C:\MCC18\v3_39\src\extended\proc\p18F8722.asm
                   INTCON   0x000ff2       data     extern C:\MCC18\v3_39\src\extended\proc\p18F8722.asm
                  INTCON2   0x000ff1       data     extern C:\MCC18\v3_39\src\extended\proc\p18F8722.asm
              INTCON2bits   0x000ff1       data     extern C:\MCC18\v3_39\src\extended\proc\p18F8722.asm
                  INTCON3   0x000ff0       data     extern C:\MCC18\v3_39\src\extended\proc\p18F8722.asm
              INTCON3bits   0x000ff0       data     extern C:\MCC18\v3_39\src\extended\proc\p18F8722.asm
               INTCONbits   0x000ff2       data     extern C:\MCC18\v3_39\src\extended\proc\p18F8722.asm
                     IPR1   0x000f9f       data     extern C:\MCC18\v3_39\src\extended\proc\p18F8722.asm
                 IPR1bits   0x000f9f       data     extern C:\MCC18\v3_39\src\extended\proc\p18F8722.asm
                     IPR2   0x000fa2       data     extern C:\MCC18\v3_39\src\extended\proc\p18F8722.asm
                 IPR2bits   0x000fa2       data     extern C:\MCC18\v3_39\src\extended\proc\p18F8722.asm
                     IPR3   0x000fa5       data     extern C:\MCC18\v3_39\src\extended\proc\p18F8722.asm
                 IPR3bits   0x000fa5       data     extern C:\MCC18\v3_39\src\extended\proc\p18F8722.asm
                   KEYNUM   0x000061       data     extern /fred/mandm/mandm/mandm8722.c
                     LATA   0x000f89       data     extern C:\MCC18\v3_39\src\extended\proc\p18F8722.asm
                 LATAbits   0x000f89       data     extern C:\MCC18\v3_39\src\extended\proc\p18F8722.asm
                     LATB   0x000f8a       data     extern C:\MCC18\v3_39\src\extended\proc\p18F8722.asm
                 LATBbits   0x000f8a       data     extern C:\MCC18\v3_39\src\extended\proc\p18F8722.asm
                     LATC   0x000f8b       data     extern C:\MCC18\v3_39\src\extended\proc\p18F8722.asm
                 LATCbits   0x000f8b       data     extern C:\MCC18\v3_39\src\extended\proc\p18F8722.asm
                     LATD   0x000f8c       data     extern C:\MCC18\v3_39\src\extended\proc\p18F8722.asm
                 LATDbits   0x000f8c       data     extern C:\MCC18\v3_39\src\extended\proc\p18F8722.asm
                     LATE   0x000f8d       data     extern C:\MCC18\v3_39\src\extended\proc\p18F8722.asm
                 LATEbits   0x000f8d       data     extern C:\MCC18\v3_39\src\extended\proc\p18F8722.asm
                     LATF   0x000f8e       data     extern C:\MCC18\v3_39\src\extended\proc\p18F8722.asm
                 LATFbits   0x000f8e       data     extern C:\MCC18\v3_39\src\extended\proc\p18F8722.asm
                     LATG   0x000f8f       data     extern C:\MCC18\v3_39\src\extended\proc\p18F8722.asm
                 LATGbits   0x000f8f       data     extern C:\MCC18\v3_39\src\extended\proc\p18F8722.asm
                     LATH   0x000f90       data     extern C:\MCC18\v3_39\src\extended\proc\p18F8722.asm
                 LATHbits   0x000f90       data     extern C:\MCC18\v3_39\src\extended\proc\p18F8722.asm
                     LATJ   0x000f91       data     extern C:\MCC18\v3_39\src\extended\proc\p18F8722.asm
                 LATJbits   0x000f91       data     extern C:\MCC18\v3_39\src\extended\proc\p18F8722.asm
                   LCD_OK   0x0000f6       data     extern /fred/mandm/mandm/mandm8722.c
                    LCRIT   0x00036c       data     extern /fred/mandm/mandm/mandm8722.c
                   LVDCON   0x000fd2       data     extern C:\MCC18\v3_39\src\extended\proc\p18F8722.asm
               LVDCONbits   0x000fd2       data     extern C:\MCC18\v3_39\src\extended\proc\p18F8722.asm
                   MEMCON   0x000f9c       data     extern C:\MCC18\v3_39\src\extended\proc\p18F8722.asm
               MEMCONbits   0x000f9c       data     extern C:\MCC18\v3_39\src\extended\proc\p18F8722.asm
                 MOD_DATA   0x000070       data     extern /fred/mandm/mandm/mandm8722.c
                   OSCCON   0x000fd3       data     extern C:\MCC18\v3_39\src\extended\proc\p18F8722.asm
               OSCCONbits   0x000fd3       data     extern C:\MCC18\v3_39\src\extended\proc\p18F8722.asm
                  OSCTUNE   0x000f9b       data     extern C:\MCC18\v3_39\src\extended\proc\p18F8722.asm
              OSCTUNEbits   0x000f9b       data     extern C:\MCC18\v3_39\src\extended\proc\p18F8722.asm
               OldEncoder   0x000424       data     extern /fred/mandm/mandm/mandm8722.c
                       PC   0x000ff9       data     extern C:\MCC18\v3_39\src\extended\proc\p18F8722.asm
                      PCL   0x000ff9       data     extern C:\MCC18\v3_39\src\extended\proc\p18F8722.asm
                   PCLATH   0x000ffa       data     extern C:\MCC18\v3_39\src\extended\proc\p18F8722.asm
                   PCLATU   0x000ffb       data     extern C:\MCC18\v3_39\src\extended\proc\p18F8722.asm
                     PIE1   0x000f9d       data     extern C:\MCC18\v3_39\src\extended\proc\p18F8722.asm
                 PIE1bits   0x000f9d       data     extern C:\MCC18\v3_39\src\extended\proc\p18F8722.asm
                     PIE2   0x000fa0       data     extern C:\MCC18\v3_39\src\extended\proc\p18F8722.asm
                 PIE2bits   0x000fa0       data     extern C:\MCC18\v3_39\src\extended\proc\p18F8722.asm
                     PIE3   0x000fa3       data     extern C:\MCC18\v3_39\src\extended\proc\p18F8722.asm
                 PIE3bits   0x000fa3       data     extern C:\MCC18\v3_39\src\extended\proc\p18F8722.asm
                     PIR1   0x000f9e       data     extern C:\MCC18\v3_39\src\extended\proc\p18F8722.asm
                 PIR1bits   0x000f9e       data     extern C:\MCC18\v3_39\src\extended\proc\p18F8722.asm
                     PIR2   0x000fa1       data     extern C:\MCC18\v3_39\src\extended\proc\p18F8722.asm
                 PIR2bits   0x000fa1       data     extern C:\MCC18\v3_39\src\extended\proc\p18F8722.asm
                     PIR3   0x000fa4       data     extern C:\MCC18\v3_39\src\extended\proc\p18F8722.asm
                 PIR3bits   0x000fa4       data     extern C:\MCC18\v3_39\src\extended\proc\p18F8722.asm
                   PLUSW0   0x000feb       data     extern C:\MCC18\v3_39\src\extended\proc\p18F8722.asm
                   PLUSW1   0x000fe3       data     extern C:\MCC18\v3_39\src\extended\proc\p18F8722.asm
                   PLUSW2   0x000fdb       data     extern C:\MCC18\v3_39\src\extended\proc\p18F8722.asm
                    PORTA   0x000f80       data     extern C:\MCC18\v3_39\src\extended\proc\p18F8722.asm
                PORTAbits   0x000f80       data     extern C:\MCC18\v3_39\src\extended\proc\p18F8722.asm
                    PORTB   0x000f81       data     extern C:\MCC18\v3_39\src\extended\proc\p18F8722.asm
                PORTBbits   0x000f81       data     extern C:\MCC18\v3_39\src\extended\proc\p18F8722.asm
                    PORTC   0x000f82       data     extern C:\MCC18\v3_39\src\extended\proc\p18F8722.asm
                PORTCbits   0x000f82       data     extern C:\MCC18\v3_39\src\extended\proc\p18F8722.asm
                    PORTD   0x000f83       data     extern C:\MCC18\v3_39\src\extended\proc\p18F8722.asm
                PORTDbits   0x000f83       data     extern C:\MCC18\v3_39\src\extended\proc\p18F8722.asm
                    PORTE   0x000f84       data     extern C:\MCC18\v3_39\src\extended\proc\p18F8722.asm
                PORTEbits   0x000f84       data     extern C:\MCC18\v3_39\src\extended\proc\p18F8722.asm
                    PORTF   0x000f85       data     extern C:\MCC18\v3_39\src\extended\proc\p18F8722.asm
                PORTFbits   0x000f85       data     extern C:\MCC18\v3_39\src\extended\proc\p18F8722.asm
                    PORTG   0x000f86       data     extern C:\MCC18\v3_39\src\extended\proc\p18F8722.asm
                PORTGbits   0x000f86       data     extern C:\MCC18\v3_39\src\extended\proc\p18F8722.asm
                    PORTH   0x000f87       data     extern C:\MCC18\v3_39\src\extended\proc\p18F8722.asm
                PORTHbits   0x000f87       data     extern C:\MCC18\v3_39\src\extended\proc\p18F8722.asm
                    PORTJ   0x000f88       data     extern C:\MCC18\v3_39\src\extended\proc\p18F8722.asm
                PORTJbits   0x000f88       data     extern C:\MCC18\v3_39\src\extended\proc\p18F8722.asm
                 POSTDEC0   0x000fed       data     extern C:\MCC18\v3_39\src\extended\proc\p18F8722.asm
                 POSTDEC1   0x000fe5       data     extern C:\MCC18\v3_39\src\extended\proc\p18F8722.asm
                 POSTDEC2   0x000fdd       data     extern C:\MCC18\v3_39\src\extended\proc\p18F8722.asm
                 POSTINC0   0x000fee       data     extern C:\MCC18\v3_39\src\extended\proc\p18F8722.asm
                 POSTINC1   0x000fe6       data     extern C:\MCC18\v3_39\src\extended\proc\p18F8722.asm
                 POSTINC2   0x000fde       data     extern C:\MCC18\v3_39\src\extended\proc\p18F8722.asm
                      PR2   0x000fcb       data     extern C:\MCC18\v3_39\src\extended\proc\p18F8722.asm
                      PR4   0x000f77       data     extern C:\MCC18\v3_39\src\extended\proc\p18F8722.asm
                  PREINC0   0x000fec       data     extern C:\MCC18\v3_39\src\extended\proc\p18F8722.asm
                  PREINC1   0x000fe4       data     extern C:\MCC18\v3_39\src\extended\proc\p18F8722.asm
                  PREINC2   0x000fdc       data     extern C:\MCC18\v3_39\src\extended\proc\p18F8722.asm
               PRIPOWEROK   0x000063       data     extern /fred/mandm/mandm/mandm8722.c
                     PROD   0x000ff3       data     extern C:\MCC18\v3_39\src\extended\proc\p18F8722.asm
                    PRODH   0x000ff4       data     extern C:\MCC18\v3_39\src\extended\proc\p18F8722.asm
                    PRODL   0x000ff3       data     extern C:\MCC18\v3_39\src\extended\proc\p18F8722.asm
                   PSPCON   0x000fb0       data     extern C:\MCC18\v3_39\src\extended\proc\p18F8722.asm
               PSPCONbits   0x000fb0       data     extern C:\MCC18\v3_39\src\extended\proc\p18F8722.asm
                        R   0x000601       data     extern /fred/mandm/mandm/mandm8722.c
                     RCON   0x000fd0       data     extern C:\MCC18\v3_39\src\extended\proc\p18F8722.asm
                 RCONbits   0x000fd0       data     extern C:\MCC18\v3_39\src\extended\proc\p18F8722.asm
                    RCREG   0x000fae       data     extern C:\MCC18\v3_39\src\extended\proc\p18F8722.asm
                   RCREG1   0x000fae       data     extern C:\MCC18\v3_39\src\extended\proc\p18F8722.asm
                   RCREG2   0x000f6e       data     extern C:\MCC18\v3_39\src\extended\proc\p18F8722.asm
                    RCSTA   0x000fab       data     extern C:\MCC18\v3_39\src\extended\proc\p18F8722.asm
                   RCSTA1   0x000fab       data     extern C:\MCC18\v3_39\src\extended\proc\p18F8722.asm
               RCSTA1bits   0x000fab       data     extern C:\MCC18\v3_39\src\extended\proc\p18F8722.asm
                   RCSTA2   0x000f6b       data     extern C:\MCC18\v3_39\src\extended\proc\p18F8722.asm
               RCSTA2bits   0x000f6b       data     extern C:\MCC18\v3_39\src\extended\proc\p18F8722.asm
                RCSTAbits   0x000fab       data     extern C:\MCC18\v3_39\src\extended\proc\p18F8722.asm
              RESET_ZEROS   0x00006e       data     extern /fred/mandm/mandm/mandm8722.c
              RS232_DEBUG   0x00008c       data     extern /fred/mandm/mandm/mandm8722.c
                 SET_TLOG   0x000072       data     extern /fred/mandm/mandm/mandm8722.c
              SLOW_STATUS   0x0004f1       data     extern /fred/mandm/mandm/mandm8722.c
                    SPBRG   0x000faf       data     extern C:\MCC18\v3_39\src\extended\proc\p18F8722.asm
                   SPBRG1   0x000faf       data     extern C:\MCC18\v3_39\src\extended\proc\p18F8722.asm
                   SPBRG2   0x000f6f       data     extern C:\MCC18\v3_39\src\extended\proc\p18F8722.asm
                   SPBRGH   0x000f7f       data     extern C:\MCC18\v3_39\src\extended\proc\p18F8722.asm
                  SPBRGH1   0x000f7f       data     extern C:\MCC18\v3_39\src\extended\proc\p18F8722.asm
                  SPBRGH2   0x000f7d       data     extern C:\MCC18\v3_39\src\extended\proc\p18F8722.asm
                  SSP1ADD   0x000fc8       data     extern C:\MCC18\v3_39\src\extended\proc\p18F8722.asm
                  SSP1BUF   0x000fc9       data     extern C:\MCC18\v3_39\src\extended\proc\p18F8722.asm
                 SSP1CON1   0x000fc6       data     extern C:\MCC18\v3_39\src\extended\proc\p18F8722.asm
             SSP1CON1bits   0x000fc6       data     extern C:\MCC18\v3_39\src\extended\proc\p18F8722.asm
                 SSP1CON2   0x000fc5       data     extern C:\MCC18\v3_39\src\extended\proc\p18F8722.asm
             SSP1CON2bits   0x000fc5       data     extern C:\MCC18\v3_39\src\extended\proc\p18F8722.asm
                 SSP1STAT   0x000fc7       data     extern C:\MCC18\v3_39\src\extended\proc\p18F8722.asm
             SSP1STATbits   0x000fc7       data     extern C:\MCC18\v3_39\src\extended\proc\p18F8722.asm
                  SSP2ADD   0x000f65       data     extern C:\MCC18\v3_39\src\extended\proc\p18F8722.asm
                  SSP2BUF   0x000f66       data     extern C:\MCC18\v3_39\src\extended\proc\p18F8722.asm
                 SSP2CON1   0x000f63       data     extern C:\MCC18\v3_39\src\extended\proc\p18F8722.asm
             SSP2CON1bits   0x000f63       data     extern C:\MCC18\v3_39\src\extended\proc\p18F8722.asm
                 SSP2CON2   0x000f62       data     extern C:\MCC18\v3_39\src\extended\proc\p18F8722.asm
             SSP2CON2bits   0x000f62       data     extern C:\MCC18\v3_39\src\extended\proc\p18F8722.asm
                 SSP2STAT   0x000f64       data     extern C:\MCC18\v3_39\src\extended\proc\p18F8722.asm
             SSP2STATbits   0x000f64       data     extern C:\MCC18\v3_39\src\extended\proc\p18F8722.asm
                   SSPADD   0x000fc8       data     extern C:\MCC18\v3_39\src\extended\proc\p18F8722.asm
                   SSPBUF   0x000fc9       data     extern C:\MCC18\v3_39\src\extended\proc\p18F8722.asm
                  SSPCON1   0x000fc6       data     extern C:\MCC18\v3_39\src\extended\proc\p18F8722.asm
              SSPCON1bits   0x000fc6       data     extern C:\MCC18\v3_39\src\extended\proc\p18F8722.asm
                  SSPCON2   0x000fc5       data     extern C:\MCC18\v3_39\src\extended\proc\p18F8722.asm
              SSPCON2bits   0x000fc5       data     extern C:\MCC18\v3_39\src\extended\proc\p18F8722.asm
                  SSPSTAT   0x000fc7       data     extern C:\MCC18\v3_39\src\extended\proc\p18F8722.asm
              SSPSTATbits   0x000fc7       data     extern C:\MCC18\v3_39\src\extended\proc\p18F8722.asm
                   STATUS   0x000fd8       data     extern C:\MCC18\v3_39\src\extended\proc\p18F8722.asm
               STATUSbits   0x000fd8       data     extern C:\MCC18\v3_39\src\extended\proc\p18F8722.asm
                   STKPTR   0x000ffc       data     extern C:\MCC18\v3_39\src\extended\proc\p18F8722.asm
               STKPTRbits   0x000ffc       data     extern C:\MCC18\v3_39\src\extended\proc\p18F8722.asm
            SYSTEM_STABLE   0x000067       data     extern /fred/mandm/mandm/mandm8722.c
                 SYS_DATA   0x00006f       data     extern /fred/mandm/mandm/mandm8722.c
                 SYS_HELP   0x000071       data     extern /fred/mandm/mandm/mandm8722.c
                     Seed   0x0004f2       data     static C:\MCC18\v3_39\src\extended\stdclib\rand.asm
                    T0CON   0x000fd5       data     extern C:\MCC18\v3_39\src\extended\proc\p18F8722.asm
                T0CONbits   0x000fd5       data     extern C:\MCC18\v3_39\src\extended\proc\p18F8722.asm
                    T1CON   0x000fcd       data     extern C:\MCC18\v3_39\src\extended\proc\p18F8722.asm
                T1CONbits   0x000fcd       data     extern C:\MCC18\v3_39\src\extended\proc\p18F8722.asm
                    T2CON   0x000fca       data     extern C:\MCC18\v3_39\src\extended\proc\p18F8722.asm
                T2CONbits   0x000fca       data     extern C:\MCC18\v3_39\src\extended\proc\p18F8722.asm
                    T3CON   0x000fb1       data     extern C:\MCC18\v3_39\src\extended\proc\p18F8722.asm
                T3CONbits   0x000fb1       data     extern C:\MCC18\v3_39\src\extended\proc\p18F8722.asm
                    T4CON   0x000f76       data     extern C:\MCC18\v3_39\src\extended\proc\p18F8722.asm
                T4CONbits   0x000f76       data     extern C:\MCC18\v3_39\src\extended\proc\p18F8722.asm
                   TABLAT   0x000ff5       data     extern C:\MCC18\v3_39\src\extended\proc\p18F8722.asm
                   TBLPTR   0x000ff6       data     extern C:\MCC18\v3_39\src\extended\proc\p18F8722.asm
                  TBLPTRH   0x000ff7       data     extern C:\MCC18\v3_39\src\extended\proc\p18F8722.asm
                  TBLPTRL   0x000ff6       data     extern C:\MCC18\v3_39\src\extended\proc\p18F8722.asm
                  TBLPTRU   0x000ff8       data     extern C:\MCC18\v3_39\src\extended\proc\p18F8722.asm
            TEST_SPINNERS   0x000076       data     extern /fred/mandm/mandm/mandm8722.c
                TIMERFLAG   0x000062       data     extern /fred/mandm/mandm/mandm8722.c
                     TLOG   0x0000f8       data     extern /fred/mandm/mandm/mandm8722.c
                    TMR0H   0x000fd7       data     extern C:\MCC18\v3_39\src\extended\proc\p18F8722.asm
                    TMR0L   0x000fd6       data     extern C:\MCC18\v3_39\src\extended\proc\p18F8722.asm
                    TMR1H   0x000fcf       data     extern C:\MCC18\v3_39\src\extended\proc\p18F8722.asm
                    TMR1L   0x000fce       data     extern C:\MCC18\v3_39\src\extended\proc\p18F8722.asm
                     TMR2   0x000fcc       data     extern C:\MCC18\v3_39\src\extended\proc\p18F8722.asm
                    TMR3H   0x000fb3       data     extern C:\MCC18\v3_39\src\extended\proc\p18F8722.asm
                    TMR3L   0x000fb2       data     extern C:\MCC18\v3_39\src\extended\proc\p18F8722.asm
                     TMR4   0x000f78       data     extern C:\MCC18\v3_39\src\extended\proc\p18F8722.asm
                      TOS   0x000ffd       data     extern C:\MCC18\v3_39\src\extended\proc\p18F8722.asm
                     TOSH   0x000ffe       data     extern C:\MCC18\v3_39\src\extended\proc\p18F8722.asm
                     TOSL   0x000ffd       data     extern C:\MCC18\v3_39\src\extended\proc\p18F8722.asm
                     TOSU   0x000fff       data     extern C:\MCC18\v3_39\src\extended\proc\p18F8722.asm
                    TRISA   0x000f92       data     extern C:\MCC18\v3_39\src\extended\proc\p18F8722.asm
                TRISAbits   0x000f92       data     extern C:\MCC18\v3_39\src\extended\proc\p18F8722.asm
                    TRISB   0x000f93       data     extern C:\MCC18\v3_39\src\extended\proc\p18F8722.asm
                TRISBbits   0x000f93       data     extern C:\MCC18\v3_39\src\extended\proc\p18F8722.asm
                    TRISC   0x000f94       data     extern C:\MCC18\v3_39\src\extended\proc\p18F8722.asm
                TRISCbits   0x000f94       data     extern C:\MCC18\v3_39\src\extended\proc\p18F8722.asm
                    TRISD   0x000f95       data     extern C:\MCC18\v3_39\src\extended\proc\p18F8722.asm
                TRISDbits   0x000f95       data     extern C:\MCC18\v3_39\src\extended\proc\p18F8722.asm
                    TRISE   0x000f96       data     extern C:\MCC18\v3_39\src\extended\proc\p18F8722.asm
                TRISEbits   0x000f96       data     extern C:\MCC18\v3_39\src\extended\proc\p18F8722.asm
                    TRISF   0x000f97       data     extern C:\MCC18\v3_39\src\extended\proc\p18F8722.asm
                TRISFbits   0x000f97       data     extern C:\MCC18\v3_39\src\extended\proc\p18F8722.asm
                    TRISG   0x000f98       data     extern C:\MCC18\v3_39\src\extended\proc\p18F8722.asm
                TRISGbits   0x000f98       data     extern C:\MCC18\v3_39\src\extended\proc\p18F8722.asm
                    TRISH   0x000f99       data     extern C:\MCC18\v3_39\src\extended\proc\p18F8722.asm
                TRISHbits   0x000f99       data     extern C:\MCC18\v3_39\src\extended\proc\p18F8722.asm
                    TRISJ   0x000f9a       data     extern C:\MCC18\v3_39\src\extended\proc\p18F8722.asm
                TRISJbits   0x000f9a       data     extern C:\MCC18\v3_39\src\extended\proc\p18F8722.asm
                    TWEAK   0x000075       data     extern /fred/mandm/mandm/mandm8722.c
                    TXREG   0x000fad       data     extern C:\MCC18\v3_39\src\extended\proc\p18F8722.asm
                   TXREG1   0x000fad       data     extern C:\MCC18\v3_39\src\extended\proc\p18F8722.asm
                   TXREG2   0x000f6d       data     extern C:\MCC18\v3_39\src\extended\proc\p18F8722.asm
                    TXSTA   0x000fac       data     extern C:\MCC18\v3_39\src\extended\proc\p18F8722.asm
                   TXSTA1   0x000fac       data     extern C:\MCC18\v3_39\src\extended\proc\p18F8722.asm
               TXSTA1bits   0x000fac       data     extern C:\MCC18\v3_39\src\extended\proc\p18F8722.asm
                   TXSTA2   0x000f6c       data     extern C:\MCC18\v3_39\src\extended\proc\p18F8722.asm
               TXSTA2bits   0x000f6c       data     extern C:\MCC18\v3_39\src\extended\proc\p18F8722.asm
                TXSTAbits   0x000fac       data     extern C:\MCC18\v3_39\src\extended\proc\p18F8722.asm
               UPDATE_EEP   0x00006d       data     extern /fred/mandm/mandm/mandm8722.c
            USART1_Status   0x0004f6       data     extern C:\MCC18\v3_39\src\pmc_common\USART\u1defs.c
            USART2_Status   0x0006ff       data     extern C:\MCC18\v3_39\src\pmc_common\USART\u2defs.c
                        V   0x00064a       data     extern /fred/mandm/mandm/mandm8722.c
                      Vin   0x0000cb       data     extern /fred/mandm/mandm/mandm8722.c
                   WDTCON   0x000fd1       data     extern C:\MCC18\v3_39\src\extended\proc\p18F8722.asm
               WDTCONbits   0x000fd1       data     extern C:\MCC18\v3_39\src\extended\proc\p18F8722.asm
                   WDT_TO   0x000073       data     extern /fred/mandm/mandm/mandm8722.c
               WORKERFLAG   0x000065       data     extern /fred/mandm/mandm/mandm8722.c
                     WREG   0x000fe8       data     extern C:\MCC18\v3_39\src\extended\proc\p18F8722.asm
                    YNKEY   0x000423       data     extern /fred/mandm/mandm/mandm8722.c
                      ZAP   0x0003ed       data     static /fred/mandm/mandm/mandm_vector.c
                __RETVAL0   0x0003fc       data     extern C:\MCC18\v3_39\src\extended\math\cmath18.asm
                __RETVAL1   0x0003fd       data     extern C:\MCC18\v3_39\src\extended\math\cmath18.asm
                __RETVAL2   0x0003fe       data     extern C:\MCC18\v3_39\src\extended\math\cmath18.asm
                __RETVAL3   0x0003ff       data     extern C:\MCC18\v3_39\src\extended\math\cmath18.asm
                  __tmp_0   0x000000       data     static C:\MCC18\v3_39\src\extended\stdclib\vfprintf.c
                  __tmp_0   0x000000       data     static C:\MCC18\v3_39\src\pmc_common\USART\u1open.c
                  __tmp_0   0x000000       data     static C:\MCC18\v3_39\src\pmc_common\USART\u2open.c
                  __tmp_0   0x000000       data     static C:\MCC18\v3_39\src\pmc_common\ADC\adcopen.c
                  __tmp_0   0x000000       data     static C:\MCC18\v3_39\src\pmc_common\EEP\write_B.c
                  __tmp_0   0x000000       data     static C:\MCC18\v3_39\src\pmc_common\ADC\adcread.c
                  __tmp_0   0x000000       data     static C:\MCC18\v3_39\src\pmc_common\EEP\read_B.c
                  __tmp_0   0x000000       data     static C:\MCC18\v3_39\src\pmc_common\ADC\adcsetch.c
                  __tmp_0   0x000000       data     static /fred/mandm/mandm/config.c
                  __tmp_0   0x000000       data     static /fred/mandm/mandm/crit.c 
                  __tmp_0   0x000000       data     static /fred/mandm/mandm/power.c
                  __tmp_0   0x000000       data     static /fred/mandm/mandm/mandm8722.c
                  __tmp_0   0x000000       data     static /fred/mandm/mandm/daq.c  
                  __tmp_1   0x0001fc       data     static /fred/mandm/mandm/mandm_vector.c
                    a10_x   0x0004e6       data     extern /fred/mandm/mandm/mandm8722.c
                  a10_x_t   0x00001c       data     static /fred/mandm/mandm/daq.c  
                    a10_y   0x0004e8       data     extern /fred/mandm/mandm/mandm8722.c
                  a10_y_t   0x000020       data     static /fred/mandm/mandm/daq.c  
                    a10_z   0x0004ea       data     extern /fred/mandm/mandm/mandm8722.c
                  a10_z_t   0x000024       data     static /fred/mandm/mandm/daq.c  
                  adc_cal   0x0000e5       data     extern /fred/mandm/mandm/mandm8722.c
                   ahfrak   0x0000c7       data     extern /fred/mandm/mandm/mandm8722.c
             alarm_buffer   0x0003a0       data     extern /fred/mandm/mandm/mandm8722.c
              alarm_codes   0x000077       data     extern /fred/mandm/mandm/mandm8722.c
                  alm_num   0x0005e2       data     static /fred/mandm/mandm/mandm8722.c
                   almctr   0x0000ff       data     extern /fred/mandm/mandm/mandm8722.c
                   b_read   0x0003ec       data     static /fred/mandm/mandm/mandm_vector.c
                 band_max   0x0003f4       data     static /fred/mandm/mandm/mandm_vector.c
                 bootstr2   0x000200       data     extern /fred/mandm/mandm/mandm8722.c
               build_date   0x00009a       data     extern /fred/mandm/mandm/mandm8722.c
               build_time   0x00009d       data     extern /fred/mandm/mandm/mandm8722.c
                   button   0x000600       data     extern /fred/mandm/mandm/mandm8722.c
                       c1   0x0000f9       data     static /fred/mandm/mandm/mandm_vector.c
                       c2   0x0000fa       data     static /fred/mandm/mandm/mandm_vector.c
             cable_return   0x0005f0       data     static /fred/mandm/mandm/mandm8722.c
               cable_type   0x0000f7       data     extern /fred/mandm/mandm/mandm8722.c
                   cdelay   0x0004f0       data     extern /fred/mandm/mandm/mandm8722.c
                   change   0x0002fd       data     static /fred/mandm/mandm/daq.c  
             change_count   0x0002fb       data     static /fred/mandm/mandm/daq.c  
               check_menu   0x0005ef       data     static /fred/mandm/mandm/mandm8722.c
                   chrg_v   0x0000cf       data     extern /fred/mandm/mandm/mandm8722.c
                      cid   0x000352       data     extern /fred/mandm/mandm/mandm8722.c
                clocks_hz   0x0004a6       data     static /fred/mandm/mandm/mandm8722.c
                clocks_hz   0x0004b2       data     static /fred/mandm/mandm/mandm8722.c
                clocks_hz   0x00049a       data     static /fred/mandm/mandm/mandm8722.c
                clocks_hz   0x0004be       data     static /fred/mandm/mandm/mandm8722.c
                clocks_hz   0x0004ca       data     static /fred/mandm/mandm/mandm8722.c
                clocks_hz   0x000482       data     static /fred/mandm/mandm/mandm8722.c
                clocks_hz   0x00048e       data     static /fred/mandm/mandm/mandm8722.c
              critc_count   0x00008d       data     extern /fred/mandm/mandm/mandm8722.c
              critc_level   0x000060       data     extern /fred/mandm/mandm/mandm8722.c
                      csd   0x000340       data     extern /fred/mandm/mandm/mandm8722.c
                curr_byte   0x0005f8       data     static C:\MCC18\v3_39\src\extended\startup\c018i_e.c
               curr_entry   0x0005fa       data     static C:\MCC18\v3_39\src\extended\startup\c018i_e.c
                 data_ptr   0x0005fc       data     static C:\MCC18\v3_39\src\extended\startup\c018i_e.c
                   dcount   0x000486       data     static /fred/mandm/mandm/mandm8722.c
                   dcount   0x000492       data     static /fred/mandm/mandm/mandm8722.c
                   dcount   0x00047a       data     static /fred/mandm/mandm/mandm8722.c
                   dcount   0x000476       data     static /fred/mandm/mandm/mandm8722.c
                   dcount   0x0004c2       data     static /fred/mandm/mandm/mandm8722.c
                   dcount   0x0004b6       data     static /fred/mandm/mandm/mandm8722.c
                   dcount   0x00049e       data     static /fred/mandm/mandm/mandm8722.c
                   dcount   0x0004aa       data     static /fred/mandm/mandm/mandm8722.c
                 deadband   0x0005e5       data     static /fred/mandm/mandm/mandm8722.c
                       ds   0x000100       data     extern /fred/mandm/mandm/mandm8722.c
                      dsi   0x0000a0       data     extern /fred/mandm/mandm/mandm8722.c
                 eep_char   0x0005f3       data     static /fred/mandm/mandm/mandm8722.c
                emo_bumps   0x0003ea       data     static /fred/mandm/mandm/mandm_vector.c
                  emodump   0x000440       data     extern /fred/mandm/mandm/mandm8722.c
                       f1   0x000374       data     extern /fred/mandm/mandm/mandm8722.c
                       f2   0x00037b       data     extern /fred/mandm/mandm/mandm8722.c
                       f3   0x000382       data     extern /fred/mandm/mandm/mandm8722.c
                       f4   0x000389       data     extern /fred/mandm/mandm/mandm8722.c
               fast_ticks   0x0003f1       data     static /fred/mandm/mandm/mandm_vector.c
                  get_out   0x0004d3       data     static /fred/mandm/mandm/mandm8722.c
             glitch_count   0x0004ef       data     extern /fred/mandm/mandm/mandm8722.c
                        h   0x0005c9       data     static /fred/mandm/mandm/mandm8722.c
                        h   0x0005d5       data     static /fred/mandm/mandm/mandm8722.c
                 help_pos   0x0000a2       data     extern /fred/mandm/mandm/mandm8722.c
                 hid_idle   0x0003f8       data     static /fred/mandm/mandm/mandm_vector.c
               hms_string   0x0004d6       data     extern /fred/mandm/mandm/mandm8722.c
                        i   0x0005e1       data     static /fred/mandm/mandm/mandm8722.c
                        i   0x000018       data     static /fred/mandm/mandm/daq.c  
                       ib   0x0005c8       data     static /fred/mandm/mandm/mandm8722.c
                       ip   0x0000e1       data     extern /fred/mandm/mandm/mandm8722.c
                       iw   0x0000dd       data     extern /fred/mandm/mandm/mandm8722.c
                    knob1   0x000400       data     extern /fred/mandm/mandm/mandm8722.c
                    knob2   0x000410       data     extern /fred/mandm/mandm/mandm8722.c
              knob_to_pot   0x0000dc       data     extern /fred/mandm/mandm/mandm8722.c
         knob_to_pot_save   0x0004d4       data     static /fred/mandm/mandm/mandm8722.c
               last_shape   0x0005c7       data     static /fred/mandm/mandm/mandm8722.c
                lastmotor   0x0006a7       data     static /fred/mandm/mandm/power.c
                    lcd18   0x0005c2       data     extern /fred/mandm/mandm/mandm8722.c
                 lp_speed   0x000092       data     extern /fred/mandm/mandm/mandm8722.c
                     lp_x   0x000096       data     extern /fred/mandm/mandm/mandm8722.c
                        m   0x0005cd       data     static /fred/mandm/mandm/mandm8722.c
                        m   0x0005d9       data     static /fred/mandm/mandm/mandm8722.c
                 menu_pos   0x0005f1       data     static /fred/mandm/mandm/mandm8722.c
                 menu_pos   0x0005f2       data     static /fred/mandm/mandm/mandm8722.c
                 menu_pos   0x0004d5       data     static /fred/mandm/mandm/mandm8722.c
                     mode   0x000079       data     extern /fred/mandm/mandm/mandm8722.c
                motor_ptr   0x0005c0       data     extern /fred/mandm/mandm/mandm8722.c
                motordata   0x000500       data     extern /fred/mandm/mandm/mandm8722.c
                      msi   0x0000a1       data     extern /fred/mandm/mandm/mandm8722.c
                        n   0x0004ce       data     static /fred/mandm/mandm/mandm8722.c
                 new_menu   0x0005ee       data     static /fred/mandm/mandm/mandm8722.c
                old_error   0x0005eb       data     static /fred/mandm/mandm/mandm8722.c
                 old_menu   0x0005ed       data     static /fred/mandm/mandm/mandm8722.c
                 old_part   0x0004f9       data     static /fred/mandm/mandm/config.c
                       p1   0x000300       data     extern /fred/mandm/mandm/mandm8722.c
                       p2   0x000310       data     extern /fred/mandm/mandm/mandm8722.c
                       p3   0x000390       data     extern /fred/mandm/mandm/mandm8722.c
                 position   0x0005e3       data     static /fred/mandm/mandm/mandm8722.c
                     prom   0x0005f5       data     static C:\MCC18\v3_39\src\extended\startup\c018i_e.c
                     qei1   0x000429       data     extern /fred/mandm/mandm/mandm8722.c
                     rawa   0x0006f3       data     extern /fred/mandm/mandm/mandm8722.c
                     rawp   0x0006e7       data     extern /fred/mandm/mandm/mandm8722.c
               real_ticks   0x0003f0       data     static /fred/mandm/mandm/mandm_vector.c
                   rx_tmp   0x0003f2       data     static /fred/mandm/mandm/mandm_vector.c
                        s   0x0005dd       data     static /fred/mandm/mandm/mandm8722.c
                        s   0x0005d1       data     static /fred/mandm/mandm/mandm8722.c
                        s   0x000470       data     static /fred/mandm/mandm/mandm8722.c
                  s_delay   0x0004d2       data     static /fred/mandm/mandm/mandm8722.c
                    shape   0x0005e4       data     static /fred/mandm/mandm/mandm8722.c
                     sign   0x000091       data     extern /fred/mandm/mandm/mandm8722.c
                     slow   0x0004d0       data     static /fred/mandm/mandm/mandm8722.c
               slow_timer   0x0005c3       data     extern /fred/mandm/mandm/mandm8722.c
                   smooth   0x0003ca       data     extern /fred/mandm/mandm/mandm8722.c
                  solar_t   0x0000d7       data     extern /fred/mandm/mandm/mandm8722.c
                       t1   0x0000a3       data     extern /fred/mandm/mandm/mandm8722.c
                       t2   0x0000a7       data     extern /fred/mandm/mandm/mandm8722.c
                       t3   0x0000ab       data     extern /fred/mandm/mandm/mandm8722.c
                       t4   0x0000af       data     extern /fred/mandm/mandm/mandm8722.c
                       t5   0x0000b3       data     extern /fred/mandm/mandm/mandm8722.c
                       t6   0x0000b7       data     extern /fred/mandm/mandm/mandm8722.c
                       t7   0x0000bb       data     extern /fred/mandm/mandm/mandm8722.c
                   t_time   0x0000bf       data     extern /fred/mandm/mandm/mandm8722.c
                  termstr   0x000320       data     extern /fred/mandm/mandm/mandm8722.c
                    timer   0x0000fb       data     static /fred/mandm/mandm/mandm_vector.c
                   timerl   0x0000fd       data     static /fred/mandm/mandm/mandm_vector.c
                 timetemp   0x00048a       data     static /fred/mandm/mandm/mandm8722.c
                 timetemp   0x00047e       data     static /fred/mandm/mandm/mandm8722.c
                 timetemp   0x000496       data     static /fred/mandm/mandm/mandm8722.c
                 timetemp   0x0004a2       data     static /fred/mandm/mandm/mandm8722.c
                 timetemp   0x0004ae       data     static /fred/mandm/mandm/mandm8722.c
                 timetemp   0x0004ba       data     static /fred/mandm/mandm/mandm8722.c
                 timetemp   0x0004c6       data     static /fred/mandm/mandm/mandm8722.c
                 vbatol_t   0x0000d3       data     extern /fred/mandm/mandm/mandm8722.c
                 vc_count   0x0003ee       data     static /fred/mandm/mandm/mandm_vector.c
                 voltfrak   0x0000c3       data     extern /fred/mandm/mandm/mandm8722.c
              was_running   0x0005e9       data     static /fred/mandm/mandm/mandm8722.c
             worker_timer   0x0003ef       data     static /fred/mandm/mandm/mandm_vector.c
                 worktick   0x0004ec       data     extern /fred/mandm/mandm/mandm8722.c
                        z   0x0004cf       data     static /fred/mandm/mandm/mandm8722.c
                        z   0x000028       data     static /fred/mandm/mandm/daq.c  
                        z   0x00001a       data     static /fred/mandm/mandm/daq.c  
                        z   0x0004d1       data     static /fred/mandm/mandm/mandm8722.c
                        z   0x0004f8       data     static /fred/mandm/mandm/config.c
                        z   0x0004f7       data     static /fred/mandm/mandm/hwconf.c
                        z   0x0005f4       data     static /fred/mandm/mandm/mandm8722.c



                              Symbols - Sorted by Address
                     Name    Address   Location    Storage File                     
                ---------  ---------  ---------  --------- ---------                
                   _entry   0x000000    program     extern C:\MCC18\v3_39\src\extended\startup\c018i_e.c
       ___return_lbl00000   0x000004    program     static                          
               _user_putc   0x000006    program     extern C:\MCC18\v3_39\src\extended\stdclib\_user_putc.c
                 tick_int   0x000008    program     extern /fred/mandm/mandm/mandm8722.c
       ___return_lbl00000   0x00000c    program     static                          
                  BusyADC   0x00000e    program     extern C:\MCC18\v3_39\src\pmc_common\ADC\adcbusy.c
                 work_int   0x000018    program     extern /fred/mandm/mandm/mandm8722.c
       ___return_lbl00001   0x00001c    program     static                          
                 spinners   0x000074    program     extern /fred/mandm/mandm/mandm8722.c
              LCD_VC_puts   0x00016e    program     extern /fred/mandm/mandm/mandm8722.c
              update_hist   0x00021c    program     extern /fred/mandm/mandm/mandm8722.c
                 wdtdelay   0x00026a    program     extern /fred/mandm/mandm/mandm8722.c
          ___for_lbl00030   0x00027e    program     static                          
               __tmplbl_3   0x000290    program     static                          
          ___for_lbl00028   0x000296    program     static                          
          ___for_lbl00029   0x0002a4    program     static                          
       ___return_lbl00027   0x0002a4    program     static                          
                  wdttime   0x0002ac    program     extern /fred/mandm/mandm/mandm8722.c
           ___do_lbl00034   0x000304    program     static                          
           ___do_lbl00032   0x000324    program     static                          
               __tmplbl_4   0x00033e    program     static                          
           ___do_lbl00033   0x000340    program     static                          
       ___return_lbl00031   0x000340    program     static                          
                checktime   0x000348    program     extern /fred/mandm/mandm/mandm8722.c
         checktime_select   0x0003be    program     extern /fred/mandm/mandm/mandm8722.c
          checktime_motor   0x000434    program     extern /fred/mandm/mandm/mandm8722.c
            checktime_cal   0x0004aa    program     extern /fred/mandm/mandm/mandm8722.c
            checktime_eep   0x000520    program     extern /fred/mandm/mandm/mandm8722.c
          checktime_track   0x000596    program     extern /fred/mandm/mandm/mandm8722.c
            DelayFor18TCY   0x00060c    program     extern /fred/mandm/mandm/mandm8722.c
          ___for_lbl00056   0x000612    program     static                          
          ___for_lbl00054   0x00061e    program     static                          
          ___for_lbl00055   0x000624    program     static                          
       ___return_lbl00053   0x000624    program     static                          
             DelayPORXLCD   0x000626    program     extern /fred/mandm/mandm/mandm8722.c
                DelayXLCD   0x000632    program     extern /fred/mandm/mandm/mandm8722.c
                    putc2   0x00063e    program     extern /fred/mandm/mandm/mandm8722.c
              start_delay   0x000656    program     extern /fred/mandm/mandm/mandm8722.c
                  clr_lcd   0x00065c    program     extern /fred/mandm/mandm/mandm8722.c
                lp_filter   0x00066c    program     extern /fred/mandm/mandm/mandm8722.c
                term_time   0x000754    program     extern /fred/mandm/mandm/mandm8722.c
       ___return_lbl00072   0x00079a    program     static                          
             hold_process   0x00079c    program     extern /fred/mandm/mandm/mandm8722.c
              system_data   0x0007de    program     extern /fred/mandm/mandm/mandm8722.c
          ___for_lbl00081   0x000b00    program     static                          
          ___for_lbl00078   0x000de0    program     static                          
           ___if_lbl00080   0x000de0    program     static                          
          ___for_lbl00079   0x000de6    program     static                          
           ___if_lbl00082   0x000dfe    program     static                          
       ___return_lbl00077   0x000e00    program     static                          
              system_help   0x000e02    program     extern /fred/mandm/mandm/mandm8722.c
                      hms   0x000e34    program     extern /fred/mandm/mandm/mandm8722.c
                       hm   0x000ec4    program     extern /fred/mandm/mandm/mandm8722.c
                     ABSI   0x000f4e    program     extern /fred/mandm/mandm/mandm8722.c
                     ABSL   0x000f7c    program     extern /fred/mandm/mandm/mandm8722.c
                   voltfp   0x000fc0    program     extern /fred/mandm/mandm/mandm8722.c
                  voltfps   0x000fde    program     extern /fred/mandm/mandm/mandm8722.c
                  voltfpi   0x000ff8    program     extern /fred/mandm/mandm/mandm8722.c
                     ahfp   0x0010d4    program     extern /fred/mandm/mandm/mandm8722.c
              check_alarm   0x001158    program     extern /fred/mandm/mandm/mandm8722.c
                fail_safe   0x00149c    program     extern /fred/mandm/mandm/mandm8722.c
                 ansidraw   0x00153e    program     extern /fred/mandm/mandm/mandm8722.c
          update_lcd_menu   0x00157c    program     extern /fred/mandm/mandm/mandm8722.c
               Set_Cursor   0x00165e    program     extern /fred/mandm/mandm/mandm8722.c
              track_motor   0x0016d4    program     extern /fred/mandm/mandm/mandm8722.c
              check_cable   0x001bce    program     extern /fred/mandm/mandm/mandm8722.c
                  get_hid   0x001d4e    program     extern /fred/mandm/mandm/mandm8722.c
                 nav_menu   0x001fe2    program     extern /fred/mandm/mandm/mandm8722.c
            e220_qei_exer   0x001ff6    program     extern /fred/mandm/mandm/mandm8722.c
              nonqei_exer   0x00211c    program     extern /fred/mandm/mandm/mandm8722.c
                exerciser   0x002242    program     extern /fred/mandm/mandm/mandm8722.c
                 hid_menu   0x002294    program     extern /fred/mandm/mandm/mandm8722.c
           help_m_display   0x0022b4    program     extern /fred/mandm/mandm/mandm8722.c
            gsd_m_display   0x002308    program     extern /fred/mandm/mandm/mandm8722.c
           e220_m_display   0x00237c    program     extern /fred/mandm/mandm/mandm8722.c
        viision_m_display   0x002412    program     extern /fred/mandm/mandm/mandm8722.c
       viision_ms_display   0x00249e    program     extern /fred/mandm/mandm/mandm8722.c
          v810_ms_display   0x0024ec    program     extern /fred/mandm/mandm/mandm8722.c
         e220_qei_display   0x002522    program     extern /fred/mandm/mandm/mandm8722.c
          default_display   0x0025de    program     extern /fred/mandm/mandm/mandm8722.c
              emo_display   0x002640    program     extern /fred/mandm/mandm/mandm8722.c
         varian_v_display   0x00266e    program     extern /fred/mandm/mandm/mandm8722.c
          fail_all_motors   0x002730    program     extern /fred/mandm/mandm/mandm8722.c
           set_all_motors   0x002788    program     extern /fred/mandm/mandm/mandm8722.c
                  run_cal   0x0027b2    program     extern /fred/mandm/mandm/mandm8722.c
           ___if_lbl00424   0x002812    program     static                          
           ___if_lbl00425   0x00283c    program     static                          
           ___if_lbl00426   0x00284e    program     static                          
           ___if_lbl00427   0x002898    program     static                          
           ___if_lbl00428   0x0028d0    program     static                          
           ___if_lbl00429   0x002906    program     static                          
          ___for_lbl00452   0x00294a    program     static                          
           ___do_lbl00438   0x00298a    program     static                          
           ___if_lbl00434   0x002a34    program     static                          
             __tmplbl_142   0x002aa6    program     static                          
           ___if_lbl00435   0x002ad4    program     static                          
             __tmplbl_143   0x002b4a    program     static                          
           ___if_lbl00436   0x002b78    program     static                          
           ___if_lbl00437   0x002b88    program     static                          
           ___do_lbl00432   0x002b9c    program     static                          
           ___do_lbl00433   0x002bba    program     static                          
             __tmplbl_144   0x002bca    program     static                          
              __tmplbl_67   0x002bcc    program     static                          
              __tmplbl_66   0x002bdc    program     static                          
           ___if_lbl00440   0x002be4    program     static                          
             __tmplbl_145   0x002bf4    program     static                          
           ___if_lbl00441   0x002bfc    program     static                          
           ___do_lbl00448   0x002c22    program     static                          
           ___if_lbl00444   0x002ccc    program     static                          
             __tmplbl_146   0x002d3e    program     static                          
           ___if_lbl00445   0x002d6c    program     static                          
             __tmplbl_147   0x002de2    program     static                          
           ___if_lbl00446   0x002e10    program     static                          
           ___if_lbl00447   0x002e20    program     static                          
           ___do_lbl00442   0x002e34    program     static                          
           ___do_lbl00443   0x002e52    program     static                          
             __tmplbl_148   0x002e62    program     static                          
              __tmplbl_69   0x002e64    program     static                          
              __tmplbl_68   0x002e74    program     static                          
           ___if_lbl00450   0x002e7c    program     static                          
             __tmplbl_149   0x002e8c    program     static                          
           ___if_lbl00451   0x002e94    program     static                          
          ___for_lbl00430   0x002e94    program     static                          
          ___for_lbl00431   0x002e9c    program     static                          
              __tmplbl_71   0x002eae    program     static                          
              __tmplbl_70   0x002eb8    program     static                          
           ___if_lbl00454   0x002fbc    program     static                          
           ___if_lbl00455   0x003028    program     static                          
           ___do_lbl00458   0x003066    program     static                          
           ___do_lbl00456   0x003072    program     static                          
           ___do_lbl00457   0x003078    program     static                          
           ___if_lbl00459   0x0030c6    program     static                          
           ___if_lbl00460   0x0030c6    program     static                          
           ___if_lbl00461   0x0030e0    program     static                          
           ___do_lbl00478   0x00312e    program     static                          
              __tmplbl_74   0x0032e6    program     static                          
              __tmplbl_73   0x0032ec    program     static                          
              __tmplbl_72   0x0032f2    program     static                          
           ___if_lbl00467   0x0032fe    program     static                          
           ___if_lbl00468   0x00332a    program     static                          
           ___if_lbl00469   0x00332e    program     static                          
           ___if_lbl00470   0x003390    program     static                          
           ___if_lbl00471   0x00344c    program     static                          
         ___else_lbl00474   0x00344e    program     static                          
           ___if_lbl00473   0x0034aa    program     static                          
           ___if_lbl00472   0x0034aa    program     static                          
           ___if_lbl00475   0x003530    program     static                          
           ___if_lbl00476   0x0035b6    program     static                          
           ___if_lbl00477   0x0035c6    program     static                          
           ___do_lbl00462   0x0035da    program     static                          
              __tmplbl_76   0x0035f6    program     static                          
              __tmplbl_75   0x0035fe    program     static                          
           ___do_lbl00463   0x0035fe    program     static                          
           ___do_lbl00495   0x00365c    program     static                          
              __tmplbl_79   0x003814    program     static                          
              __tmplbl_78   0x00381a    program     static                          
              __tmplbl_77   0x003820    program     static                          
           ___if_lbl00484   0x00382c    program     static                          
           ___if_lbl00485   0x003858    program     static                          
           ___if_lbl00486   0x00385c    program     static                          
           ___if_lbl00487   0x0038be    program     static                          
           ___if_lbl00488   0x00397a    program     static                          
         ___else_lbl00491   0x00397c    program     static                          
           ___if_lbl00490   0x0039d8    program     static                          
           ___if_lbl00489   0x0039d8    program     static                          
           ___if_lbl00492   0x003a5e    program     static                          
           ___if_lbl00493   0x003ae4    program     static                          
           ___if_lbl00494   0x003af4    program     static                          
           ___do_lbl00479   0x003b08    program     static                          
              __tmplbl_81   0x003b24    program     static                          
           ___do_lbl00480   0x003b2c    program     static                          
           ___if_lbl00496   0x003b2c    program     static                          
              __tmplbl_80   0x003b2c    program     static                          
         ___else_lbl00515   0x003b30    program     static                          
          ___for_lbl00503   0x003b68    program     static                          
           ___if_lbl00499   0x003c00    program     static                          
              __tmplbl_82   0x003cae    program     static                          
           ___if_lbl00500   0x003cbc    program     static                          
           ___if_lbl00501   0x003cce    program     static                          
          ___for_lbl00497   0x003d30    program     static                          
           ___if_lbl00502   0x003d30    program     static                          
          ___for_lbl00498   0x003d46    program     static                          
          ___for_lbl00510   0x003da6    program     static                          
           ___if_lbl00506   0x003e3e    program     static                          
              __tmplbl_83   0x003eec    program     static                          
           ___if_lbl00507   0x003efa    program     static                          
           ___if_lbl00508   0x003f0c    program     static                          
          ___for_lbl00504   0x003f6e    program     static                          
           ___if_lbl00509   0x003f6e    program     static                          
          ___for_lbl00505   0x003f84    program     static                          
          ___for_lbl00513   0x004304    program     static                          
          ___for_lbl00511   0x004346    program     static                          
          ___for_lbl00512   0x00435c    program     static                          
           ___if_lbl00514   0x00435c    program     static                          
          ___for_lbl00536   0x004364    program     static                          
           ___if_lbl00518   0x00445c    program     static                          
           ___if_lbl00519   0x004514    program     static                          
              __tmplbl_85   0x00459a    program     static                          
              __tmplbl_84   0x004620    program     static                          
           ___if_lbl00522   0x004652    program     static                          
           ___if_lbl00521   0x004652    program     static                          
         ___else_lbl00524   0x004784    program     static                          
           ___if_lbl00523   0x004788    program     static                          
           ___if_lbl00525   0x0049e2    program     static                          
         ___else_lbl00535   0x0049e4    program     static                          
         ___else_lbl00527   0x004a22    program     static                          
           ___if_lbl00526   0x004a26    program     static                          
         ___else_lbl00529   0x004d02    program     static                          
           ___if_lbl00528   0x004d06    program     static                          
           ___do_lbl00532   0x004d46    program     static                          
           ___do_lbl00530   0x004d52    program     static                          
           ___do_lbl00531   0x004d58    program     static                          
           ___if_lbl00533   0x004d68    program     static                          
          ___for_lbl00516   0x004d68    program     static                          
           ___if_lbl00534   0x004d68    program     static                          
          ___for_lbl00517   0x004d80    program     static                          
           ___do_lbl00541   0x004dbc    program     static                          
           ___if_lbl00540   0x004f20    program     static                          
           ___do_lbl00537   0x004f22    program     static                          
              __tmplbl_87   0x004f2c    program     static                          
              __tmplbl_88   0x004f62    program     static                          
              __tmplbl_86   0x004f66    program     static                          
           ___do_lbl00538   0x004f66    program     static                          
         ___else_lbl00543   0x00500e    program     static                          
           ___if_lbl00542   0x00500e    program     static                          
       ___return_lbl00423   0x005044    program     static                          
              display_cal   0x00504c    program     extern /fred/mandm/mandm/mandm8722.c
                 init_lcd   0x0050fa    program     extern /fred/mandm/mandm/mandm8722.c
                     main   0x00515a    program     extern /fred/mandm/mandm/mandm8722.c
           ___if_lbl00555   0x005206    program     static                          
           ___if_lbl00556   0x005234    program     static                          
           ___if_lbl00557   0x005262    program     static                          
           ___if_lbl00558   0x005290    program     static                          
           ___if_lbl00559   0x0053e0    program     static                          
          ___for_lbl00562   0x00542c    program     static                          
          ___for_lbl00560   0x005450    program     static                          
          ___for_lbl00561   0x005456    program     static                          
           ___if_lbl00563   0x005456    program     static                          
         ___else_lbl00565   0x00549a    program     static                          
           ___if_lbl00564   0x0054de    program     static                          
          ___for_lbl00568   0x00550e    program     static                          
          ___for_lbl00566   0x005540    program     static                          
          ___for_lbl00567   0x005546    program     static                          
         ___else_lbl00573   0x005548    program     static                          
          ___for_lbl00571   0x005562    program     static                          
          ___for_lbl00569   0x005594    program     static                          
          ___for_lbl00570   0x00559a    program     static                          
           ___if_lbl00572   0x0055b0    program     static                          
        ___while_lbl00574   0x0055b8    program     static                          
           ___if_lbl00576   0x0055ba    program     static                          
        ___while_lbl00575   0x0055ba    program     static                          
           ___if_lbl00577   0x005602    program     static                          
           ___if_lbl00578   0x005622    program     static                          
        ___while_lbl00579   0x005860    program     static                          
              __tmplbl_90   0x00586c    program     static                          
              __tmplbl_89   0x005872    program     static                          
           ___if_lbl00582   0x005876    program     static                          
           ___if_lbl00583   0x0058a6    program     static                          
           ___if_lbl00584   0x0058ba    program     static                          
        ___while_lbl00580   0x0058bc    program     static                          
       ___return_lbl00554   0x0058bc    program     static                          
                   __pa_0   0x0058be    program     static /fred/mandm/mandm/mandm8722.c
                   __pa_1   0x0058ce    program     static /fred/mandm/mandm/mandm8722.c
                   __pa_2   0x0058d8    program     static /fred/mandm/mandm/mandm8722.c
                   __pa_3   0x0058ec    program     static /fred/mandm/mandm/mandm8722.c
                   __pa_4   0x005934    program     static /fred/mandm/mandm/mandm8722.c
                   __pa_5   0x00593e    program     static /fred/mandm/mandm/mandm8722.c
                   __pa_6   0x005962    program     static /fred/mandm/mandm/mandm8722.c
                   __pa_7   0x005986    program     static /fred/mandm/mandm/mandm8722.c
                   __pa_8   0x0059a4    program     static /fred/mandm/mandm/mandm8722.c
                   __pa_9   0x0059c4    program     static /fred/mandm/mandm/mandm8722.c
                  __pa_10   0x0059e6    program     static /fred/mandm/mandm/mandm8722.c
                  __pa_11   0x0059f2    program     static /fred/mandm/mandm/mandm8722.c
                  __pa_12   0x005a06    program     static /fred/mandm/mandm/mandm8722.c
                  __pa_13   0x005a1c    program     static /fred/mandm/mandm/mandm8722.c
                  __pa_14   0x005a22    program     static /fred/mandm/mandm/mandm8722.c
                  __pa_15   0x005a3a    program     static /fred/mandm/mandm/mandm8722.c
                  __pa_16   0x005a40    program     static /fred/mandm/mandm/mandm8722.c
                  __pa_17   0x005a4a    program     static /fred/mandm/mandm/mandm8722.c
                  __pa_18   0x005a54    program     static /fred/mandm/mandm/mandm8722.c
                  __pa_19   0x005a5c    program     static /fred/mandm/mandm/mandm8722.c
                  __pa_20   0x005a6e    program     static /fred/mandm/mandm/mandm8722.c
              __tmplbl_99   0x005a6e    program     static                          
              __tmplbl_97   0x005a6e    program     static                          
              __tmplbl_96   0x005a6e    program     static                          
              __tmplbl_95   0x005a6e    program     static                          
              __tmplbl_94   0x005a6e    program     static                          
              __tmplbl_93   0x005a6e    program     static                          
              __tmplbl_92   0x005a6e    program     static                          
              __tmplbl_91   0x005a6e    program     static                          
             __tmplbl_154   0x005a6e    program     static                          
             __tmplbl_152   0x005a6e    program     static                          
             __tmplbl_131   0x005a6e    program     static                          
             __tmplbl_116   0x005a6e    program     static                          
             __tmplbl_115   0x005a6e    program     static                          
             __tmplbl_113   0x005a6e    program     static                          
             __tmplbl_108   0x005a6e    program     static                          
             __tmplbl_107   0x005a6e    program     static                          
             __tmplbl_104   0x005a6e    program     static                          
             __tmplbl_103   0x005a6e    program     static                          
             __tmplbl_100   0x005a6e    program     static                          
                  __pa_21   0x005a76    program     static /fred/mandm/mandm/mandm8722.c
                  __pa_22   0x005a8c    program     static /fred/mandm/mandm/mandm8722.c
                  __pa_23   0x005aaa    program     static /fred/mandm/mandm/mandm8722.c
                  __pa_24   0x005ab0    program     static /fred/mandm/mandm/mandm8722.c
                  __pa_25   0x005abc    program     static /fred/mandm/mandm/mandm8722.c
                  __pa_26   0x005ac2    program     static /fred/mandm/mandm/mandm8722.c
                  __pa_27   0x005acc    program     static /fred/mandm/mandm/mandm8722.c
                  __pa_28   0x005ae0    program     static /fred/mandm/mandm/mandm8722.c
                  __pa_29   0x005aec    program     static /fred/mandm/mandm/mandm8722.c
                  __pa_30   0x005af4    program     static /fred/mandm/mandm/mandm8722.c
                  __pa_31   0x005b0e    program     static /fred/mandm/mandm/mandm8722.c
                  __pa_32   0x005b14    program     static /fred/mandm/mandm/mandm8722.c
                  __pa_33   0x005b1e    program     static /fred/mandm/mandm/mandm8722.c
             __tmplbl_133   0x005b24    program     static                          
             __tmplbl_153   0x005b24    program     static                          
                  __pa_34   0x005b24    program     static /fred/mandm/mandm/mandm8722.c
                  __pa_35   0x005b2e    program     static /fred/mandm/mandm/mandm8722.c
                  __pa_36   0x005b3e    program     static /fred/mandm/mandm/mandm8722.c
                  __pa_37   0x005b4a    program     static /fred/mandm/mandm/mandm8722.c
                  __pa_38   0x005b58    program     static /fred/mandm/mandm/mandm8722.c
                  __pa_39   0x005b8a    program     static /fred/mandm/mandm/mandm8722.c
                  __pa_40   0x005bbc    program     static /fred/mandm/mandm/mandm8722.c
                  __pa_41   0x005bc6    program     static /fred/mandm/mandm/mandm8722.c
                  __pa_42   0x005bf2    program     static /fred/mandm/mandm/mandm8722.c
                  __pa_43   0x005bfc    program     static /fred/mandm/mandm/mandm8722.c
                  __pa_44   0x005c10    program     static /fred/mandm/mandm/mandm8722.c
                  __pa_45   0x005c1c    program     static /fred/mandm/mandm/mandm8722.c
                  __pa_46   0x005c28    program     static /fred/mandm/mandm/mandm8722.c
                  __pa_47   0x005c46    program     static /fred/mandm/mandm/mandm8722.c
                  __pa_48   0x005c54    program     static /fred/mandm/mandm/mandm8722.c
                  __pa_49   0x005c5a    program     static /fred/mandm/mandm/mandm8722.c
                  __pa_50   0x005c66    program     static /fred/mandm/mandm/mandm8722.c
                  __pa_51   0x005c72    program     static /fred/mandm/mandm/mandm8722.c
                  __pa_52   0x005c7c    program     static /fred/mandm/mandm/mandm8722.c
                  __pa_53   0x005c86    program     static /fred/mandm/mandm/mandm8722.c
                  __pa_54   0x005c92    program     static /fred/mandm/mandm/mandm8722.c
                  __pa_55   0x005c98    program     static /fred/mandm/mandm/mandm8722.c
                  __pa_56   0x005caa    program     static /fred/mandm/mandm/mandm8722.c
                  __pa_57   0x005cbc    program     static /fred/mandm/mandm/mandm8722.c
                  __pa_58   0x005cce    program     static /fred/mandm/mandm/mandm8722.c
                  __pa_59   0x005cd6    program     static /fred/mandm/mandm/mandm8722.c
                  __pa_60   0x005cdc    program     static /fred/mandm/mandm/mandm8722.c
                  __pa_61   0x005cea    program     static /fred/mandm/mandm/mandm8722.c
                  __pa_62   0x005cf4    program     static /fred/mandm/mandm/mandm8722.c
                  __pa_63   0x005d00    program     static /fred/mandm/mandm/mandm8722.c
                  __pa_64   0x005d0c    program     static /fred/mandm/mandm/mandm8722.c
                  __pa_65   0x005d12    program     static /fred/mandm/mandm/mandm8722.c
                  __pa_66   0x005d1c    program     static /fred/mandm/mandm/mandm8722.c
                  __pa_67   0x005d34    program     static /fred/mandm/mandm/mandm8722.c
                  __pa_68   0x005d48    program     static /fred/mandm/mandm/mandm8722.c
                  __pa_69   0x005d52    program     static /fred/mandm/mandm/mandm8722.c
                  __pa_70   0x005d5c    program     static /fred/mandm/mandm/mandm8722.c
                  __pa_71   0x005d70    program     static /fred/mandm/mandm/mandm8722.c
                  __pa_72   0x005d7e    program     static /fred/mandm/mandm/mandm8722.c
                  __pa_73   0x005d96    program     static /fred/mandm/mandm/mandm8722.c
                  __pa_74   0x005d9c    program     static /fred/mandm/mandm/mandm8722.c
                  __pa_75   0x005daa    program     static /fred/mandm/mandm/mandm8722.c
                  __pa_76   0x005db2    program     static /fred/mandm/mandm/mandm8722.c
                  __pa_77   0x005dc0    program     static /fred/mandm/mandm/mandm8722.c
                  __pa_78   0x005dce    program     static /fred/mandm/mandm/mandm8722.c
                  __pa_79   0x005ddc    program     static /fred/mandm/mandm/mandm8722.c
                  __pa_80   0x005de2    program     static /fred/mandm/mandm/mandm8722.c
                  __pa_81   0x005dec    program     static /fred/mandm/mandm/mandm8722.c
                  __pa_82   0x005df6    program     static /fred/mandm/mandm/mandm8722.c
                  __pa_83   0x005e00    program     static /fred/mandm/mandm/mandm8722.c
                  __pa_84   0x005e14    program     static /fred/mandm/mandm/mandm8722.c
                  __pa_85   0x005e28    program     static /fred/mandm/mandm/mandm8722.c
                  __pa_86   0x005e3a    program     static /fred/mandm/mandm/mandm8722.c
                  __pa_87   0x005e4c    program     static /fred/mandm/mandm/mandm8722.c
                  __pa_88   0x005e5e    program     static /fred/mandm/mandm/mandm8722.c
                  __pa_89   0x005e70    program     static /fred/mandm/mandm/mandm8722.c
                  __pa_90   0x005e82    program     static /fred/mandm/mandm/mandm8722.c
                  __pa_91   0x005e8e    program     static /fred/mandm/mandm/mandm8722.c
                  __pa_92   0x005ea0    program     static /fred/mandm/mandm/mandm8722.c
                  __pa_93   0x005eb2    program     static /fred/mandm/mandm/mandm8722.c
                  __pa_94   0x005eb8    program     static /fred/mandm/mandm/mandm8722.c
                  __pa_95   0x005ec4    program     static /fred/mandm/mandm/mandm8722.c
                  __pa_96   0x005eca    program     static /fred/mandm/mandm/mandm8722.c
                  __pa_97   0x005edc    program     static /fred/mandm/mandm/mandm8722.c
                  __pa_98   0x005eee    program     static /fred/mandm/mandm/mandm8722.c
                  __pa_99   0x005ef4    program     static /fred/mandm/mandm/mandm8722.c
                 __pa_100   0x005f00    program     static /fred/mandm/mandm/mandm8722.c
                 __pa_101   0x005f12    program     static /fred/mandm/mandm/mandm8722.c
                 __pa_102   0x005f24    program     static /fred/mandm/mandm/mandm8722.c
                 __pa_103   0x005f36    program     static /fred/mandm/mandm/mandm8722.c
                 __pa_104   0x005f3c    program     static /fred/mandm/mandm/mandm8722.c
                 __pa_105   0x005f42    program     static /fred/mandm/mandm/mandm8722.c
                 __pa_106   0x005f4e    program     static /fred/mandm/mandm/mandm8722.c
                 __pa_107   0x005f5a    program     static /fred/mandm/mandm/mandm8722.c
                 __pa_108   0x005f64    program     static /fred/mandm/mandm/mandm8722.c
                 __pa_109   0x005f6c    program     static /fred/mandm/mandm/mandm8722.c
                 __pa_110   0x005f74    program     static /fred/mandm/mandm/mandm8722.c
                 __pa_111   0x005f82    program     static /fred/mandm/mandm/mandm8722.c
                 __pa_112   0x005f92    program     static /fred/mandm/mandm/mandm8722.c
                 __pa_113   0x005fa2    program     static /fred/mandm/mandm/mandm8722.c
                 __pa_114   0x005fb2    program     static /fred/mandm/mandm/mandm8722.c
                 __pa_115   0x005fba    program     static /fred/mandm/mandm/mandm8722.c
                 __pa_116   0x005fc8    program     static /fred/mandm/mandm/mandm8722.c
                 __pa_117   0x005fd6    program     static /fred/mandm/mandm/mandm8722.c
                 __pa_118   0x005fe0    program     static /fred/mandm/mandm/mandm8722.c
                 __pa_119   0x005fea    program     static /fred/mandm/mandm/mandm8722.c
                 __pa_120   0x005ff4    program     static /fred/mandm/mandm/mandm8722.c
                 __pa_121   0x005ffe    program     static /fred/mandm/mandm/mandm8722.c
                 __pa_122   0x006006    program     static /fred/mandm/mandm/mandm8722.c
                 __pa_123   0x006030    program     static /fred/mandm/mandm/mandm8722.c
                 __pa_124   0x006068    program     static /fred/mandm/mandm/mandm8722.c
                 __pa_125   0x006072    program     static /fred/mandm/mandm/mandm8722.c
                 __pa_126   0x006078    program     static /fred/mandm/mandm/mandm8722.c
                 __pa_127   0x00607e    program     static /fred/mandm/mandm/mandm8722.c
                 __pa_128   0x00608a    program     static /fred/mandm/mandm/mandm8722.c
                 __pa_129   0x006094    program     static /fred/mandm/mandm/mandm8722.c
                 __pa_130   0x0060a4    program     static /fred/mandm/mandm/mandm8722.c
                 __pa_131   0x0060b4    program     static /fred/mandm/mandm/mandm8722.c
                 __pa_132   0x0060ce    program     static /fred/mandm/mandm/mandm8722.c
                 __pa_133   0x0060ec    program     static /fred/mandm/mandm/mandm8722.c
                 __pa_134   0x0060fc    program     static /fred/mandm/mandm/mandm8722.c
                 __pa_135   0x006126    program     static /fred/mandm/mandm/mandm8722.c
                 __pa_136   0x00612c    program     static /fred/mandm/mandm/mandm8722.c
                 __pa_137   0x006132    program     static /fred/mandm/mandm/mandm8722.c
                 __pa_138   0x00613e    program     static /fred/mandm/mandm/mandm8722.c
                 __pa_139   0x006158    program     static /fred/mandm/mandm/mandm8722.c
                 __pa_140   0x00615e    program     static /fred/mandm/mandm/mandm8722.c
                 __pa_141   0x006176    program     static /fred/mandm/mandm/mandm8722.c
                 __pa_142   0x006182    program     static /fred/mandm/mandm/mandm8722.c
                 __pa_143   0x00618a    program     static /fred/mandm/mandm/mandm8722.c
                 __pa_144   0x00619e    program     static /fred/mandm/mandm/mandm8722.c
                 __pa_145   0x0061b8    program     static /fred/mandm/mandm/mandm8722.c
                 __pa_146   0x0061c0    program     static /fred/mandm/mandm/mandm8722.c
                 __pa_147   0x0061ce    program     static /fred/mandm/mandm/mandm8722.c
                 __pa_148   0x0061d4    program     static /fred/mandm/mandm/mandm8722.c
                 __pa_149   0x0061da    program     static /fred/mandm/mandm/mandm8722.c
                 __pa_150   0x0061e4    program     static /fred/mandm/mandm/mandm8722.c
                 __pa_151   0x0061ee    program     static /fred/mandm/mandm/mandm8722.c
                 __pa_152   0x00620a    program     static /fred/mandm/mandm/mandm8722.c
                 __pa_153   0x00621e    program     static /fred/mandm/mandm/mandm8722.c
                 __pa_154   0x006232    program     static /fred/mandm/mandm/mandm8722.c
                 __pa_155   0x006244    program     static /fred/mandm/mandm/mandm8722.c
                 __pa_156   0x006256    program     static /fred/mandm/mandm/mandm8722.c
                 __pa_157   0x006260    program     static /fred/mandm/mandm/mandm8722.c
                 __pa_158   0x00626a    program     static /fred/mandm/mandm/mandm8722.c
                 __pa_159   0x006274    program     static /fred/mandm/mandm/mandm8722.c
                 __pa_160   0x006288    program     static /fred/mandm/mandm/mandm8722.c
                 __pa_161   0x006296    program     static /fred/mandm/mandm/mandm8722.c
                 __pa_162   0x0062a6    program     static /fred/mandm/mandm/mandm8722.c
                 __pa_163   0x0062ae    program     static /fred/mandm/mandm/mandm8722.c
                 __pa_164   0x0062b6    program     static /fred/mandm/mandm/mandm8722.c
                 __pa_165   0x0062c0    program     static /fred/mandm/mandm/mandm8722.c
                 __pa_166   0x0062d4    program     static /fred/mandm/mandm/mandm8722.c
                 __pa_167   0x0062e4    program     static /fred/mandm/mandm/mandm8722.c
                 __pa_168   0x0062f8    program     static /fred/mandm/mandm/mandm8722.c
                 __pa_169   0x00630a    program     static /fred/mandm/mandm/mandm8722.c
             __tmplbl_101   0x00630a    program     static                          
             __tmplbl_102   0x00630a    program     static                          
                 __pa_170   0x00631c    program     static /fred/mandm/mandm/mandm8722.c
                 __pa_171   0x00632a    program     static /fred/mandm/mandm/mandm8722.c
                 __pa_172   0x00633c    program     static /fred/mandm/mandm/mandm8722.c
                 __pa_173   0x00634e    program     static /fred/mandm/mandm/mandm8722.c
                 __pa_174   0x006360    program     static /fred/mandm/mandm/mandm8722.c
                 __pa_175   0x006372    program     static /fred/mandm/mandm/mandm8722.c
                 __pa_176   0x006384    program     static /fred/mandm/mandm/mandm8722.c
                 __pa_177   0x006396    program     static /fred/mandm/mandm/mandm8722.c
                 __pa_178   0x0063a8    program     static /fred/mandm/mandm/mandm8722.c
                 __pa_179   0x0063b2    program     static /fred/mandm/mandm/mandm8722.c
                 __pa_180   0x0063b8    program     static /fred/mandm/mandm/mandm8722.c
                 __pa_181   0x0063be    program     static /fred/mandm/mandm/mandm8722.c
                 __pa_182   0x0063c8    program     static /fred/mandm/mandm/mandm8722.c
             __tmplbl_137   0x0063d2    program     static                          
                 __pa_183   0x0063d2    program     static /fred/mandm/mandm/mandm8722.c
             __tmplbl_136   0x0063d2    program     static                          
             __tmplbl_135   0x0063d2    program     static                          
             __tmplbl_134   0x0063d2    program     static                          
                 __pa_184   0x0063dc    program     static /fred/mandm/mandm/mandm8722.c
                 __pa_185   0x0063e2    program     static /fred/mandm/mandm/mandm8722.c
                 __pa_186   0x0063f2    program     static /fred/mandm/mandm/mandm8722.c
                 __pa_187   0x0063fa    program     static /fred/mandm/mandm/mandm8722.c
             __tmplbl_106   0x006408    program     static                          
                 __pa_188   0x006408    program     static /fred/mandm/mandm/mandm8722.c
             __tmplbl_105   0x006408    program     static                          
                 __pa_189   0x006412    program     static /fred/mandm/mandm/mandm8722.c
                 __pa_190   0x006420    program     static /fred/mandm/mandm/mandm8722.c
                 __pa_191   0x00642a    program     static /fred/mandm/mandm/mandm8722.c
                 __pa_192   0x006436    program     static /fred/mandm/mandm/mandm8722.c
                 __pa_193   0x006444    program     static /fred/mandm/mandm/mandm8722.c
                 __pa_194   0x006452    program     static /fred/mandm/mandm/mandm8722.c
                 __pa_195   0x00645e    program     static /fred/mandm/mandm/mandm8722.c
                 __pa_196   0x006464    program     static /fred/mandm/mandm/mandm8722.c
                 __pa_197   0x006470    program     static /fred/mandm/mandm/mandm8722.c
                 __pa_198   0x00647e    program     static /fred/mandm/mandm/mandm8722.c
                 __pa_199   0x006488    program     static /fred/mandm/mandm/mandm8722.c
                 __pa_200   0x006492    program     static /fred/mandm/mandm/mandm8722.c
             __tmplbl_151   0x00649a    program     static                          
             __tmplbl_150   0x00649a    program     static                          
                 __pa_201   0x00649a    program     static /fred/mandm/mandm/mandm8722.c
                 __pa_202   0x00649e    program     static /fred/mandm/mandm/mandm8722.c
                 __pa_203   0x0064a6    program     static /fred/mandm/mandm/mandm8722.c
                 __pa_204   0x0064b4    program     static /fred/mandm/mandm/mandm8722.c
                 __pa_205   0x0064c2    program     static /fred/mandm/mandm/mandm8722.c
                 __pa_206   0x0064f8    program     static /fred/mandm/mandm/mandm8722.c
                 __pa_207   0x006500    program     static /fred/mandm/mandm/mandm8722.c
                 __pa_208   0x00650e    program     static /fred/mandm/mandm/mandm8722.c
                 __pa_209   0x006524    program     static /fred/mandm/mandm/mandm8722.c
                 __pa_210   0x00652a    program     static /fred/mandm/mandm/mandm8722.c
                 __pa_211   0x006532    program     static /fred/mandm/mandm/mandm8722.c
                 __pa_212   0x006544    program     static /fred/mandm/mandm/mandm8722.c
                 __pa_213   0x00654c    program     static /fred/mandm/mandm/mandm8722.c
                 __pa_214   0x006554    program     static /fred/mandm/mandm/mandm8722.c
                 __pa_215   0x00655a    program     static /fred/mandm/mandm/mandm8722.c
                 __pa_216   0x006562    program     static /fred/mandm/mandm/mandm8722.c
                 __pa_217   0x00656a    program     static /fred/mandm/mandm/mandm8722.c
                 __pa_218   0x006572    program     static /fred/mandm/mandm/mandm8722.c
                 __pa_219   0x00657a    program     static /fred/mandm/mandm/mandm8722.c
                 __pa_220   0x00658a    program     static /fred/mandm/mandm/mandm8722.c
                 __pa_221   0x006598    program     static /fred/mandm/mandm/mandm8722.c
                 __pa_222   0x0065a6    program     static /fred/mandm/mandm/mandm8722.c
                 __pa_223   0x0065b0    program     static /fred/mandm/mandm/mandm8722.c
                 __pa_224   0x0065b8    program     static /fred/mandm/mandm/mandm8722.c
                 __pa_225   0x0065c0    program     static /fred/mandm/mandm/mandm8722.c
                 __pa_226   0x0065ca    program     static /fred/mandm/mandm/mandm8722.c
                 __pa_227   0x0065d6    program     static /fred/mandm/mandm/mandm8722.c
                 __pa_228   0x0065e0    program     static /fred/mandm/mandm/mandm8722.c
                 __pa_229   0x0065ec    program     static /fred/mandm/mandm/mandm8722.c
                 __pa_230   0x0065f8    program     static /fred/mandm/mandm/mandm8722.c
                 __pa_231   0x006604    program     static /fred/mandm/mandm/mandm8722.c
                 __pa_232   0x006610    program     static /fred/mandm/mandm/mandm8722.c
                 __pa_233   0x00661c    program     static /fred/mandm/mandm/mandm8722.c
                 __pa_234   0x006622    program     static /fred/mandm/mandm/mandm8722.c
                 __pa_235   0x00662c    program     static /fred/mandm/mandm/mandm8722.c
                 __pa_236   0x006636    program     static /fred/mandm/mandm/mandm8722.c
                 __pa_237   0x00663e    program     static /fred/mandm/mandm/mandm8722.c
                 __pa_238   0x006646    program     static /fred/mandm/mandm/mandm8722.c
                 __pa_239   0x006650    program     static /fred/mandm/mandm/mandm8722.c
                 __pa_240   0x00665a    program     static /fred/mandm/mandm/mandm8722.c
                 __pa_241   0x006662    program     static /fred/mandm/mandm/mandm8722.c
                 __pa_242   0x006668    program     static /fred/mandm/mandm/mandm8722.c
                 __pa_243   0x00666e    program     static /fred/mandm/mandm/mandm8722.c
                 __pa_244   0x006678    program     static /fred/mandm/mandm/mandm8722.c
                 __pa_245   0x00667e    program     static /fred/mandm/mandm/mandm8722.c
                 ADC_zero   0x006684    program     extern /fred/mandm/mandm/daq.c  
        ___while_lbl00001   0x00669e    program     static                          
        ___while_lbl00002   0x0066a8    program     static                          
       ___return_lbl00000   0x0066a8    program     static                          
       Reset_Change_Count   0x0066aa    program     extern /fred/mandm/mandm/daq.c  
             Change_Count   0x0066ea    program     extern /fred/mandm/mandm/daq.c  
                 ADC_read   0x0067e4    program     extern /fred/mandm/mandm/daq.c  
          ___for_lbl00017   0x00680c    program     static                          
        ___while_lbl00015   0x00681c    program     static                          
        ___while_lbl00016   0x006826    program     static                          
          ___for_lbl00013   0x006848    program     static                          
          ___for_lbl00014   0x006852    program     static                          
              __tmplbl_23   0x0068a0    program     static                          
          ___for_lbl00022   0x00692c    program     static                          
        ___while_lbl00020   0x00693c    program     static                          
        ___while_lbl00021   0x006946    program     static                          
          ___for_lbl00018   0x006968    program     static                          
          ___for_lbl00019   0x006972    program     static                          
              __tmplbl_24   0x0069c0    program     static                          
          ___for_lbl00027   0x006a4c    program     static                          
        ___while_lbl00025   0x006a5c    program     static                          
        ___while_lbl00026   0x006a66    program     static                          
          ___for_lbl00023   0x006a88    program     static                          
          ___for_lbl00024   0x006a92    program     static                          
              __tmplbl_25   0x006b2e    program     static                          
               __tmplbl_9   0x006ba4    program     static                          
           ___if_lbl00028   0x006bb0    program     static                          
              __tmplbl_11   0x006c50    program     static                          
              __tmplbl_10   0x006c74    program     static                          
           ___if_lbl00030   0x006c7e    program     static                          
          ___for_lbl00035   0x006ca4    program     static                          
        ___while_lbl00033   0x006cb4    program     static                          
        ___while_lbl00034   0x006cbe    program     static                          
          ___for_lbl00031   0x006ce0    program     static                          
          ___for_lbl00032   0x006cea    program     static                          
              __tmplbl_26   0x006d86    program     static                          
              __tmplbl_12   0x006dfc    program     static                          
           ___if_lbl00036   0x006e08    program     static                          
              __tmplbl_14   0x006eae    program     static                          
              __tmplbl_13   0x006ed2    program     static                          
           ___if_lbl00038   0x006edc    program     static                          
          ___for_lbl00043   0x006f04    program     static                          
        ___while_lbl00041   0x006f14    program     static                          
        ___while_lbl00042   0x006f1e    program     static                          
          ___for_lbl00039   0x006f40    program     static                          
          ___for_lbl00040   0x006f4a    program     static                          
              __tmplbl_27   0x006fe6    program     static                          
              __tmplbl_15   0x00705c    program     static                          
           ___if_lbl00044   0x007068    program     static                          
              __tmplbl_17   0x007106    program     static                          
              __tmplbl_16   0x00712a    program     static                          
           ___if_lbl00046   0x007134    program     static                          
          ___for_lbl00051   0x00715c    program     static                          
        ___while_lbl00049   0x00716c    program     static                          
        ___while_lbl00050   0x007176    program     static                          
          ___for_lbl00047   0x007198    program     static                          
          ___for_lbl00048   0x0071a2    program     static                          
          ___for_lbl00056   0x00720a    program     static                          
        ___while_lbl00054   0x00721a    program     static                          
        ___while_lbl00055   0x007224    program     static                          
          ___for_lbl00052   0x007246    program     static                          
          ___for_lbl00053   0x007250    program     static                          
          ___for_lbl00061   0x0072b8    program     static                          
        ___while_lbl00059   0x0072c8    program     static                          
        ___while_lbl00060   0x0072d2    program     static                          
          ___for_lbl00057   0x0072f4    program     static                          
          ___for_lbl00058   0x0072fe    program     static                          
          ___for_lbl00066   0x007366    program     static                          
        ___while_lbl00064   0x007376    program     static                          
        ___while_lbl00065   0x007380    program     static                          
          ___for_lbl00062   0x0073a2    program     static                          
          ___for_lbl00063   0x0073ac    program     static                          
          ___for_lbl00071   0x007414    program     static                          
        ___while_lbl00069   0x007424    program     static                          
        ___while_lbl00070   0x00742e    program     static                          
          ___for_lbl00067   0x007450    program     static                          
          ___for_lbl00068   0x00745a    program     static                          
          ___for_lbl00076   0x0074c2    program     static                          
        ___while_lbl00074   0x0074d2    program     static                          
        ___while_lbl00075   0x0074dc    program     static                          
          ___for_lbl00072   0x0074fe    program     static                          
          ___for_lbl00073   0x007508    program     static                          
          ___for_lbl00091   0x007616    program     static                          
           ___if_lbl00079   0x007806    program     static                          
              __tmplbl_19   0x007830    program     static                          
              __tmplbl_18   0x0078b8    program     static                          
         ___else_lbl00082   0x007928    program     static                          
           ___if_lbl00081   0x007a02    program     static                          
           ___if_lbl00083   0x007a02    program     static                          
              __tmplbl_28   0x007a46    program     static                          
              __tmplbl_21   0x007a48    program     static                          
              __tmplbl_20   0x007a4e    program     static                          
           ___if_lbl00085   0x007a80    program     static                          
           ___if_lbl00086   0x007ad8    program     static                          
           ___if_lbl00087   0x007c1c    program     static                          
           ___if_lbl00088   0x007cfe    program     static                          
           ___if_lbl00089   0x007e78    program     static                          
           ___if_lbl00090   0x008120    program     static                          
          ___for_lbl00077   0x008216    program     static                          
          ___for_lbl00078   0x008222    program     static                          
        ___while_lbl00092   0x0082ea    program     static                          
        ___while_lbl00093   0x0082fc    program     static                          
           ___if_lbl00094   0x0082fc    program     static                          
           ___if_lbl00095   0x0082fc    program     static                          
       ___return_lbl00012   0x008302    program     static                          
              zero_amploc   0x008304    program     extern /fred/mandm/mandm/daq.c  
                   __pa_0   0x0083fc    program     static /fred/mandm/mandm/daq.c  
                   __pa_1   0x00842e    program     static /fred/mandm/mandm/daq.c  
                   __pa_2   0x00844e    program     static /fred/mandm/mandm/daq.c  
                   __pa_3   0x008460    program     static /fred/mandm/mandm/daq.c  
                   __pa_4   0x008476    program     static /fred/mandm/mandm/daq.c  
                   __pa_5   0x008486    program     static /fred/mandm/mandm/daq.c  
               __string_5   0x008490    program     static /fred/mandm/mandm/daq.c  
               __string_4   0x0084bf    program     static /fred/mandm/mandm/daq.c  
               __string_3   0x0084ee    program     static /fred/mandm/mandm/daq.c  
               __string_2   0x00851d    program     static /fred/mandm/mandm/daq.c  
               __string_1   0x008558    program     static /fred/mandm/mandm/daq.c  
               __string_0   0x008598    program     static /fred/mandm/mandm/daq.c  
             __string_269   0x0085b5    program     static /fred/mandm/mandm/mandm8722.c
             __string_268   0x0085d6    program     static /fred/mandm/mandm/mandm8722.c
             __string_267   0x0085ff    program     static /fred/mandm/mandm/mandm8722.c
             __string_266   0x008618    program     static /fred/mandm/mandm/mandm8722.c
             __string_265   0x008635    program     static /fred/mandm/mandm/mandm8722.c
             __string_264   0x00864b    program     static /fred/mandm/mandm/mandm8722.c
             __string_263   0x008664    program     static /fred/mandm/mandm/mandm8722.c
             __string_262   0x00867d    program     static /fred/mandm/mandm/mandm8722.c
             __string_261   0x008699    program     static /fred/mandm/mandm/mandm8722.c
             __string_260   0x0086b2    program     static /fred/mandm/mandm/mandm8722.c
             __string_259   0x0086d2    program     static /fred/mandm/mandm/mandm8722.c
             __string_258   0x0086f5    program     static /fred/mandm/mandm/mandm8722.c
             __string_257   0x008715    program     static /fred/mandm/mandm/mandm8722.c
             __string_256   0x008732    program     static /fred/mandm/mandm/mandm8722.c
             __string_255   0x00874b    program     static /fred/mandm/mandm/mandm8722.c
             __string_254   0x008763    program     static /fred/mandm/mandm/mandm8722.c
             __string_253   0x008782    program     static /fred/mandm/mandm/mandm8722.c
             __string_252   0x00879a    program     static /fred/mandm/mandm/mandm8722.c
             __string_251   0x0087c3    program     static /fred/mandm/mandm/mandm8722.c
             __string_250   0x0087ec    program     static /fred/mandm/mandm/mandm8722.c
             __string_249   0x008816    program     static /fred/mandm/mandm/mandm8722.c
             __string_248   0x00883b    program     static /fred/mandm/mandm/mandm8722.c
             __string_247   0x008850    program     static /fred/mandm/mandm/mandm8722.c
             __string_246   0x00888e    program     static /fred/mandm/mandm/mandm8722.c
             __string_245   0x0088b1    program     static /fred/mandm/mandm/mandm8722.c
             __string_244   0x0088e6    program     static /fred/mandm/mandm/mandm8722.c
             __string_243   0x008904    program     static /fred/mandm/mandm/mandm8722.c
             __string_242   0x008921    program     static /fred/mandm/mandm/mandm8722.c
             __string_241   0x00893f    program     static /fred/mandm/mandm/mandm8722.c
             __string_240   0x008954    program     static /fred/mandm/mandm/mandm8722.c
             __string_239   0x008980    program     static /fred/mandm/mandm/mandm8722.c
             __string_238   0x008997    program     static /fred/mandm/mandm/mandm8722.c
             __string_237   0x0089ae    program     static /fred/mandm/mandm/mandm8722.c
             __string_236   0x0089c4    program     static /fred/mandm/mandm/mandm8722.c
             __string_235   0x0089db    program     static /fred/mandm/mandm/mandm8722.c
             __string_234   0x0089f2    program     static /fred/mandm/mandm/mandm8722.c
             __string_233   0x008a09    program     static /fred/mandm/mandm/mandm8722.c
             __string_232   0x008a35    program     static /fred/mandm/mandm/mandm8722.c
             __string_231   0x008a57    program     static /fred/mandm/mandm/mandm8722.c
             __string_230   0x008a6e    program     static /fred/mandm/mandm/mandm8722.c
             __string_229   0x008a96    program     static /fred/mandm/mandm/mandm8722.c
             __string_228   0x008abe    program     static /fred/mandm/mandm/mandm8722.c
             __string_227   0x008ae6    program     static /fred/mandm/mandm/mandm8722.c
             __string_226   0x008b0e    program     static /fred/mandm/mandm/mandm8722.c
             __string_225   0x008b26    program     static /fred/mandm/mandm/mandm8722.c
             __string_224   0x008b4b    program     static /fred/mandm/mandm/mandm8722.c
             __string_223   0x008b68    program     static /fred/mandm/mandm/mandm8722.c
             __string_222   0x008b8e    program     static /fred/mandm/mandm/mandm8722.c
             __string_221   0x008bac    program     static /fred/mandm/mandm/mandm8722.c
             __string_220   0x008bc8    program     static /fred/mandm/mandm/mandm8722.c
             __string_219   0x008bdf    program     static /fred/mandm/mandm/mandm8722.c
             __string_218   0x008bf6    program     static /fred/mandm/mandm/mandm8722.c
             __string_217   0x008c16    program     static /fred/mandm/mandm/mandm8722.c
             __string_216   0x008c41    program     static /fred/mandm/mandm/mandm8722.c
             __string_215   0x008c5c    program     static /fred/mandm/mandm/mandm8722.c
             __string_214   0x008c89    program     static /fred/mandm/mandm/mandm8722.c
             __string_213   0x008cb1    program     static /fred/mandm/mandm/mandm8722.c
             __string_212   0x008cd0    program     static /fred/mandm/mandm/mandm8722.c
             __string_211   0x008cfb    program     static /fred/mandm/mandm/mandm8722.c
             __string_210   0x008d17    program     static /fred/mandm/mandm/mandm8722.c
             __string_209   0x008d45    program     static /fred/mandm/mandm/mandm8722.c
             __string_208   0x008d69    program     static /fred/mandm/mandm/mandm8722.c
             __string_207   0x008d87    program     static /fred/mandm/mandm/mandm8722.c
             __string_206   0x008da6    program     static /fred/mandm/mandm/mandm8722.c
             __string_205   0x008dc5    program     static /fred/mandm/mandm/mandm8722.c
             __string_204   0x008de4    program     static /fred/mandm/mandm/mandm8722.c
             __string_203   0x008dfb    program     static /fred/mandm/mandm/mandm8722.c
             __string_202   0x008e12    program     static /fred/mandm/mandm/mandm8722.c
             __string_201   0x008e29    program     static /fred/mandm/mandm/mandm8722.c
             __string_200   0x008e3f    program     static /fred/mandm/mandm/mandm8722.c
             __string_199   0x008e55    program     static /fred/mandm/mandm/mandm8722.c
             __string_198   0x008e6b    program     static /fred/mandm/mandm/mandm8722.c
             __string_197   0x008e92    program     static /fred/mandm/mandm/mandm8722.c
             __string_196   0x008eb9    program     static /fred/mandm/mandm/mandm8722.c
             __string_195   0x008ee0    program     static /fred/mandm/mandm/mandm8722.c
             __string_194   0x008f01    program     static /fred/mandm/mandm/mandm8722.c
             __string_193   0x008f28    program     static /fred/mandm/mandm/mandm8722.c
             __string_192   0x008f4a    program     static /fred/mandm/mandm/mandm8722.c
             __string_191   0x008f73    program     static /fred/mandm/mandm/mandm8722.c
             __string_190   0x008f88    program     static /fred/mandm/mandm/mandm8722.c
             __string_189   0x008fb1    program     static /fred/mandm/mandm/mandm8722.c
             __string_188   0x008fc9    program     static /fred/mandm/mandm/mandm8722.c
             __string_187   0x008ff2    program     static /fred/mandm/mandm/mandm8722.c
             __string_186   0x009019    program     static /fred/mandm/mandm/mandm8722.c
             __string_185   0x009040    program     static /fred/mandm/mandm/mandm8722.c
             __string_184   0x009067    program     static /fred/mandm/mandm/mandm8722.c
             __string_183   0x009090    program     static /fred/mandm/mandm/mandm8722.c
             __string_182   0x0090b9    program     static /fred/mandm/mandm/mandm8722.c
             __string_181   0x0090e2    program     static /fred/mandm/mandm/mandm8722.c
             __string_180   0x0090fc    program     static /fred/mandm/mandm/mandm8722.c
             __string_179   0x009123    program     static /fred/mandm/mandm/mandm8722.c
             __string_178   0x009140    program     static /fred/mandm/mandm/mandm8722.c
             __string_177   0x009161    program     static /fred/mandm/mandm/mandm8722.c
             __string_176   0x00918a    program     static /fred/mandm/mandm/mandm8722.c
             __string_175   0x0091a0    program     static /fred/mandm/mandm/mandm8722.c
             __string_174   0x0091b6    program     static /fred/mandm/mandm/mandm8722.c
             __string_173   0x0091cc    program     static /fred/mandm/mandm/mandm8722.c
             __string_172   0x0091e2    program     static /fred/mandm/mandm/mandm8722.c
             __string_171   0x00920d    program     static /fred/mandm/mandm/mandm8722.c
             __string_170   0x009220    program     static /fred/mandm/mandm/mandm8722.c
             __string_169   0x009237    program     static /fred/mandm/mandm/mandm8722.c
             __string_168   0x00924e    program     static /fred/mandm/mandm/mandm8722.c
             __string_167   0x009266    program     static /fred/mandm/mandm/mandm8722.c
             __string_166   0x009275    program     static /fred/mandm/mandm/mandm8722.c
             __string_165   0x00928d    program     static /fred/mandm/mandm/mandm8722.c
             __string_164   0x0092a8    program     static /fred/mandm/mandm/mandm8722.c
             __string_163   0x0092b7    program     static /fred/mandm/mandm/mandm8722.c
             __string_162   0x0092d2    program     static /fred/mandm/mandm/mandm8722.c
             __string_161   0x0092e4    program     static /fred/mandm/mandm/mandm8722.c
             __string_160   0x009335    program     static /fred/mandm/mandm/mandm8722.c
             __string_159   0x009352    program     static /fred/mandm/mandm/mandm8722.c
             __string_158   0x00938f    program     static /fred/mandm/mandm/mandm8722.c
             __string_157   0x0093e1    program     static /fred/mandm/mandm/mandm8722.c
             __string_156   0x009400    program     static /fred/mandm/mandm/mandm8722.c
             __string_155   0x00941a    program     static /fred/mandm/mandm/mandm8722.c
             __string_154   0x009470    program     static /fred/mandm/mandm/mandm8722.c
             __string_153   0x0094bf    program     static /fred/mandm/mandm/mandm8722.c
             __string_152   0x0094d6    program     static /fred/mandm/mandm/mandm8722.c
             __string_151   0x0094ec    program     static /fred/mandm/mandm/mandm8722.c
             __string_150   0x009523    program     static /fred/mandm/mandm/mandm8722.c
             __string_149   0x009560    program     static /fred/mandm/mandm/mandm8722.c
             __string_148   0x00957b    program     static /fred/mandm/mandm/mandm8722.c
             __string_147   0x0095c2    program     static /fred/mandm/mandm/mandm8722.c
             __string_146   0x00960f    program     static /fred/mandm/mandm/mandm8722.c
             __string_145   0x009632    program     static /fred/mandm/mandm/mandm8722.c
             __string_144   0x009656    program     static /fred/mandm/mandm/mandm8722.c
             __string_143   0x00966f    program     static /fred/mandm/mandm/mandm8722.c
             __string_142   0x009689    program     static /fred/mandm/mandm/mandm8722.c
             __string_141   0x0096a9    program     static /fred/mandm/mandm/mandm8722.c
             __string_140   0x0096c3    program     static /fred/mandm/mandm/mandm8722.c
             __string_139   0x0096dd    program     static /fred/mandm/mandm/mandm8722.c
             __string_138   0x0096ef    program     static /fred/mandm/mandm/mandm8722.c
             __string_137   0x0096f9    program     static /fred/mandm/mandm/mandm8722.c
             __string_136   0x009706    program     static /fred/mandm/mandm/mandm8722.c
             __string_135   0x00970c    program     static /fred/mandm/mandm/mandm8722.c
             __string_134   0x009714    program     static /fred/mandm/mandm/mandm8722.c
             __string_133   0x00971c    program     static /fred/mandm/mandm/mandm8722.c
             __string_132   0x009728    program     static /fred/mandm/mandm/mandm8722.c
             __string_131   0x00973a    program     static /fred/mandm/mandm/mandm8722.c
             __string_130   0x009752    program     static /fred/mandm/mandm/mandm8722.c
             __string_129   0x009773    program     static /fred/mandm/mandm/mandm8722.c
             __string_128   0x0097eb    program     static /fred/mandm/mandm/mandm8722.c
             __string_127   0x00984e    program     static /fred/mandm/mandm/mandm8722.c
             __string_126   0x00990d    program     static /fred/mandm/mandm/mandm8722.c
             __string_125   0x00999c    program     static /fred/mandm/mandm/mandm8722.c
             __string_124   0x0099b2    program     static /fred/mandm/mandm/mandm8722.c
             __string_123   0x0099b4    program     static /fred/mandm/mandm/mandm8722.c
             __string_122   0x0099b9    program     static /fred/mandm/mandm/mandm8722.c
             __string_121   0x0099bc    program     static /fred/mandm/mandm/mandm8722.c
             __string_120   0x0099c3    program     static /fred/mandm/mandm/mandm8722.c
             __string_119   0x0099dc    program     static /fred/mandm/mandm/mandm8722.c
             __string_118   0x0099e5    program     static /fred/mandm/mandm/mandm8722.c
              __string_10   0x0099f1    program     static /fred/mandm/mandm/config.c
               __string_9   0x009a15    program     static /fred/mandm/mandm/config.c
               __string_8   0x009a39    program     static /fred/mandm/mandm/config.c
               __string_7   0x009a50    program     static /fred/mandm/mandm/config.c
               __string_6   0x009a72    program     static /fred/mandm/mandm/config.c
               __string_5   0x009a99    program     static /fred/mandm/mandm/config.c
               __string_4   0x009abe    program     static /fred/mandm/mandm/config.c
               __string_3   0x009ae1    program     static /fred/mandm/mandm/config.c
               __string_2   0x009b03    program     static /fred/mandm/mandm/config.c
               __string_1   0x009b28    program     static /fred/mandm/mandm/config.c
               __string_0   0x009b4d    program     static /fred/mandm/mandm/config.c
                     spin   0x009b50    program     extern /fred/mandm/mandm/mandm_msg.h
        menutext_template   0x009bc8    program     extern /fred/mandm/mandm/mandm_msg.h
                 menutext   0x009c91    program     extern /fred/mandm/mandm/mandm_msg.h
          menuselect_free   0x009d5a    program     extern /fred/mandm/mandm/mandm_msg.h
         menuselect_track   0x009ee6    program     extern /fred/mandm/mandm/mandm_msg.h
                 lowbatt0   0x00a072    program     extern /fred/mandm/mandm/mandm_msg.h
                    zero0   0x00a0b5    program     extern /fred/mandm/mandm/mandm_msg.h
                    zero1   0x00a0df    program     extern /fred/mandm/mandm/mandm_msg.h
                    zero2   0x00a11b    program     extern /fred/mandm/mandm/mandm_msg.h
                    zero3   0x00a14f    program     extern /fred/mandm/mandm/mandm_msg.h
                    adcg0   0x00a189    program     extern /fred/mandm/mandm/mandm_msg.h
                    adcg1   0x00a1c9    program     extern /fred/mandm/mandm/mandm_msg.h
                    adcg2   0x00a1f4    program     extern /fred/mandm/mandm/mandm_msg.h
                    adcg3   0x00a227    program     extern /fred/mandm/mandm/mandm_msg.h
                    adcg4   0x00a293    program     extern /fred/mandm/mandm/mandm_msg.h
                   tweak0   0x00a2ca    program     extern /fred/mandm/mandm/mandm_msg.h
                   tweak1   0x00a367    program     extern /fred/mandm/mandm/mandm_msg.h
                   tweak2   0x00a390    program     extern /fred/mandm/mandm/mandm_msg.h
                   tweak3   0x00a3b4    program     extern /fred/mandm/mandm/mandm_msg.h
                   tweak4   0x00a433    program     extern /fred/mandm/mandm/mandm_msg.h
                   tweak5   0x00a463    program     extern /fred/mandm/mandm/mandm_msg.h
                 tweak_t1   0x00a4e9    program     extern /fred/mandm/mandm/mandm_msg.h
                 tweak_t2   0x00a4ee    program     extern /fred/mandm/mandm/mandm_msg.h
                 tweak_t3   0x00a4f2    program     extern /fred/mandm/mandm/mandm_msg.h
                 tweak_t4   0x00a4f6    program     extern /fred/mandm/mandm/mandm_msg.h
                 tweak_tw   0x00a4fb    program     extern /fred/mandm/mandm/mandm_msg.h
                   hello0   0x00a50b    program     extern /fred/mandm/mandm/mandm_msg.h
                   hello1   0x00a558    program     extern /fred/mandm/mandm/mandm_msg.h
                    hold0   0x00a565    program     extern /fred/mandm/mandm/mandm_msg.h
                    hold1   0x00a5c3    program     extern /fred/mandm/mandm/mandm_msg.h
                    sync0   0x00a5fc    program     extern /fred/mandm/mandm/mandm_msg.h
                    sync1   0x00a630    program     extern /fred/mandm/mandm/mandm_msg.h
                    sync2   0x00a64e    program     extern /fred/mandm/mandm/mandm_msg.h
                 keycmds0   0x00a66c    program     extern /fred/mandm/mandm/mandm_msg.h
                 keycmds1   0x00a6b6    program     extern /fred/mandm/mandm/mandm_msg.h
              battheader0   0x00a700    program     extern /fred/mandm/mandm/mandm_msg.h
              battheader1   0x00a774    program     extern /fred/mandm/mandm/mandm_msg.h
             modelheader0   0x00a7fe    program     extern /fred/mandm/mandm/mandm_msg.h
             modelheader1   0x00a81d    program     extern /fred/mandm/mandm/mandm_msg.h
              battbuffer0   0x00a835    program     extern /fred/mandm/mandm/mandm_msg.h
                  sddump0   0x00a85d    program     extern /fred/mandm/mandm/mandm_msg.h
                  sddump1   0x00a88b    program     extern /fred/mandm/mandm/mandm_msg.h
                  sddump2   0x00a8c1    program     extern /fred/mandm/mandm/mandm_msg.h
                  sddump3   0x00a8d8    program     extern /fred/mandm/mandm/mandm_msg.h
                  divert0   0x00a905    program     extern /fred/mandm/mandm/mandm_msg.h
                  divert1   0x00a925    program     extern /fred/mandm/mandm/mandm_msg.h
                 divert99   0x00a946    program     extern /fred/mandm/mandm/mandm_msg.h
                 almcode0   0x00a947    program     extern /fred/mandm/mandm/mandm_msg.h
                 almcode1   0x00a967    program     extern /fred/mandm/mandm/mandm_msg.h
                 almcode2   0x00a997    program     extern /fred/mandm/mandm/mandm_msg.h
                 almcode3   0x00a9ba    program     extern /fred/mandm/mandm/mandm_msg.h
                 almcode4   0x00a9dd    program     extern /fred/mandm/mandm/mandm_msg.h
                 almcode5   0x00aa0e    program     extern /fred/mandm/mandm/mandm_msg.h
                 almcode6   0x00aa42    program     extern /fred/mandm/mandm/mandm_msg.h
                 almcode7   0x00aa77    program     extern /fred/mandm/mandm/mandm_msg.h
                 almcode8   0x00aab0    program     extern /fred/mandm/mandm/mandm_msg.h
                 almcode9   0x00aade    program     extern /fred/mandm/mandm/mandm_msg.h
                almcode10   0x00ab0e    program     extern /fred/mandm/mandm/mandm_msg.h
                almcode11   0x00ab4f    program     extern /fred/mandm/mandm/mandm_msg.h
                almcode12   0x00ab75    program     extern /fred/mandm/mandm/mandm_msg.h
                almcode13   0x00ab9b    program     extern /fred/mandm/mandm/mandm_msg.h
                almcode14   0x00abc7    program     extern /fred/mandm/mandm/mandm_msg.h
                almcode15   0x00abdf    program     extern /fred/mandm/mandm/mandm_msg.h
                almcode16   0x00abf6    program     extern /fred/mandm/mandm/mandm_msg.h
                almcode17   0x00ac23    program     extern /fred/mandm/mandm/mandm_msg.h
                almcode99   0x00ac42    program     extern /fred/mandm/mandm/mandm_msg.h
                chrgcode0   0x00ac43    program     extern /fred/mandm/mandm/mandm_msg.h
                chrgcode1   0x00ac74    program     extern /fred/mandm/mandm/mandm_msg.h
                chrgcode2   0x00acaa    program     extern /fred/mandm/mandm/mandm_msg.h
                chrgcode3   0x00acd6    program     extern /fred/mandm/mandm/mandm_msg.h
                chrgcode4   0x00ad07    program     extern /fred/mandm/mandm/mandm_msg.h
                chrgcode5   0x00ad3f    program     extern /fred/mandm/mandm/mandm_msg.h
                chrgcode6   0x00ad52    program     extern /fred/mandm/mandm/mandm_msg.h
                chrgcode7   0x00ad72    program     extern /fred/mandm/mandm/mandm_msg.h
                chrgcode8   0x00ad9f    program     extern /fred/mandm/mandm/mandm_msg.h
                chrgcode9   0x00adc9    program     extern /fred/mandm/mandm/mandm_msg.h
               chrgcode10   0x00adee    program     extern /fred/mandm/mandm/mandm_msg.h
               chrgcode11   0x00ae1b    program     extern /fred/mandm/mandm/mandm_msg.h
               chrgcode12   0x00ae46    program     extern /fred/mandm/mandm/mandm_msg.h
               chrgcode13   0x00ae74    program     extern /fred/mandm/mandm/mandm_msg.h
               chrgcode14   0x00aea1    program     extern /fred/mandm/mandm/mandm_msg.h
               chrgcode15   0x00aed5    program     extern /fred/mandm/mandm/mandm_msg.h
               chrgcode16   0x00aeff    program     extern /fred/mandm/mandm/mandm_msg.h
                 charger0   0x00af29    program     extern /fred/mandm/mandm/mandm_msg.h
                 charger1   0x00af60    program     extern /fred/mandm/mandm/mandm_msg.h
                 charger2   0x00af9a    program     extern /fred/mandm/mandm/mandm_msg.h
                 charger3   0x00afd8    program     extern /fred/mandm/mandm/mandm_msg.h
                 charger4   0x00aff7    program     extern /fred/mandm/mandm/mandm_msg.h
                charger99   0x00b017    program     extern /fred/mandm/mandm/mandm_msg.h
             tick_handler   0x00b018    program     extern /fred/mandm/mandm/mandm_vector.c
           ___if_lbl00001   0x00b05c    program     static                          
         ___else_lbl00003   0x00b092    program     static                          
           ___if_lbl00002   0x00b0a4    program     static                          
           ___if_lbl00004   0x00b0ae    program     static                          
           ___if_lbl00005   0x00b0b8    program     static                          
           ___if_lbl00007   0x00b0c2    program     static                          
           ___if_lbl00006   0x00b0c2    program     static                          
         ___else_lbl00009   0x00b15a    program     static                          
           ___if_lbl00008   0x00b178    program     static                          
         ___else_lbl00011   0x00b17a    program     static                          
           ___if_lbl00012   0x00b188    program     static                          
           ___if_lbl00010   0x00b188    program     static                          
         ___else_lbl00014   0x00b1f4    program     static                          
           ___if_lbl00013   0x00b212    program     static                          
         ___else_lbl00016   0x00b214    program     static                          
           ___if_lbl00017   0x00b222    program     static                          
           ___if_lbl00015   0x00b222    program     static                          
           ___if_lbl00018   0x00b226    program     static                          
               __tmplbl_1   0x00b22c    program     static                          
               __tmplbl_0   0x00b232    program     static                          
           ___if_lbl00020   0x00b234    program     static                          
           ___if_lbl00021   0x00b248    program     static                          
               __tmplbl_3   0x00b24e    program     static                          
               __tmplbl_2   0x00b254    program     static                          
           ___if_lbl00023   0x00b262    program     static                          
           ___if_lbl00024   0x00b290    program     static                          
               __tmplbl_4   0x00b2c2    program     static                          
           ___if_lbl00025   0x00b2c4    program     static                          
         ___else_lbl00027   0x00b2d0    program     static                          
           ___if_lbl00026   0x00b2d8    program     static                          
           ___if_lbl00028   0x00b304    program     static                          
       ___case_0_lbl00030   0x00b316    program     static                          
       ___case_1_lbl00031   0x00b31c    program     static                          
       ___case_2_lbl00032   0x00b324    program     static                          
      ___default_lbl00033   0x00b32c    program     static                          
           ___if_lbl00035   0x00b332    program     static                          
           ___if_lbl00034   0x00b332    program     static                          
   ___switchexit_lbl00029   0x00b332    program     static                          
           ___if_lbl00036   0x00b338    program     static                          
           ___if_lbl00037   0x00b33e    program     static                          
           ___if_lbl00038   0x00b344    program     static                          
           ___if_lbl00040   0x00b34a    program     static                          
           ___if_lbl00039   0x00b34a    program     static                          
           ___if_lbl00041   0x00b36a    program     static                          
           ___if_lbl00042   0x00b36e    program     static                          
           ___if_lbl00043   0x00b386    program     static                          
           ___if_lbl00044   0x00b39c    program     static                          
           ___if_lbl00045   0x00b3aa    program     static                          
           ___if_lbl00046   0x00b3b8    program     static                          
           ___if_lbl00047   0x00b3c6    program     static                          
           ___if_lbl00048   0x00b3d4    program     static                          
           ___if_lbl00049   0x00b3e2    program     static                          
               __tmplbl_6   0x00b3ea    program     static                          
               __tmplbl_5   0x00b3f2    program     static                          
           ___if_lbl00051   0x00b3f8    program     static                          
               __tmplbl_8   0x00b400    program     static                          
               __tmplbl_7   0x00b408    program     static                          
           ___if_lbl00053   0x00b40e    program     static                          
              __tmplbl_10   0x00b416    program     static                          
               __tmplbl_9   0x00b41e    program     static                          
           ___if_lbl00055   0x00b422    program     static                          
        ___while_lbl00056   0x00b42a    program     static                          
        ___while_lbl00057   0x00b42c    program     static                          
           ___if_lbl00058   0x00b42c    program     static                          
              __tmplbl_12   0x00b434    program     static                          
              __tmplbl_11   0x00b43a    program     static                          
           ___if_lbl00060   0x00b43e    program     static                          
           ___if_lbl00061   0x00b43e    program     static                          
              __tmplbl_14   0x00b456    program     static                          
              __tmplbl_13   0x00b45c    program     static                          
           ___if_lbl00063   0x00b462    program     static                          
           ___if_lbl00064   0x00b466    program     static                          
              __tmplbl_16   0x00b47e    program     static                          
              __tmplbl_15   0x00b484    program     static                          
           ___if_lbl00066   0x00b48a    program     static                          
           ___if_lbl00067   0x00b48e    program     static                          
              __tmplbl_18   0x00b4a6    program     static                          
              __tmplbl_17   0x00b4ac    program     static                          
           ___if_lbl00069   0x00b4c8    program     static                          
         ___else_lbl00071   0x00b4ca    program     static                          
           ___if_lbl00070   0x00b4d2    program     static                          
           ___if_lbl00072   0x00b4f0    program     static                          
           ___if_lbl00073   0x00b4f0    program     static                          
           ___if_lbl00074   0x00b4f4    program     static                          
              __tmplbl_20   0x00b4fa    program     static                          
              __tmplbl_19   0x00b500    program     static                          
           ___if_lbl00076   0x00b512    program     static                          
              __tmplbl_21   0x00b558    program     static                          
              __tmplbl_22   0x00b582    program     static                          
           ___if_lbl00077   0x00b596    program     static                          
           ___if_lbl00078   0x00b596    program     static                          
           ___if_lbl00079   0x00b596    program     static                          
           ___if_lbl00082   0x00b61a    program     static                          
         ___else_lbl00084   0x00b624    program     static                          
           ___if_lbl00083   0x00b628    program     static                          
         ___else_lbl00086   0x00b632    program     static                          
           ___if_lbl00085   0x00b636    program     static                          
         ___else_lbl00088   0x00b640    program     static                          
           ___if_lbl00087   0x00b644    program     static                          
         ___else_lbl00090   0x00b678    program     static                          
           ___if_lbl00089   0x00b6a8    program     static                          
         ___else_lbl00092   0x00b6de    program     static                          
           ___if_lbl00091   0x00b710    program     static                          
         ___else_lbl00098   0x00b746    program     static                          
              __tmplbl_23   0x00b796    program     static                          
              __tmplbl_24   0x00b7e4    program     static                          
           ___if_lbl00093   0x00b7f2    program     static                          
              __tmplbl_25   0x00b80c    program     static                          
           ___if_lbl00094   0x00b81a    program     static                          
           ___if_lbl00095   0x00b84a    program     static                          
              __tmplbl_26   0x00b896    program     static                          
           ___if_lbl00096   0x00b89e    program     static                          
           ___if_lbl00097   0x00b8a0    program     static                          
           ___if_lbl00099   0x00b8fe    program     static                          
           ___if_lbl00100   0x00b968    program     static                          
           ___if_lbl00101   0x00b9c6    program     static                          
           ___if_lbl00102   0x00ba32    program     static                          
         ___else_lbl00104   0x00baca    program     static                          
           ___if_lbl00103   0x00bb28    program     static                          
              __tmplbl_36   0x00bb6e    program     static                          
              __tmplbl_28   0x00bb70    program     static                          
              __tmplbl_27   0x00bbae    program     static                          
           ___if_lbl00106   0x00bbd6    program     static                          
         ___else_lbl00108   0x00bbd8    program     static                          
           ___if_lbl00107   0x00bbf8    program     static                          
              __tmplbl_32   0x00bc0a    program     static                          
              __tmplbl_31   0x00bc10    program     static                          
              __tmplbl_30   0x00bc16    program     static                          
              __tmplbl_29   0x00bc38    program     static                          
         ___else_lbl00116   0x00bc3c    program     static                          
         ___else_lbl00114   0x00bc62    program     static                          
           ___if_lbl00112   0x00bc86    program     static                          
           ___if_lbl00113   0x00bc86    program     static                          
           ___if_lbl00115   0x00bc86    program     static                          
           ___if_lbl00117   0x00bc86    program     static                          
           ___if_lbl00118   0x00bc86    program     static                          
              __tmplbl_33   0x00bcc2    program     static                          
           ___if_lbl00119   0x00bcda    program     static                          
           ___if_lbl00120   0x00bcda    program     static                          
           ___if_lbl00121   0x00bcf6    program     static                          
           ___if_lbl00122   0x00bd04    program     static                          
              __tmplbl_35   0x00bd0a    program     static                          
              __tmplbl_34   0x00bd10    program     static                          
       ___return_lbl00000   0x00bd20    program     static                          
           ___if_lbl00125   0x00bd20    program     static                          
           ___if_lbl00124   0x00bd20    program     static                          
             work_handler   0x00bd40    program     extern /fred/mandm/mandm/mandm_vector.c
                idle_loop   0x00bd62    program     extern /fred/mandm/mandm/mandm_vector.c
       ___return_lbl00127   0x00bd6e    program     static                          
                   P1wait   0x00bd70    program     extern /fred/mandm/mandm/mandm_vector.c
                   P2wait   0x00bd76    program     extern /fred/mandm/mandm/mandm_vector.c
        Clear_All_Buttons   0x00bd7c    program     extern /fred/mandm/mandm/mandm_vector.c
             buzzer_ticks   0x00bd90    program     extern /fred/mandm/mandm/mandm_vector.c
             voice1_ticks   0x00bd9a    program     extern /fred/mandm/mandm/mandm_vector.c
             voice2_ticks   0x00bda6    program     extern /fred/mandm/mandm/mandm_vector.c
         slow_timer_start   0x00bdb2    program     extern /fred/mandm/mandm/mandm_vector.c
                   __pa_0   0x00bdc0    program     static /fred/mandm/mandm/mandm_vector.c
                   __pa_1   0x00bdcc    program     static /fred/mandm/mandm/mandm_vector.c
                  __subFP   0x00bdd4    program     extern C:\MCC18\v3_39\src\extended\math\addFP.asm
                  __addFP   0x00bdd8    program     extern C:\MCC18\v3_39\src\extended\math\addFP.asm
                     jBeg   0x00bdda    program     static C:\MCC18\v3_39\src\extended\math\addFP.asm
                jBANotInf   0x00be10    program     static C:\MCC18\v3_39\src\extended\math\addFP.asm
                 jANotInf   0x00be1a    program     static C:\MCC18\v3_39\src\extended\math\addFP.asm
                 jBNotInf   0x00be28    program     static C:\MCC18\v3_39\src\extended\math\addFP.asm
            jDifOrPosSign   0x00be3c    program     static C:\MCC18\v3_39\src\extended\math\addFP.asm
             jNotBothZero   0x00be40    program     static C:\MCC18\v3_39\src\extended\math\addFP.asm
                 jAltBexp   0x00be6c    program     static C:\MCC18\v3_39\src\extended\math\addFP.asm
              jAandWsetup   0x00be7e    program     static C:\MCC18\v3_39\src\extended\math\addFP.asm
                 jANotNeg   0x00beae    program     static C:\MCC18\v3_39\src\extended\math\addFP.asm
                 jWNotNeg   0x00bec2    program     static C:\MCC18\v3_39\src\extended\math\addFP.asm
               jShiftLoop   0x00bec8    program     static C:\MCC18\v3_39\src\extended\math\addFP.asm
               jShiftDone   0x00bed6    program     static C:\MCC18\v3_39\src\extended\math\addFP.asm
                jSignDone   0x00bf06    program     static C:\MCC18\v3_39\src\extended\math\addFP.asm
               jFinalSign   0x00bf16    program     static C:\MCC18\v3_39\src\extended\math\addFP.asm
                 __FpPack   0x00bf1e    program     extern C:\MCC18\v3_39\src\extended\math\packFP.asm
                  jPkLoop   0x00bf2c    program     static C:\MCC18\v3_39\src\extended\math\packFP.asm
             jPkShiftDone   0x00bf48    program     static C:\MCC18\v3_39\src\extended\math\packFP.asm
               jPkRoundIt   0x00bf5e    program     static C:\MCC18\v3_39\src\extended\math\packFP.asm
             jPkRoundDone   0x00bf76    program     static C:\MCC18\v3_39\src\extended\math\packFP.asm
              __FpReturnW   0x00bf76    program     extern C:\MCC18\v3_39\src\extended\math\packFP.asm
                    jExit   0x00bf92    program     static C:\MCC18\v3_39\src\extended\math\packFP.asm
            __FpReturnNaN   0x00bfa0    program     extern C:\MCC18\v3_39\src\extended\math\packFP.asm
        __FpReturnSignInf   0x00bfae    program     extern C:\MCC18\v3_39\src\extended\math\packFP.asm
         __FpReturnNegInf   0x00bfb2    program     extern C:\MCC18\v3_39\src\extended\math\packFP.asm
         __FpReturnPosInf   0x00bfb8    program     extern C:\MCC18\v3_39\src\extended\math\packFP.asm
           jReturnPosInf0   0x00bfbc    program     static C:\MCC18\v3_39\src\extended\math\packFP.asm
               jZero1and2   0x00bfc0    program     static C:\MCC18\v3_39\src\extended\math\packFP.asm
       __FpReturnSignZero   0x00bfc6    program     extern C:\MCC18\v3_39\src\extended\math\packFP.asm
        __FpReturnNegZero   0x00bfca    program     extern C:\MCC18\v3_39\src\extended\math\packFP.asm
        __FpReturnPosZero   0x00bfd2    program     extern C:\MCC18\v3_39\src\extended\math\packFP.asm
              __FpUnPackA   0x00bfd8    program     extern C:\MCC18\v3_39\src\extended\math\unpackFP.asm
                  jUnpkA1   0x00bfe2    program     static C:\MCC18\v3_39\src\extended\math\unpackFP.asm
                 jUnpkANZ   0x00bff0    program     static C:\MCC18\v3_39\src\extended\math\unpackFP.asm
                  jUnpkA2   0x00bffa    program     static C:\MCC18\v3_39\src\extended\math\unpackFP.asm
                 jUnpkNaN   0x00c004    program     static C:\MCC18\v3_39\src\extended\math\unpackFP.asm
              __FpUnPackB   0x00c008    program     extern C:\MCC18\v3_39\src\extended\math\unpackFP.asm
                  jUnpkB1   0x00c012    program     static C:\MCC18\v3_39\src\extended\math\unpackFP.asm
                 jUnpkBNZ   0x00c020    program     static C:\MCC18\v3_39\src\extended\math\unpackFP.asm
                  jUnpkB2   0x00c02a    program     static C:\MCC18\v3_39\src\extended\math\unpackFP.asm
              __cast16uFP   0x00c034    program     extern C:\MCC18\v3_39\src\extended\math\cast16FP.asm
              __cast16sFP   0x00c038    program     extern C:\MCC18\v3_39\src\extended\math\cast16FP.asm
                     jBeg   0x00c03a    program     static C:\MCC18\v3_39\src\extended\math\cast16FP.asm
                  jNotNeg   0x00c060    program     static C:\MCC18\v3_39\src\extended\math\cast16FP.asm
              __cast32uFP   0x00c076    program     extern C:\MCC18\v3_39\src\extended\math\cast32FP.asm
              __cast32sFP   0x00c07a    program     extern C:\MCC18\v3_39\src\extended\math\cast32FP.asm
                     jBeg   0x00c07c    program     static C:\MCC18\v3_39\src\extended\math\cast32FP.asm
                  jNotNeg   0x00c0aa    program     static C:\MCC18\v3_39\src\extended\math\cast32FP.asm
               __castFP16   0x00c0c4    program     extern C:\MCC18\v3_39\src\extended\math\castFP16.asm
                     jMax   0x00c0e8    program     static C:\MCC18\v3_39\src\extended\math\castFP16.asm
                  jMaxPos   0x00c0ec    program     static C:\MCC18\v3_39\src\extended\math\castFP16.asm
                  jMaxNeg   0x00c0f6    program     static C:\MCC18\v3_39\src\extended\math\castFP16.asm
                    jZero   0x00c0fe    program     static C:\MCC18\v3_39\src\extended\math\castFP16.asm
                  jNotInf   0x00c104    program     static C:\MCC18\v3_39\src\extended\math\castFP16.asm
                    jLoop   0x00c114    program     static C:\MCC18\v3_39\src\extended\math\castFP16.asm
                jLoopExit   0x00c124    program     static C:\MCC18\v3_39\src\extended\math\castFP16.asm
                    jDone   0x00c134    program     static C:\MCC18\v3_39\src\extended\math\castFP16.asm
                    jExit   0x00c13c    program     static C:\MCC18\v3_39\src\extended\math\castFP16.asm
               __castFP32   0x00c14a    program     extern C:\MCC18\v3_39\src\extended\math\castFP32.asm
                     jMax   0x00c16e    program     static C:\MCC18\v3_39\src\extended\math\castFP32.asm
                  jMaxPos   0x00c172    program     static C:\MCC18\v3_39\src\extended\math\castFP32.asm
                   jWr123   0x00c178    program     static C:\MCC18\v3_39\src\extended\math\castFP32.asm
                  jMaxNeg   0x00c180    program     static C:\MCC18\v3_39\src\extended\math\castFP32.asm
                    jZero   0x00c186    program     static C:\MCC18\v3_39\src\extended\math\castFP32.asm
                  jWrZ123   0x00c188    program     static C:\MCC18\v3_39\src\extended\math\castFP32.asm
                  jNotInf   0x00c18c    program     static C:\MCC18\v3_39\src\extended\math\castFP32.asm
                    jLoop   0x00c19e    program     static C:\MCC18\v3_39\src\extended\math\castFP32.asm
                jLoopExit   0x00c1b2    program     static C:\MCC18\v3_39\src\extended\math\castFP32.asm
                    jDone   0x00c1ca    program     static C:\MCC18\v3_39\src\extended\math\castFP32.asm
                    jExit   0x00c1da    program     static C:\MCC18\v3_39\src\extended\math\castFP32.asm
                 SETUPSTK   0x00c1e8    program     static C:\MCC18\v3_39\src\extended\math\div16s.asm
                 __div16s   0x00c200    program     extern C:\MCC18\v3_39\src\extended\math\div16s.asm
                 __mod16s   0x00c206    program     extern C:\MCC18\v3_39\src\extended\math\div16s.asm
                  SETSIGN   0x00c208    program     static C:\MCC18\v3_39\src\extended\math\div16s.asm
                  DA1616S   0x00c21a    program     static C:\MCC18\v3_39\src\extended\math\div16s.asm
                   D1616S   0x00c22a    program     static C:\MCC18\v3_39\src\extended\math\div16s.asm
                 D1616SOK   0x00c234    program     static C:\MCC18\v3_39\src\extended\math\div16s.asm
                D1616SNEG   0x00c238    program     static C:\MCC18\v3_39\src\extended\math\div16s.asm
                D1616SPOS   0x00c248    program     static C:\MCC18\v3_39\src\extended\math\div16s.asm
              RETQUOTIENT   0x00c258    program     static C:\MCC18\v3_39\src\extended\math\div16s.asm
                  RESTORE   0x00c260    program     static C:\MCC18\v3_39\src\extended\math\div16s.asm
                  D1616SX   0x00c26e    program     static C:\MCC18\v3_39\src\extended\math\div16s.asm
                 SETUPSTK   0x00c278    program     static C:\MCC18\v3_39\src\extended\math\div32s.asm
                 __div32s   0x00c290    program     extern C:\MCC18\v3_39\src\extended\math\div32s.asm
                 __mod32s   0x00c296    program     extern C:\MCC18\v3_39\src\extended\math\div32s.asm
                  SETSIGN   0x00c298    program     static C:\MCC18\v3_39\src\extended\math\div32s.asm
                  DA3232S   0x00c2b2    program     static C:\MCC18\v3_39\src\extended\math\div32s.asm
                   D3232S   0x00c2c8    program     static C:\MCC18\v3_39\src\extended\math\div32s.asm
                 D3232SOK   0x00c2d2    program     static C:\MCC18\v3_39\src\extended\math\div32s.asm
                D3232SNEG   0x00c2d6    program     static C:\MCC18\v3_39\src\extended\math\div32s.asm
                D3232SPOS   0x00c2f4    program     static C:\MCC18\v3_39\src\extended\math\div32s.asm
              RETQUOTIENT   0x00c30c    program     static C:\MCC18\v3_39\src\extended\math\div32s.asm
                  RESTORE   0x00c31c    program     static C:\MCC18\v3_39\src\extended\math\div32s.asm
                  D3232SX   0x00c32a    program     static C:\MCC18\v3_39\src\extended\math\div32s.asm
                 SETUPSTK   0x00c334    program     static C:\MCC18\v3_39\src\extended\math\div32u.asm
                 __div32u   0x00c34c    program     extern C:\MCC18\v3_39\src\extended\math\div32u.asm
                 __mod32u   0x00c352    program     extern C:\MCC18\v3_39\src\extended\math\div32u.asm
            _early32uexit   0x00c356    program     extern C:\MCC18\v3_39\src\extended\math\div32u.asm
                divmod32u   0x00c358    program     static C:\MCC18\v3_39\src\extended\math\div32u.asm
                     loop   0x00c366    program     static C:\MCC18\v3_39\src\extended\math\div32u.asm
                   _false   0x00c39a    program     static C:\MCC18\v3_39\src\extended\math\div32u.asm
              RETQUOTIENT   0x00c3ba    program     static C:\MCC18\v3_39\src\extended\math\div32u.asm
                  RESTORE   0x00c3ca    program     static C:\MCC18\v3_39\src\extended\math\div32u.asm
                  __divFP   0x00c3d8    program     extern C:\MCC18\v3_39\src\extended\math\divFP.asm
              jDivANotInf   0x00c40a    program     static C:\MCC18\v3_39\src\extended\math\divFP.asm
             jDivANotZero   0x00c41e    program     static C:\MCC18\v3_39\src\extended\math\divFP.asm
                 jDivLoop   0x00c446    program     static C:\MCC18\v3_39\src\extended\math\divFP.asm
                jNoAdjust   0x00c46a    program     static C:\MCC18\v3_39\src\extended\math\divFP.asm
                 jDivNext   0x00c46c    program     static C:\MCC18\v3_39\src\extended\math\divFP.asm
                   __ltFP   0x00c492    program     extern C:\MCC18\v3_39\src\extended\math\ltFP.asm
              __FpCompare   0x00c4a4    program     extern C:\MCC18\v3_39\src\extended\math\compFP.asm
             jBothNotZero   0x00c4d6    program     static C:\MCC18\v3_39\src\extended\math\compFP.asm
                 jSignsEQ   0x00c4da    program     static C:\MCC18\v3_39\src\extended\math\compFP.asm
                      jEQ   0x00c4f2    program     static C:\MCC18\v3_39\src\extended\math\compFP.asm
                      jNE   0x00c4f6    program     static C:\MCC18\v3_39\src\extended\math\compFP.asm
                    jExch   0x00c4fe    program     static C:\MCC18\v3_39\src\extended\math\compFP.asm
                  jNoExch   0x00c51e    program     static C:\MCC18\v3_39\src\extended\math\compFP.asm
                   jFinal   0x00c528    program     static C:\MCC18\v3_39\src\extended\math\compFP.asm
                  jAisNeg   0x00c534    program     static C:\MCC18\v3_39\src\extended\math\compFP.asm
                   jShift   0x00c53a    program     static C:\MCC18\v3_39\src\extended\math\compFP.asm
                   jExpEQ   0x00c544    program     static C:\MCC18\v3_39\src\extended\math\compFP.asm
                  jRotate   0x00c550    program     static C:\MCC18\v3_39\src\extended\math\compFP.asm
                    jExit   0x00c562    program     static C:\MCC18\v3_39\src\extended\math\compFP.asm
                  __mul24   0x00c572    program     extern C:\MCC18\v3_39\src\extended\math\mul24.asm
                  __mul32   0x00c632    program     extern C:\MCC18\v3_39\src\extended\math\mul32.asm
                  __mulFP   0x00c6d4    program     extern C:\MCC18\v3_39\src\extended\math\mulFP.asm
                 jANotInf   0x00c706    program     static C:\MCC18\v3_39\src\extended\math\mulFP.asm
              jBothFinite   0x00c714    program     static C:\MCC18\v3_39\src\extended\math\mulFP.asm
                jHaveZero   0x00c71c    program     static C:\MCC18\v3_39\src\extended\math\mulFP.asm
             jBothNotZero   0x00c720    program     static C:\MCC18\v3_39\src\extended\math\mulFP.asm
                 SETUPSTK   0x00c7c2    program     static C:\MCC18\v3_39\src\extended\math\div16u.asm
                 __div16u   0x00c7da    program     extern C:\MCC18\v3_39\src\extended\math\div16u.asm
                 __mod16u   0x00c7e0    program     extern C:\MCC18\v3_39\src\extended\math\div16u.asm
            _early16uexit   0x00c7e4    program     extern C:\MCC18\v3_39\src\extended\math\div16u.asm
                divmod16u   0x00c7e6    program     static C:\MCC18\v3_39\src\extended\math\div16u.asm
                     loop   0x00c7f0    program     static C:\MCC18\v3_39\src\extended\math\div16u.asm
                  endloop   0x00c80c    program     static C:\MCC18\v3_39\src\extended\math\div16u.asm
              RETQUOTIENT   0x00c824    program     static C:\MCC18\v3_39\src\extended\math\div16u.asm
                  RESTORE   0x00c82c    program     static C:\MCC18\v3_39\src\extended\math\div16u.asm
                  __mul16   0x00c83a    program     extern C:\MCC18\v3_39\src\extended\math\mul16.asm
            s_put_n_chars   0x00c8a2    program     static C:\MCC18\v3_39\src\extended\stdclib\vfprintf.c
                 vfprintf   0x00c8d4    program     extern C:\MCC18\v3_39\src\extended\stdclib\vfprintf.c
                   __pa_0   0x00cf64    program     static C:\MCC18\v3_39\src\extended\stdclib\vfprintf.c
                   __pa_1   0x00cf72    program     static C:\MCC18\v3_39\src\extended\stdclib\vfprintf.c
                   __pa_2   0x00cf82    program     static C:\MCC18\v3_39\src\extended\stdclib\vfprintf.c
                   __pa_3   0x00cf8e    program     static C:\MCC18\v3_39\src\extended\stdclib\vfprintf.c
                   __pa_4   0x00cfa2    program     static C:\MCC18\v3_39\src\extended\stdclib\vfprintf.c
                   __pa_5   0x00cfb4    program     static C:\MCC18\v3_39\src\extended\stdclib\vfprintf.c
                   __pa_6   0x00cfc4    program     static C:\MCC18\v3_39\src\extended\stdclib\vfprintf.c
                   __pa_7   0x00cfd6    program     static C:\MCC18\v3_39\src\extended\stdclib\vfprintf.c
                   __pa_8   0x00cfe2    program     static C:\MCC18\v3_39\src\extended\stdclib\vfprintf.c
                   __pa_9   0x00cff4    program     static C:\MCC18\v3_39\src\extended\stdclib\vfprintf.c
                  __pa_10   0x00d000    program     static C:\MCC18\v3_39\src\extended\stdclib\vfprintf.c
                  __pa_11   0x00d010    program     static C:\MCC18\v3_39\src\extended\stdclib\vfprintf.c
                  __pa_12   0x00d020    program     static C:\MCC18\v3_39\src\extended\stdclib\vfprintf.c
                  __pa_13   0x00d02e    program     static C:\MCC18\v3_39\src\extended\stdclib\vfprintf.c
                  __pa_14   0x00d04c    program     static C:\MCC18\v3_39\src\extended\stdclib\vfprintf.c
                  __pa_15   0x00d056    program     static C:\MCC18\v3_39\src\extended\stdclib\vfprintf.c
                  __pa_16   0x00d05c    program     static C:\MCC18\v3_39\src\extended\stdclib\vfprintf.c
                  __pa_17   0x00d06c    program     static C:\MCC18\v3_39\src\extended\stdclib\vfprintf.c
                  __pa_18   0x00d078    program     static C:\MCC18\v3_39\src\extended\stdclib\vfprintf.c
                  __pa_19   0x00d086    program     static C:\MCC18\v3_39\src\extended\stdclib\vfprintf.c
                  __pa_20   0x00d090    program     static C:\MCC18\v3_39\src\extended\stdclib\vfprintf.c
                  __pa_21   0x00d09a    program     static C:\MCC18\v3_39\src\extended\stdclib\vfprintf.c
                  __pa_22   0x00d0a4    program     static C:\MCC18\v3_39\src\extended\stdclib\vfprintf.c
                  __pa_23   0x00d0b2    program     static C:\MCC18\v3_39\src\extended\stdclib\vfprintf.c
           init_motordata   0x00d0b8    program     extern /fred/mandm/mandm/config.c
                   __pa_0   0x00d452    program     static /fred/mandm/mandm/config.c
                   __pa_1   0x00d462    program     static /fred/mandm/mandm/config.c
                   __pa_2   0x00d46a    program     static /fred/mandm/mandm/config.c
                   __pa_3   0x00d478    program     static /fred/mandm/mandm/config.c
                   __pa_4   0x00d480    program     static /fred/mandm/mandm/config.c
                   __pa_5   0x00d488    program     static /fred/mandm/mandm/config.c
                   __pa_6   0x00d496    program     static /fred/mandm/mandm/config.c
                   __pa_7   0x00d49e    program     static /fred/mandm/mandm/config.c
                   __pa_8   0x00d4a6    program     static /fred/mandm/mandm/config.c
                   __pa_9   0x00d4ae    program     static /fred/mandm/mandm/config.c
                  __pa_10   0x00d4b6    program     static /fred/mandm/mandm/config.c
                  __pa_11   0x00d4c0    program     static /fred/mandm/mandm/config.c
                  __pa_12   0x00d4ca    program     static /fred/mandm/mandm/config.c
                  __pa_13   0x00d4d0    program     static /fred/mandm/mandm/config.c
                  __pa_14   0x00d4dc    program     static /fred/mandm/mandm/config.c
                  __pa_15   0x00d4e6    program     static /fred/mandm/mandm/config.c
                  __pa_16   0x00d4ee    program     static /fred/mandm/mandm/config.c
                  __pa_17   0x00d4f8    program     static /fred/mandm/mandm/config.c
                  __pa_18   0x00d502    program     static /fred/mandm/mandm/config.c
                  __pa_19   0x00d50a    program     static /fred/mandm/mandm/config.c
                  __pa_20   0x00d524    program     static /fred/mandm/mandm/config.c
                  __pa_21   0x00d534    program     static /fred/mandm/mandm/config.c
                  __pa_22   0x00d53c    program     static /fred/mandm/mandm/config.c
                  __pa_23   0x00d548    program     static /fred/mandm/mandm/config.c
                  __pa_24   0x00d552    program     static /fred/mandm/mandm/config.c
                  __pa_25   0x00d55a    program     static /fred/mandm/mandm/config.c
                  __pa_26   0x00d566    program     static /fred/mandm/mandm/config.c
            my_struct_cmp   0x00d56c    program     extern /fred/mandm/mandm/power.c
            motor_control   0x00d5a2    program     extern /fred/mandm/mandm/power.c
             emotor_power   0x00d7de    program     extern /fred/mandm/mandm/power.c
            emotor_relays   0x00d816    program     extern /fred/mandm/mandm/power.c
        emotor_slow_start   0x00d81a    program     extern /fred/mandm/mandm/power.c
         emotor_slow_stop   0x00d832    program     extern /fred/mandm/mandm/power.c
                emotor_cw   0x00d836    program     extern /fred/mandm/mandm/power.c
        emotor_is_all_off   0x00d856    program     extern /fred/mandm/mandm/power.c
        emotor_switch_ccw   0x00d860    program     extern /fred/mandm/mandm/power.c
         emotor_switch_cw   0x00d86e    program     extern /fred/mandm/mandm/power.c
         emotor_power_off   0x00d874    program     extern /fred/mandm/mandm/power.c
          emotor_power_on   0x00d87a    program     extern /fred/mandm/mandm/power.c
               emotor_v24   0x00d880    program     extern /fred/mandm/mandm/power.c
                relay_v24   0x00d8a2    program     extern /fred/mandm/mandm/power.c
                blink_led   0x00d8a8    program     extern /fred/mandm/mandm/power.c
          is_led_blinking   0x00d946    program     extern /fred/mandm/mandm/power.c
                   __pa_0   0x00d962    program     static /fred/mandm/mandm/power.c
                   __pa_1   0x00d96e    program     static /fred/mandm/mandm/power.c
                   __pa_2   0x00d976    program     static /fred/mandm/mandm/power.c
                   __pa_3   0x00d980    program     static /fred/mandm/mandm/power.c
                   __pa_4   0x00d988    program     static /fred/mandm/mandm/power.c
                   __pa_5   0x00d990    program     static /fred/mandm/mandm/power.c
                   __pa_6   0x00d99c    program     static /fred/mandm/mandm/power.c
                   __pa_7   0x00d9ae    program     static /fred/mandm/mandm/power.c
                   __pa_8   0x00d9b8    program     static /fred/mandm/mandm/power.c
                   __pa_9   0x00d9c2    program     static /fred/mandm/mandm/power.c
                  __pa_10   0x00d9c8    program     static /fred/mandm/mandm/power.c
                  __pa_11   0x00d9d0    program     static /fred/mandm/mandm/power.c
                  __pa_12   0x00d9da    program     static /fred/mandm/mandm/power.c
                   s_crit   0x00d9e2    program     extern /fred/mandm/mandm/crit.c 
           ___if_lbl00001   0x00da10    program     static                          
           ___if_lbl00002   0x00da32    program     static                          
           ___if_lbl00003   0x00da52    program     static                          
           ___if_lbl00004   0x00da72    program     static                          
       ___return_lbl00000   0x00da72    program     static                          
                   e_crit   0x00da7a    program     extern /fred/mandm/mandm/crit.c 
           ___if_lbl00006   0x00daa6    program     static                          
         ___else_lbl00008   0x00dad8    program     static                          
       ___return_lbl00005   0x00dae0    program     static                          
           ___if_lbl00007   0x00dae0    program     static                          
               clear_crit   0x00dae2    program     extern /fred/mandm/mandm/crit.c 
        write_data_eeprom   0x00daec    program     extern /fred/mandm/mandm/crit.c 
         read_data_eeprom   0x00db50    program     extern /fred/mandm/mandm/crit.c 
                   __pa_0   0x00db80    program     static /fred/mandm/mandm/crit.c 
                   __pa_1   0x00db96    program     static /fred/mandm/mandm/crit.c 
                   memcmp   0x00dba2    program     extern C:\MCC18\v3_39\src\extended\stdclib\memcmp.asm
                    jLoop   0x00dbc2    program     static C:\MCC18\v3_39\src\extended\stdclib\memcmp.asm
              _4jContinue   0x00dbce    program     static C:\MCC18\v3_39\src\extended\stdclib\memcmp.asm
                   _5jEnd   0x00dbd8    program     static C:\MCC18\v3_39\src\extended\stdclib\memcmp.asm
                     jEnd   0x00dbde    program     static C:\MCC18\v3_39\src\extended\stdclib\memcmp.asm
            strcpypgm2ram   0x00dbf4    program     extern C:\MCC18\v3_39\src\extended\stdclib\scpyp2r.asm
                    jLoop   0x00dc1a    program     static C:\MCC18\v3_39\src\extended\stdclib\scpyp2r.asm
                     jEnd   0x00dc24    program     static C:\MCC18\v3_39\src\extended\stdclib\scpyp2r.asm
                strlenpgm   0x00dc26    program     extern C:\MCC18\v3_39\src\extended\stdclib\slenpgm.asm
                    jLoop   0x00dc44    program     static C:\MCC18\v3_39\src\extended\stdclib\slenpgm.asm
                   _2jEnd   0x00dc5a    program     static C:\MCC18\v3_39\src\extended\stdclib\slenpgm.asm
                     jEnd   0x00dc5c    program     static C:\MCC18\v3_39\src\extended\stdclib\slenpgm.asm
                  strncpy   0x00dc70    program     extern C:\MCC18\v3_39\src\extended\stdclib\strncpy.asm
                    jLoop   0x00dc98    program     static C:\MCC18\v3_39\src\extended\stdclib\strncpy.asm
              _4jContinue   0x00dca4    program     static C:\MCC18\v3_39\src\extended\stdclib\strncpy.asm
                   _5jEnd   0x00dcae    program     static C:\MCC18\v3_39\src\extended\stdclib\strncpy.asm
                     jEnd   0x00dcba    program     static C:\MCC18\v3_39\src\extended\stdclib\strncpy.asm
           strncpypgm2ram   0x00dccc    program     extern C:\MCC18\v3_39\src\extended\stdclib\sncpyp2r.asm
                    jLoop   0x00dcf2    program     static C:\MCC18\v3_39\src\extended\stdclib\sncpyp2r.asm
              _3jContinue   0x00dcfe    program     static C:\MCC18\v3_39\src\extended\stdclib\sncpyp2r.asm
                   _4jEnd   0x00dd08    program     static C:\MCC18\v3_39\src\extended\stdclib\sncpyp2r.asm
                     jEnd   0x00dd16    program     static C:\MCC18\v3_39\src\extended\stdclib\sncpyp2r.asm
                   strlen   0x00dd18    program     extern C:\MCC18\v3_39\src\extended\stdclib\strlen.asm
                    jLoop   0x00dd28    program     static C:\MCC18\v3_39\src\extended\stdclib\strlen.asm
                     jEnd   0x00dd32    program     static C:\MCC18\v3_39\src\extended\stdclib\strlen.asm
               config_pic   0x00dd34    program     extern /fred/mandm/mandm/hwconf.c
           ___if_lbl00001   0x00dd58    program     static                          
               __tmplbl_1   0x00dd5e    program     static                          
               __tmplbl_0   0x00dd64    program     static                          
           ___if_lbl00003   0x00dd6a    program     static                          
        ___while_lbl00004   0x00ddc4    program     static                          
        ___while_lbl00005   0x00ddd2    program     static                          
        ___while_lbl00006   0x00dde8    program     static                          
        ___while_lbl00007   0x00ddf6    program     static                          
       ___return_lbl00000   0x00de8e    program     static                          
           ___if_lbl00008   0x00de8e    program     static                          
                start_pic   0x00de96    program     extern /fred/mandm/mandm/hwconf.c
       start_workerthread   0x00deb6    program     extern /fred/mandm/mandm/hwconf.c
                _do_cinit   0x00deba    program     extern C:\MCC18\v3_39\src\extended\startup\c018i_e.c
                     test   0x00ded4    program     static                          
                copy_loop   0x00df2c    program     static                          
            copy_one_byte   0x00df32    program     static                          
             done_copying   0x00df40    program     static                          
       ___return_lbl00002   0x00df56    program     static                          
                     done   0x00df56    program     static                          
                 OpenXLCD   0x00df58    program     extern /fred/mandm/mandm/xlcd/openxlcd.c
                   __pa_0   0x00dfe0    program     static /fred/mandm/mandm/xlcd/openxlcd.c
                   __pa_1   0x00dfea    program     static /fred/mandm/mandm/xlcd/openxlcd.c
               Open2USART   0x00dff2    program     extern C:\MCC18\v3_39\src\pmc_common\USART\u2open.c
               Open1USART   0x00e076    program     extern C:\MCC18\v3_39\src\pmc_common\USART\u1open.c
                  sprintf   0x00e0f0    program     extern C:\MCC18\v3_39\src\extended\stdclib\sprintf.c
                     putc   0x00e162    program     extern C:\MCC18\v3_39\src\extended\stdclib\putc.c
                  OpenADC   0x00e1c8    program     extern C:\MCC18\v3_39\src\pmc_common\ADC\adcopen.c
              putrs2USART   0x00e22c    program     extern C:\MCC18\v3_39\src\pmc_common\USART\u2putrs.c
              Write_b_eep   0x00e288    program     extern C:\MCC18\v3_39\src\pmc_common\EEP\write_B.c
                putrsXLCD   0x00e2d6    program     extern /fred/mandm/mandm/xlcd/putrxlcd.c
                   __pa_0   0x00e314    program     static /fred/mandm/mandm/xlcd/putrxlcd.c
               puts2USART   0x00e324    program     extern C:\MCC18\v3_39\src\pmc_common\USART\u2puts.c
             SetDDRamAddr   0x00e36a    program     extern /fred/mandm/mandm/xlcd/setddram.c
                   __pa_0   0x00e3a2    program     static /fred/mandm/mandm/xlcd/setddram.c
             SetCGRamAddr   0x00e3b0    program     extern /fred/mandm/mandm/xlcd/setcgram.c
                   __pa_0   0x00e3e8    program     static /fred/mandm/mandm/xlcd/setcgram.c
            WriteDataXLCD   0x00e3f6    program     extern /fred/mandm/mandm/xlcd/writdata.c
                   __pa_0   0x00e42c    program     static /fred/mandm/mandm/xlcd/writdata.c
             WriteCmdXLCD   0x00e43a    program     extern /fred/mandm/mandm/xlcd/wcmdxlcd.c
                   __pa_0   0x00e470    program     static /fred/mandm/mandm/xlcd/wcmdxlcd.c
             ReadDataXLCD   0x00e47e    program     extern /fred/mandm/mandm/xlcd/readdata.c
             ReadAddrXLCD   0x00e4c2    program     extern /fred/mandm/mandm/xlcd/readaddr.c
               Read_b_eep   0x00e506    program     extern C:\MCC18\v3_39\src\pmc_common\EEP\read_B.c
       ___return_lbl00000   0x00e53c    program     static                          
                    srand   0x00e548    program     extern C:\MCC18\v3_39\src\extended\stdclib\rand.asm
                     rand   0x00e556    program     extern C:\MCC18\v3_39\src\extended\stdclib\rand.asm
               OpenTimer3   0x00e588    program     extern C:\MCC18\v3_39\src\pmc_common\Timers\t3open.c
                 putsXLCD   0x00e5c8    program     extern /fred/mandm/mandm/xlcd/putsxlcd.c
               Read2USART   0x00e608    program     extern C:\MCC18\v3_39\src\pmc_common\USART\u2read.c
               Read1USART   0x00e646    program     extern C:\MCC18\v3_39\src\pmc_common\USART\u1read.c
             Delay10KTCYx   0x00e684    program     extern C:\MCC18\v3_39\src\extended\delays\d10ktcyx.asm
                    D10Kx   0x00e690    program     static C:\MCC18\v3_39\src\extended\delays\d10ktcyx.asm
                   D10K_1   0x00e694    program     static C:\MCC18\v3_39\src\extended\delays\d10ktcyx.asm
       _D10KTCYXCODE_0014   0x00e698    program     static C:\MCC18\v3_39\src\extended\delays\d10ktcyx.asm
                    D10Kl   0x00e6a2    program     static C:\MCC18\v3_39\src\extended\delays\d10ktcyx.asm
       _D10KTCYXCODE_0022   0x00e6a6    program     static C:\MCC18\v3_39\src\extended\delays\d10ktcyx.asm
               OpenTimer0   0x00e6ba    program     extern C:\MCC18\v3_39\src\pmc_common\Timers\t0open.c
               OpenTimer4   0x00e6f0    program     extern C:\MCC18\v3_39\src\pmc_common\Timers\t4open.c
              WriteTimer3   0x00e724    program     extern C:\MCC18\v3_39\src\pmc_common\Timers\t3write.c
              WriteTimer0   0x00e754    program     extern C:\MCC18\v3_39\src\pmc_common\Timers\t0write.c
               SetChanADC   0x00e784    program     extern C:\MCC18\v3_39\src\pmc_common\ADC\adcsetch.c
              Write2USART   0x00e7b4    program     extern C:\MCC18\v3_39\src\pmc_common\USART\u2write.c
                 BusyXLCD   0x00e7e2    program     extern /fred/mandm/mandm/xlcd/busyxlcd.c
                   __pa_0   0x00e7fc    program     static /fred/mandm/mandm/xlcd/busyxlcd.c
                  isdigit   0x00e80e    program     extern C:\MCC18\v3_39\src\extended\stdclib\isdigit.asm
                   jMatch   0x00e82e    program     static C:\MCC18\v3_39\src\extended\stdclib\isdigit.asm
                 jNoMatch   0x00e830    program     static C:\MCC18\v3_39\src\extended\stdclib\isdigit.asm
            __zero_memory   0x00e832    program     extern C:\MCC18\v3_39\src\extended\proc\p18F8722.asm
               zero_block   0x00e840    program     static C:\MCC18\v3_39\src\extended\proc\p18F8722.asm
                   loop_h   0x00e840    program     static C:\MCC18\v3_39\src\extended\proc\p18F8722.asm
                compare_l   0x00e848    program     static C:\MCC18\v3_39\src\extended\proc\p18F8722.asm
                   loop_l   0x00e84a    program     static C:\MCC18\v3_39\src\extended\proc\p18F8722.asm
              _usart_putc   0x00e852    program     extern C:\MCC18\v3_39\src\pmc_common\USART\_usartpc.asm
                     loop   0x00e862    program     static C:\MCC18\v3_39\src\pmc_common\USART\_usartpc.asm
                 _startup   0x00e86e    program     extern C:\MCC18\v3_39\src\extended\startup\c018i_e.c
                     loop   0x00e87c    program     static                          
       ___return_lbl00001   0x00e886    program     static                          
                  ReadADC   0x00e888    program     extern C:\MCC18\v3_39\src\pmc_common\ADC\adcread.c
              Delay10TCYx   0x00e8a0    program     extern C:\MCC18\v3_39\src\extended\delays\d10tcyx.asm
                     D10x   0x00e8a8    program     static C:\MCC18\v3_39\src\extended\delays\d10tcyx.asm
        _D10TCYXCODE_000A   0x00e8aa    program     static C:\MCC18\v3_39\src\extended\delays\d10tcyx.asm
        _D10TCYXCODE_000C   0x00e8ac    program     static C:\MCC18\v3_39\src\extended\delays\d10tcyx.asm
        _D10TCYXCODE_000E   0x00e8ae    program     static C:\MCC18\v3_39\src\extended\delays\d10tcyx.asm
                    D10_1   0x00e8b0    program     static C:\MCC18\v3_39\src\extended\delays\d10tcyx.asm
                 s_digits   0x00e8b6    program     static C:\MCC18\v3_39\src\extended\stdclib\vfprintf.c
                 Busy_eep   0x00e8c8    program     extern C:\MCC18\v3_39\src\pmc_common\EEP\busy_eep.c
               ConvertADC   0x00e8ce    program     extern C:\MCC18\v3_39\src\pmc_common\ADC\adcconv.c
                   __init   0x00e8d2    program     extern C:\MCC18\v3_39\src\extended\stdclib\__init.c
               __config_0   0x300001    program     static /fred/mandm/mandm/mandm8722.c
               __config_1   0x300002    program     static /fred/mandm/mandm/mandm8722.c
               __config_2   0x300003    program     static /fred/mandm/mandm/mandm8722.c
               __config_3   0x300004    program     static /fred/mandm/mandm/mandm8722.c
               __config_4   0x300005    program     static /fred/mandm/mandm/mandm8722.c
               __config_5   0x300006    program     static /fred/mandm/mandm/mandm8722.c
               __config_6   0x300008    program     static /fred/mandm/mandm/mandm8722.c
               __config_7   0x300009    program     static /fred/mandm/mandm/mandm8722.c
               __config_8   0x30000a    program     static /fred/mandm/mandm/mandm8722.c
               __config_9   0x30000b    program     static /fred/mandm/mandm/mandm8722.c
              __config_10   0x30000c    program     static /fred/mandm/mandm/mandm8722.c
              __config_11   0x30000d    program     static /fred/mandm/mandm/mandm8722.c
                  __tmp_0   0x000000       data     static C:\MCC18\v3_39\src\extended\stdclib\vfprintf.c
                  __tmp_0   0x000000       data     static C:\MCC18\v3_39\src\pmc_common\USART\u1open.c
                  __tmp_0   0x000000       data     static C:\MCC18\v3_39\src\pmc_common\USART\u2open.c
                  __tmp_0   0x000000       data     static /fred/mandm/mandm/daq.c  
                  __tmp_0   0x000000       data     static /fred/mandm/mandm/mandm8722.c
                  __tmp_0   0x000000       data     static C:\MCC18\v3_39\src\pmc_common\ADC\adcopen.c
                  __tmp_0   0x000000       data     static C:\MCC18\v3_39\src\pmc_common\EEP\write_B.c
                  __tmp_0   0x000000       data     static C:\MCC18\v3_39\src\pmc_common\ADC\adcread.c
                  __tmp_0   0x000000       data     static C:\MCC18\v3_39\src\pmc_common\EEP\read_B.c
                  __tmp_0   0x000000       data     static C:\MCC18\v3_39\src\pmc_common\ADC\adcsetch.c
                  __tmp_0   0x000000       data     static /fred/mandm/mandm/config.c
                  __tmp_0   0x000000       data     static /fred/mandm/mandm/crit.c 
                  __tmp_0   0x000000       data     static /fred/mandm/mandm/power.c
                        i   0x000018       data     static /fred/mandm/mandm/daq.c  
                        z   0x00001a       data     static /fred/mandm/mandm/daq.c  
                  a10_x_t   0x00001c       data     static /fred/mandm/mandm/daq.c  
                  a10_y_t   0x000020       data     static /fred/mandm/mandm/daq.c  
                  a10_z_t   0x000024       data     static /fred/mandm/mandm/daq.c  
                        z   0x000028       data     static /fred/mandm/mandm/daq.c  
              critc_level   0x000060       data     extern /fred/mandm/mandm/mandm8722.c
                   KEYNUM   0x000061       data     extern /fred/mandm/mandm/mandm8722.c
                TIMERFLAG   0x000062       data     extern /fred/mandm/mandm/mandm8722.c
               PRIPOWEROK   0x000063       data     extern /fred/mandm/mandm/mandm8722.c
                 FORCEOUT   0x000064       data     extern /fred/mandm/mandm/mandm8722.c
               WORKERFLAG   0x000065       data     extern /fred/mandm/mandm/mandm8722.c
                 FAILSAFE   0x000066       data     extern /fred/mandm/mandm/mandm8722.c
            SYSTEM_STABLE   0x000067       data     extern /fred/mandm/mandm/mandm8722.c
                HOLD_PROC   0x000068       data     extern /fred/mandm/mandm/mandm8722.c
             DISPLAY_MODE   0x000069       data     extern /fred/mandm/mandm/mandm8722.c
                 D_UPDATE   0x00006a       data     extern /fred/mandm/mandm/mandm8722.c
             GLITCH_CHECK   0x00006b       data     extern /fred/mandm/mandm/mandm8722.c
                  COOLING   0x00006c       data     extern /fred/mandm/mandm/mandm8722.c
               UPDATE_EEP   0x00006d       data     extern /fred/mandm/mandm/mandm8722.c
              RESET_ZEROS   0x00006e       data     extern /fred/mandm/mandm/mandm8722.c
                 SYS_DATA   0x00006f       data     extern /fred/mandm/mandm/mandm8722.c
                 MOD_DATA   0x000070       data     extern /fred/mandm/mandm/mandm8722.c
                 SYS_HELP   0x000071       data     extern /fred/mandm/mandm/mandm8722.c
                 SET_TLOG   0x000072       data     extern /fred/mandm/mandm/mandm8722.c
                   WDT_TO   0x000073       data     extern /fred/mandm/mandm/mandm8722.c
                   EEP_ER   0x000074       data     extern /fred/mandm/mandm/mandm8722.c
                    TWEAK   0x000075       data     extern /fred/mandm/mandm/mandm8722.c
            TEST_SPINNERS   0x000076       data     extern /fred/mandm/mandm/mandm8722.c
              alarm_codes   0x000077       data     extern /fred/mandm/mandm/mandm8722.c
                     mode   0x000079       data     extern /fred/mandm/mandm/mandm8722.c
              RS232_DEBUG   0x00008c       data     extern /fred/mandm/mandm/mandm8722.c
              critc_count   0x00008d       data     extern /fred/mandm/mandm/mandm8722.c
                     sign   0x000091       data     extern /fred/mandm/mandm/mandm8722.c
                 lp_speed   0x000092       data     extern /fred/mandm/mandm/mandm8722.c
                     lp_x   0x000096       data     extern /fred/mandm/mandm/mandm8722.c
               build_date   0x00009a       data     extern /fred/mandm/mandm/mandm8722.c
               build_time   0x00009d       data     extern /fred/mandm/mandm/mandm8722.c
                      dsi   0x0000a0       data     extern /fred/mandm/mandm/mandm8722.c
                      msi   0x0000a1       data     extern /fred/mandm/mandm/mandm8722.c
                 help_pos   0x0000a2       data     extern /fred/mandm/mandm/mandm8722.c
                       t1   0x0000a3       data     extern /fred/mandm/mandm/mandm8722.c
                       t2   0x0000a7       data     extern /fred/mandm/mandm/mandm8722.c
                       t3   0x0000ab       data     extern /fred/mandm/mandm/mandm8722.c
                       t4   0x0000af       data     extern /fred/mandm/mandm/mandm8722.c
                       t5   0x0000b3       data     extern /fred/mandm/mandm/mandm8722.c
                       t6   0x0000b7       data     extern /fred/mandm/mandm/mandm8722.c
                       t7   0x0000bb       data     extern /fred/mandm/mandm/mandm8722.c
                   t_time   0x0000bf       data     extern /fred/mandm/mandm/mandm8722.c
                 voltfrak   0x0000c3       data     extern /fred/mandm/mandm/mandm8722.c
                   ahfrak   0x0000c7       data     extern /fred/mandm/mandm/mandm8722.c
                      Vin   0x0000cb       data     extern /fred/mandm/mandm/mandm8722.c
                   chrg_v   0x0000cf       data     extern /fred/mandm/mandm/mandm8722.c
                 vbatol_t   0x0000d3       data     extern /fred/mandm/mandm/mandm8722.c
                  solar_t   0x0000d7       data     extern /fred/mandm/mandm/mandm8722.c
                 IDLEFLAG   0x0000db       data     extern /fred/mandm/mandm/mandm8722.c
              knob_to_pot   0x0000dc       data     extern /fred/mandm/mandm/mandm8722.c
                       iw   0x0000dd       data     extern /fred/mandm/mandm/mandm8722.c
                       ip   0x0000e1       data     extern /fred/mandm/mandm/mandm8722.c
                  adc_cal   0x0000e5       data     extern /fred/mandm/mandm/mandm8722.c
                    CRITC   0x0000f5       data     extern /fred/mandm/mandm/mandm8722.c
                   LCD_OK   0x0000f6       data     extern /fred/mandm/mandm/mandm8722.c
               cable_type   0x0000f7       data     extern /fred/mandm/mandm/mandm8722.c
                     TLOG   0x0000f8       data     extern /fred/mandm/mandm/mandm8722.c
                       c1   0x0000f9       data     static /fred/mandm/mandm/mandm_vector.c
                       c2   0x0000fa       data     static /fred/mandm/mandm/mandm_vector.c
                    timer   0x0000fb       data     static /fred/mandm/mandm/mandm_vector.c
                   timerl   0x0000fd       data     static /fred/mandm/mandm/mandm_vector.c
                   almctr   0x0000ff       data     extern /fred/mandm/mandm/mandm8722.c
                       ds   0x000100       data     extern /fred/mandm/mandm/mandm8722.c
                  __tmp_1   0x0001fc       data     static /fred/mandm/mandm/mandm_vector.c
                 bootstr2   0x000200       data     extern /fred/mandm/mandm/mandm8722.c
             change_count   0x0002fb       data     static /fred/mandm/mandm/daq.c  
                   change   0x0002fd       data     static /fred/mandm/mandm/daq.c  
            DelayCounter2   0x0002ff       data     extern C:\MCC18\v3_39\src\extended\delays\delayd2.asm
                       p1   0x000300       data     extern /fred/mandm/mandm/mandm8722.c
                       p2   0x000310       data     extern /fred/mandm/mandm/mandm8722.c
                  termstr   0x000320       data     extern /fred/mandm/mandm/mandm8722.c
                      csd   0x000340       data     extern /fred/mandm/mandm/mandm8722.c
                      cid   0x000352       data     extern /fred/mandm/mandm/mandm8722.c
                    HCRIT   0x000364       data     extern /fred/mandm/mandm/mandm8722.c
                    LCRIT   0x00036c       data     extern /fred/mandm/mandm/mandm8722.c
                       f1   0x000374       data     extern /fred/mandm/mandm/mandm8722.c
                       f2   0x00037b       data     extern /fred/mandm/mandm/mandm8722.c
                       f3   0x000382       data     extern /fred/mandm/mandm/mandm8722.c
                       f4   0x000389       data     extern /fred/mandm/mandm/mandm8722.c
                       p3   0x000390       data     extern /fred/mandm/mandm/mandm8722.c
             alarm_buffer   0x0003a0       data     extern /fred/mandm/mandm/mandm8722.c
                   smooth   0x0003ca       data     extern /fred/mandm/mandm/mandm8722.c
                emo_bumps   0x0003ea       data     static /fred/mandm/mandm/mandm_vector.c
            HID_IDLE_FLAG   0x0003eb       data     static /fred/mandm/mandm/mandm_vector.c
                   b_read   0x0003ec       data     static /fred/mandm/mandm/mandm_vector.c
                      ZAP   0x0003ed       data     static /fred/mandm/mandm/mandm_vector.c
                 vc_count   0x0003ee       data     static /fred/mandm/mandm/mandm_vector.c
             worker_timer   0x0003ef       data     static /fred/mandm/mandm/mandm_vector.c
               real_ticks   0x0003f0       data     static /fred/mandm/mandm/mandm_vector.c
               fast_ticks   0x0003f1       data     static /fred/mandm/mandm/mandm_vector.c
                   rx_tmp   0x0003f2       data     static /fred/mandm/mandm/mandm_vector.c
                 band_max   0x0003f4       data     static /fred/mandm/mandm/mandm_vector.c
                 hid_idle   0x0003f8       data     static /fred/mandm/mandm/mandm_vector.c
                __RETVAL0   0x0003fc       data     extern C:\MCC18\v3_39\src\extended\math\cmath18.asm
                __RETVAL1   0x0003fd       data     extern C:\MCC18\v3_39\src\extended\math\cmath18.asm
                __RETVAL2   0x0003fe       data     extern C:\MCC18\v3_39\src\extended\math\cmath18.asm
                __RETVAL3   0x0003ff       data     extern C:\MCC18\v3_39\src\extended\math\cmath18.asm
                    knob1   0x000400       data     extern /fred/mandm/mandm/mandm8722.c
                    knob2   0x000410       data     extern /fred/mandm/mandm/mandm8722.c
                   Cursor   0x000420       data     extern /fred/mandm/mandm/mandm8722.c
                    YNKEY   0x000423       data     extern /fred/mandm/mandm/mandm8722.c
               OldEncoder   0x000424       data     extern /fred/mandm/mandm/mandm8722.c
                     qei1   0x000429       data     extern /fred/mandm/mandm/mandm8722.c
                  emodump   0x000440       data     extern /fred/mandm/mandm/mandm8722.c
                        s   0x000470       data     static /fred/mandm/mandm/mandm8722.c
                   dcount   0x000476       data     static /fred/mandm/mandm/mandm8722.c
                   dcount   0x00047a       data     static /fred/mandm/mandm/mandm8722.c
                 timetemp   0x00047e       data     static /fred/mandm/mandm/mandm8722.c
                clocks_hz   0x000482       data     static /fred/mandm/mandm/mandm8722.c
                   dcount   0x000486       data     static /fred/mandm/mandm/mandm8722.c
                 timetemp   0x00048a       data     static /fred/mandm/mandm/mandm8722.c
                clocks_hz   0x00048e       data     static /fred/mandm/mandm/mandm8722.c
                   dcount   0x000492       data     static /fred/mandm/mandm/mandm8722.c
                 timetemp   0x000496       data     static /fred/mandm/mandm/mandm8722.c
                clocks_hz   0x00049a       data     static /fred/mandm/mandm/mandm8722.c
                   dcount   0x00049e       data     static /fred/mandm/mandm/mandm8722.c
                 timetemp   0x0004a2       data     static /fred/mandm/mandm/mandm8722.c
                clocks_hz   0x0004a6       data     static /fred/mandm/mandm/mandm8722.c
                   dcount   0x0004aa       data     static /fred/mandm/mandm/mandm8722.c
                 timetemp   0x0004ae       data     static /fred/mandm/mandm/mandm8722.c
                clocks_hz   0x0004b2       data     static /fred/mandm/mandm/mandm8722.c
                   dcount   0x0004b6       data     static /fred/mandm/mandm/mandm8722.c
                 timetemp   0x0004ba       data     static /fred/mandm/mandm/mandm8722.c
                clocks_hz   0x0004be       data     static /fred/mandm/mandm/mandm8722.c
                   dcount   0x0004c2       data     static /fred/mandm/mandm/mandm8722.c
                 timetemp   0x0004c6       data     static /fred/mandm/mandm/mandm8722.c
                clocks_hz   0x0004ca       data     static /fred/mandm/mandm/mandm8722.c
                        n   0x0004ce       data     static /fred/mandm/mandm/mandm8722.c
                        z   0x0004cf       data     static /fred/mandm/mandm/mandm8722.c
                     slow   0x0004d0       data     static /fred/mandm/mandm/mandm8722.c
                        z   0x0004d1       data     static /fred/mandm/mandm/mandm8722.c
                  s_delay   0x0004d2       data     static /fred/mandm/mandm/mandm8722.c
                  get_out   0x0004d3       data     static /fred/mandm/mandm/mandm8722.c
         knob_to_pot_save   0x0004d4       data     static /fred/mandm/mandm/mandm8722.c
                 menu_pos   0x0004d5       data     static /fred/mandm/mandm/mandm8722.c
               hms_string   0x0004d6       data     extern /fred/mandm/mandm/mandm8722.c
                    a10_x   0x0004e6       data     extern /fred/mandm/mandm/mandm8722.c
                    a10_y   0x0004e8       data     extern /fred/mandm/mandm/mandm8722.c
                    a10_z   0x0004ea       data     extern /fred/mandm/mandm/mandm8722.c
                 worktick   0x0004ec       data     extern /fred/mandm/mandm/mandm8722.c
                    C2RAW   0x0004ee       data     extern /fred/mandm/mandm/mandm8722.c
             glitch_count   0x0004ef       data     extern /fred/mandm/mandm/mandm8722.c
                   cdelay   0x0004f0       data     extern /fred/mandm/mandm/mandm8722.c
              SLOW_STATUS   0x0004f1       data     extern /fred/mandm/mandm/mandm8722.c
                     Seed   0x0004f2       data     static C:\MCC18\v3_39\src\extended\stdclib\rand.asm
                    H_tmp   0x0004f4       data     static /fred/mandm/mandm/crit.c 
                    H_tmp   0x0004f5       data     static /fred/mandm/mandm/crit.c 
            USART1_Status   0x0004f6       data     extern C:\MCC18\v3_39\src\pmc_common\USART\u1defs.c
                        z   0x0004f7       data     static /fred/mandm/mandm/hwconf.c
                        z   0x0004f8       data     static /fred/mandm/mandm/config.c
                 old_part   0x0004f9       data     static /fred/mandm/mandm/config.c
                motordata   0x000500       data     extern /fred/mandm/mandm/mandm8722.c
                motor_ptr   0x0005c0       data     extern /fred/mandm/mandm/mandm8722.c
                    lcd18   0x0005c2       data     extern /fred/mandm/mandm/mandm8722.c
               slow_timer   0x0005c3       data     extern /fred/mandm/mandm/mandm8722.c
               last_shape   0x0005c7       data     static /fred/mandm/mandm/mandm8722.c
                       ib   0x0005c8       data     static /fred/mandm/mandm/mandm8722.c
                        h   0x0005c9       data     static /fred/mandm/mandm/mandm8722.c
                        m   0x0005cd       data     static /fred/mandm/mandm/mandm8722.c
                        s   0x0005d1       data     static /fred/mandm/mandm/mandm8722.c
                        h   0x0005d5       data     static /fred/mandm/mandm/mandm8722.c
                        m   0x0005d9       data     static /fred/mandm/mandm/mandm8722.c
                        s   0x0005dd       data     static /fred/mandm/mandm/mandm8722.c
                        i   0x0005e1       data     static /fred/mandm/mandm/mandm8722.c
                  alm_num   0x0005e2       data     static /fred/mandm/mandm/mandm8722.c
                 position   0x0005e3       data     static /fred/mandm/mandm/mandm8722.c
                    shape   0x0005e4       data     static /fred/mandm/mandm/mandm8722.c
                 deadband   0x0005e5       data     static /fred/mandm/mandm/mandm8722.c
              was_running   0x0005e9       data     static /fred/mandm/mandm/mandm8722.c
                old_error   0x0005eb       data     static /fred/mandm/mandm/mandm8722.c
                 old_menu   0x0005ed       data     static /fred/mandm/mandm/mandm8722.c
                 new_menu   0x0005ee       data     static /fred/mandm/mandm/mandm8722.c
               check_menu   0x0005ef       data     static /fred/mandm/mandm/mandm8722.c
             cable_return   0x0005f0       data     static /fred/mandm/mandm/mandm8722.c
                 menu_pos   0x0005f1       data     static /fred/mandm/mandm/mandm8722.c
                 menu_pos   0x0005f2       data     static /fred/mandm/mandm/mandm8722.c
                 eep_char   0x0005f3       data     static /fred/mandm/mandm/mandm8722.c
                        z   0x0005f4       data     static /fred/mandm/mandm/mandm8722.c
                     prom   0x0005f5       data     static C:\MCC18\v3_39\src\extended\startup\c018i_e.c
                curr_byte   0x0005f8       data     static C:\MCC18\v3_39\src\extended\startup\c018i_e.c
               curr_entry   0x0005fa       data     static C:\MCC18\v3_39\src\extended\startup\c018i_e.c
                 data_ptr   0x0005fc       data     static C:\MCC18\v3_39\src\extended\startup\c018i_e.c
            DelayCounter1   0x0005ff       data     extern C:\MCC18\v3_39\src\extended\delays\delayd1.asm
                   button   0x000600       data     extern /fred/mandm/mandm/mandm8722.c
                        R   0x000601       data     extern /fred/mandm/mandm/mandm8722.c
                        C   0x000640       data     extern /fred/mandm/mandm/mandm8722.c
                        V   0x00064a       data     extern /fred/mandm/mandm/mandm8722.c
                lastmotor   0x0006a7       data     static /fred/mandm/mandm/power.c
                     rawp   0x0006e7       data     extern /fred/mandm/mandm/mandm8722.c
                     rawa   0x0006f3       data     extern /fred/mandm/mandm/mandm8722.c
            USART2_Status   0x0006ff       data     extern C:\MCC18\v3_39\src\pmc_common\USART\u2defs.c
             SSP2CON2bits   0x000f62       data     extern C:\MCC18\v3_39\src\extended\proc\p18F8722.asm
                 SSP2CON2   0x000f62       data     extern C:\MCC18\v3_39\src\extended\proc\p18F8722.asm
                 SSP2CON1   0x000f63       data     extern C:\MCC18\v3_39\src\extended\proc\p18F8722.asm
             SSP2CON1bits   0x000f63       data     extern C:\MCC18\v3_39\src\extended\proc\p18F8722.asm
                 SSP2STAT   0x000f64       data     extern C:\MCC18\v3_39\src\extended\proc\p18F8722.asm
             SSP2STATbits   0x000f64       data     extern C:\MCC18\v3_39\src\extended\proc\p18F8722.asm
                  SSP2ADD   0x000f65       data     extern C:\MCC18\v3_39\src\extended\proc\p18F8722.asm
                  SSP2BUF   0x000f66       data     extern C:\MCC18\v3_39\src\extended\proc\p18F8722.asm
                 ECCP2DEL   0x000f67       data     extern C:\MCC18\v3_39\src\extended\proc\p18F8722.asm
             ECCP2DELbits   0x000f67       data     extern C:\MCC18\v3_39\src\extended\proc\p18F8722.asm
              ECCP2ASbits   0x000f68       data     extern C:\MCC18\v3_39\src\extended\proc\p18F8722.asm
                  ECCP2AS   0x000f68       data     extern C:\MCC18\v3_39\src\extended\proc\p18F8722.asm
             ECCP3DELbits   0x000f69       data     extern C:\MCC18\v3_39\src\extended\proc\p18F8722.asm
                 ECCP3DEL   0x000f69       data     extern C:\MCC18\v3_39\src\extended\proc\p18F8722.asm
              ECCP3ASbits   0x000f6a       data     extern C:\MCC18\v3_39\src\extended\proc\p18F8722.asm
                  ECCP3AS   0x000f6a       data     extern C:\MCC18\v3_39\src\extended\proc\p18F8722.asm
                   RCSTA2   0x000f6b       data     extern C:\MCC18\v3_39\src\extended\proc\p18F8722.asm
               RCSTA2bits   0x000f6b       data     extern C:\MCC18\v3_39\src\extended\proc\p18F8722.asm
                   TXSTA2   0x000f6c       data     extern C:\MCC18\v3_39\src\extended\proc\p18F8722.asm
               TXSTA2bits   0x000f6c       data     extern C:\MCC18\v3_39\src\extended\proc\p18F8722.asm
                   TXREG2   0x000f6d       data     extern C:\MCC18\v3_39\src\extended\proc\p18F8722.asm
                   RCREG2   0x000f6e       data     extern C:\MCC18\v3_39\src\extended\proc\p18F8722.asm
                   SPBRG2   0x000f6f       data     extern C:\MCC18\v3_39\src\extended\proc\p18F8722.asm
              CCP5CONbits   0x000f70       data     extern C:\MCC18\v3_39\src\extended\proc\p18F8722.asm
                  CCP5CON   0x000f70       data     extern C:\MCC18\v3_39\src\extended\proc\p18F8722.asm
                   CCPR5L   0x000f71       data     extern C:\MCC18\v3_39\src\extended\proc\p18F8722.asm
                    CCPR5   0x000f71       data     extern C:\MCC18\v3_39\src\extended\proc\p18F8722.asm
                   CCPR5H   0x000f72       data     extern C:\MCC18\v3_39\src\extended\proc\p18F8722.asm
              CCP4CONbits   0x000f73       data     extern C:\MCC18\v3_39\src\extended\proc\p18F8722.asm
                  CCP4CON   0x000f73       data     extern C:\MCC18\v3_39\src\extended\proc\p18F8722.asm
                   CCPR4L   0x000f74       data     extern C:\MCC18\v3_39\src\extended\proc\p18F8722.asm
                    CCPR4   0x000f74       data     extern C:\MCC18\v3_39\src\extended\proc\p18F8722.asm
                   CCPR4H   0x000f75       data     extern C:\MCC18\v3_39\src\extended\proc\p18F8722.asm
                T4CONbits   0x000f76       data     extern C:\MCC18\v3_39\src\extended\proc\p18F8722.asm
                    T4CON   0x000f76       data     extern C:\MCC18\v3_39\src\extended\proc\p18F8722.asm
                      PR4   0x000f77       data     extern C:\MCC18\v3_39\src\extended\proc\p18F8722.asm
                     TMR4   0x000f78       data     extern C:\MCC18\v3_39\src\extended\proc\p18F8722.asm
             ECCP1DELbits   0x000f79       data     extern C:\MCC18\v3_39\src\extended\proc\p18F8722.asm
                 ECCP1DEL   0x000f79       data     extern C:\MCC18\v3_39\src\extended\proc\p18F8722.asm
             BAUDCON2bits   0x000f7c       data     extern C:\MCC18\v3_39\src\extended\proc\p18F8722.asm
                 BAUDCON2   0x000f7c       data     extern C:\MCC18\v3_39\src\extended\proc\p18F8722.asm
                  SPBRGH2   0x000f7d       data     extern C:\MCC18\v3_39\src\extended\proc\p18F8722.asm
              BAUDCONbits   0x000f7e       data     extern C:\MCC18\v3_39\src\extended\proc\p18F8722.asm
             BAUDCON1bits   0x000f7e       data     extern C:\MCC18\v3_39\src\extended\proc\p18F8722.asm
                 BAUDCON1   0x000f7e       data     extern C:\MCC18\v3_39\src\extended\proc\p18F8722.asm
                  BAUDCON   0x000f7e       data     extern C:\MCC18\v3_39\src\extended\proc\p18F8722.asm
                  SPBRGH1   0x000f7f       data     extern C:\MCC18\v3_39\src\extended\proc\p18F8722.asm
                   SPBRGH   0x000f7f       data     extern C:\MCC18\v3_39\src\extended\proc\p18F8722.asm
                PORTAbits   0x000f80       data     extern C:\MCC18\v3_39\src\extended\proc\p18F8722.asm
                    PORTA   0x000f80       data     extern C:\MCC18\v3_39\src\extended\proc\p18F8722.asm
                PORTBbits   0x000f81       data     extern C:\MCC18\v3_39\src\extended\proc\p18F8722.asm
                    PORTB   0x000f81       data     extern C:\MCC18\v3_39\src\extended\proc\p18F8722.asm
                    PORTC   0x000f82       data     extern C:\MCC18\v3_39\src\extended\proc\p18F8722.asm
                PORTCbits   0x000f82       data     extern C:\MCC18\v3_39\src\extended\proc\p18F8722.asm
                PORTDbits   0x000f83       data     extern C:\MCC18\v3_39\src\extended\proc\p18F8722.asm
                    PORTD   0x000f83       data     extern C:\MCC18\v3_39\src\extended\proc\p18F8722.asm
                    PORTE   0x000f84       data     extern C:\MCC18\v3_39\src\extended\proc\p18F8722.asm
                PORTEbits   0x000f84       data     extern C:\MCC18\v3_39\src\extended\proc\p18F8722.asm
                    PORTF   0x000f85       data     extern C:\MCC18\v3_39\src\extended\proc\p18F8722.asm
                PORTFbits   0x000f85       data     extern C:\MCC18\v3_39\src\extended\proc\p18F8722.asm
                    PORTG   0x000f86       data     extern C:\MCC18\v3_39\src\extended\proc\p18F8722.asm
                PORTGbits   0x000f86       data     extern C:\MCC18\v3_39\src\extended\proc\p18F8722.asm
                PORTHbits   0x000f87       data     extern C:\MCC18\v3_39\src\extended\proc\p18F8722.asm
                    PORTH   0x000f87       data     extern C:\MCC18\v3_39\src\extended\proc\p18F8722.asm
                PORTJbits   0x000f88       data     extern C:\MCC18\v3_39\src\extended\proc\p18F8722.asm
                    PORTJ   0x000f88       data     extern C:\MCC18\v3_39\src\extended\proc\p18F8722.asm
                     LATA   0x000f89       data     extern C:\MCC18\v3_39\src\extended\proc\p18F8722.asm
                 LATAbits   0x000f89       data     extern C:\MCC18\v3_39\src\extended\proc\p18F8722.asm
                 LATBbits   0x000f8a       data     extern C:\MCC18\v3_39\src\extended\proc\p18F8722.asm
                     LATB   0x000f8a       data     extern C:\MCC18\v3_39\src\extended\proc\p18F8722.asm
                 LATCbits   0x000f8b       data     extern C:\MCC18\v3_39\src\extended\proc\p18F8722.asm
                     LATC   0x000f8b       data     extern C:\MCC18\v3_39\src\extended\proc\p18F8722.asm
                     LATD   0x000f8c       data     extern C:\MCC18\v3_39\src\extended\proc\p18F8722.asm
                 LATDbits   0x000f8c       data     extern C:\MCC18\v3_39\src\extended\proc\p18F8722.asm
                 LATEbits   0x000f8d       data     extern C:\MCC18\v3_39\src\extended\proc\p18F8722.asm
                     LATE   0x000f8d       data     extern C:\MCC18\v3_39\src\extended\proc\p18F8722.asm
                 LATFbits   0x000f8e       data     extern C:\MCC18\v3_39\src\extended\proc\p18F8722.asm
                     LATF   0x000f8e       data     extern C:\MCC18\v3_39\src\extended\proc\p18F8722.asm
                     LATG   0x000f8f       data     extern C:\MCC18\v3_39\src\extended\proc\p18F8722.asm
                 LATGbits   0x000f8f       data     extern C:\MCC18\v3_39\src\extended\proc\p18F8722.asm
                     LATH   0x000f90       data     extern C:\MCC18\v3_39\src\extended\proc\p18F8722.asm
                 LATHbits   0x000f90       data     extern C:\MCC18\v3_39\src\extended\proc\p18F8722.asm
                     LATJ   0x000f91       data     extern C:\MCC18\v3_39\src\extended\proc\p18F8722.asm
                 LATJbits   0x000f91       data     extern C:\MCC18\v3_39\src\extended\proc\p18F8722.asm
                TRISAbits   0x000f92       data     extern C:\MCC18\v3_39\src\extended\proc\p18F8722.asm
                    TRISA   0x000f92       data     extern C:\MCC18\v3_39\src\extended\proc\p18F8722.asm
                     DDRA   0x000f92       data     extern C:\MCC18\v3_39\src\extended\proc\p18F8722.asm
                 DDRAbits   0x000f92       data     extern C:\MCC18\v3_39\src\extended\proc\p18F8722.asm
                     DDRB   0x000f93       data     extern C:\MCC18\v3_39\src\extended\proc\p18F8722.asm
                 DDRBbits   0x000f93       data     extern C:\MCC18\v3_39\src\extended\proc\p18F8722.asm
                    TRISB   0x000f93       data     extern C:\MCC18\v3_39\src\extended\proc\p18F8722.asm
                TRISBbits   0x000f93       data     extern C:\MCC18\v3_39\src\extended\proc\p18F8722.asm
                TRISCbits   0x000f94       data     extern C:\MCC18\v3_39\src\extended\proc\p18F8722.asm
                    TRISC   0x000f94       data     extern C:\MCC18\v3_39\src\extended\proc\p18F8722.asm
                     DDRC   0x000f94       data     extern C:\MCC18\v3_39\src\extended\proc\p18F8722.asm
                 DDRCbits   0x000f94       data     extern C:\MCC18\v3_39\src\extended\proc\p18F8722.asm
                    TRISD   0x000f95       data     extern C:\MCC18\v3_39\src\extended\proc\p18F8722.asm
                TRISDbits   0x000f95       data     extern C:\MCC18\v3_39\src\extended\proc\p18F8722.asm
                     DDRD   0x000f95       data     extern C:\MCC18\v3_39\src\extended\proc\p18F8722.asm
                 DDRDbits   0x000f95       data     extern C:\MCC18\v3_39\src\extended\proc\p18F8722.asm
                    TRISE   0x000f96       data     extern C:\MCC18\v3_39\src\extended\proc\p18F8722.asm
                TRISEbits   0x000f96       data     extern C:\MCC18\v3_39\src\extended\proc\p18F8722.asm
                     DDRE   0x000f96       data     extern C:\MCC18\v3_39\src\extended\proc\p18F8722.asm
                 DDREbits   0x000f96       data     extern C:\MCC18\v3_39\src\extended\proc\p18F8722.asm
                     DDRF   0x000f97       data     extern C:\MCC18\v3_39\src\extended\proc\p18F8722.asm
                 DDRFbits   0x000f97       data     extern C:\MCC18\v3_39\src\extended\proc\p18F8722.asm
                TRISFbits   0x000f97       data     extern C:\MCC18\v3_39\src\extended\proc\p18F8722.asm
                    TRISF   0x000f97       data     extern C:\MCC18\v3_39\src\extended\proc\p18F8722.asm
                TRISGbits   0x000f98       data     extern C:\MCC18\v3_39\src\extended\proc\p18F8722.asm
                    TRISG   0x000f98       data     extern C:\MCC18\v3_39\src\extended\proc\p18F8722.asm
                     DDRG   0x000f98       data     extern C:\MCC18\v3_39\src\extended\proc\p18F8722.asm
                 DDRGbits   0x000f98       data     extern C:\MCC18\v3_39\src\extended\proc\p18F8722.asm
                TRISHbits   0x000f99       data     extern C:\MCC18\v3_39\src\extended\proc\p18F8722.asm
                 DDRHbits   0x000f99       data     extern C:\MCC18\v3_39\src\extended\proc\p18F8722.asm
                     DDRH   0x000f99       data     extern C:\MCC18\v3_39\src\extended\proc\p18F8722.asm
                    TRISH   0x000f99       data     extern C:\MCC18\v3_39\src\extended\proc\p18F8722.asm
                    TRISJ   0x000f9a       data     extern C:\MCC18\v3_39\src\extended\proc\p18F8722.asm
                TRISJbits   0x000f9a       data     extern C:\MCC18\v3_39\src\extended\proc\p18F8722.asm
                     DDRJ   0x000f9a       data     extern C:\MCC18\v3_39\src\extended\proc\p18F8722.asm
                 DDRJbits   0x000f9a       data     extern C:\MCC18\v3_39\src\extended\proc\p18F8722.asm
              OSCTUNEbits   0x000f9b       data     extern C:\MCC18\v3_39\src\extended\proc\p18F8722.asm
                  OSCTUNE   0x000f9b       data     extern C:\MCC18\v3_39\src\extended\proc\p18F8722.asm
               MEMCONbits   0x000f9c       data     extern C:\MCC18\v3_39\src\extended\proc\p18F8722.asm
                   MEMCON   0x000f9c       data     extern C:\MCC18\v3_39\src\extended\proc\p18F8722.asm
                 PIE1bits   0x000f9d       data     extern C:\MCC18\v3_39\src\extended\proc\p18F8722.asm
                     PIE1   0x000f9d       data     extern C:\MCC18\v3_39\src\extended\proc\p18F8722.asm
                 PIR1bits   0x000f9e       data     extern C:\MCC18\v3_39\src\extended\proc\p18F8722.asm
                     PIR1   0x000f9e       data     extern C:\MCC18\v3_39\src\extended\proc\p18F8722.asm
                 IPR1bits   0x000f9f       data     extern C:\MCC18\v3_39\src\extended\proc\p18F8722.asm
                     IPR1   0x000f9f       data     extern C:\MCC18\v3_39\src\extended\proc\p18F8722.asm
                 PIE2bits   0x000fa0       data     extern C:\MCC18\v3_39\src\extended\proc\p18F8722.asm
                     PIE2   0x000fa0       data     extern C:\MCC18\v3_39\src\extended\proc\p18F8722.asm
                 PIR2bits   0x000fa1       data     extern C:\MCC18\v3_39\src\extended\proc\p18F8722.asm
                     PIR2   0x000fa1       data     extern C:\MCC18\v3_39\src\extended\proc\p18F8722.asm
                 IPR2bits   0x000fa2       data     extern C:\MCC18\v3_39\src\extended\proc\p18F8722.asm
                     IPR2   0x000fa2       data     extern C:\MCC18\v3_39\src\extended\proc\p18F8722.asm
                     PIE3   0x000fa3       data     extern C:\MCC18\v3_39\src\extended\proc\p18F8722.asm
                 PIE3bits   0x000fa3       data     extern C:\MCC18\v3_39\src\extended\proc\p18F8722.asm
                 PIR3bits   0x000fa4       data     extern C:\MCC18\v3_39\src\extended\proc\p18F8722.asm
                     PIR3   0x000fa4       data     extern C:\MCC18\v3_39\src\extended\proc\p18F8722.asm
                 IPR3bits   0x000fa5       data     extern C:\MCC18\v3_39\src\extended\proc\p18F8722.asm
                     IPR3   0x000fa5       data     extern C:\MCC18\v3_39\src\extended\proc\p18F8722.asm
                   EECON1   0x000fa6       data     extern C:\MCC18\v3_39\src\extended\proc\p18F8722.asm
               EECON1bits   0x000fa6       data     extern C:\MCC18\v3_39\src\extended\proc\p18F8722.asm
                   EECON2   0x000fa7       data     extern C:\MCC18\v3_39\src\extended\proc\p18F8722.asm
                   EEDATA   0x000fa8       data     extern C:\MCC18\v3_39\src\extended\proc\p18F8722.asm
                    EEADR   0x000fa9       data     extern C:\MCC18\v3_39\src\extended\proc\p18F8722.asm
                   EEADRH   0x000faa       data     extern C:\MCC18\v3_39\src\extended\proc\p18F8722.asm
               RCSTA1bits   0x000fab       data     extern C:\MCC18\v3_39\src\extended\proc\p18F8722.asm
                   RCSTA1   0x000fab       data     extern C:\MCC18\v3_39\src\extended\proc\p18F8722.asm
                    RCSTA   0x000fab       data     extern C:\MCC18\v3_39\src\extended\proc\p18F8722.asm
                RCSTAbits   0x000fab       data     extern C:\MCC18\v3_39\src\extended\proc\p18F8722.asm
                    TXSTA   0x000fac       data     extern C:\MCC18\v3_39\src\extended\proc\p18F8722.asm
                   TXSTA1   0x000fac       data     extern C:\MCC18\v3_39\src\extended\proc\p18F8722.asm
               TXSTA1bits   0x000fac       data     extern C:\MCC18\v3_39\src\extended\proc\p18F8722.asm
                TXSTAbits   0x000fac       data     extern C:\MCC18\v3_39\src\extended\proc\p18F8722.asm
                   TXREG1   0x000fad       data     extern C:\MCC18\v3_39\src\extended\proc\p18F8722.asm
                    TXREG   0x000fad       data     extern C:\MCC18\v3_39\src\extended\proc\p18F8722.asm
                   RCREG1   0x000fae       data     extern C:\MCC18\v3_39\src\extended\proc\p18F8722.asm
                    RCREG   0x000fae       data     extern C:\MCC18\v3_39\src\extended\proc\p18F8722.asm
                   SPBRG1   0x000faf       data     extern C:\MCC18\v3_39\src\extended\proc\p18F8722.asm
                    SPBRG   0x000faf       data     extern C:\MCC18\v3_39\src\extended\proc\p18F8722.asm
                   PSPCON   0x000fb0       data     extern C:\MCC18\v3_39\src\extended\proc\p18F8722.asm
               PSPCONbits   0x000fb0       data     extern C:\MCC18\v3_39\src\extended\proc\p18F8722.asm
                    T3CON   0x000fb1       data     extern C:\MCC18\v3_39\src\extended\proc\p18F8722.asm
                T3CONbits   0x000fb1       data     extern C:\MCC18\v3_39\src\extended\proc\p18F8722.asm
                    TMR3L   0x000fb2       data     extern C:\MCC18\v3_39\src\extended\proc\p18F8722.asm
                    TMR3H   0x000fb3       data     extern C:\MCC18\v3_39\src\extended\proc\p18F8722.asm
                CMCONbits   0x000fb4       data     extern C:\MCC18\v3_39\src\extended\proc\p18F8722.asm
                    CMCON   0x000fb4       data     extern C:\MCC18\v3_39\src\extended\proc\p18F8722.asm
                   CVRCON   0x000fb5       data     extern C:\MCC18\v3_39\src\extended\proc\p18F8722.asm
               CVRCONbits   0x000fb5       data     extern C:\MCC18\v3_39\src\extended\proc\p18F8722.asm
              ECCP1ASbits   0x000fb6       data     extern C:\MCC18\v3_39\src\extended\proc\p18F8722.asm
                  ECCP1AS   0x000fb6       data     extern C:\MCC18\v3_39\src\extended\proc\p18F8722.asm
             ECCP3CONbits   0x000fb7       data     extern C:\MCC18\v3_39\src\extended\proc\p18F8722.asm
                 ECCP3CON   0x000fb7       data     extern C:\MCC18\v3_39\src\extended\proc\p18F8722.asm
              CCP3CONbits   0x000fb7       data     extern C:\MCC18\v3_39\src\extended\proc\p18F8722.asm
                  CCP3CON   0x000fb7       data     extern C:\MCC18\v3_39\src\extended\proc\p18F8722.asm
                   CCPR3L   0x000fb8       data     extern C:\MCC18\v3_39\src\extended\proc\p18F8722.asm
                    CCPR3   0x000fb8       data     extern C:\MCC18\v3_39\src\extended\proc\p18F8722.asm
                   CCPR3H   0x000fb9       data     extern C:\MCC18\v3_39\src\extended\proc\p18F8722.asm
                  CCP2CON   0x000fba       data     extern C:\MCC18\v3_39\src\extended\proc\p18F8722.asm
             ECCP2CONbits   0x000fba       data     extern C:\MCC18\v3_39\src\extended\proc\p18F8722.asm
                 ECCP2CON   0x000fba       data     extern C:\MCC18\v3_39\src\extended\proc\p18F8722.asm
              CCP2CONbits   0x000fba       data     extern C:\MCC18\v3_39\src\extended\proc\p18F8722.asm
                   CCPR2L   0x000fbb       data     extern C:\MCC18\v3_39\src\extended\proc\p18F8722.asm
                    CCPR2   0x000fbb       data     extern C:\MCC18\v3_39\src\extended\proc\p18F8722.asm
                   CCPR2H   0x000fbc       data     extern C:\MCC18\v3_39\src\extended\proc\p18F8722.asm
                  CCP1CON   0x000fbd       data     extern C:\MCC18\v3_39\src\extended\proc\p18F8722.asm
              CCP1CONbits   0x000fbd       data     extern C:\MCC18\v3_39\src\extended\proc\p18F8722.asm
             ECCP1CONbits   0x000fbd       data     extern C:\MCC18\v3_39\src\extended\proc\p18F8722.asm
                 ECCP1CON   0x000fbd       data     extern C:\MCC18\v3_39\src\extended\proc\p18F8722.asm
                    CCPR1   0x000fbe       data     extern C:\MCC18\v3_39\src\extended\proc\p18F8722.asm
                   CCPR1L   0x000fbe       data     extern C:\MCC18\v3_39\src\extended\proc\p18F8722.asm
                   CCPR1H   0x000fbf       data     extern C:\MCC18\v3_39\src\extended\proc\p18F8722.asm
                   ADCON2   0x000fc0       data     extern C:\MCC18\v3_39\src\extended\proc\p18F8722.asm
               ADCON2bits   0x000fc0       data     extern C:\MCC18\v3_39\src\extended\proc\p18F8722.asm
                   ADCON1   0x000fc1       data     extern C:\MCC18\v3_39\src\extended\proc\p18F8722.asm
               ADCON1bits   0x000fc1       data     extern C:\MCC18\v3_39\src\extended\proc\p18F8722.asm
               ADCON0bits   0x000fc2       data     extern C:\MCC18\v3_39\src\extended\proc\p18F8722.asm
                   ADCON0   0x000fc2       data     extern C:\MCC18\v3_39\src\extended\proc\p18F8722.asm
                    ADRES   0x000fc3       data     extern C:\MCC18\v3_39\src\extended\proc\p18F8722.asm
                   ADRESL   0x000fc3       data     extern C:\MCC18\v3_39\src\extended\proc\p18F8722.asm
                   ADRESH   0x000fc4       data     extern C:\MCC18\v3_39\src\extended\proc\p18F8722.asm
              SSPCON2bits   0x000fc5       data     extern C:\MCC18\v3_39\src\extended\proc\p18F8722.asm
                  SSPCON2   0x000fc5       data     extern C:\MCC18\v3_39\src\extended\proc\p18F8722.asm
                 SSP1CON2   0x000fc5       data     extern C:\MCC18\v3_39\src\extended\proc\p18F8722.asm
             SSP1CON2bits   0x000fc5       data     extern C:\MCC18\v3_39\src\extended\proc\p18F8722.asm
             SSP1CON1bits   0x000fc6       data     extern C:\MCC18\v3_39\src\extended\proc\p18F8722.asm
                 SSP1CON1   0x000fc6       data     extern C:\MCC18\v3_39\src\extended\proc\p18F8722.asm
                  SSPCON1   0x000fc6       data     extern C:\MCC18\v3_39\src\extended\proc\p18F8722.asm
              SSPCON1bits   0x000fc6       data     extern C:\MCC18\v3_39\src\extended\proc\p18F8722.asm
                  SSPSTAT   0x000fc7       data     extern C:\MCC18\v3_39\src\extended\proc\p18F8722.asm
                 SSP1STAT   0x000fc7       data     extern C:\MCC18\v3_39\src\extended\proc\p18F8722.asm
              SSPSTATbits   0x000fc7       data     extern C:\MCC18\v3_39\src\extended\proc\p18F8722.asm
             SSP1STATbits   0x000fc7       data     extern C:\MCC18\v3_39\src\extended\proc\p18F8722.asm
                  SSP1ADD   0x000fc8       data     extern C:\MCC18\v3_39\src\extended\proc\p18F8722.asm
                   SSPADD   0x000fc8       data     extern C:\MCC18\v3_39\src\extended\proc\p18F8722.asm
                   SSPBUF   0x000fc9       data     extern C:\MCC18\v3_39\src\extended\proc\p18F8722.asm
                  SSP1BUF   0x000fc9       data     extern C:\MCC18\v3_39\src\extended\proc\p18F8722.asm
                T2CONbits   0x000fca       data     extern C:\MCC18\v3_39\src\extended\proc\p18F8722.asm
                    T2CON   0x000fca       data     extern C:\MCC18\v3_39\src\extended\proc\p18F8722.asm
                      PR2   0x000fcb       data     extern C:\MCC18\v3_39\src\extended\proc\p18F8722.asm
                     TMR2   0x000fcc       data     extern C:\MCC18\v3_39\src\extended\proc\p18F8722.asm
                    T1CON   0x000fcd       data     extern C:\MCC18\v3_39\src\extended\proc\p18F8722.asm
                T1CONbits   0x000fcd       data     extern C:\MCC18\v3_39\src\extended\proc\p18F8722.asm
                    TMR1L   0x000fce       data     extern C:\MCC18\v3_39\src\extended\proc\p18F8722.asm
                    TMR1H   0x000fcf       data     extern C:\MCC18\v3_39\src\extended\proc\p18F8722.asm
                     RCON   0x000fd0       data     extern C:\MCC18\v3_39\src\extended\proc\p18F8722.asm
                 RCONbits   0x000fd0       data     extern C:\MCC18\v3_39\src\extended\proc\p18F8722.asm
               WDTCONbits   0x000fd1       data     extern C:\MCC18\v3_39\src\extended\proc\p18F8722.asm
                   WDTCON   0x000fd1       data     extern C:\MCC18\v3_39\src\extended\proc\p18F8722.asm
               LVDCONbits   0x000fd2       data     extern C:\MCC18\v3_39\src\extended\proc\p18F8722.asm
                   LVDCON   0x000fd2       data     extern C:\MCC18\v3_39\src\extended\proc\p18F8722.asm
              HLVDCONbits   0x000fd2       data     extern C:\MCC18\v3_39\src\extended\proc\p18F8722.asm
                  HLVDCON   0x000fd2       data     extern C:\MCC18\v3_39\src\extended\proc\p18F8722.asm
               OSCCONbits   0x000fd3       data     extern C:\MCC18\v3_39\src\extended\proc\p18F8722.asm
                   OSCCON   0x000fd3       data     extern C:\MCC18\v3_39\src\extended\proc\p18F8722.asm
                T0CONbits   0x000fd5       data     extern C:\MCC18\v3_39\src\extended\proc\p18F8722.asm
                    T0CON   0x000fd5       data     extern C:\MCC18\v3_39\src\extended\proc\p18F8722.asm
                    TMR0L   0x000fd6       data     extern C:\MCC18\v3_39\src\extended\proc\p18F8722.asm
                    TMR0H   0x000fd7       data     extern C:\MCC18\v3_39\src\extended\proc\p18F8722.asm
               STATUSbits   0x000fd8       data     extern C:\MCC18\v3_39\src\extended\proc\p18F8722.asm
                   STATUS   0x000fd8       data     extern C:\MCC18\v3_39\src\extended\proc\p18F8722.asm
                    FSR2L   0x000fd9       data     extern C:\MCC18\v3_39\src\extended\proc\p18F8722.asm
                     FSR2   0x000fd9       data     extern C:\MCC18\v3_39\src\extended\proc\p18F8722.asm
                    FSR2H   0x000fda       data     extern C:\MCC18\v3_39\src\extended\proc\p18F8722.asm
                   PLUSW2   0x000fdb       data     extern C:\MCC18\v3_39\src\extended\proc\p18F8722.asm
                  PREINC2   0x000fdc       data     extern C:\MCC18\v3_39\src\extended\proc\p18F8722.asm
                 POSTDEC2   0x000fdd       data     extern C:\MCC18\v3_39\src\extended\proc\p18F8722.asm
                 POSTINC2   0x000fde       data     extern C:\MCC18\v3_39\src\extended\proc\p18F8722.asm
                    INDF2   0x000fdf       data     extern C:\MCC18\v3_39\src\extended\proc\p18F8722.asm
                      BSR   0x000fe0       data     extern C:\MCC18\v3_39\src\extended\proc\p18F8722.asm
                    FSR1L   0x000fe1       data     extern C:\MCC18\v3_39\src\extended\proc\p18F8722.asm
                     FSR1   0x000fe1       data     extern C:\MCC18\v3_39\src\extended\proc\p18F8722.asm
                    FSR1H   0x000fe2       data     extern C:\MCC18\v3_39\src\extended\proc\p18F8722.asm
                   PLUSW1   0x000fe3       data     extern C:\MCC18\v3_39\src\extended\proc\p18F8722.asm
                  PREINC1   0x000fe4       data     extern C:\MCC18\v3_39\src\extended\proc\p18F8722.asm
                 POSTDEC1   0x000fe5       data     extern C:\MCC18\v3_39\src\extended\proc\p18F8722.asm
                 POSTINC1   0x000fe6       data     extern C:\MCC18\v3_39\src\extended\proc\p18F8722.asm
                    INDF1   0x000fe7       data     extern C:\MCC18\v3_39\src\extended\proc\p18F8722.asm
                     WREG   0x000fe8       data     extern C:\MCC18\v3_39\src\extended\proc\p18F8722.asm
                    FSR0L   0x000fe9       data     extern C:\MCC18\v3_39\src\extended\proc\p18F8722.asm
                     FSR0   0x000fe9       data     extern C:\MCC18\v3_39\src\extended\proc\p18F8722.asm
                    FSR0H   0x000fea       data     extern C:\MCC18\v3_39\src\extended\proc\p18F8722.asm
                   PLUSW0   0x000feb       data     extern C:\MCC18\v3_39\src\extended\proc\p18F8722.asm
                  PREINC0   0x000fec       data     extern C:\MCC18\v3_39\src\extended\proc\p18F8722.asm
                 POSTDEC0   0x000fed       data     extern C:\MCC18\v3_39\src\extended\proc\p18F8722.asm
                 POSTINC0   0x000fee       data     extern C:\MCC18\v3_39\src\extended\proc\p18F8722.asm
                    INDF0   0x000fef       data     extern C:\MCC18\v3_39\src\extended\proc\p18F8722.asm
              INTCON3bits   0x000ff0       data     extern C:\MCC18\v3_39\src\extended\proc\p18F8722.asm
                  INTCON3   0x000ff0       data     extern C:\MCC18\v3_39\src\extended\proc\p18F8722.asm
              INTCON2bits   0x000ff1       data     extern C:\MCC18\v3_39\src\extended\proc\p18F8722.asm
                  INTCON2   0x000ff1       data     extern C:\MCC18\v3_39\src\extended\proc\p18F8722.asm
                   INTCON   0x000ff2       data     extern C:\MCC18\v3_39\src\extended\proc\p18F8722.asm
               INTCONbits   0x000ff2       data     extern C:\MCC18\v3_39\src\extended\proc\p18F8722.asm
                    PRODL   0x000ff3       data     extern C:\MCC18\v3_39\src\extended\proc\p18F8722.asm
                     PROD   0x000ff3       data     extern C:\MCC18\v3_39\src\extended\proc\p18F8722.asm
                    PRODH   0x000ff4       data     extern C:\MCC18\v3_39\src\extended\proc\p18F8722.asm
                   TABLAT   0x000ff5       data     extern C:\MCC18\v3_39\src\extended\proc\p18F8722.asm
                   TBLPTR   0x000ff6       data     extern C:\MCC18\v3_39\src\extended\proc\p18F8722.asm
                  TBLPTRL   0x000ff6       data     extern C:\MCC18\v3_39\src\extended\proc\p18F8722.asm
                  TBLPTRH   0x000ff7       data     extern C:\MCC18\v3_39\src\extended\proc\p18F8722.asm
                  TBLPTRU   0x000ff8       data     extern C:\MCC18\v3_39\src\extended\proc\p18F8722.asm
                      PCL   0x000ff9       data     extern C:\MCC18\v3_39\src\extended\proc\p18F8722.asm
                       PC   0x000ff9       data     extern C:\MCC18\v3_39\src\extended\proc\p18F8722.asm
                   PCLATH   0x000ffa       data     extern C:\MCC18\v3_39\src\extended\proc\p18F8722.asm
                   PCLATU   0x000ffb       data     extern C:\MCC18\v3_39\src\extended\proc\p18F8722.asm
                   STKPTR   0x000ffc       data     extern C:\MCC18\v3_39\src\extended\proc\p18F8722.asm
               STKPTRbits   0x000ffc       data     extern C:\MCC18\v3_39\src\extended\proc\p18F8722.asm
                      TOS   0x000ffd       data     extern C:\MCC18\v3_39\src\extended\proc\p18F8722.asm
                     TOSL   0x000ffd       data     extern C:\MCC18\v3_39\src\extended\proc\p18F8722.asm
                     TOSH   0x000ffe       data     extern C:\MCC18\v3_39\src\extended\proc\p18F8722.asm
                     TOSU   0x000fff       data     extern C:\MCC18\v3_39\src\extended\proc\p18F8722.asm


