MPLINK 4.40, Linker
Linker Map File - Created Sun Oct 18 20:01:31 2015

                                 Section Info
                  Section       Type    Address   Location Size(Bytes)
                ---------  ---------  ---------  ---------  ---------
               _entry_scn       code   0x000000    program   0x000006
       .code__user_putc.o       code   0x000006    program   0x000002
           tick_interrupt       code   0x000008    program   0x000006
          .code_adcbusy.o       code   0x00000e    program   0x00000a
           work_interrupt       code   0x000018    program   0x000006
                   .cinit    romdata   0x00001e    program   0x000056
        .code_mandm8722.o       code   0x000074    program   0x00666c
              .code_daq.o       code   0x0066e0    program   0x001ee2
             .stringtable    romdata   0x0085c2    program   0x0016bc
     .romdata_mandm8722.o    romdata   0x009c7e    program   0x0014c8
     .code_mandm_vector.o       code   0x00b146    program   0x000dbc
                     PROG       code   0x00bf02    program   0x000ace
         .code_vfprintf.o       code   0x00c9d0    program   0x000816
           .code_config.o       code   0x00d1e6    program   0x0004c0
            .code_power.o       code   0x00d6a6    program   0x000476
             .code_crit.o       code   0x00db1c    program   0x0001c0
                   STRING       code   0x00dcdc    program   0x000192
           .code_hwconf.o       code   0x00de6e    program   0x000186
               _cinit_scn       code   0x00dff4    program   0x00009e
         .code_openxlcd.o       code   0x00e092    program   0x00009a
           .code_u2open.o       code   0x00e12c    program   0x000084
           .code_u1open.o       code   0x00e1b0    program   0x00007a
          .code_sprintf.o       code   0x00e22a    program   0x000072
             .code_putc.o       code   0x00e29c    program   0x000066
          .code_adcopen.o       code   0x00e302    program   0x000064
          .code_u2putrs.o       code   0x00e366    program   0x00005c
          .code_write_B.o       code   0x00e3c2    program   0x00004e
         .code_putrxlcd.o       code   0x00e410    program   0x00004e
           .code_u2puts.o       code   0x00e45e    program   0x000046
         .code_setddram.o       code   0x00e4a4    program   0x000046
         .code_setcgram.o       code   0x00e4ea    program   0x000046
         .code_writdata.o       code   0x00e530    program   0x000044
         .code_wcmdxlcd.o       code   0x00e574    program   0x000044
         .code_readdata.o       code   0x00e5b8    program   0x000044
         .code_readaddr.o       code   0x00e5fc    program   0x000044
           .code_read_B.o       code   0x00e640    program   0x000042
                   STDLIB       code   0x00e682    program   0x000040
           .code_t3open.o       code   0x00e6c2    program   0x000040
         .code_putsxlcd.o       code   0x00e702    program   0x000040
           .code_u2read.o       code   0x00e742    program   0x00003e
           .code_u1read.o       code   0x00e780    program   0x00003e
             D10KTCYXCODE       code   0x00e7be    program   0x000036
           .code_t0open.o       code   0x00e7f4    program   0x000036
           .code_t4open.o       code   0x00e82a    program   0x000034
          .code_t3write.o       code   0x00e85e    program   0x000030
          .code_t0write.o       code   0x00e88e    program   0x000030
         .code_adcsetch.o       code   0x00e8be    program   0x000030
          .code_u2write.o       code   0x00e8ee    program   0x00002e
         .code_busyxlcd.o       code   0x00e91c    program   0x00002c
                    CTYPE       code   0x00e948    program   0x000024
                    .code       code   0x00e96c    program   0x000020
             _startup_scn       code   0x00e98c    program   0x00001e
                    STDIO       code   0x00e9aa    program   0x00001c
          .code_adcread.o       code   0x00e9c6    program   0x000018
              D10TCYXCODE       code   0x00e9de    program   0x000016
      .romdata_vfprintf.o    romdata   0x00e9f4    program   0x000011
        .romdata___init.o    romdata   0x00ea05    program   0x000000
        .idata_t4open.o_i    romdata   0x00ea05    program   0x000000
        .idata_u2open.o_i    romdata   0x00ea05    program   0x000000
        .romdata_u2open.o    romdata   0x00ea05    program   0x000000
        .idata_u2puts.o_i    romdata   0x00ea05    program   0x000000
        .romdata_t3open.o    romdata   0x00ea05    program   0x000000
       .romdata_adcopen.o    romdata   0x00ea05    program   0x000000
        .idata_t3open.o_i    romdata   0x00ea05    program   0x000000
        .idata_t0open.o_i    romdata   0x00ea05    program   0x000000
       .romdata_write_B.o    romdata   0x00ea05    program   0x000000
        .romdata_t0open.o    romdata   0x00ea05    program   0x000000
       .romdata_u2write.o    romdata   0x00ea05    program   0x000000
       .idata_t0write.o_i    romdata   0x00ea05    program   0x000000
       .idata_u2write.o_i    romdata   0x00ea05    program   0x000000
       .romdata_t0write.o    romdata   0x00ea05    program   0x000000
       .idata_t3write.o_i    romdata   0x00ea05    program   0x000000
        .romdata_u2defs.o    romdata   0x00ea05    program   0x000000
        .idata_u2defs.o_i    romdata   0x00ea05    program   0x000000
       .romdata_t3write.o    romdata   0x00ea05    program   0x000000
       .idata_u2putrs.o_i    romdata   0x00ea05    program   0x000000
        .romdata_u1defs.o    romdata   0x00ea05    program   0x000000
        .idata_u1defs.o_i    romdata   0x00ea05    program   0x000000
      .romdata_adcsetch.o    romdata   0x00ea05    program   0x000000
       .romdata_u2putrs.o    romdata   0x00ea05    program   0x000000
        .romdata_read_B.o    romdata   0x00ea05    program   0x000000
       .idata_write_B.o_i    romdata   0x00ea05    program   0x000000
        .idata_read_B.o_i    romdata   0x00ea05    program   0x000000
       .romdata_adcread.o    romdata   0x00ea05    program   0x000000
        .romdata_u2read.o    romdata   0x00ea05    program   0x000000
        .idata_u2read.o_i    romdata   0x00ea05    program   0x000000
        .romdata_u1read.o    romdata   0x00ea05    program   0x000000
        .idata_u1read.o_i    romdata   0x00ea05    program   0x000000
        .romdata_t4open.o    romdata   0x00ea05    program   0x000000
      .romdata_putsxlcd.o    romdata   0x00ea05    program   0x000000
      .idata_putsxlcd.o_i    romdata   0x00ea05    program   0x000000
      .romdata_putrxlcd.o    romdata   0x00ea05    program   0x000000
      .idata_putrxlcd.o_i    romdata   0x00ea05    program   0x000000
      .romdata_openxlcd.o    romdata   0x00ea05    program   0x000000
      .idata_openxlcd.o_i    romdata   0x00ea05    program   0x000000
      .romdata_writdata.o    romdata   0x00ea05    program   0x000000
      .idata_writdata.o_i    romdata   0x00ea05    program   0x000000
  .romdata_mandm_vector.o    romdata   0x00ea05    program   0x000000
      .idata_vfprintf.o_i    romdata   0x00ea05    program   0x000000
          .idata_putc.o_i    romdata   0x00ea05    program   0x000000
          .romdata_putc.o    romdata   0x00ea05    program   0x000000
           .romdata_daq.o    romdata   0x00ea05    program   0x000000
         .romdata_power.o    romdata   0x00ea05    program   0x000000
         .idata_power.o_i    romdata   0x00ea05    program   0x000000
    .romdata__user_putc.o    romdata   0x00ea05    program   0x000000
         .romdata_model.o    romdata   0x00ea05    program   0x000000
         .idata_model.o_i    romdata   0x00ea05    program   0x000000
        .romdata_hwconf.o    romdata   0x00ea05    program   0x000000
        .idata_hwconf.o_i    romdata   0x00ea05    program   0x000000
          .romdata_crit.o    romdata   0x00ea05    program   0x000000
      .romdata_c018iz_e.o    romdata   0x00ea05    program   0x000000
        .romdata_u1open.o    romdata   0x00ea05    program   0x000000
        .idata_u1open.o_i    romdata   0x00ea05    program   0x000000
       .romdata_adcconv.o    romdata   0x00ea05    program   0x000000
        .romdata_u2puts.o    romdata   0x00ea05    program   0x000000
      .romdata_busy_eep.o    romdata   0x00ea05    program   0x000000
       .romdata_adcbusy.o    romdata   0x00ea05    program   0x000000
       .idata_sprintf.o_i    romdata   0x00ea05    program   0x000000
        .romdata_config.o    romdata   0x00ea05    program   0x000000
        .idata_config.o_i    romdata   0x00ea05    program   0x000001
      .romdata_busyxlcd.o    romdata   0x00ea05    program   0x000000
       .romdata_sprintf.o    romdata   0x00ea05    program   0x000000
      .idata_readaddr.o_i    romdata   0x00ea05    program   0x000000
      .romdata_readaddr.o    romdata   0x00ea05    program   0x000000
      .idata_readdata.o_i    romdata   0x00ea05    program   0x000000
      .romdata_readdata.o    romdata   0x00ea05    program   0x000000
      .idata_setcgram.o_i    romdata   0x00ea05    program   0x000000
      .romdata_setcgram.o    romdata   0x00ea05    program   0x000000
      .idata_setddram.o_i    romdata   0x00ea05    program   0x000000
      .romdata_setddram.o    romdata   0x00ea05    program   0x000000
      .idata_wcmdxlcd.o_i    romdata   0x00ea05    program   0x000000
      .romdata_wcmdxlcd.o    romdata   0x00ea05    program   0x000000
         .code_busy_eep.o       code   0x00ea06    program   0x000006
          .code_adcconv.o       code   0x00ea0c    program   0x000004
           .code___init.o       code   0x00ea10    program   0x000002
                  gpr10_i    romdata   0x00ea12    program   0x000033
              SEED_DATA_i    romdata   0x00ea45    program   0x000002
  .idata_mandm_vector.o_i    romdata   0x00ea47    program   0x000012
     .idata_mandm8722.o_i    romdata   0x00ea59    program   0x000099
           .idata_daq.o_i    romdata   0x00eaf2    program   0x000004
          .idata_crit.o_i    romdata   0x00eaf6    program   0x000002
    .idata__user_putc.o_i    romdata   0x00eaf8    program   0x000000
      .idata_c018iz_e.o_i    romdata   0x00eaf8    program   0x000000
         .code_c018iz_e.o       code   0x00eaf8    program   0x000000
            .code_model.o       code   0x00eaf8    program   0x000000
      .idata_busyxlcd.o_i    romdata   0x00eaf8    program   0x000000
       .idata_adcbusy.o_i    romdata   0x00eaf8    program   0x000000
      .idata_busy_eep.o_i    romdata   0x00eaf8    program   0x000000
        .idata___init.o_i    romdata   0x00eaf8    program   0x000000
           .code_u2defs.o       code   0x00eaf8    program   0x000000
           .code_u1defs.o       code   0x00eaf8    program   0x000000
      .idata_adcsetch.o_i    romdata   0x00eaf8    program   0x000000
       .idata_adcread.o_i    romdata   0x00eaf8    program   0x000000
       .idata_adcopen.o_i    romdata   0x00eaf8    program   0x000000
       .idata_adcconv.o_i    romdata   0x00eaf8    program   0x000000
.config_300001_mandm8722.o    romdata   0x300001    program   0x000001
.config_300002_mandm8722.o    romdata   0x300002    program   0x000001
.config_300003_mandm8722.o    romdata   0x300003    program   0x000001
.config_300004_mandm8722.o    romdata   0x300004    program   0x000001
.config_300005_mandm8722.o    romdata   0x300005    program   0x000001
.config_300006_mandm8722.o    romdata   0x300006    program   0x000001
.config_300008_mandm8722.o    romdata   0x300008    program   0x000001
.config_300009_mandm8722.o    romdata   0x300009    program   0x000001
.config_30000a_mandm8722.o    romdata   0x30000a    program   0x000001
.config_30000b_mandm8722.o    romdata   0x30000b    program   0x000001
.config_30000c_mandm8722.o    romdata   0x30000c    program   0x000001
.config_30000d_mandm8722.o    romdata   0x30000d    program   0x000001
                 .tmpdata      udata   0x000000       data   0x000018
             .udata_daq.o      udata   0x000018       data   0x000011
       .idata_mandm8722.o      idata   0x000060       data   0x000099
    .udata_mandm_vector.o      udata   0x0000f9       data   0x000006
                     gpr4      udata   0x0000ff       data   0x000001
                     gpr2      udata   0x000100       data   0x0000fc
         tick_handler_tmp      udata   0x0001fc       data   0x000004
                    gpr13      udata   0x000200       data   0x0000fb
             .idata_daq.o      idata   0x0002fb       data   0x000004
                DELAYDAT2      udata   0x0002ff       data   0x000001
                     gpr1      udata   0x000300       data   0x0000ea
    .idata_mandm_vector.o      idata   0x0003ea       data   0x000012
                MATH_DATA      udata   0x0003fc       data   0x000004
                     gpr9      udata   0x000400       data   0x0000d7
                     gpr3      udata   0x0004d7       data   0x00001c
            .idata_crit.o      idata   0x0004f3       data   0x000002
          .udata_u2defs.o      udata   0x0004f5       data   0x000001
          .udata_u1defs.o      udata   0x0004f6       data   0x000001
          .udata_hwconf.o      udata   0x0004f7       data   0x000001
          .udata_config.o      udata   0x0004f8       data   0x000001
          .idata_config.o      idata   0x0004f9       data   0x000001
          .idata_u2open.o      idata   0x0004fa       data   0x000000
        .idata_adcsetch.o      idata   0x0004fa       data   0x000000
        .udata_adcsetch.o      udata   0x0004fa       data   0x000000
          .idata_read_B.o      idata   0x0004fa       data   0x000000
          .udata_read_B.o      udata   0x0004fa       data   0x000000
         .idata_adcread.o      idata   0x0004fa       data   0x000000
         .udata_adcread.o      udata   0x0004fa       data   0x000000
          .idata_u2read.o      idata   0x0004fa       data   0x000000
          .udata_u2read.o      udata   0x0004fa       data   0x000000
         .udata_adcopen.o      udata   0x0004fa       data   0x000000
         .idata_adcopen.o      idata   0x0004fa       data   0x000000
          .udata_t0open.o      udata   0x0004fa       data   0x000000
          .idata_t0open.o      idata   0x0004fa       data   0x000000
          .idata_u1read.o      idata   0x0004fa       data   0x000000
          .udata_u1read.o      udata   0x0004fa       data   0x000000
          .idata_t4open.o      idata   0x0004fa       data   0x000000
          .udata_t3open.o      udata   0x0004fa       data   0x000000
          .idata_t3open.o      idata   0x0004fa       data   0x000000
          .udata_t4open.o      udata   0x0004fa       data   0x000000
      .idata__user_putc.o      idata   0x0004fa       data   0x000000
      .udata__user_putc.o      udata   0x0004fa       data   0x000000
            .idata_putc.o      idata   0x0004fa       data   0x000000
            .udata_putc.o      udata   0x0004fa       data   0x000000
        .idata_vfprintf.o      idata   0x0004fa       data   0x000000
        .udata_vfprintf.o      udata   0x0004fa       data   0x000000
         .idata_sprintf.o      idata   0x0004fa       data   0x000000
         .udata_sprintf.o      udata   0x0004fa       data   0x000000
          .idata_u2puts.o      idata   0x0004fa       data   0x000000
          .udata_u2puts.o      udata   0x0004fa       data   0x000000
         .idata_u2putrs.o      idata   0x0004fa       data   0x000000
         .udata_u2putrs.o      udata   0x0004fa       data   0x000000
          .idata___init.o      idata   0x0004fa       data   0x000000
          .udata___init.o      udata   0x0004fa       data   0x000000
         .idata_write_B.o      idata   0x0004fa       data   0x000000
         .udata_write_B.o      udata   0x0004fa       data   0x000000
         .idata_t3write.o      idata   0x0004fa       data   0x000000
         .udata_t3write.o      udata   0x0004fa       data   0x000000
         .idata_t0write.o      idata   0x0004fa       data   0x000000
         .udata_t0write.o      udata   0x0004fa       data   0x000000
         .idata_u2write.o      idata   0x0004fa       data   0x000000
         .udata_u2write.o      udata   0x0004fa       data   0x000000
          .idata_u2defs.o      idata   0x0004fa       data   0x000000
          .idata_u1defs.o      idata   0x0004fa       data   0x000000
        .udata_readdata.o      udata   0x0004fa       data   0x000000
        .idata_readaddr.o      idata   0x0004fa       data   0x000000
        .udata_readaddr.o      udata   0x0004fa       data   0x000000
        .idata_putsxlcd.o      idata   0x0004fa       data   0x000000
        .udata_putsxlcd.o      udata   0x0004fa       data   0x000000
        .idata_putrxlcd.o      idata   0x0004fa       data   0x000000
        .udata_putrxlcd.o      udata   0x0004fa       data   0x000000
        .idata_openxlcd.o      idata   0x0004fa       data   0x000000
        .udata_openxlcd.o      udata   0x0004fa       data   0x000000
        .idata_writdata.o      idata   0x0004fa       data   0x000000
        .udata_writdata.o      udata   0x0004fa       data   0x000000
              ISRHtmpdata      udata   0x0004fa       data   0x000000
                     gpr6      udata   0x0004fa       data   0x000000
       .udata_mandm8722.o      udata   0x0004fa       data   0x000000
           .idata_power.o      idata   0x0004fa       data   0x000000
           .idata_model.o      idata   0x0004fa       data   0x000000
           .udata_model.o      udata   0x0004fa       data   0x000000
          .idata_hwconf.o      idata   0x0004fa       data   0x000000
            .udata_crit.o      udata   0x0004fa       data   0x000000
        .idata_c018iz_e.o      idata   0x0004fa       data   0x000000
          .udata_u1open.o      udata   0x0004fa       data   0x000000
         .idata_adcconv.o      idata   0x0004fa       data   0x000000
          .idata_u1open.o      idata   0x0004fa       data   0x000000
         .udata_adcconv.o      udata   0x0004fa       data   0x000000
        .idata_busy_eep.o      idata   0x0004fa       data   0x000000
        .udata_busy_eep.o      udata   0x0004fa       data   0x000000
          .udata_u2open.o      udata   0x0004fa       data   0x000000
         .idata_adcbusy.o      idata   0x0004fa       data   0x000000
         .udata_adcbusy.o      udata   0x0004fa       data   0x000000
        .idata_busyxlcd.o      idata   0x0004fa       data   0x000000
        .udata_busyxlcd.o      udata   0x0004fa       data   0x000000
        .idata_wcmdxlcd.o      idata   0x0004fa       data   0x000000
        .udata_wcmdxlcd.o      udata   0x0004fa       data   0x000000
        .idata_setddram.o      idata   0x0004fa       data   0x000000
        .udata_setddram.o      udata   0x0004fa       data   0x000000
        .idata_setcgram.o      idata   0x0004fa       data   0x000000
        .udata_setcgram.o      udata   0x0004fa       data   0x000000
        .idata_readdata.o      idata   0x0004fa       data   0x000000
                     gpr8      udata   0x000500       data   0x0000c2
                    gpr10      idata   0x0005c2       data   0x000033
        .udata_c018iz_e.o      udata   0x0005f5       data   0x00000a
                DELAYDAT1      udata   0x0005ff       data   0x000001
                     gpr5      udata   0x000600       data   0x0000a6
           .udata_power.o      udata   0x0006a6       data   0x000040
                     gpr7      udata   0x0006e6       data   0x000018
                SEED_DATA      idata   0x0006fe       data   0x000002
                   .stack      udata   0x000e00       data   0x000100
            SFR_UNBANKED0      udata   0x000f62       data   0x00009e



                              Program Memory Usage 
                               Start         End      
                           ---------   ---------      
                            0x000000    0x00eaf7      
                            0x300001    0x300006      
                            0x300008    0x30000d      
            60164 out of 132120 program addresses used, program memory utilization is 45%



                              Symbols - Sorted by Name
                     Name    Address   Location    Storage File                     
                ---------  ---------  ---------  --------- ---------                
                     ABSI   0x000f4e    program     extern /audio/mandm/mandm/mandm8722.c
                     ABSL   0x000f7c    program     extern /audio/mandm/mandm/mandm8722.c
                 ADC_read   0x006840    program     extern /audio/mandm/mandm/daq.c 
                 ADC_zero   0x0066e0    program     extern /audio/mandm/mandm/daq.c 
                  BusyADC   0x00000e    program     extern C:\MCC18\v3_39\src\pmc_common\ADC\adcbusy.c
                 BusyXLCD   0x00e91c    program     extern /audio/mandm/mandm/xlcd/busyxlcd.c
                 Busy_eep   0x00ea06    program     extern C:\MCC18\v3_39\src\pmc_common\EEP\busy_eep.c
             Change_Count   0x006746    program     extern /audio/mandm/mandm/daq.c 
        Clear_All_Buttons   0x00beaa    program     extern /audio/mandm/mandm/mandm_vector.c
               ConvertADC   0x00ea0c    program     extern C:\MCC18\v3_39\src\pmc_common\ADC\adcconv.c
                   D10K_1   0x00e7ce    program     static C:\MCC18\v3_39\src\extended\delays\d10ktcyx.asm
                    D10Kl   0x00e7dc    program     static C:\MCC18\v3_39\src\extended\delays\d10ktcyx.asm
                    D10Kx   0x00e7ca    program     static C:\MCC18\v3_39\src\extended\delays\d10ktcyx.asm
                    D10_1   0x00e9ee    program     static C:\MCC18\v3_39\src\extended\delays\d10tcyx.asm
                     D10x   0x00e9e6    program     static C:\MCC18\v3_39\src\extended\delays\d10tcyx.asm
                   D1616S   0x00c358    program     static C:\MCC18\v3_39\src\extended\math\div16s.asm
                D1616SNEG   0x00c366    program     static C:\MCC18\v3_39\src\extended\math\div16s.asm
                 D1616SOK   0x00c362    program     static C:\MCC18\v3_39\src\extended\math\div16s.asm
                D1616SPOS   0x00c376    program     static C:\MCC18\v3_39\src\extended\math\div16s.asm
                  D1616SX   0x00c39c    program     static C:\MCC18\v3_39\src\extended\math\div16s.asm
                   D3232S   0x00c3f6    program     static C:\MCC18\v3_39\src\extended\math\div32s.asm
                D3232SNEG   0x00c404    program     static C:\MCC18\v3_39\src\extended\math\div32s.asm
                 D3232SOK   0x00c400    program     static C:\MCC18\v3_39\src\extended\math\div32s.asm
                D3232SPOS   0x00c422    program     static C:\MCC18\v3_39\src\extended\math\div32s.asm
                  D3232SX   0x00c458    program     static C:\MCC18\v3_39\src\extended\math\div32s.asm
                  DA1616S   0x00c348    program     static C:\MCC18\v3_39\src\extended\math\div16s.asm
                  DA3232S   0x00c3e0    program     static C:\MCC18\v3_39\src\extended\math\div32s.asm
             Delay10KTCYx   0x00e7be    program     extern C:\MCC18\v3_39\src\extended\delays\d10ktcyx.asm
              Delay10TCYx   0x00e9de    program     extern C:\MCC18\v3_39\src\extended\delays\d10tcyx.asm
            DelayFor18TCY   0x00060c    program     extern /audio/mandm/mandm/mandm8722.c
             DelayPORXLCD   0x000626    program     extern /audio/mandm/mandm/mandm8722.c
                DelayXLCD   0x000632    program     extern /audio/mandm/mandm/mandm8722.c
              LCD_VC_puts   0x00016e    program     extern /audio/mandm/mandm/mandm8722.c
               Open1USART   0x00e1b0    program     extern C:\MCC18\v3_39\src\pmc_common\USART\u1open.c
               Open2USART   0x00e12c    program     extern C:\MCC18\v3_39\src\pmc_common\USART\u2open.c
                  OpenADC   0x00e302    program     extern C:\MCC18\v3_39\src\pmc_common\ADC\adcopen.c
               OpenTimer0   0x00e7f4    program     extern C:\MCC18\v3_39\src\pmc_common\Timers\t0open.c
               OpenTimer3   0x00e6c2    program     extern C:\MCC18\v3_39\src\pmc_common\Timers\t3open.c
               OpenTimer4   0x00e82a    program     extern C:\MCC18\v3_39\src\pmc_common\Timers\t4open.c
                 OpenXLCD   0x00e092    program     extern /audio/mandm/mandm/xlcd/openxlcd.c
                   P1wait   0x00be9e    program     extern /audio/mandm/mandm/mandm_vector.c
                   P2wait   0x00bea4    program     extern /audio/mandm/mandm/mandm_vector.c
                  RESTORE   0x00c95a    program     static C:\MCC18\v3_39\src\extended\math\div16u.asm
                  RESTORE   0x00c4f8    program     static C:\MCC18\v3_39\src\extended\math\div32u.asm
                  RESTORE   0x00c44a    program     static C:\MCC18\v3_39\src\extended\math\div32s.asm
                  RESTORE   0x00c38e    program     static C:\MCC18\v3_39\src\extended\math\div16s.asm
              RETQUOTIENT   0x00c952    program     static C:\MCC18\v3_39\src\extended\math\div16u.asm
              RETQUOTIENT   0x00c43a    program     static C:\MCC18\v3_39\src\extended\math\div32s.asm
              RETQUOTIENT   0x00c4e8    program     static C:\MCC18\v3_39\src\extended\math\div32u.asm
              RETQUOTIENT   0x00c386    program     static C:\MCC18\v3_39\src\extended\math\div16s.asm
               Read1USART   0x00e780    program     extern C:\MCC18\v3_39\src\pmc_common\USART\u1read.c
               Read2USART   0x00e742    program     extern C:\MCC18\v3_39\src\pmc_common\USART\u2read.c
                  ReadADC   0x00e9c6    program     extern C:\MCC18\v3_39\src\pmc_common\ADC\adcread.c
             ReadAddrXLCD   0x00e5fc    program     extern /audio/mandm/mandm/xlcd/readaddr.c
             ReadDataXLCD   0x00e5b8    program     extern /audio/mandm/mandm/xlcd/readdata.c
               Read_b_eep   0x00e640    program     extern C:\MCC18\v3_39\src\pmc_common\EEP\read_B.c
       Reset_Change_Count   0x006706    program     extern /audio/mandm/mandm/daq.c 
                  SETSIGN   0x00c3c6    program     static C:\MCC18\v3_39\src\extended\math\div32s.asm
                  SETSIGN   0x00c336    program     static C:\MCC18\v3_39\src\extended\math\div16s.asm
                 SETUPSTK   0x00c462    program     static C:\MCC18\v3_39\src\extended\math\div32u.asm
                 SETUPSTK   0x00c3a6    program     static C:\MCC18\v3_39\src\extended\math\div32s.asm
                 SETUPSTK   0x00c8f0    program     static C:\MCC18\v3_39\src\extended\math\div16u.asm
                 SETUPSTK   0x00c316    program     static C:\MCC18\v3_39\src\extended\math\div16s.asm
             SetCGRamAddr   0x00e4ea    program     extern /audio/mandm/mandm/xlcd/setcgram.c
               SetChanADC   0x00e8be    program     extern C:\MCC18\v3_39\src\pmc_common\ADC\adcsetch.c
             SetDDRamAddr   0x00e4a4    program     extern /audio/mandm/mandm/xlcd/setddram.c
               Set_Cursor   0x001664    program     extern /audio/mandm/mandm/mandm8722.c
              Write2USART   0x00e8ee    program     extern C:\MCC18\v3_39\src\pmc_common\USART\u2write.c
             WriteCmdXLCD   0x00e574    program     extern /audio/mandm/mandm/xlcd/wcmdxlcd.c
            WriteDataXLCD   0x00e530    program     extern /audio/mandm/mandm/xlcd/writdata.c
              WriteTimer0   0x00e88e    program     extern C:\MCC18\v3_39\src\pmc_common\Timers\t0write.c
              WriteTimer3   0x00e85e    program     extern C:\MCC18\v3_39\src\pmc_common\Timers\t3write.c
              Write_b_eep   0x00e3c2    program     extern C:\MCC18\v3_39\src\pmc_common\EEP\write_B.c
                   _2jEnd   0x00dd94    program     static C:\MCC18\v3_39\src\extended\stdclib\slenpgm.asm
              _3jContinue   0x00de38    program     static C:\MCC18\v3_39\src\extended\stdclib\sncpyp2r.asm
              _4jContinue   0x00ddde    program     static C:\MCC18\v3_39\src\extended\stdclib\strncpy.asm
              _4jContinue   0x00dd08    program     static C:\MCC18\v3_39\src\extended\stdclib\memcmp.asm
                   _4jEnd   0x00de42    program     static C:\MCC18\v3_39\src\extended\stdclib\sncpyp2r.asm
                   _5jEnd   0x00dd12    program     static C:\MCC18\v3_39\src\extended\stdclib\memcmp.asm
                   _5jEnd   0x00dde8    program     static C:\MCC18\v3_39\src\extended\stdclib\strncpy.asm
       _D10KTCYXCODE_0014   0x00e7d2    program     static C:\MCC18\v3_39\src\extended\delays\d10ktcyx.asm
       _D10KTCYXCODE_0022   0x00e7e0    program     static C:\MCC18\v3_39\src\extended\delays\d10ktcyx.asm
        _D10TCYXCODE_000A   0x00e9e8    program     static C:\MCC18\v3_39\src\extended\delays\d10tcyx.asm
        _D10TCYXCODE_000C   0x00e9ea    program     static C:\MCC18\v3_39\src\extended\delays\d10tcyx.asm
        _D10TCYXCODE_000E   0x00e9ec    program     static C:\MCC18\v3_39\src\extended\delays\d10tcyx.asm
              __FpCompare   0x00c5d2    program     extern C:\MCC18\v3_39\src\extended\math\compFP.asm
                 __FpPack   0x00c04c    program     extern C:\MCC18\v3_39\src\extended\math\packFP.asm
            __FpReturnNaN   0x00c0ce    program     extern C:\MCC18\v3_39\src\extended\math\packFP.asm
         __FpReturnNegInf   0x00c0e0    program     extern C:\MCC18\v3_39\src\extended\math\packFP.asm
        __FpReturnNegZero   0x00c0f8    program     extern C:\MCC18\v3_39\src\extended\math\packFP.asm
         __FpReturnPosInf   0x00c0e6    program     extern C:\MCC18\v3_39\src\extended\math\packFP.asm
        __FpReturnPosZero   0x00c100    program     extern C:\MCC18\v3_39\src\extended\math\packFP.asm
        __FpReturnSignInf   0x00c0dc    program     extern C:\MCC18\v3_39\src\extended\math\packFP.asm
       __FpReturnSignZero   0x00c0f4    program     extern C:\MCC18\v3_39\src\extended\math\packFP.asm
              __FpReturnW   0x00c0a4    program     extern C:\MCC18\v3_39\src\extended\math\packFP.asm
              __FpUnPackA   0x00c106    program     extern C:\MCC18\v3_39\src\extended\math\unpackFP.asm
              __FpUnPackB   0x00c136    program     extern C:\MCC18\v3_39\src\extended\math\unpackFP.asm
       ___case_0_lbl00030   0x00b444    program     static                          
       ___case_1_lbl00031   0x00b44a    program     static                          
       ___case_2_lbl00032   0x00b452    program     static                          
      ___default_lbl00033   0x00b45a    program     static                          
           ___do_lbl00032   0x000324    program     static                          
           ___do_lbl00033   0x000340    program     static                          
           ___do_lbl00034   0x000304    program     static                          
           ___do_lbl00434   0x002bb4    program     static                          
           ___do_lbl00435   0x002bd2    program     static                          
           ___do_lbl00440   0x0029a2    program     static                          
           ___do_lbl00444   0x002e4c    program     static                          
           ___do_lbl00445   0x002e6a    program     static                          
           ___do_lbl00450   0x002c3a    program     static                          
           ___do_lbl00458   0x00308a    program     static                          
           ___do_lbl00459   0x003090    program     static                          
           ___do_lbl00460   0x00307e    program     static                          
           ___do_lbl00465   0x003614    program     static                          
           ___do_lbl00466   0x003638    program     static                          
           ___do_lbl00481   0x003168    program     static                          
           ___do_lbl00483   0x003b64    program     static                          
           ___do_lbl00484   0x003b88    program     static                          
           ___do_lbl00499   0x0036b8    program     static                          
           ___do_lbl00534   0x004dae    program     static                          
           ___do_lbl00535   0x004db4    program     static                          
           ___do_lbl00536   0x004da2    program     static                          
           ___do_lbl00541   0x004f7e    program     static                          
           ___do_lbl00542   0x004fc2    program     static                          
           ___do_lbl00545   0x004e18    program     static                          
         ___else_lbl00003   0x00b1c0    program     static                          
         ___else_lbl00008   0x00dc12    program     static                          
         ___else_lbl00009   0x00b288    program     static                          
         ___else_lbl00011   0x00b2a8    program     static                          
         ___else_lbl00014   0x00b322    program     static                          
         ___else_lbl00016   0x00b342    program     static                          
         ___else_lbl00027   0x00b3fe    program     static                          
         ___else_lbl00071   0x00b5f8    program     static                          
         ___else_lbl00082   0x0079ec    program     static                          
         ___else_lbl00084   0x00b752    program     static                          
         ___else_lbl00086   0x00b760    program     static                          
         ___else_lbl00088   0x00b76e    program     static                          
         ___else_lbl00090   0x00b7a6    program     static                          
         ___else_lbl00092   0x00b80c    program     static                          
         ___else_lbl00098   0x00b874    program     static                          
         ___else_lbl00104   0x00bbf8    program     static                          
         ___else_lbl00108   0x00bd06    program     static                          
         ___else_lbl00114   0x00bd90    program     static                          
         ___else_lbl00116   0x00bd6a    program     static                          
         ___else_lbl00477   0x003488    program     static                          
         ___else_lbl00495   0x0039d8    program     static                          
         ___else_lbl00519   0x003b8c    program     static                          
         ___else_lbl00528   0x0047e0    program     static                          
         ___else_lbl00531   0x004a7e    program     static                          
         ___else_lbl00533   0x004d5e    program     static                          
         ___else_lbl00539   0x004a40    program     static                          
         ___else_lbl00547   0x00506a    program     static                          
         ___else_lbl00569   0x0054f6    program     static                          
         ___else_lbl00577   0x0055a4    program     static                          
          ___for_lbl00013   0x0068a4    program     static                          
          ___for_lbl00014   0x0068ae    program     static                          
          ___for_lbl00017   0x006868    program     static                          
          ___for_lbl00018   0x0069c4    program     static                          
          ___for_lbl00019   0x0069ce    program     static                          
          ___for_lbl00022   0x006988    program     static                          
          ___for_lbl00023   0x006ae4    program     static                          
          ___for_lbl00024   0x006aee    program     static                          
          ___for_lbl00027   0x006aa8    program     static                          
          ___for_lbl00028   0x000296    program     static                          
          ___for_lbl00029   0x0002a4    program     static                          
          ___for_lbl00030   0x00027e    program     static                          
          ___for_lbl00031   0x006d3c    program     static                          
          ___for_lbl00032   0x006d46    program     static                          
          ___for_lbl00035   0x006d00    program     static                          
          ___for_lbl00039   0x006f9c    program     static                          
          ___for_lbl00040   0x006fa6    program     static                          
          ___for_lbl00043   0x006f60    program     static                          
          ___for_lbl00047   0x0071f4    program     static                          
          ___for_lbl00048   0x0071fe    program     static                          
          ___for_lbl00051   0x0071b8    program     static                          
          ___for_lbl00052   0x0072a2    program     static                          
          ___for_lbl00053   0x0072ac    program     static                          
          ___for_lbl00054   0x00061e    program     static                          
          ___for_lbl00055   0x000624    program     static                          
          ___for_lbl00056   0x000612    program     static                          
          ___for_lbl00056   0x007266    program     static                          
          ___for_lbl00057   0x007350    program     static                          
          ___for_lbl00058   0x00735a    program     static                          
          ___for_lbl00061   0x007314    program     static                          
          ___for_lbl00062   0x0073fe    program     static                          
          ___for_lbl00063   0x007408    program     static                          
          ___for_lbl00066   0x0073c2    program     static                          
          ___for_lbl00067   0x0074ac    program     static                          
          ___for_lbl00068   0x0074b6    program     static                          
          ___for_lbl00071   0x007470    program     static                          
          ___for_lbl00072   0x00755a    program     static                          
          ___for_lbl00073   0x007564    program     static                          
          ___for_lbl00076   0x00751e    program     static                          
          ___for_lbl00077   0x008348    program     static                          
          ___for_lbl00078   0x008354    program     static                          
          ___for_lbl00078   0x000de0    program     static                          
          ___for_lbl00079   0x000de6    program     static                          
          ___for_lbl00081   0x000b00    program     static                          
          ___for_lbl00092   0x007672    program     static                          
          ___for_lbl00432   0x002eac    program     static                          
          ___for_lbl00433   0x002eb4    program     static                          
          ___for_lbl00454   0x002962    program     static                          
          ___for_lbl00501   0x003d8c    program     static                          
          ___for_lbl00502   0x003da2    program     static                          
          ___for_lbl00507   0x003bc4    program     static                          
          ___for_lbl00508   0x003fca    program     static                          
          ___for_lbl00509   0x003fe0    program     static                          
          ___for_lbl00514   0x003e02    program     static                          
          ___for_lbl00515   0x0043a2    program     static                          
          ___for_lbl00516   0x0043b8    program     static                          
          ___for_lbl00517   0x004360    program     static                          
          ___for_lbl00520   0x004dc4    program     static                          
          ___for_lbl00521   0x004ddc    program     static                          
          ___for_lbl00540   0x0043c0    program     static                          
          ___for_lbl00564   0x0054ac    program     static                          
          ___for_lbl00565   0x0054b2    program     static                          
          ___for_lbl00566   0x005488    program     static                          
          ___for_lbl00570   0x00559c    program     static                          
          ___for_lbl00571   0x0055a2    program     static                          
          ___for_lbl00572   0x00556a    program     static                          
          ___for_lbl00573   0x0055f0    program     static                          
          ___for_lbl00574   0x0055f6    program     static                          
          ___for_lbl00575   0x0055be    program     static                          
           ___if_lbl00001   0x00db4a    program     static                          
           ___if_lbl00001   0x00de92    program     static                          
           ___if_lbl00001   0x00b18a    program     static                          
           ___if_lbl00002   0x00b1d2    program     static                          
           ___if_lbl00002   0x00db6c    program     static                          
           ___if_lbl00003   0x00db8c    program     static                          
           ___if_lbl00003   0x00dea4    program     static                          
           ___if_lbl00004   0x00b1dc    program     static                          
           ___if_lbl00004   0x00dbac    program     static                          
           ___if_lbl00005   0x00b1e6    program     static                          
           ___if_lbl00006   0x00b1f0    program     static                          
           ___if_lbl00006   0x00dbe0    program     static                          
           ___if_lbl00007   0x00b1f0    program     static                          
           ___if_lbl00007   0x00dc1a    program     static                          
           ___if_lbl00008   0x00dfc8    program     static                          
           ___if_lbl00008   0x00b2a6    program     static                          
           ___if_lbl00010   0x00b2b6    program     static                          
           ___if_lbl00012   0x00b2b6    program     static                          
           ___if_lbl00013   0x00b340    program     static                          
           ___if_lbl00015   0x00b350    program     static                          
           ___if_lbl00017   0x00b350    program     static                          
           ___if_lbl00018   0x00b354    program     static                          
           ___if_lbl00020   0x00b362    program     static                          
           ___if_lbl00021   0x00b376    program     static                          
           ___if_lbl00023   0x00b390    program     static                          
           ___if_lbl00024   0x00b3be    program     static                          
           ___if_lbl00025   0x00b3f2    program     static                          
           ___if_lbl00026   0x00b406    program     static                          
           ___if_lbl00028   0x00b432    program     static                          
           ___if_lbl00028   0x006c0c    program     static                          
           ___if_lbl00030   0x006cda    program     static                          
           ___if_lbl00034   0x00b460    program     static                          
           ___if_lbl00035   0x00b460    program     static                          
           ___if_lbl00036   0x006e64    program     static                          
           ___if_lbl00036   0x00b466    program     static                          
           ___if_lbl00037   0x00b46c    program     static                          
           ___if_lbl00038   0x00b472    program     static                          
           ___if_lbl00038   0x006f38    program     static                          
           ___if_lbl00039   0x00b478    program     static                          
           ___if_lbl00040   0x00b478    program     static                          
           ___if_lbl00041   0x00b498    program     static                          
           ___if_lbl00042   0x00b49c    program     static                          
           ___if_lbl00043   0x00b4b4    program     static                          
           ___if_lbl00044   0x00b4ca    program     static                          
           ___if_lbl00044   0x0070c4    program     static                          
           ___if_lbl00045   0x00b4d8    program     static                          
           ___if_lbl00046   0x00b4e6    program     static                          
           ___if_lbl00046   0x007190    program     static                          
           ___if_lbl00047   0x00b4f4    program     static                          
           ___if_lbl00048   0x00b502    program     static                          
           ___if_lbl00049   0x00b510    program     static                          
           ___if_lbl00051   0x00b526    program     static                          
           ___if_lbl00053   0x00b53c    program     static                          
           ___if_lbl00055   0x00b550    program     static                          
           ___if_lbl00058   0x00b55a    program     static                          
           ___if_lbl00060   0x00b56c    program     static                          
           ___if_lbl00061   0x00b56c    program     static                          
           ___if_lbl00063   0x00b590    program     static                          
           ___if_lbl00064   0x00b594    program     static                          
           ___if_lbl00066   0x00b5b8    program     static                          
           ___if_lbl00067   0x00b5bc    program     static                          
           ___if_lbl00069   0x00b5f6    program     static                          
           ___if_lbl00070   0x00b600    program     static                          
           ___if_lbl00072   0x00b61e    program     static                          
           ___if_lbl00073   0x00b61e    program     static                          
           ___if_lbl00074   0x00b622    program     static                          
           ___if_lbl00076   0x00b640    program     static                          
           ___if_lbl00077   0x00b6c4    program     static                          
           ___if_lbl00078   0x00b6c4    program     static                          
           ___if_lbl00079   0x007862    program     static                          
           ___if_lbl00079   0x00b6c4    program     static                          
           ___if_lbl00080   0x000de0    program     static                          
           ___if_lbl00081   0x007ac6    program     static                          
           ___if_lbl00082   0x00b748    program     static                          
           ___if_lbl00082   0x000dfe    program     static                          
           ___if_lbl00083   0x007ac6    program     static                          
           ___if_lbl00083   0x00b756    program     static                          
           ___if_lbl00085   0x007b44    program     static                          
           ___if_lbl00085   0x00b764    program     static                          
           ___if_lbl00086   0x007b9c    program     static                          
           ___if_lbl00087   0x007ce0    program     static                          
           ___if_lbl00087   0x00b772    program     static                          
           ___if_lbl00088   0x007dc2    program     static                          
           ___if_lbl00089   0x007e30    program     static                          
           ___if_lbl00089   0x00b7d6    program     static                          
           ___if_lbl00090   0x007faa    program     static                          
           ___if_lbl00091   0x00b83e    program     static                          
           ___if_lbl00091   0x008252    program     static                          
           ___if_lbl00093   0x00b920    program     static                          
           ___if_lbl00094   0x00b948    program     static                          
           ___if_lbl00095   0x00842e    program     static                          
           ___if_lbl00095   0x00b978    program     static                          
           ___if_lbl00096   0x00842e    program     static                          
           ___if_lbl00096   0x00b9cc    program     static                          
           ___if_lbl00097   0x00b9ce    program     static                          
           ___if_lbl00099   0x00ba2c    program     static                          
           ___if_lbl00100   0x00ba96    program     static                          
           ___if_lbl00101   0x00baf4    program     static                          
           ___if_lbl00102   0x00bb60    program     static                          
           ___if_lbl00103   0x00bc56    program     static                          
           ___if_lbl00106   0x00bd04    program     static                          
           ___if_lbl00107   0x00bd26    program     static                          
           ___if_lbl00112   0x00bdb4    program     static                          
           ___if_lbl00113   0x00bdb4    program     static                          
           ___if_lbl00115   0x00bdb4    program     static                          
           ___if_lbl00117   0x00bdb4    program     static                          
           ___if_lbl00118   0x00bdb4    program     static                          
           ___if_lbl00119   0x00be08    program     static                          
           ___if_lbl00120   0x00be08    program     static                          
           ___if_lbl00121   0x00be24    program     static                          
           ___if_lbl00122   0x00be32    program     static                          
           ___if_lbl00124   0x00be4e    program     static                          
           ___if_lbl00125   0x00be4e    program     static                          
           ___if_lbl00425   0x002816    program     static                          
           ___if_lbl00426   0x002840    program     static                          
           ___if_lbl00427   0x002854    program     static                          
           ___if_lbl00428   0x002866    program     static                          
           ___if_lbl00429   0x0028b0    program     static                          
           ___if_lbl00430   0x0028e8    program     static                          
           ___if_lbl00431   0x00291e    program     static                          
           ___if_lbl00436   0x002a4c    program     static                          
           ___if_lbl00437   0x002aec    program     static                          
           ___if_lbl00438   0x002b90    program     static                          
           ___if_lbl00439   0x002ba0    program     static                          
           ___if_lbl00442   0x002bfc    program     static                          
           ___if_lbl00443   0x002c14    program     static                          
           ___if_lbl00446   0x002ce4    program     static                          
           ___if_lbl00447   0x002d84    program     static                          
           ___if_lbl00448   0x002e28    program     static                          
           ___if_lbl00449   0x002e38    program     static                          
           ___if_lbl00452   0x002e94    program     static                          
           ___if_lbl00453   0x002eac    program     static                          
           ___if_lbl00456   0x002fd4    program     static                          
           ___if_lbl00457   0x003040    program     static                          
           ___if_lbl00461   0x0030de    program     static                          
           ___if_lbl00462   0x0030de    program     static                          
           ___if_lbl00463   0x0030f8    program     static                          
           ___if_lbl00464   0x003164    program     static                          
           ___if_lbl00470   0x003338    program     static                          
           ___if_lbl00471   0x003364    program     static                          
           ___if_lbl00472   0x003368    program     static                          
           ___if_lbl00473   0x0033ca    program     static                          
           ___if_lbl00474   0x003486    program     static                          
           ___if_lbl00475   0x0034e4    program     static                          
           ___if_lbl00476   0x0034e4    program     static                          
           ___if_lbl00478   0x00356a    program     static                          
           ___if_lbl00479   0x0035f0    program     static                          
           ___if_lbl00480   0x003600    program     static                          
           ___if_lbl00482   0x0036b4    program     static                          
           ___if_lbl00488   0x003888    program     static                          
           ___if_lbl00489   0x0038b4    program     static                          
           ___if_lbl00490   0x0038b8    program     static                          
           ___if_lbl00491   0x00391a    program     static                          
           ___if_lbl00492   0x0039d6    program     static                          
           ___if_lbl00493   0x003a34    program     static                          
           ___if_lbl00494   0x003a34    program     static                          
           ___if_lbl00496   0x003aba    program     static                          
           ___if_lbl00497   0x003b40    program     static                          
           ___if_lbl00498   0x003b50    program     static                          
           ___if_lbl00500   0x003b88    program     static                          
           ___if_lbl00503   0x003c5c    program     static                          
           ___if_lbl00504   0x003d18    program     static                          
           ___if_lbl00505   0x003d2a    program     static                          
           ___if_lbl00506   0x003d8c    program     static                          
           ___if_lbl00510   0x003e9a    program     static                          
           ___if_lbl00511   0x003f56    program     static                          
           ___if_lbl00512   0x003f68    program     static                          
           ___if_lbl00513   0x003fca    program     static                          
           ___if_lbl00518   0x0043b8    program     static                          
           ___if_lbl00522   0x0044b8    program     static                          
           ___if_lbl00523   0x004570    program     static                          
           ___if_lbl00525   0x0046ae    program     static                          
           ___if_lbl00526   0x0046ae    program     static                          
           ___if_lbl00527   0x0047e4    program     static                          
           ___if_lbl00529   0x004a3e    program     static                          
           ___if_lbl00530   0x004a82    program     static                          
           ___if_lbl00532   0x004d62    program     static                          
           ___if_lbl00537   0x004dc4    program     static                          
           ___if_lbl00538   0x004dc4    program     static                          
           ___if_lbl00544   0x004f7c    program     static                          
           ___if_lbl00546   0x00506a    program     static                          
           ___if_lbl00559   0x005262    program     static                          
           ___if_lbl00560   0x005290    program     static                          
           ___if_lbl00561   0x0052be    program     static                          
           ___if_lbl00562   0x0052ec    program     static                          
           ___if_lbl00563   0x00543c    program     static                          
           ___if_lbl00567   0x0054b2    program     static                          
           ___if_lbl00568   0x00553a    program     static                          
           ___if_lbl00576   0x00560c    program     static                          
           ___if_lbl00580   0x005616    program     static                          
           ___if_lbl00581   0x00565e    program     static                          
           ___if_lbl00582   0x00567e    program     static                          
           ___if_lbl00586   0x0058d2    program     static                          
           ___if_lbl00587   0x005902    program     static                          
           ___if_lbl00588   0x005916    program     static                          
       ___return_lbl00000   0x00be4e    program     static                          
       ___return_lbl00000   0x00e676    program     static                          
       ___return_lbl00000   0x000004    program     static                          
       ___return_lbl00000   0x00dbac    program     static                          
       ___return_lbl00000   0x00000c    program     static                          
       ___return_lbl00000   0x006704    program     static                          
       ___return_lbl00000   0x00dfc8    program     static                          
       ___return_lbl00001   0x00001c    program     static                          
       ___return_lbl00001   0x00e9a8    program     static                          
       ___return_lbl00002   0x00e090    program     static                          
       ___return_lbl00005   0x00dc1a    program     static                          
       ___return_lbl00012   0x008434    program     static                          
       ___return_lbl00027   0x0002a4    program     static                          
       ___return_lbl00031   0x000340    program     static                          
       ___return_lbl00053   0x000624    program     static                          
       ___return_lbl00072   0x00079a    program     static                          
       ___return_lbl00077   0x000e00    program     static                          
       ___return_lbl00127   0x00be9c    program     static                          
       ___return_lbl00424   0x0050a0    program     static                          
       ___return_lbl00558   0x005918    program     static                          
   ___switchexit_lbl00029   0x00b460    program     static                          
        ___while_lbl00001   0x0066fa    program     static                          
        ___while_lbl00002   0x006704    program     static                          
        ___while_lbl00004   0x00defe    program     static                          
        ___while_lbl00005   0x00df0c    program     static                          
        ___while_lbl00006   0x00df22    program     static                          
        ___while_lbl00007   0x00df30    program     static                          
        ___while_lbl00015   0x006878    program     static                          
        ___while_lbl00016   0x006882    program     static                          
        ___while_lbl00020   0x006998    program     static                          
        ___while_lbl00021   0x0069a2    program     static                          
        ___while_lbl00025   0x006ab8    program     static                          
        ___while_lbl00026   0x006ac2    program     static                          
        ___while_lbl00033   0x006d10    program     static                          
        ___while_lbl00034   0x006d1a    program     static                          
        ___while_lbl00041   0x006f70    program     static                          
        ___while_lbl00042   0x006f7a    program     static                          
        ___while_lbl00049   0x0071c8    program     static                          
        ___while_lbl00050   0x0071d2    program     static                          
        ___while_lbl00054   0x007276    program     static                          
        ___while_lbl00055   0x007280    program     static                          
        ___while_lbl00056   0x00b558    program     static                          
        ___while_lbl00057   0x00b55a    program     static                          
        ___while_lbl00059   0x007324    program     static                          
        ___while_lbl00060   0x00732e    program     static                          
        ___while_lbl00064   0x0073d2    program     static                          
        ___while_lbl00065   0x0073dc    program     static                          
        ___while_lbl00069   0x007480    program     static                          
        ___while_lbl00070   0x00748a    program     static                          
        ___while_lbl00074   0x00752e    program     static                          
        ___while_lbl00075   0x007538    program     static                          
        ___while_lbl00093   0x00841c    program     static                          
        ___while_lbl00094   0x00842e    program     static                          
        ___while_lbl00578   0x005614    program     static                          
        ___while_lbl00579   0x005616    program     static                          
        ___while_lbl00583   0x0058bc    program     static                          
        ___while_lbl00584   0x005918    program     static                          
                  __addFP   0x00bf06    program     extern C:\MCC18\v3_39\src\extended\math\addFP.asm
              __cast16sFP   0x00c166    program     extern C:\MCC18\v3_39\src\extended\math\cast16FP.asm
              __cast16uFP   0x00c162    program     extern C:\MCC18\v3_39\src\extended\math\cast16FP.asm
              __cast32sFP   0x00c1a8    program     extern C:\MCC18\v3_39\src\extended\math\cast32FP.asm
              __cast32uFP   0x00c1a4    program     extern C:\MCC18\v3_39\src\extended\math\cast32FP.asm
               __castFP16   0x00c1f2    program     extern C:\MCC18\v3_39\src\extended\math\castFP16.asm
               __castFP32   0x00c278    program     extern C:\MCC18\v3_39\src\extended\math\castFP32.asm
               __config_0   0x300001    program     static /audio/mandm/mandm/mandm8722.c
               __config_1   0x300002    program     static /audio/mandm/mandm/mandm8722.c
              __config_10   0x30000c    program     static /audio/mandm/mandm/mandm8722.c
              __config_11   0x30000d    program     static /audio/mandm/mandm/mandm8722.c
               __config_2   0x300003    program     static /audio/mandm/mandm/mandm8722.c
               __config_3   0x300004    program     static /audio/mandm/mandm/mandm8722.c
               __config_4   0x300005    program     static /audio/mandm/mandm/mandm8722.c
               __config_5   0x300006    program     static /audio/mandm/mandm/mandm8722.c
               __config_6   0x300008    program     static /audio/mandm/mandm/mandm8722.c
               __config_7   0x300009    program     static /audio/mandm/mandm/mandm8722.c
               __config_8   0x30000a    program     static /audio/mandm/mandm/mandm8722.c
               __config_9   0x30000b    program     static /audio/mandm/mandm/mandm8722.c
                 __div16s   0x00c32e    program     extern C:\MCC18\v3_39\src\extended\math\div16s.asm
                 __div16u   0x00c908    program     extern C:\MCC18\v3_39\src\extended\math\div16u.asm
                 __div32s   0x00c3be    program     extern C:\MCC18\v3_39\src\extended\math\div32s.asm
                 __div32u   0x00c47a    program     extern C:\MCC18\v3_39\src\extended\math\div32u.asm
                  __divFP   0x00c506    program     extern C:\MCC18\v3_39\src\extended\math\divFP.asm
                   __init   0x00ea10    program     extern C:\MCC18\v3_39\src\extended\stdclib\__init.c
                   __ltFP   0x00c5c0    program     extern C:\MCC18\v3_39\src\extended\math\ltFP.asm
                 __mod16s   0x00c334    program     extern C:\MCC18\v3_39\src\extended\math\div16s.asm
                 __mod16u   0x00c90e    program     extern C:\MCC18\v3_39\src\extended\math\div16u.asm
                 __mod32s   0x00c3c4    program     extern C:\MCC18\v3_39\src\extended\math\div32s.asm
                 __mod32u   0x00c480    program     extern C:\MCC18\v3_39\src\extended\math\div32u.asm
                  __mul16   0x00c968    program     extern C:\MCC18\v3_39\src\extended\math\mul16.asm
                  __mul24   0x00c6a0    program     extern C:\MCC18\v3_39\src\extended\math\mul24.asm
                  __mul32   0x00c760    program     extern C:\MCC18\v3_39\src\extended\math\mul32.asm
                  __mulFP   0x00c802    program     extern C:\MCC18\v3_39\src\extended\math\mulFP.asm
                   __pa_0   0x00dcba    program     static /audio/mandm/mandm/crit.c
                   __pa_0   0x00da9c    program     static /audio/mandm/mandm/power.c
                   __pa_0   0x00d092    program     static C:\MCC18\v3_39\src\extended\stdclib\vfprintf.c
                   __pa_0   0x00591a    program     static /audio/mandm/mandm/mandm8722.c
                   __pa_0   0x00e11a    program     static /audio/mandm/mandm/xlcd/openxlcd.c
                   __pa_0   0x00e566    program     static /audio/mandm/mandm/xlcd/writdata.c
                   __pa_0   0x00beee    program     static /audio/mandm/mandm/mandm_vector.c
                   __pa_0   0x00d58e    program     static /audio/mandm/mandm/config.c
                   __pa_0   0x00e936    program     static /audio/mandm/mandm/xlcd/busyxlcd.c
                   __pa_0   0x00e44e    program     static /audio/mandm/mandm/xlcd/putrxlcd.c
                   __pa_0   0x00e5aa    program     static /audio/mandm/mandm/xlcd/wcmdxlcd.c
                   __pa_0   0x00e4dc    program     static /audio/mandm/mandm/xlcd/setddram.c
                   __pa_0   0x00e522    program     static /audio/mandm/mandm/xlcd/setcgram.c
                   __pa_0   0x00852e    program     static /audio/mandm/mandm/daq.c 
                   __pa_1   0x00d59e    program     static /audio/mandm/mandm/config.c
                   __pa_1   0x00befa    program     static /audio/mandm/mandm/mandm_vector.c
                   __pa_1   0x008560    program     static /audio/mandm/mandm/daq.c 
                   __pa_1   0x00dcd0    program     static /audio/mandm/mandm/crit.c
                   __pa_1   0x00e124    program     static /audio/mandm/mandm/xlcd/openxlcd.c
                   __pa_1   0x00592a    program     static /audio/mandm/mandm/mandm8722.c
                   __pa_1   0x00d0a0    program     static C:\MCC18\v3_39\src\extended\stdclib\vfprintf.c
                   __pa_1   0x00daa8    program     static /audio/mandm/mandm/power.c
                  __pa_10   0x00db02    program     static /audio/mandm/mandm/power.c
                  __pa_10   0x00d12e    program     static C:\MCC18\v3_39\src\extended\stdclib\vfprintf.c
                  __pa_10   0x005a42    program     static /audio/mandm/mandm/mandm8722.c
                  __pa_10   0x00d5f2    program     static /audio/mandm/mandm/config.c
                 __pa_100   0x005f5c    program     static /audio/mandm/mandm/mandm8722.c
                 __pa_101   0x005f6e    program     static /audio/mandm/mandm/mandm8722.c
                 __pa_102   0x005f80    program     static /audio/mandm/mandm/mandm8722.c
                 __pa_103   0x005f92    program     static /audio/mandm/mandm/mandm8722.c
                 __pa_104   0x005f98    program     static /audio/mandm/mandm/mandm8722.c
                 __pa_105   0x005f9e    program     static /audio/mandm/mandm/mandm8722.c
                 __pa_106   0x005faa    program     static /audio/mandm/mandm/mandm8722.c
                 __pa_107   0x005fb6    program     static /audio/mandm/mandm/mandm8722.c
                 __pa_108   0x005fc0    program     static /audio/mandm/mandm/mandm8722.c
                 __pa_109   0x005fc8    program     static /audio/mandm/mandm/mandm8722.c
                  __pa_11   0x005a4e    program     static /audio/mandm/mandm/mandm8722.c
                  __pa_11   0x00d5f8    program     static /audio/mandm/mandm/config.c
                  __pa_11   0x00d13e    program     static C:\MCC18\v3_39\src\extended\stdclib\vfprintf.c
                  __pa_11   0x00db0a    program     static /audio/mandm/mandm/power.c
                 __pa_110   0x005fd0    program     static /audio/mandm/mandm/mandm8722.c
                 __pa_111   0x005fde    program     static /audio/mandm/mandm/mandm8722.c
                 __pa_112   0x005fee    program     static /audio/mandm/mandm/mandm8722.c
                 __pa_113   0x005ffe    program     static /audio/mandm/mandm/mandm8722.c
                 __pa_114   0x00600e    program     static /audio/mandm/mandm/mandm8722.c
                 __pa_115   0x006016    program     static /audio/mandm/mandm/mandm8722.c
                 __pa_116   0x006024    program     static /audio/mandm/mandm/mandm8722.c
                 __pa_117   0x006032    program     static /audio/mandm/mandm/mandm8722.c
                 __pa_118   0x00603c    program     static /audio/mandm/mandm/mandm8722.c
                 __pa_119   0x006046    program     static /audio/mandm/mandm/mandm8722.c
                  __pa_12   0x00d604    program     static /audio/mandm/mandm/config.c
                  __pa_12   0x00db14    program     static /audio/mandm/mandm/power.c
                  __pa_12   0x00d14e    program     static C:\MCC18\v3_39\src\extended\stdclib\vfprintf.c
                  __pa_12   0x005a62    program     static /audio/mandm/mandm/mandm8722.c
                 __pa_120   0x006050    program     static /audio/mandm/mandm/mandm8722.c
                 __pa_121   0x00605a    program     static /audio/mandm/mandm/mandm8722.c
                 __pa_122   0x006062    program     static /audio/mandm/mandm/mandm8722.c
                 __pa_123   0x00608c    program     static /audio/mandm/mandm/mandm8722.c
                 __pa_124   0x0060c4    program     static /audio/mandm/mandm/mandm8722.c
                 __pa_125   0x0060ce    program     static /audio/mandm/mandm/mandm8722.c
                 __pa_126   0x0060d4    program     static /audio/mandm/mandm/mandm8722.c
                 __pa_127   0x0060da    program     static /audio/mandm/mandm/mandm8722.c
                 __pa_128   0x0060e6    program     static /audio/mandm/mandm/mandm8722.c
                 __pa_129   0x0060f0    program     static /audio/mandm/mandm/mandm8722.c
                  __pa_13   0x00d610    program     static /audio/mandm/mandm/config.c
                  __pa_13   0x005a78    program     static /audio/mandm/mandm/mandm8722.c
                  __pa_13   0x00d15c    program     static C:\MCC18\v3_39\src\extended\stdclib\vfprintf.c
                 __pa_130   0x006100    program     static /audio/mandm/mandm/mandm8722.c
                 __pa_131   0x006110    program     static /audio/mandm/mandm/mandm8722.c
                 __pa_132   0x00612a    program     static /audio/mandm/mandm/mandm8722.c
                 __pa_133   0x006148    program     static /audio/mandm/mandm/mandm8722.c
                 __pa_134   0x006158    program     static /audio/mandm/mandm/mandm8722.c
                 __pa_135   0x006182    program     static /audio/mandm/mandm/mandm8722.c
                 __pa_136   0x006188    program     static /audio/mandm/mandm/mandm8722.c
                 __pa_137   0x00618e    program     static /audio/mandm/mandm/mandm8722.c
                 __pa_138   0x00619a    program     static /audio/mandm/mandm/mandm8722.c
                 __pa_139   0x0061b4    program     static /audio/mandm/mandm/mandm8722.c
                  __pa_14   0x00d17a    program     static C:\MCC18\v3_39\src\extended\stdclib\vfprintf.c
                  __pa_14   0x005a7e    program     static /audio/mandm/mandm/mandm8722.c
                  __pa_14   0x00d61a    program     static /audio/mandm/mandm/config.c
                 __pa_140   0x0061ba    program     static /audio/mandm/mandm/mandm8722.c
                 __pa_141   0x0061d2    program     static /audio/mandm/mandm/mandm8722.c
                 __pa_142   0x0061de    program     static /audio/mandm/mandm/mandm8722.c
                 __pa_143   0x0061e6    program     static /audio/mandm/mandm/mandm8722.c
                 __pa_144   0x0061fa    program     static /audio/mandm/mandm/mandm8722.c
                 __pa_145   0x006214    program     static /audio/mandm/mandm/mandm8722.c
                 __pa_146   0x00621c    program     static /audio/mandm/mandm/mandm8722.c
                 __pa_147   0x00622a    program     static /audio/mandm/mandm/mandm8722.c
                 __pa_148   0x006230    program     static /audio/mandm/mandm/mandm8722.c
                 __pa_149   0x006236    program     static /audio/mandm/mandm/mandm8722.c
                  __pa_15   0x00d622    program     static /audio/mandm/mandm/config.c
                  __pa_15   0x005a96    program     static /audio/mandm/mandm/mandm8722.c
                  __pa_15   0x00d184    program     static C:\MCC18\v3_39\src\extended\stdclib\vfprintf.c
                 __pa_150   0x006240    program     static /audio/mandm/mandm/mandm8722.c
                 __pa_151   0x00624a    program     static /audio/mandm/mandm/mandm8722.c
                 __pa_152   0x006266    program     static /audio/mandm/mandm/mandm8722.c
                 __pa_153   0x00627a    program     static /audio/mandm/mandm/mandm8722.c
                 __pa_154   0x00628e    program     static /audio/mandm/mandm/mandm8722.c
                 __pa_155   0x0062a0    program     static /audio/mandm/mandm/mandm8722.c
                 __pa_156   0x0062b2    program     static /audio/mandm/mandm/mandm8722.c
                 __pa_157   0x0062bc    program     static /audio/mandm/mandm/mandm8722.c
                 __pa_158   0x0062c6    program     static /audio/mandm/mandm/mandm8722.c
                 __pa_159   0x0062d0    program     static /audio/mandm/mandm/mandm8722.c
                  __pa_16   0x00d18a    program     static C:\MCC18\v3_39\src\extended\stdclib\vfprintf.c
                  __pa_16   0x00d62c    program     static /audio/mandm/mandm/config.c
                  __pa_16   0x005a9c    program     static /audio/mandm/mandm/mandm8722.c
                 __pa_160   0x0062e4    program     static /audio/mandm/mandm/mandm8722.c
                 __pa_161   0x0062f2    program     static /audio/mandm/mandm/mandm8722.c
                 __pa_162   0x006302    program     static /audio/mandm/mandm/mandm8722.c
                 __pa_163   0x00630a    program     static /audio/mandm/mandm/mandm8722.c
                 __pa_164   0x006312    program     static /audio/mandm/mandm/mandm8722.c
                 __pa_165   0x00631c    program     static /audio/mandm/mandm/mandm8722.c
                 __pa_166   0x006330    program     static /audio/mandm/mandm/mandm8722.c
                 __pa_167   0x006340    program     static /audio/mandm/mandm/mandm8722.c
                 __pa_168   0x006354    program     static /audio/mandm/mandm/mandm8722.c
                 __pa_169   0x006366    program     static /audio/mandm/mandm/mandm8722.c
                  __pa_17   0x00d19a    program     static C:\MCC18\v3_39\src\extended\stdclib\vfprintf.c
                  __pa_17   0x00d634    program     static /audio/mandm/mandm/config.c
                  __pa_17   0x005aa6    program     static /audio/mandm/mandm/mandm8722.c
                 __pa_170   0x006378    program     static /audio/mandm/mandm/mandm8722.c
                 __pa_171   0x006386    program     static /audio/mandm/mandm/mandm8722.c
                 __pa_172   0x006398    program     static /audio/mandm/mandm/mandm8722.c
                 __pa_173   0x0063aa    program     static /audio/mandm/mandm/mandm8722.c
                 __pa_174   0x0063bc    program     static /audio/mandm/mandm/mandm8722.c
                 __pa_175   0x0063ce    program     static /audio/mandm/mandm/mandm8722.c
                 __pa_176   0x0063e0    program     static /audio/mandm/mandm/mandm8722.c
                 __pa_177   0x0063f2    program     static /audio/mandm/mandm/mandm8722.c
                 __pa_178   0x006404    program     static /audio/mandm/mandm/mandm8722.c
                 __pa_179   0x00640e    program     static /audio/mandm/mandm/mandm8722.c
                  __pa_18   0x00d1a6    program     static C:\MCC18\v3_39\src\extended\stdclib\vfprintf.c
                  __pa_18   0x00d63e    program     static /audio/mandm/mandm/config.c
                  __pa_18   0x005ab0    program     static /audio/mandm/mandm/mandm8722.c
                 __pa_180   0x006414    program     static /audio/mandm/mandm/mandm8722.c
                 __pa_181   0x00641a    program     static /audio/mandm/mandm/mandm8722.c
                 __pa_182   0x006424    program     static /audio/mandm/mandm/mandm8722.c
                 __pa_183   0x00642e    program     static /audio/mandm/mandm/mandm8722.c
                 __pa_184   0x006438    program     static /audio/mandm/mandm/mandm8722.c
                 __pa_185   0x00643e    program     static /audio/mandm/mandm/mandm8722.c
                 __pa_186   0x00644e    program     static /audio/mandm/mandm/mandm8722.c
                 __pa_187   0x006456    program     static /audio/mandm/mandm/mandm8722.c
                 __pa_188   0x006464    program     static /audio/mandm/mandm/mandm8722.c
                 __pa_189   0x00646e    program     static /audio/mandm/mandm/mandm8722.c
                  __pa_19   0x005ab8    program     static /audio/mandm/mandm/mandm8722.c
                  __pa_19   0x00d658    program     static /audio/mandm/mandm/config.c
                  __pa_19   0x00d1b4    program     static C:\MCC18\v3_39\src\extended\stdclib\vfprintf.c
                 __pa_190   0x00647c    program     static /audio/mandm/mandm/mandm8722.c
                 __pa_191   0x006486    program     static /audio/mandm/mandm/mandm8722.c
                 __pa_192   0x006492    program     static /audio/mandm/mandm/mandm8722.c
                 __pa_193   0x0064a0    program     static /audio/mandm/mandm/mandm8722.c
                 __pa_194   0x0064ae    program     static /audio/mandm/mandm/mandm8722.c
                 __pa_195   0x0064ba    program     static /audio/mandm/mandm/mandm8722.c
                 __pa_196   0x0064c0    program     static /audio/mandm/mandm/mandm8722.c
                 __pa_197   0x0064cc    program     static /audio/mandm/mandm/mandm8722.c
                 __pa_198   0x0064da    program     static /audio/mandm/mandm/mandm8722.c
                 __pa_199   0x0064e4    program     static /audio/mandm/mandm/mandm8722.c
                   __pa_2   0x00d0b0    program     static C:\MCC18\v3_39\src\extended\stdclib\vfprintf.c
                   __pa_2   0x005934    program     static /audio/mandm/mandm/mandm8722.c
                   __pa_2   0x00d5a6    program     static /audio/mandm/mandm/config.c
                   __pa_2   0x00dab0    program     static /audio/mandm/mandm/power.c
                   __pa_2   0x008580    program     static /audio/mandm/mandm/daq.c 
                  __pa_20   0x005aca    program     static /audio/mandm/mandm/mandm8722.c
                  __pa_20   0x00d1be    program     static C:\MCC18\v3_39\src\extended\stdclib\vfprintf.c
                  __pa_20   0x00d660    program     static /audio/mandm/mandm/config.c
                 __pa_200   0x0064ee    program     static /audio/mandm/mandm/mandm8722.c
                 __pa_201   0x0064f6    program     static /audio/mandm/mandm/mandm8722.c
                 __pa_202   0x0064fa    program     static /audio/mandm/mandm/mandm8722.c
                 __pa_203   0x006502    program     static /audio/mandm/mandm/mandm8722.c
                 __pa_204   0x006510    program     static /audio/mandm/mandm/mandm8722.c
                 __pa_205   0x00651e    program     static /audio/mandm/mandm/mandm8722.c
                 __pa_206   0x006554    program     static /audio/mandm/mandm/mandm8722.c
                 __pa_207   0x00655c    program     static /audio/mandm/mandm/mandm8722.c
                 __pa_208   0x00656a    program     static /audio/mandm/mandm/mandm8722.c
                 __pa_209   0x006580    program     static /audio/mandm/mandm/mandm8722.c
                  __pa_21   0x005ad2    program     static /audio/mandm/mandm/mandm8722.c
                  __pa_21   0x00d66c    program     static /audio/mandm/mandm/config.c
                  __pa_21   0x00d1c8    program     static C:\MCC18\v3_39\src\extended\stdclib\vfprintf.c
                 __pa_210   0x006586    program     static /audio/mandm/mandm/mandm8722.c
                 __pa_211   0x00658e    program     static /audio/mandm/mandm/mandm8722.c
                 __pa_212   0x0065a0    program     static /audio/mandm/mandm/mandm8722.c
                 __pa_213   0x0065a8    program     static /audio/mandm/mandm/mandm8722.c
                 __pa_214   0x0065b0    program     static /audio/mandm/mandm/mandm8722.c
                 __pa_215   0x0065b6    program     static /audio/mandm/mandm/mandm8722.c
                 __pa_216   0x0065be    program     static /audio/mandm/mandm/mandm8722.c
                 __pa_217   0x0065c6    program     static /audio/mandm/mandm/mandm8722.c
                 __pa_218   0x0065ce    program     static /audio/mandm/mandm/mandm8722.c
                 __pa_219   0x0065d6    program     static /audio/mandm/mandm/mandm8722.c
                  __pa_22   0x005ae8    program     static /audio/mandm/mandm/mandm8722.c
                  __pa_22   0x00d678    program     static /audio/mandm/mandm/config.c
                  __pa_22   0x00d1d2    program     static C:\MCC18\v3_39\src\extended\stdclib\vfprintf.c
                 __pa_220   0x0065e6    program     static /audio/mandm/mandm/mandm8722.c
                 __pa_221   0x0065f4    program     static /audio/mandm/mandm/mandm8722.c
                 __pa_222   0x006602    program     static /audio/mandm/mandm/mandm8722.c
                 __pa_223   0x00660c    program     static /audio/mandm/mandm/mandm8722.c
                 __pa_224   0x006614    program     static /audio/mandm/mandm/mandm8722.c
                 __pa_225   0x00661c    program     static /audio/mandm/mandm/mandm8722.c
                 __pa_226   0x006626    program     static /audio/mandm/mandm/mandm8722.c
                 __pa_227   0x006632    program     static /audio/mandm/mandm/mandm8722.c
                 __pa_228   0x00663c    program     static /audio/mandm/mandm/mandm8722.c
                 __pa_229   0x006648    program     static /audio/mandm/mandm/mandm8722.c
                  __pa_23   0x00d1e0    program     static C:\MCC18\v3_39\src\extended\stdclib\vfprintf.c
                  __pa_23   0x00d67e    program     static /audio/mandm/mandm/config.c
                  __pa_23   0x005b06    program     static /audio/mandm/mandm/mandm8722.c
                 __pa_230   0x006654    program     static /audio/mandm/mandm/mandm8722.c
                 __pa_231   0x006660    program     static /audio/mandm/mandm/mandm8722.c
                 __pa_232   0x00666c    program     static /audio/mandm/mandm/mandm8722.c
                 __pa_233   0x006678    program     static /audio/mandm/mandm/mandm8722.c
                 __pa_234   0x00667e    program     static /audio/mandm/mandm/mandm8722.c
                 __pa_235   0x006688    program     static /audio/mandm/mandm/mandm8722.c
                 __pa_236   0x006692    program     static /audio/mandm/mandm/mandm8722.c
                 __pa_237   0x00669a    program     static /audio/mandm/mandm/mandm8722.c
                 __pa_238   0x0066a2    program     static /audio/mandm/mandm/mandm8722.c
                 __pa_239   0x0066ac    program     static /audio/mandm/mandm/mandm8722.c
                  __pa_24   0x005b0c    program     static /audio/mandm/mandm/mandm8722.c
                  __pa_24   0x00d684    program     static /audio/mandm/mandm/config.c
                 __pa_240   0x0066b6    program     static /audio/mandm/mandm/mandm8722.c
                 __pa_241   0x0066be    program     static /audio/mandm/mandm/mandm8722.c
                 __pa_242   0x0066c4    program     static /audio/mandm/mandm/mandm8722.c
                 __pa_243   0x0066ca    program     static /audio/mandm/mandm/mandm8722.c
                 __pa_244   0x0066d4    program     static /audio/mandm/mandm/mandm8722.c
                 __pa_245   0x0066da    program     static /audio/mandm/mandm/mandm8722.c
                  __pa_25   0x00d68e    program     static /audio/mandm/mandm/config.c
                  __pa_25   0x005b18    program     static /audio/mandm/mandm/mandm8722.c
                  __pa_26   0x00d694    program     static /audio/mandm/mandm/config.c
                  __pa_26   0x005b1e    program     static /audio/mandm/mandm/mandm8722.c
                  __pa_27   0x005b28    program     static /audio/mandm/mandm/mandm8722.c
                  __pa_27   0x00d6a0    program     static /audio/mandm/mandm/config.c
                  __pa_28   0x005b3c    program     static /audio/mandm/mandm/mandm8722.c
                  __pa_29   0x005b48    program     static /audio/mandm/mandm/mandm8722.c
                   __pa_3   0x00d5b4    program     static /audio/mandm/mandm/config.c
                   __pa_3   0x005948    program     static /audio/mandm/mandm/mandm8722.c
                   __pa_3   0x008592    program     static /audio/mandm/mandm/daq.c 
                   __pa_3   0x00daba    program     static /audio/mandm/mandm/power.c
                   __pa_3   0x00d0bc    program     static C:\MCC18\v3_39\src\extended\stdclib\vfprintf.c
                  __pa_30   0x005b50    program     static /audio/mandm/mandm/mandm8722.c
                  __pa_31   0x005b6a    program     static /audio/mandm/mandm/mandm8722.c
                  __pa_32   0x005b70    program     static /audio/mandm/mandm/mandm8722.c
                  __pa_33   0x005b7a    program     static /audio/mandm/mandm/mandm8722.c
                  __pa_34   0x005b80    program     static /audio/mandm/mandm/mandm8722.c
                  __pa_35   0x005b8a    program     static /audio/mandm/mandm/mandm8722.c
                  __pa_36   0x005b9a    program     static /audio/mandm/mandm/mandm8722.c
                  __pa_37   0x005ba6    program     static /audio/mandm/mandm/mandm8722.c
                  __pa_38   0x005bb4    program     static /audio/mandm/mandm/mandm8722.c
                  __pa_39   0x005be6    program     static /audio/mandm/mandm/mandm8722.c
                   __pa_4   0x00d0d0    program     static C:\MCC18\v3_39\src\extended\stdclib\vfprintf.c
                   __pa_4   0x00dac2    program     static /audio/mandm/mandm/power.c
                   __pa_4   0x00d5bc    program     static /audio/mandm/mandm/config.c
                   __pa_4   0x0085a8    program     static /audio/mandm/mandm/daq.c 
                   __pa_4   0x005990    program     static /audio/mandm/mandm/mandm8722.c
                  __pa_40   0x005c18    program     static /audio/mandm/mandm/mandm8722.c
                  __pa_41   0x005c22    program     static /audio/mandm/mandm/mandm8722.c
                  __pa_42   0x005c4e    program     static /audio/mandm/mandm/mandm8722.c
                  __pa_43   0x005c58    program     static /audio/mandm/mandm/mandm8722.c
                  __pa_44   0x005c6c    program     static /audio/mandm/mandm/mandm8722.c
                  __pa_45   0x005c78    program     static /audio/mandm/mandm/mandm8722.c
                  __pa_46   0x005c84    program     static /audio/mandm/mandm/mandm8722.c
                  __pa_47   0x005ca2    program     static /audio/mandm/mandm/mandm8722.c
                  __pa_48   0x005cb0    program     static /audio/mandm/mandm/mandm8722.c
                  __pa_49   0x005cb6    program     static /audio/mandm/mandm/mandm8722.c
                   __pa_5   0x00d0e2    program     static C:\MCC18\v3_39\src\extended\stdclib\vfprintf.c
                   __pa_5   0x00d5c4    program     static /audio/mandm/mandm/config.c
                   __pa_5   0x00daca    program     static /audio/mandm/mandm/power.c
                   __pa_5   0x00599a    program     static /audio/mandm/mandm/mandm8722.c
                   __pa_5   0x0085b8    program     static /audio/mandm/mandm/daq.c 
                  __pa_50   0x005cc2    program     static /audio/mandm/mandm/mandm8722.c
                  __pa_51   0x005cce    program     static /audio/mandm/mandm/mandm8722.c
                  __pa_52   0x005cd8    program     static /audio/mandm/mandm/mandm8722.c
                  __pa_53   0x005ce2    program     static /audio/mandm/mandm/mandm8722.c
                  __pa_54   0x005cee    program     static /audio/mandm/mandm/mandm8722.c
                  __pa_55   0x005cf4    program     static /audio/mandm/mandm/mandm8722.c
                  __pa_56   0x005d06    program     static /audio/mandm/mandm/mandm8722.c
                  __pa_57   0x005d18    program     static /audio/mandm/mandm/mandm8722.c
                  __pa_58   0x005d2a    program     static /audio/mandm/mandm/mandm8722.c
                  __pa_59   0x005d32    program     static /audio/mandm/mandm/mandm8722.c
                   __pa_6   0x00dad6    program     static /audio/mandm/mandm/power.c
                   __pa_6   0x0059be    program     static /audio/mandm/mandm/mandm8722.c
                   __pa_6   0x00d5d2    program     static /audio/mandm/mandm/config.c
                   __pa_6   0x00d0f2    program     static C:\MCC18\v3_39\src\extended\stdclib\vfprintf.c
                  __pa_60   0x005d38    program     static /audio/mandm/mandm/mandm8722.c
                  __pa_61   0x005d46    program     static /audio/mandm/mandm/mandm8722.c
                  __pa_62   0x005d50    program     static /audio/mandm/mandm/mandm8722.c
                  __pa_63   0x005d5c    program     static /audio/mandm/mandm/mandm8722.c
                  __pa_64   0x005d68    program     static /audio/mandm/mandm/mandm8722.c
                  __pa_65   0x005d6e    program     static /audio/mandm/mandm/mandm8722.c
                  __pa_66   0x005d78    program     static /audio/mandm/mandm/mandm8722.c
                  __pa_67   0x005d90    program     static /audio/mandm/mandm/mandm8722.c
                  __pa_68   0x005da4    program     static /audio/mandm/mandm/mandm8722.c
                  __pa_69   0x005dae    program     static /audio/mandm/mandm/mandm8722.c
                   __pa_7   0x0059e2    program     static /audio/mandm/mandm/mandm8722.c
                   __pa_7   0x00d5da    program     static /audio/mandm/mandm/config.c
                   __pa_7   0x00dae8    program     static /audio/mandm/mandm/power.c
                   __pa_7   0x00d104    program     static C:\MCC18\v3_39\src\extended\stdclib\vfprintf.c
                  __pa_70   0x005db8    program     static /audio/mandm/mandm/mandm8722.c
                  __pa_71   0x005dcc    program     static /audio/mandm/mandm/mandm8722.c
                  __pa_72   0x005dda    program     static /audio/mandm/mandm/mandm8722.c
                  __pa_73   0x005df2    program     static /audio/mandm/mandm/mandm8722.c
                  __pa_74   0x005df8    program     static /audio/mandm/mandm/mandm8722.c
                  __pa_75   0x005e06    program     static /audio/mandm/mandm/mandm8722.c
                  __pa_76   0x005e0e    program     static /audio/mandm/mandm/mandm8722.c
                  __pa_77   0x005e1c    program     static /audio/mandm/mandm/mandm8722.c
                  __pa_78   0x005e2a    program     static /audio/mandm/mandm/mandm8722.c
                  __pa_79   0x005e38    program     static /audio/mandm/mandm/mandm8722.c
                   __pa_8   0x005a00    program     static /audio/mandm/mandm/mandm8722.c
                   __pa_8   0x00d5e2    program     static /audio/mandm/mandm/config.c
                   __pa_8   0x00daf2    program     static /audio/mandm/mandm/power.c
                   __pa_8   0x00d110    program     static C:\MCC18\v3_39\src\extended\stdclib\vfprintf.c
                  __pa_80   0x005e3e    program     static /audio/mandm/mandm/mandm8722.c
                  __pa_81   0x005e48    program     static /audio/mandm/mandm/mandm8722.c
                  __pa_82   0x005e52    program     static /audio/mandm/mandm/mandm8722.c
                  __pa_83   0x005e5c    program     static /audio/mandm/mandm/mandm8722.c
                  __pa_84   0x005e70    program     static /audio/mandm/mandm/mandm8722.c
                  __pa_85   0x005e84    program     static /audio/mandm/mandm/mandm8722.c
                  __pa_86   0x005e96    program     static /audio/mandm/mandm/mandm8722.c
                  __pa_87   0x005ea8    program     static /audio/mandm/mandm/mandm8722.c
                  __pa_88   0x005eba    program     static /audio/mandm/mandm/mandm8722.c
                  __pa_89   0x005ecc    program     static /audio/mandm/mandm/mandm8722.c
                   __pa_9   0x005a20    program     static /audio/mandm/mandm/mandm8722.c
                   __pa_9   0x00d122    program     static C:\MCC18\v3_39\src\extended\stdclib\vfprintf.c
                   __pa_9   0x00dafc    program     static /audio/mandm/mandm/power.c
                   __pa_9   0x00d5ea    program     static /audio/mandm/mandm/config.c
                  __pa_90   0x005ede    program     static /audio/mandm/mandm/mandm8722.c
                  __pa_91   0x005eea    program     static /audio/mandm/mandm/mandm8722.c
                  __pa_92   0x005efc    program     static /audio/mandm/mandm/mandm8722.c
                  __pa_93   0x005f0e    program     static /audio/mandm/mandm/mandm8722.c
                  __pa_94   0x005f14    program     static /audio/mandm/mandm/mandm8722.c
                  __pa_95   0x005f20    program     static /audio/mandm/mandm/mandm8722.c
                  __pa_96   0x005f26    program     static /audio/mandm/mandm/mandm8722.c
                  __pa_97   0x005f38    program     static /audio/mandm/mandm/mandm8722.c
                  __pa_98   0x005f4a    program     static /audio/mandm/mandm/mandm8722.c
                  __pa_99   0x005f50    program     static /audio/mandm/mandm/mandm8722.c
               __string_0   0x009c7b    program     static /audio/mandm/mandm/config.c
               __string_0   0x0086ca    program     static /audio/mandm/mandm/daq.c 
               __string_1   0x009c56    program     static /audio/mandm/mandm/config.c
               __string_1   0x00868a    program     static /audio/mandm/mandm/daq.c 
              __string_10   0x009b1f    program     static /audio/mandm/mandm/config.c
             __string_118   0x009b13    program     static /audio/mandm/mandm/mandm8722.c
             __string_119   0x009b0a    program     static /audio/mandm/mandm/mandm8722.c
             __string_120   0x009af1    program     static /audio/mandm/mandm/mandm8722.c
             __string_121   0x009aea    program     static /audio/mandm/mandm/mandm8722.c
             __string_122   0x009ae7    program     static /audio/mandm/mandm/mandm8722.c
             __string_123   0x009ae2    program     static /audio/mandm/mandm/mandm8722.c
             __string_124   0x009ae0    program     static /audio/mandm/mandm/mandm8722.c
             __string_125   0x009aca    program     static /audio/mandm/mandm/mandm8722.c
             __string_126   0x009a3b    program     static /audio/mandm/mandm/mandm8722.c
             __string_127   0x00997c    program     static /audio/mandm/mandm/mandm8722.c
             __string_128   0x00991d    program     static /audio/mandm/mandm/mandm8722.c
             __string_129   0x0098a5    program     static /audio/mandm/mandm/mandm8722.c
             __string_130   0x009884    program     static /audio/mandm/mandm/mandm8722.c
             __string_131   0x00986c    program     static /audio/mandm/mandm/mandm8722.c
             __string_132   0x00985a    program     static /audio/mandm/mandm/mandm8722.c
             __string_133   0x00984e    program     static /audio/mandm/mandm/mandm8722.c
             __string_134   0x009846    program     static /audio/mandm/mandm/mandm8722.c
             __string_135   0x00983e    program     static /audio/mandm/mandm/mandm8722.c
             __string_136   0x009838    program     static /audio/mandm/mandm/mandm8722.c
             __string_137   0x00982b    program     static /audio/mandm/mandm/mandm8722.c
             __string_138   0x009821    program     static /audio/mandm/mandm/mandm8722.c
             __string_139   0x00980f    program     static /audio/mandm/mandm/mandm8722.c
             __string_140   0x0097f5    program     static /audio/mandm/mandm/mandm8722.c
             __string_141   0x0097db    program     static /audio/mandm/mandm/mandm8722.c
             __string_142   0x0097bb    program     static /audio/mandm/mandm/mandm8722.c
             __string_143   0x0097a1    program     static /audio/mandm/mandm/mandm8722.c
             __string_144   0x009788    program     static /audio/mandm/mandm/mandm8722.c
             __string_145   0x009764    program     static /audio/mandm/mandm/mandm8722.c
             __string_146   0x009741    program     static /audio/mandm/mandm/mandm8722.c
             __string_147   0x0096f4    program     static /audio/mandm/mandm/mandm8722.c
             __string_148   0x0096ad    program     static /audio/mandm/mandm/mandm8722.c
             __string_149   0x009692    program     static /audio/mandm/mandm/mandm8722.c
             __string_150   0x009655    program     static /audio/mandm/mandm/mandm8722.c
             __string_151   0x00961e    program     static /audio/mandm/mandm/mandm8722.c
             __string_152   0x009608    program     static /audio/mandm/mandm/mandm8722.c
             __string_153   0x0095f1    program     static /audio/mandm/mandm/mandm8722.c
             __string_154   0x0095a2    program     static /audio/mandm/mandm/mandm8722.c
             __string_155   0x00954c    program     static /audio/mandm/mandm/mandm8722.c
             __string_156   0x009532    program     static /audio/mandm/mandm/mandm8722.c
             __string_157   0x009513    program     static /audio/mandm/mandm/mandm8722.c
             __string_158   0x0094c1    program     static /audio/mandm/mandm/mandm8722.c
             __string_159   0x009484    program     static /audio/mandm/mandm/mandm8722.c
             __string_160   0x009467    program     static /audio/mandm/mandm/mandm8722.c
             __string_161   0x009416    program     static /audio/mandm/mandm/mandm8722.c
             __string_162   0x009404    program     static /audio/mandm/mandm/mandm8722.c
             __string_163   0x0093e9    program     static /audio/mandm/mandm/mandm8722.c
             __string_164   0x0093da    program     static /audio/mandm/mandm/mandm8722.c
             __string_165   0x0093bf    program     static /audio/mandm/mandm/mandm8722.c
             __string_166   0x0093a7    program     static /audio/mandm/mandm/mandm8722.c
             __string_167   0x009398    program     static /audio/mandm/mandm/mandm8722.c
             __string_168   0x009380    program     static /audio/mandm/mandm/mandm8722.c
             __string_169   0x009369    program     static /audio/mandm/mandm/mandm8722.c
             __string_170   0x009352    program     static /audio/mandm/mandm/mandm8722.c
             __string_171   0x00933f    program     static /audio/mandm/mandm/mandm8722.c
             __string_172   0x009314    program     static /audio/mandm/mandm/mandm8722.c
             __string_173   0x0092fe    program     static /audio/mandm/mandm/mandm8722.c
             __string_174   0x0092e8    program     static /audio/mandm/mandm/mandm8722.c
             __string_175   0x0092d2    program     static /audio/mandm/mandm/mandm8722.c
             __string_176   0x0092bc    program     static /audio/mandm/mandm/mandm8722.c
             __string_177   0x009293    program     static /audio/mandm/mandm/mandm8722.c
             __string_178   0x009272    program     static /audio/mandm/mandm/mandm8722.c
             __string_179   0x009255    program     static /audio/mandm/mandm/mandm8722.c
             __string_180   0x00922e    program     static /audio/mandm/mandm/mandm8722.c
             __string_181   0x009214    program     static /audio/mandm/mandm/mandm8722.c
             __string_182   0x0091eb    program     static /audio/mandm/mandm/mandm8722.c
             __string_183   0x0091c2    program     static /audio/mandm/mandm/mandm8722.c
             __string_184   0x009199    program     static /audio/mandm/mandm/mandm8722.c
             __string_185   0x009172    program     static /audio/mandm/mandm/mandm8722.c
             __string_186   0x00914b    program     static /audio/mandm/mandm/mandm8722.c
             __string_187   0x009124    program     static /audio/mandm/mandm/mandm8722.c
             __string_188   0x0090fb    program     static /audio/mandm/mandm/mandm8722.c
             __string_189   0x0090e3    program     static /audio/mandm/mandm/mandm8722.c
             __string_190   0x0090ba    program     static /audio/mandm/mandm/mandm8722.c
             __string_191   0x0090a5    program     static /audio/mandm/mandm/mandm8722.c
             __string_192   0x00907c    program     static /audio/mandm/mandm/mandm8722.c
             __string_193   0x00905a    program     static /audio/mandm/mandm/mandm8722.c
             __string_194   0x009033    program     static /audio/mandm/mandm/mandm8722.c
             __string_195   0x009012    program     static /audio/mandm/mandm/mandm8722.c
             __string_196   0x008feb    program     static /audio/mandm/mandm/mandm8722.c
             __string_197   0x008fc4    program     static /audio/mandm/mandm/mandm8722.c
             __string_198   0x008f9d    program     static /audio/mandm/mandm/mandm8722.c
             __string_199   0x008f87    program     static /audio/mandm/mandm/mandm8722.c
               __string_2   0x00864f    program     static /audio/mandm/mandm/daq.c 
               __string_2   0x009c31    program     static /audio/mandm/mandm/config.c
             __string_200   0x008f71    program     static /audio/mandm/mandm/mandm8722.c
             __string_201   0x008f5b    program     static /audio/mandm/mandm/mandm8722.c
             __string_202   0x008f44    program     static /audio/mandm/mandm/mandm8722.c
             __string_203   0x008f2d    program     static /audio/mandm/mandm/mandm8722.c
             __string_204   0x008f16    program     static /audio/mandm/mandm/mandm8722.c
             __string_205   0x008ef7    program     static /audio/mandm/mandm/mandm8722.c
             __string_206   0x008ed8    program     static /audio/mandm/mandm/mandm8722.c
             __string_207   0x008eb9    program     static /audio/mandm/mandm/mandm8722.c
             __string_208   0x008e9b    program     static /audio/mandm/mandm/mandm8722.c
             __string_209   0x008e77    program     static /audio/mandm/mandm/mandm8722.c
             __string_210   0x008e49    program     static /audio/mandm/mandm/mandm8722.c
             __string_211   0x008e2d    program     static /audio/mandm/mandm/mandm8722.c
             __string_212   0x008e02    program     static /audio/mandm/mandm/mandm8722.c
             __string_213   0x008de3    program     static /audio/mandm/mandm/mandm8722.c
             __string_214   0x008dbb    program     static /audio/mandm/mandm/mandm8722.c
             __string_215   0x008d8e    program     static /audio/mandm/mandm/mandm8722.c
             __string_216   0x008d73    program     static /audio/mandm/mandm/mandm8722.c
             __string_217   0x008d48    program     static /audio/mandm/mandm/mandm8722.c
             __string_218   0x008d28    program     static /audio/mandm/mandm/mandm8722.c
             __string_219   0x008d11    program     static /audio/mandm/mandm/mandm8722.c
             __string_220   0x008cfa    program     static /audio/mandm/mandm/mandm8722.c
             __string_221   0x008cde    program     static /audio/mandm/mandm/mandm8722.c
             __string_222   0x008cc0    program     static /audio/mandm/mandm/mandm8722.c
             __string_223   0x008c9a    program     static /audio/mandm/mandm/mandm8722.c
             __string_224   0x008c7d    program     static /audio/mandm/mandm/mandm8722.c
             __string_225   0x008c58    program     static /audio/mandm/mandm/mandm8722.c
             __string_226   0x008c40    program     static /audio/mandm/mandm/mandm8722.c
             __string_227   0x008c18    program     static /audio/mandm/mandm/mandm8722.c
             __string_228   0x008bf0    program     static /audio/mandm/mandm/mandm8722.c
             __string_229   0x008bc8    program     static /audio/mandm/mandm/mandm8722.c
             __string_230   0x008ba0    program     static /audio/mandm/mandm/mandm8722.c
             __string_231   0x008b89    program     static /audio/mandm/mandm/mandm8722.c
             __string_232   0x008b67    program     static /audio/mandm/mandm/mandm8722.c
             __string_233   0x008b3b    program     static /audio/mandm/mandm/mandm8722.c
             __string_234   0x008b24    program     static /audio/mandm/mandm/mandm8722.c
             __string_235   0x008b0d    program     static /audio/mandm/mandm/mandm8722.c
             __string_236   0x008af6    program     static /audio/mandm/mandm/mandm8722.c
             __string_237   0x008ae0    program     static /audio/mandm/mandm/mandm8722.c
             __string_238   0x008ac9    program     static /audio/mandm/mandm/mandm8722.c
             __string_239   0x008ab2    program     static /audio/mandm/mandm/mandm8722.c
             __string_240   0x008a86    program     static /audio/mandm/mandm/mandm8722.c
             __string_241   0x008a71    program     static /audio/mandm/mandm/mandm8722.c
             __string_242   0x008a53    program     static /audio/mandm/mandm/mandm8722.c
             __string_243   0x008a36    program     static /audio/mandm/mandm/mandm8722.c
             __string_244   0x008a18    program     static /audio/mandm/mandm/mandm8722.c
             __string_245   0x0089e3    program     static /audio/mandm/mandm/mandm8722.c
             __string_246   0x0089c0    program     static /audio/mandm/mandm/mandm8722.c
             __string_247   0x008982    program     static /audio/mandm/mandm/mandm8722.c
             __string_248   0x00896d    program     static /audio/mandm/mandm/mandm8722.c
             __string_249   0x008948    program     static /audio/mandm/mandm/mandm8722.c
             __string_250   0x00891e    program     static /audio/mandm/mandm/mandm8722.c
             __string_251   0x0088f5    program     static /audio/mandm/mandm/mandm8722.c
             __string_252   0x0088cc    program     static /audio/mandm/mandm/mandm8722.c
             __string_253   0x0088b4    program     static /audio/mandm/mandm/mandm8722.c
             __string_254   0x008895    program     static /audio/mandm/mandm/mandm8722.c
             __string_255   0x00887d    program     static /audio/mandm/mandm/mandm8722.c
             __string_256   0x008864    program     static /audio/mandm/mandm/mandm8722.c
             __string_257   0x008847    program     static /audio/mandm/mandm/mandm8722.c
             __string_258   0x008827    program     static /audio/mandm/mandm/mandm8722.c
             __string_259   0x008804    program     static /audio/mandm/mandm/mandm8722.c
             __string_260   0x0087e4    program     static /audio/mandm/mandm/mandm8722.c
             __string_261   0x0087cb    program     static /audio/mandm/mandm/mandm8722.c
             __string_262   0x0087af    program     static /audio/mandm/mandm/mandm8722.c
             __string_263   0x008796    program     static /audio/mandm/mandm/mandm8722.c
             __string_264   0x00877d    program     static /audio/mandm/mandm/mandm8722.c
             __string_265   0x008767    program     static /audio/mandm/mandm/mandm8722.c
             __string_266   0x00874a    program     static /audio/mandm/mandm/mandm8722.c
             __string_267   0x008731    program     static /audio/mandm/mandm/mandm8722.c
             __string_268   0x008708    program     static /audio/mandm/mandm/mandm8722.c
             __string_269   0x0086e7    program     static /audio/mandm/mandm/mandm8722.c
               __string_3   0x009c0f    program     static /audio/mandm/mandm/config.c
               __string_3   0x008620    program     static /audio/mandm/mandm/daq.c 
               __string_4   0x0085f1    program     static /audio/mandm/mandm/daq.c 
               __string_4   0x009bec    program     static /audio/mandm/mandm/config.c
               __string_5   0x0085c2    program     static /audio/mandm/mandm/daq.c 
               __string_5   0x009bc7    program     static /audio/mandm/mandm/config.c
               __string_6   0x009ba0    program     static /audio/mandm/mandm/config.c
               __string_7   0x009b7e    program     static /audio/mandm/mandm/config.c
               __string_8   0x009b67    program     static /audio/mandm/mandm/config.c
               __string_9   0x009b43    program     static /audio/mandm/mandm/config.c
                  __subFP   0x00bf02    program     extern C:\MCC18\v3_39\src\extended\math\addFP.asm
               __tmplbl_0   0x00de9e    program     static                          
               __tmplbl_0   0x00b360    program     static                          
               __tmplbl_1   0x00b35a    program     static                          
               __tmplbl_1   0x00de98    program     static                          
              __tmplbl_10   0x00b544    program     static                          
              __tmplbl_10   0x006cd0    program     static                          
             __tmplbl_101   0x005aca    program     static                          
             __tmplbl_102   0x005aca    program     static                          
             __tmplbl_103   0x006366    program     static                          
             __tmplbl_104   0x006366    program     static                          
             __tmplbl_105   0x005aca    program     static                          
             __tmplbl_106   0x005aca    program     static                          
             __tmplbl_107   0x006464    program     static                          
             __tmplbl_108   0x006464    program     static                          
             __tmplbl_109   0x005aca    program     static                          
              __tmplbl_11   0x00b568    program     static                          
              __tmplbl_11   0x006cac    program     static                          
             __tmplbl_110   0x005aca    program     static                          
             __tmplbl_115   0x005aca    program     static                          
             __tmplbl_117   0x005aca    program     static                          
             __tmplbl_118   0x005aca    program     static                          
              __tmplbl_12   0x00b562    program     static                          
              __tmplbl_12   0x006e58    program     static                          
              __tmplbl_13   0x00b58a    program     static                          
              __tmplbl_13   0x006f2e    program     static                          
             __tmplbl_133   0x005aca    program     static                          
             __tmplbl_135   0x005b80    program     static                          
             __tmplbl_136   0x00642e    program     static                          
             __tmplbl_137   0x00642e    program     static                          
             __tmplbl_138   0x00642e    program     static                          
             __tmplbl_139   0x00642e    program     static                          
              __tmplbl_14   0x006f0a    program     static                          
              __tmplbl_14   0x00b584    program     static                          
             __tmplbl_144   0x002abe    program     static                          
             __tmplbl_145   0x002b62    program     static                          
             __tmplbl_146   0x002be2    program     static                          
             __tmplbl_147   0x002c0c    program     static                          
             __tmplbl_148   0x002d56    program     static                          
             __tmplbl_149   0x002dfa    program     static                          
              __tmplbl_15   0x0070b8    program     static                          
              __tmplbl_15   0x00b5b2    program     static                          
             __tmplbl_150   0x002e7a    program     static                          
             __tmplbl_151   0x002ea4    program     static                          
             __tmplbl_152   0x0064f6    program     static                          
             __tmplbl_153   0x0064f6    program     static                          
             __tmplbl_154   0x005aca    program     static                          
             __tmplbl_155   0x005b80    program     static                          
             __tmplbl_156   0x005aca    program     static                          
              __tmplbl_16   0x00b5ac    program     static                          
              __tmplbl_16   0x007186    program     static                          
              __tmplbl_17   0x00b5da    program     static                          
              __tmplbl_17   0x007162    program     static                          
              __tmplbl_18   0x00b5d4    program     static                          
              __tmplbl_18   0x007914    program     static                          
              __tmplbl_19   0x00788c    program     static                          
              __tmplbl_19   0x00b62e    program     static                          
               __tmplbl_2   0x00b382    program     static                          
              __tmplbl_20   0x00b628    program     static                          
              __tmplbl_20   0x007b12    program     static                          
              __tmplbl_21   0x007b0c    program     static                          
              __tmplbl_21   0x00b686    program     static                          
              __tmplbl_22   0x00b6b0    program     static                          
              __tmplbl_23   0x0068fc    program     static                          
              __tmplbl_23   0x00b8c4    program     static                          
              __tmplbl_24   0x006a1c    program     static                          
              __tmplbl_24   0x00b912    program     static                          
              __tmplbl_25   0x006b8a    program     static                          
              __tmplbl_25   0x00b93a    program     static                          
              __tmplbl_26   0x006de2    program     static                          
              __tmplbl_26   0x00b9c4    program     static                          
              __tmplbl_27   0x00bcdc    program     static                          
              __tmplbl_27   0x007042    program     static                          
              __tmplbl_28   0x007b0a    program     static                          
              __tmplbl_28   0x00bc9e    program     static                          
              __tmplbl_29   0x00bd66    program     static                          
               __tmplbl_3   0x00b37c    program     static                          
               __tmplbl_3   0x000290    program     static                          
              __tmplbl_30   0x00bd44    program     static                          
              __tmplbl_31   0x00bd3e    program     static                          
              __tmplbl_32   0x00bd38    program     static                          
              __tmplbl_33   0x00bdf0    program     static                          
              __tmplbl_34   0x00be3e    program     static                          
              __tmplbl_35   0x00be38    program     static                          
              __tmplbl_36   0x00bc9c    program     static                          
               __tmplbl_4   0x00b3f0    program     static                          
               __tmplbl_4   0x00033e    program     static                          
               __tmplbl_5   0x00b520    program     static                          
               __tmplbl_6   0x00b518    program     static                          
              __tmplbl_68   0x002bf4    program     static                          
              __tmplbl_69   0x002be4    program     static                          
               __tmplbl_7   0x00b536    program     static                          
              __tmplbl_70   0x002e8c    program     static                          
              __tmplbl_71   0x002e7c    program     static                          
              __tmplbl_72   0x002ed0    program     static                          
              __tmplbl_73   0x002ec6    program     static                          
              __tmplbl_74   0x00332c    program     static                          
              __tmplbl_75   0x003326    program     static                          
              __tmplbl_76   0x003320    program     static                          
              __tmplbl_77   0x003638    program     static                          
              __tmplbl_78   0x003630    program     static                          
              __tmplbl_79   0x00387c    program     static                          
               __tmplbl_8   0x00b52e    program     static                          
              __tmplbl_80   0x003876    program     static                          
              __tmplbl_81   0x003870    program     static                          
              __tmplbl_82   0x003b88    program     static                          
              __tmplbl_83   0x003b80    program     static                          
              __tmplbl_84   0x003d0a    program     static                          
              __tmplbl_85   0x003f48    program     static                          
              __tmplbl_86   0x00467c    program     static                          
              __tmplbl_87   0x0045f6    program     static                          
              __tmplbl_88   0x004fc2    program     static                          
              __tmplbl_89   0x004f88    program     static                          
               __tmplbl_9   0x006c00    program     static                          
               __tmplbl_9   0x00b54c    program     static                          
              __tmplbl_90   0x004fbe    program     static                          
              __tmplbl_91   0x0058ce    program     static                          
              __tmplbl_92   0x0058c8    program     static                          
              __tmplbl_93   0x005aca    program     static                          
              __tmplbl_94   0x005aca    program     static                          
              __tmplbl_95   0x005aca    program     static                          
              __tmplbl_96   0x005aca    program     static                          
              __tmplbl_97   0x005aca    program     static                          
              __tmplbl_98   0x005aca    program     static                          
              __tmplbl_99   0x005aca    program     static                          
            __zero_memory   0x00e96c    program     extern C:\MCC18\v3_39\src\extended\proc\p18F8722.asm
                _do_cinit   0x00dff4    program     extern C:\MCC18\v3_39\src\extended\startup\c018iz_e.c
            _early16uexit   0x00c912    program     extern C:\MCC18\v3_39\src\extended\math\div16u.asm
            _early32uexit   0x00c484    program     extern C:\MCC18\v3_39\src\extended\math\div32u.asm
                   _entry   0x000000    program     extern C:\MCC18\v3_39\src\extended\startup\c018iz_e.c
                   _false   0x00c4c8    program     static C:\MCC18\v3_39\src\extended\math\div32u.asm
                 _startup   0x00e98c    program     extern C:\MCC18\v3_39\src\extended\startup\c018iz_e.c
              _usart_putc   0x00e9aa    program     extern C:\MCC18\v3_39\src\pmc_common\USART\_usartpc.asm
               _user_putc   0x000006    program     extern C:\MCC18\v3_39\src\extended\stdclib\_user_putc.c
                    adcg0   0x00a2b7    program     extern /audio/mandm/mandm/mandm_msg.h
                    adcg1   0x00a2f7    program     extern /audio/mandm/mandm/mandm_msg.h
                    adcg2   0x00a322    program     extern /audio/mandm/mandm/mandm_msg.h
                    adcg3   0x00a355    program     extern /audio/mandm/mandm/mandm_msg.h
                    adcg4   0x00a3c1    program     extern /audio/mandm/mandm/mandm_msg.h
                     ahfp   0x0010d4    program     extern /audio/mandm/mandm/mandm8722.c
                 almcode0   0x00aa75    program     extern /audio/mandm/mandm/mandm_msg.h
                 almcode1   0x00aa95    program     extern /audio/mandm/mandm/mandm_msg.h
                almcode10   0x00ac3c    program     extern /audio/mandm/mandm/mandm_msg.h
                almcode11   0x00ac7d    program     extern /audio/mandm/mandm/mandm_msg.h
                almcode12   0x00aca3    program     extern /audio/mandm/mandm/mandm_msg.h
                almcode13   0x00acc9    program     extern /audio/mandm/mandm/mandm_msg.h
                almcode14   0x00acf5    program     extern /audio/mandm/mandm/mandm_msg.h
                almcode15   0x00ad0d    program     extern /audio/mandm/mandm/mandm_msg.h
                almcode16   0x00ad24    program     extern /audio/mandm/mandm/mandm_msg.h
                almcode17   0x00ad51    program     extern /audio/mandm/mandm/mandm_msg.h
                 almcode2   0x00aac5    program     extern /audio/mandm/mandm/mandm_msg.h
                 almcode3   0x00aae8    program     extern /audio/mandm/mandm/mandm_msg.h
                 almcode4   0x00ab0b    program     extern /audio/mandm/mandm/mandm_msg.h
                 almcode5   0x00ab3c    program     extern /audio/mandm/mandm/mandm_msg.h
                 almcode6   0x00ab70    program     extern /audio/mandm/mandm/mandm_msg.h
                 almcode7   0x00aba5    program     extern /audio/mandm/mandm/mandm_msg.h
                 almcode8   0x00abde    program     extern /audio/mandm/mandm/mandm_msg.h
                 almcode9   0x00ac0c    program     extern /audio/mandm/mandm/mandm_msg.h
                almcode99   0x00ad70    program     extern /audio/mandm/mandm/mandm_msg.h
                 ansidraw   0x00153e    program     extern /audio/mandm/mandm/mandm8722.c
              battbuffer0   0x00a963    program     extern /audio/mandm/mandm/mandm_msg.h
              battheader0   0x00a82e    program     extern /audio/mandm/mandm/mandm_msg.h
              battheader1   0x00a8a2    program     extern /audio/mandm/mandm/mandm_msg.h
                blink_led   0x00d9e2    program     extern /audio/mandm/mandm/power.c
             buzzer_ticks   0x00bebe    program     extern /audio/mandm/mandm/mandm_vector.c
                 charger0   0x00b057    program     extern /audio/mandm/mandm/mandm_msg.h
                 charger1   0x00b08e    program     extern /audio/mandm/mandm/mandm_msg.h
                 charger2   0x00b0c8    program     extern /audio/mandm/mandm/mandm_msg.h
                 charger3   0x00b106    program     extern /audio/mandm/mandm/mandm_msg.h
                 charger4   0x00b125    program     extern /audio/mandm/mandm/mandm_msg.h
                charger99   0x00b145    program     extern /audio/mandm/mandm/mandm_msg.h
              check_alarm   0x001158    program     extern /audio/mandm/mandm/mandm8722.c
              check_cable   0x001bd4    program     extern /audio/mandm/mandm/mandm8722.c
                checktime   0x000348    program     extern /audio/mandm/mandm/mandm8722.c
            checktime_cal   0x0004aa    program     extern /audio/mandm/mandm/mandm8722.c
            checktime_eep   0x000520    program     extern /audio/mandm/mandm/mandm8722.c
          checktime_motor   0x000434    program     extern /audio/mandm/mandm/mandm8722.c
         checktime_select   0x0003be    program     extern /audio/mandm/mandm/mandm8722.c
          checktime_track   0x000596    program     extern /audio/mandm/mandm/mandm8722.c
                chrgcode0   0x00ad71    program     extern /audio/mandm/mandm/mandm_msg.h
                chrgcode1   0x00ada2    program     extern /audio/mandm/mandm/mandm_msg.h
               chrgcode10   0x00af1c    program     extern /audio/mandm/mandm/mandm_msg.h
               chrgcode11   0x00af49    program     extern /audio/mandm/mandm/mandm_msg.h
               chrgcode12   0x00af74    program     extern /audio/mandm/mandm/mandm_msg.h
               chrgcode13   0x00afa2    program     extern /audio/mandm/mandm/mandm_msg.h
               chrgcode14   0x00afcf    program     extern /audio/mandm/mandm/mandm_msg.h
               chrgcode15   0x00b003    program     extern /audio/mandm/mandm/mandm_msg.h
               chrgcode16   0x00b02d    program     extern /audio/mandm/mandm/mandm_msg.h
                chrgcode2   0x00add8    program     extern /audio/mandm/mandm/mandm_msg.h
                chrgcode3   0x00ae04    program     extern /audio/mandm/mandm/mandm_msg.h
                chrgcode4   0x00ae35    program     extern /audio/mandm/mandm/mandm_msg.h
                chrgcode5   0x00ae6d    program     extern /audio/mandm/mandm/mandm_msg.h
                chrgcode6   0x00ae80    program     extern /audio/mandm/mandm/mandm_msg.h
                chrgcode7   0x00aea0    program     extern /audio/mandm/mandm/mandm_msg.h
                chrgcode8   0x00aecd    program     extern /audio/mandm/mandm/mandm_msg.h
                chrgcode9   0x00aef7    program     extern /audio/mandm/mandm/mandm_msg.h
               clear_crit   0x00dc1c    program     extern /audio/mandm/mandm/crit.c
                  clr_lcd   0x00065c    program     extern /audio/mandm/mandm/mandm8722.c
                compare_l   0x00e982    program     static C:\MCC18\v3_39\src\extended\proc\p18F8722.asm
               config_pic   0x00de6e    program     extern /audio/mandm/mandm/hwconf.c
                copy_loop   0x00e066    program     static                          
            copy_one_byte   0x00e06c    program     static                          
          default_display   0x0025e2    program     extern /audio/mandm/mandm/mandm8722.c
              display_cal   0x0050a8    program     extern /audio/mandm/mandm/mandm8722.c
                  divert0   0x00aa33    program     extern /audio/mandm/mandm/mandm_msg.h
                  divert1   0x00aa53    program     extern /audio/mandm/mandm/mandm_msg.h
                 divert99   0x00aa74    program     extern /audio/mandm/mandm/mandm_msg.h
                divmod16u   0x00c914    program     static C:\MCC18\v3_39\src\extended\math\div16u.asm
                divmod32u   0x00c486    program     static C:\MCC18\v3_39\src\extended\math\div32u.asm
                     done   0x00e090    program     static                          
             done_copying   0x00e07a    program     static                          
           e220_m_display   0x002380    program     extern /audio/mandm/mandm/mandm8722.c
         e220_qei_display   0x002526    program     extern /audio/mandm/mandm/mandm8722.c
            e220_qei_exer   0x001ffa    program     extern /audio/mandm/mandm/mandm8722.c
                   e_crit   0x00dbb4    program     extern /audio/mandm/mandm/crit.c
              emo_display   0x002644    program     extern /audio/mandm/mandm/mandm8722.c
                emotor_cw   0x00d970    program     extern /audio/mandm/mandm/power.c
        emotor_is_all_off   0x00d990    program     extern /audio/mandm/mandm/power.c
             emotor_power   0x00d918    program     extern /audio/mandm/mandm/power.c
         emotor_power_off   0x00d9ae    program     extern /audio/mandm/mandm/power.c
          emotor_power_on   0x00d9b4    program     extern /audio/mandm/mandm/power.c
            emotor_relays   0x00d950    program     extern /audio/mandm/mandm/power.c
        emotor_slow_start   0x00d954    program     extern /audio/mandm/mandm/power.c
         emotor_slow_stop   0x00d96c    program     extern /audio/mandm/mandm/power.c
        emotor_switch_ccw   0x00d99a    program     extern /audio/mandm/mandm/power.c
         emotor_switch_cw   0x00d9a8    program     extern /audio/mandm/mandm/power.c
               emotor_v24   0x00d9ba    program     extern /audio/mandm/mandm/power.c
                  endloop   0x00c93a    program     static C:\MCC18\v3_39\src\extended\math\div16u.asm
                exerciser   0x002246    program     extern /audio/mandm/mandm/mandm8722.c
          fail_all_motors   0x002734    program     extern /audio/mandm/mandm/mandm8722.c
                fail_safe   0x00149c    program     extern /audio/mandm/mandm/mandm8722.c
                  get_hid   0x001d54    program     extern /audio/mandm/mandm/mandm8722.c
            gsd_m_display   0x00230c    program     extern /audio/mandm/mandm/mandm8722.c
                   hello0   0x00a639    program     extern /audio/mandm/mandm/mandm_msg.h
                   hello1   0x00a686    program     extern /audio/mandm/mandm/mandm_msg.h
           help_m_display   0x0022b8    program     extern /audio/mandm/mandm/mandm8722.c
                 hid_menu   0x002298    program     extern /audio/mandm/mandm/mandm8722.c
                       hm   0x000ec4    program     extern /audio/mandm/mandm/mandm8722.c
                      hms   0x000e34    program     extern /audio/mandm/mandm/mandm8722.c
                    hold0   0x00a693    program     extern /audio/mandm/mandm/mandm_msg.h
                    hold1   0x00a6f1    program     extern /audio/mandm/mandm/mandm_msg.h
             hold_process   0x00079c    program     extern /audio/mandm/mandm/mandm8722.c
                idle_loop   0x00be90    program     extern /audio/mandm/mandm/mandm_vector.c
                 init_lcd   0x005156    program     extern /audio/mandm/mandm/mandm8722.c
           init_motordata   0x00d1e6    program     extern /audio/mandm/mandm/config.c
          is_led_blinking   0x00da80    program     extern /audio/mandm/mandm/power.c
                  isdigit   0x00e948    program     extern C:\MCC18\v3_39\src\extended\stdclib\isdigit.asm
                 jANotInf   0x00c834    program     static C:\MCC18\v3_39\src\extended\math\mulFP.asm
                 jANotInf   0x00bf48    program     static C:\MCC18\v3_39\src\extended\math\addFP.asm
                 jANotNeg   0x00bfdc    program     static C:\MCC18\v3_39\src\extended\math\addFP.asm
              jAandWsetup   0x00bfac    program     static C:\MCC18\v3_39\src\extended\math\addFP.asm
                  jAisNeg   0x00c662    program     static C:\MCC18\v3_39\src\extended\math\compFP.asm
                 jAltBexp   0x00bf9a    program     static C:\MCC18\v3_39\src\extended\math\addFP.asm
                jBANotInf   0x00bf3e    program     static C:\MCC18\v3_39\src\extended\math\addFP.asm
                 jBNotInf   0x00bf56    program     static C:\MCC18\v3_39\src\extended\math\addFP.asm
                     jBeg   0x00c168    program     static C:\MCC18\v3_39\src\extended\math\cast16FP.asm
                     jBeg   0x00c1aa    program     static C:\MCC18\v3_39\src\extended\math\cast32FP.asm
                     jBeg   0x00bf08    program     static C:\MCC18\v3_39\src\extended\math\addFP.asm
              jBothFinite   0x00c842    program     static C:\MCC18\v3_39\src\extended\math\mulFP.asm
             jBothNotZero   0x00c604    program     static C:\MCC18\v3_39\src\extended\math\compFP.asm
             jBothNotZero   0x00c84e    program     static C:\MCC18\v3_39\src\extended\math\mulFP.asm
            jDifOrPosSign   0x00bf6a    program     static C:\MCC18\v3_39\src\extended\math\addFP.asm
              jDivANotInf   0x00c538    program     static C:\MCC18\v3_39\src\extended\math\divFP.asm
             jDivANotZero   0x00c54c    program     static C:\MCC18\v3_39\src\extended\math\divFP.asm
                 jDivLoop   0x00c574    program     static C:\MCC18\v3_39\src\extended\math\divFP.asm
                 jDivNext   0x00c59a    program     static C:\MCC18\v3_39\src\extended\math\divFP.asm
                    jDone   0x00c262    program     static C:\MCC18\v3_39\src\extended\math\castFP16.asm
                    jDone   0x00c2f8    program     static C:\MCC18\v3_39\src\extended\math\castFP32.asm
                      jEQ   0x00c620    program     static C:\MCC18\v3_39\src\extended\math\compFP.asm
                     jEnd   0x00de50    program     static C:\MCC18\v3_39\src\extended\stdclib\sncpyp2r.asm
                     jEnd   0x00ddf4    program     static C:\MCC18\v3_39\src\extended\stdclib\strncpy.asm
                     jEnd   0x00dd96    program     static C:\MCC18\v3_39\src\extended\stdclib\slenpgm.asm
                     jEnd   0x00dd5e    program     static C:\MCC18\v3_39\src\extended\stdclib\scpyp2r.asm
                     jEnd   0x00de6c    program     static C:\MCC18\v3_39\src\extended\stdclib\strlen.asm
                     jEnd   0x00dd18    program     static C:\MCC18\v3_39\src\extended\stdclib\memcmp.asm
                    jExch   0x00c62c    program     static C:\MCC18\v3_39\src\extended\math\compFP.asm
                    jExit   0x00c690    program     static C:\MCC18\v3_39\src\extended\math\compFP.asm
                    jExit   0x00c308    program     static C:\MCC18\v3_39\src\extended\math\castFP32.asm
                    jExit   0x00c0c0    program     static C:\MCC18\v3_39\src\extended\math\packFP.asm
                    jExit   0x00c26a    program     static C:\MCC18\v3_39\src\extended\math\castFP16.asm
                   jExpEQ   0x00c672    program     static C:\MCC18\v3_39\src\extended\math\compFP.asm
                   jFinal   0x00c656    program     static C:\MCC18\v3_39\src\extended\math\compFP.asm
               jFinalSign   0x00c044    program     static C:\MCC18\v3_39\src\extended\math\addFP.asm
                jHaveZero   0x00c84a    program     static C:\MCC18\v3_39\src\extended\math\mulFP.asm
                    jLoop   0x00c2cc    program     static C:\MCC18\v3_39\src\extended\math\castFP32.asm
                    jLoop   0x00de62    program     static C:\MCC18\v3_39\src\extended\stdclib\strlen.asm
                    jLoop   0x00de2c    program     static C:\MCC18\v3_39\src\extended\stdclib\sncpyp2r.asm
                    jLoop   0x00ddd2    program     static C:\MCC18\v3_39\src\extended\stdclib\strncpy.asm
                    jLoop   0x00dd7e    program     static C:\MCC18\v3_39\src\extended\stdclib\slenpgm.asm
                    jLoop   0x00dd54    program     static C:\MCC18\v3_39\src\extended\stdclib\scpyp2r.asm
                    jLoop   0x00dcfc    program     static C:\MCC18\v3_39\src\extended\stdclib\memcmp.asm
                    jLoop   0x00c242    program     static C:\MCC18\v3_39\src\extended\math\castFP16.asm
                jLoopExit   0x00c2e0    program     static C:\MCC18\v3_39\src\extended\math\castFP32.asm
                jLoopExit   0x00c252    program     static C:\MCC18\v3_39\src\extended\math\castFP16.asm
                   jMatch   0x00e968    program     static C:\MCC18\v3_39\src\extended\stdclib\isdigit.asm
                     jMax   0x00c216    program     static C:\MCC18\v3_39\src\extended\math\castFP16.asm
                     jMax   0x00c29c    program     static C:\MCC18\v3_39\src\extended\math\castFP32.asm
                  jMaxNeg   0x00c224    program     static C:\MCC18\v3_39\src\extended\math\castFP16.asm
                  jMaxNeg   0x00c2ae    program     static C:\MCC18\v3_39\src\extended\math\castFP32.asm
                  jMaxPos   0x00c21a    program     static C:\MCC18\v3_39\src\extended\math\castFP16.asm
                  jMaxPos   0x00c2a0    program     static C:\MCC18\v3_39\src\extended\math\castFP32.asm
                      jNE   0x00c624    program     static C:\MCC18\v3_39\src\extended\math\compFP.asm
                jNoAdjust   0x00c598    program     static C:\MCC18\v3_39\src\extended\math\divFP.asm
                  jNoExch   0x00c64c    program     static C:\MCC18\v3_39\src\extended\math\compFP.asm
                 jNoMatch   0x00e96a    program     static C:\MCC18\v3_39\src\extended\stdclib\isdigit.asm
             jNotBothZero   0x00bf6e    program     static C:\MCC18\v3_39\src\extended\math\addFP.asm
                  jNotInf   0x00c232    program     static C:\MCC18\v3_39\src\extended\math\castFP16.asm
                  jNotInf   0x00c2ba    program     static C:\MCC18\v3_39\src\extended\math\castFP32.asm
                  jNotNeg   0x00c18e    program     static C:\MCC18\v3_39\src\extended\math\cast16FP.asm
                  jNotNeg   0x00c1d8    program     static C:\MCC18\v3_39\src\extended\math\cast32FP.asm
                  jPkLoop   0x00c05a    program     static C:\MCC18\v3_39\src\extended\math\packFP.asm
             jPkRoundDone   0x00c0a4    program     static C:\MCC18\v3_39\src\extended\math\packFP.asm
               jPkRoundIt   0x00c08c    program     static C:\MCC18\v3_39\src\extended\math\packFP.asm
             jPkShiftDone   0x00c076    program     static C:\MCC18\v3_39\src\extended\math\packFP.asm
           jReturnPosInf0   0x00c0ea    program     static C:\MCC18\v3_39\src\extended\math\packFP.asm
                  jRotate   0x00c67e    program     static C:\MCC18\v3_39\src\extended\math\compFP.asm
                   jShift   0x00c668    program     static C:\MCC18\v3_39\src\extended\math\compFP.asm
               jShiftDone   0x00c004    program     static C:\MCC18\v3_39\src\extended\math\addFP.asm
               jShiftLoop   0x00bff6    program     static C:\MCC18\v3_39\src\extended\math\addFP.asm
                jSignDone   0x00c034    program     static C:\MCC18\v3_39\src\extended\math\addFP.asm
                 jSignsEQ   0x00c608    program     static C:\MCC18\v3_39\src\extended\math\compFP.asm
                  jUnpkA1   0x00c110    program     static C:\MCC18\v3_39\src\extended\math\unpackFP.asm
                  jUnpkA2   0x00c128    program     static C:\MCC18\v3_39\src\extended\math\unpackFP.asm
                 jUnpkANZ   0x00c11e    program     static C:\MCC18\v3_39\src\extended\math\unpackFP.asm
                  jUnpkB1   0x00c140    program     static C:\MCC18\v3_39\src\extended\math\unpackFP.asm
                  jUnpkB2   0x00c158    program     static C:\MCC18\v3_39\src\extended\math\unpackFP.asm
                 jUnpkBNZ   0x00c14e    program     static C:\MCC18\v3_39\src\extended\math\unpackFP.asm
                 jUnpkNaN   0x00c132    program     static C:\MCC18\v3_39\src\extended\math\unpackFP.asm
                 jWNotNeg   0x00bff0    program     static C:\MCC18\v3_39\src\extended\math\addFP.asm
                   jWr123   0x00c2a6    program     static C:\MCC18\v3_39\src\extended\math\castFP32.asm
                  jWrZ123   0x00c2b6    program     static C:\MCC18\v3_39\src\extended\math\castFP32.asm
                    jZero   0x00c2b4    program     static C:\MCC18\v3_39\src\extended\math\castFP32.asm
                    jZero   0x00c22c    program     static C:\MCC18\v3_39\src\extended\math\castFP16.asm
               jZero1and2   0x00c0ee    program     static C:\MCC18\v3_39\src\extended\math\packFP.asm
                 keycmds0   0x00a79a    program     extern /audio/mandm/mandm/mandm_msg.h
                 keycmds1   0x00a7e4    program     extern /audio/mandm/mandm/mandm_msg.h
                     loop   0x00c91e    program     static C:\MCC18\v3_39\src\extended\math\div16u.asm
                     loop   0x00e99e    program     static                          
                     loop   0x00e9ba    program     static C:\MCC18\v3_39\src\pmc_common\USART\_usartpc.asm
                     loop   0x00c494    program     static C:\MCC18\v3_39\src\extended\math\div32u.asm
                   loop_h   0x00e97a    program     static C:\MCC18\v3_39\src\extended\proc\p18F8722.asm
                   loop_l   0x00e984    program     static C:\MCC18\v3_39\src\extended\proc\p18F8722.asm
                 lowbatt0   0x00a1a0    program     extern /audio/mandm/mandm/mandm_msg.h
                lp_filter   0x00066c    program     extern /audio/mandm/mandm/mandm8722.c
                     main   0x0051b6    program     extern /audio/mandm/mandm/mandm8722.c
                   memcmp   0x00dcdc    program     extern C:\MCC18\v3_39\src\extended\stdclib\memcmp.asm
          menuselect_free   0x009e88    program     extern /audio/mandm/mandm/mandm_msg.h
         menuselect_track   0x00a014    program     extern /audio/mandm/mandm/mandm_msg.h
                 menutext   0x009dbf    program     extern /audio/mandm/mandm/mandm_msg.h
        menutext_template   0x009cf6    program     extern /audio/mandm/mandm/mandm_msg.h
             modelheader0   0x00a92c    program     extern /audio/mandm/mandm/mandm_msg.h
             modelheader1   0x00a94b    program     extern /audio/mandm/mandm/mandm_msg.h
            motor_control   0x00d6dc    program     extern /audio/mandm/mandm/power.c
            my_struct_cmp   0x00d6a6    program     extern /audio/mandm/mandm/power.c
                 nav_menu   0x001fe6    program     extern /audio/mandm/mandm/mandm8722.c
              nonqei_exer   0x002120    program     extern /audio/mandm/mandm/mandm8722.c
                     putc   0x00e29c    program     extern C:\MCC18\v3_39\src\extended\stdclib\putc.c
                    putc2   0x00063e    program     extern /audio/mandm/mandm/mandm8722.c
              putrs2USART   0x00e366    program     extern C:\MCC18\v3_39\src\pmc_common\USART\u2putrs.c
                putrsXLCD   0x00e410    program     extern /audio/mandm/mandm/xlcd/putrxlcd.c
               puts2USART   0x00e45e    program     extern C:\MCC18\v3_39\src\pmc_common\USART\u2puts.c
                 putsXLCD   0x00e702    program     extern /audio/mandm/mandm/xlcd/putsxlcd.c
                     rand   0x00e690    program     extern C:\MCC18\v3_39\src\extended\stdclib\rand.asm
         read_data_eeprom   0x00dc8a    program     extern /audio/mandm/mandm/crit.c
                relay_v24   0x00d9dc    program     extern /audio/mandm/mandm/power.c
                  run_cal   0x0027b6    program     extern /audio/mandm/mandm/mandm8722.c
                   s_crit   0x00db1c    program     extern /audio/mandm/mandm/crit.c
                 s_digits   0x00e9f4    program     static C:\MCC18\v3_39\src\extended\stdclib\vfprintf.c
            s_put_n_chars   0x00c9d0    program     static C:\MCC18\v3_39\src\extended\stdclib\vfprintf.c
                  sddump0   0x00a98b    program     extern /audio/mandm/mandm/mandm_msg.h
                  sddump1   0x00a9b9    program     extern /audio/mandm/mandm/mandm_msg.h
                  sddump2   0x00a9ef    program     extern /audio/mandm/mandm/mandm_msg.h
                  sddump3   0x00aa06    program     extern /audio/mandm/mandm/mandm_msg.h
           set_all_motors   0x00278c    program     extern /audio/mandm/mandm/mandm8722.c
         slow_timer_start   0x00bee0    program     extern /audio/mandm/mandm/mandm_vector.c
                     spin   0x009c7e    program     extern /audio/mandm/mandm/mandm_msg.h
                 spinners   0x000074    program     extern /audio/mandm/mandm/mandm8722.c
                  sprintf   0x00e22a    program     extern C:\MCC18\v3_39\src\extended\stdclib\sprintf.c
                    srand   0x00e682    program     extern C:\MCC18\v3_39\src\extended\stdclib\rand.asm
              start_delay   0x000656    program     extern /audio/mandm/mandm/mandm8722.c
                start_pic   0x00dfd0    program     extern /audio/mandm/mandm/hwconf.c
       start_workerthread   0x00dff0    program     extern /audio/mandm/mandm/hwconf.c
            strcpypgm2ram   0x00dd2e    program     extern C:\MCC18\v3_39\src\extended\stdclib\scpyp2r.asm
                   strlen   0x00de52    program     extern C:\MCC18\v3_39\src\extended\stdclib\strlen.asm
                strlenpgm   0x00dd60    program     extern C:\MCC18\v3_39\src\extended\stdclib\slenpgm.asm
                  strncpy   0x00ddaa    program     extern C:\MCC18\v3_39\src\extended\stdclib\strncpy.asm
           strncpypgm2ram   0x00de06    program     extern C:\MCC18\v3_39\src\extended\stdclib\sncpyp2r.asm
                    sync0   0x00a72a    program     extern /audio/mandm/mandm/mandm_msg.h
                    sync1   0x00a75e    program     extern /audio/mandm/mandm/mandm_msg.h
                    sync2   0x00a77c    program     extern /audio/mandm/mandm/mandm_msg.h
              system_data   0x0007de    program     extern /audio/mandm/mandm/mandm8722.c
              system_help   0x000e02    program     extern /audio/mandm/mandm/mandm8722.c
                term_time   0x000754    program     extern /audio/mandm/mandm/mandm8722.c
                     test   0x00e00e    program     static                          
             tick_handler   0x00b146    program     extern /audio/mandm/mandm/mandm_vector.c
                 tick_int   0x000008    program     extern /audio/mandm/mandm/mandm8722.c
              track_motor   0x0016da    program     extern /audio/mandm/mandm/mandm8722.c
                   tweak0   0x00a3f8    program     extern /audio/mandm/mandm/mandm_msg.h
                   tweak1   0x00a495    program     extern /audio/mandm/mandm/mandm_msg.h
                   tweak2   0x00a4be    program     extern /audio/mandm/mandm/mandm_msg.h
                   tweak3   0x00a4e2    program     extern /audio/mandm/mandm/mandm_msg.h
                   tweak4   0x00a561    program     extern /audio/mandm/mandm/mandm_msg.h
                   tweak5   0x00a591    program     extern /audio/mandm/mandm/mandm_msg.h
                 tweak_t1   0x00a617    program     extern /audio/mandm/mandm/mandm_msg.h
                 tweak_t2   0x00a61c    program     extern /audio/mandm/mandm/mandm_msg.h
                 tweak_t3   0x00a620    program     extern /audio/mandm/mandm/mandm_msg.h
                 tweak_t4   0x00a624    program     extern /audio/mandm/mandm/mandm_msg.h
                 tweak_tw   0x00a629    program     extern /audio/mandm/mandm/mandm_msg.h
              update_hist   0x00021c    program     extern /audio/mandm/mandm/mandm8722.c
          update_lcd_menu   0x00157c    program     extern /audio/mandm/mandm/mandm8722.c
          v810_ms_display   0x0024f0    program     extern /audio/mandm/mandm/mandm8722.c
         varian_v_display   0x002672    program     extern /audio/mandm/mandm/mandm8722.c
                 vfprintf   0x00ca02    program     extern C:\MCC18\v3_39\src\extended\stdclib\vfprintf.c
        viision_m_display   0x002416    program     extern /audio/mandm/mandm/mandm8722.c
       viision_ms_display   0x0024a2    program     extern /audio/mandm/mandm/mandm8722.c
             voice1_ticks   0x00bec8    program     extern /audio/mandm/mandm/mandm_vector.c
             voice2_ticks   0x00bed4    program     extern /audio/mandm/mandm/mandm_vector.c
                   voltfp   0x000fc0    program     extern /audio/mandm/mandm/mandm8722.c
                  voltfpi   0x000ff8    program     extern /audio/mandm/mandm/mandm8722.c
                  voltfps   0x000fde    program     extern /audio/mandm/mandm/mandm8722.c
                 wdtdelay   0x00026a    program     extern /audio/mandm/mandm/mandm8722.c
                  wdttime   0x0002ac    program     extern /audio/mandm/mandm/mandm8722.c
             work_handler   0x00be6e    program     extern /audio/mandm/mandm/mandm_vector.c
                 work_int   0x000018    program     extern /audio/mandm/mandm/mandm8722.c
        write_data_eeprom   0x00dc26    program     extern /audio/mandm/mandm/crit.c
                    zero0   0x00a1e3    program     extern /audio/mandm/mandm/mandm_msg.h
                    zero1   0x00a20d    program     extern /audio/mandm/mandm/mandm_msg.h
                    zero2   0x00a249    program     extern /audio/mandm/mandm/mandm_msg.h
                    zero3   0x00a27d    program     extern /audio/mandm/mandm/mandm_msg.h
              zero_amploc   0x008436    program     extern /audio/mandm/mandm/daq.c 
               zero_block   0x00e97a    program     static C:\MCC18\v3_39\src\extended\proc\p18F8722.asm
                   ADCON0   0x000fc2       data     extern C:\MCC18\v3_39\src\extended\proc\p18F8722.asm
               ADCON0bits   0x000fc2       data     extern C:\MCC18\v3_39\src\extended\proc\p18F8722.asm
                   ADCON1   0x000fc1       data     extern C:\MCC18\v3_39\src\extended\proc\p18F8722.asm
               ADCON1bits   0x000fc1       data     extern C:\MCC18\v3_39\src\extended\proc\p18F8722.asm
                   ADCON2   0x000fc0       data     extern C:\MCC18\v3_39\src\extended\proc\p18F8722.asm
               ADCON2bits   0x000fc0       data     extern C:\MCC18\v3_39\src\extended\proc\p18F8722.asm
                    ADRES   0x000fc3       data     extern C:\MCC18\v3_39\src\extended\proc\p18F8722.asm
                   ADRESH   0x000fc4       data     extern C:\MCC18\v3_39\src\extended\proc\p18F8722.asm
                   ADRESL   0x000fc3       data     extern C:\MCC18\v3_39\src\extended\proc\p18F8722.asm
                  BAUDCON   0x000f7e       data     extern C:\MCC18\v3_39\src\extended\proc\p18F8722.asm
                 BAUDCON1   0x000f7e       data     extern C:\MCC18\v3_39\src\extended\proc\p18F8722.asm
             BAUDCON1bits   0x000f7e       data     extern C:\MCC18\v3_39\src\extended\proc\p18F8722.asm
                 BAUDCON2   0x000f7c       data     extern C:\MCC18\v3_39\src\extended\proc\p18F8722.asm
             BAUDCON2bits   0x000f7c       data     extern C:\MCC18\v3_39\src\extended\proc\p18F8722.asm
              BAUDCONbits   0x000f7e       data     extern C:\MCC18\v3_39\src\extended\proc\p18F8722.asm
                      BSR   0x000fe0       data     extern C:\MCC18\v3_39\src\extended\proc\p18F8722.asm
                        C   0x00063f       data     extern /audio/mandm/mandm/mandm8722.c
                    C2RAW   0x0004ef       data     extern /audio/mandm/mandm/mandm8722.c
                  CCP1CON   0x000fbd       data     extern C:\MCC18\v3_39\src\extended\proc\p18F8722.asm
              CCP1CONbits   0x000fbd       data     extern C:\MCC18\v3_39\src\extended\proc\p18F8722.asm
                  CCP2CON   0x000fba       data     extern C:\MCC18\v3_39\src\extended\proc\p18F8722.asm
              CCP2CONbits   0x000fba       data     extern C:\MCC18\v3_39\src\extended\proc\p18F8722.asm
                  CCP3CON   0x000fb7       data     extern C:\MCC18\v3_39\src\extended\proc\p18F8722.asm
              CCP3CONbits   0x000fb7       data     extern C:\MCC18\v3_39\src\extended\proc\p18F8722.asm
                  CCP4CON   0x000f73       data     extern C:\MCC18\v3_39\src\extended\proc\p18F8722.asm
              CCP4CONbits   0x000f73       data     extern C:\MCC18\v3_39\src\extended\proc\p18F8722.asm
                  CCP5CON   0x000f70       data     extern C:\MCC18\v3_39\src\extended\proc\p18F8722.asm
              CCP5CONbits   0x000f70       data     extern C:\MCC18\v3_39\src\extended\proc\p18F8722.asm
                    CCPR1   0x000fbe       data     extern C:\MCC18\v3_39\src\extended\proc\p18F8722.asm
                   CCPR1H   0x000fbf       data     extern C:\MCC18\v3_39\src\extended\proc\p18F8722.asm
                   CCPR1L   0x000fbe       data     extern C:\MCC18\v3_39\src\extended\proc\p18F8722.asm
                    CCPR2   0x000fbb       data     extern C:\MCC18\v3_39\src\extended\proc\p18F8722.asm
                   CCPR2H   0x000fbc       data     extern C:\MCC18\v3_39\src\extended\proc\p18F8722.asm
                   CCPR2L   0x000fbb       data     extern C:\MCC18\v3_39\src\extended\proc\p18F8722.asm
                    CCPR3   0x000fb8       data     extern C:\MCC18\v3_39\src\extended\proc\p18F8722.asm
                   CCPR3H   0x000fb9       data     extern C:\MCC18\v3_39\src\extended\proc\p18F8722.asm
                   CCPR3L   0x000fb8       data     extern C:\MCC18\v3_39\src\extended\proc\p18F8722.asm
                    CCPR4   0x000f74       data     extern C:\MCC18\v3_39\src\extended\proc\p18F8722.asm
                   CCPR4H   0x000f75       data     extern C:\MCC18\v3_39\src\extended\proc\p18F8722.asm
                   CCPR4L   0x000f74       data     extern C:\MCC18\v3_39\src\extended\proc\p18F8722.asm
                    CCPR5   0x000f71       data     extern C:\MCC18\v3_39\src\extended\proc\p18F8722.asm
                   CCPR5H   0x000f72       data     extern C:\MCC18\v3_39\src\extended\proc\p18F8722.asm
                   CCPR5L   0x000f71       data     extern C:\MCC18\v3_39\src\extended\proc\p18F8722.asm
                    CMCON   0x000fb4       data     extern C:\MCC18\v3_39\src\extended\proc\p18F8722.asm
                CMCONbits   0x000fb4       data     extern C:\MCC18\v3_39\src\extended\proc\p18F8722.asm
                  COOLING   0x00006c       data     extern /audio/mandm/mandm/mandm8722.c
                    CRITC   0x0000f5       data     extern /audio/mandm/mandm/mandm8722.c
                   CVRCON   0x000fb5       data     extern C:\MCC18\v3_39\src\extended\proc\p18F8722.asm
               CVRCONbits   0x000fb5       data     extern C:\MCC18\v3_39\src\extended\proc\p18F8722.asm
                   Cursor   0x000420       data     extern /audio/mandm/mandm/mandm8722.c
                     DDRA   0x000f92       data     extern C:\MCC18\v3_39\src\extended\proc\p18F8722.asm
                 DDRAbits   0x000f92       data     extern C:\MCC18\v3_39\src\extended\proc\p18F8722.asm
                     DDRB   0x000f93       data     extern C:\MCC18\v3_39\src\extended\proc\p18F8722.asm
                 DDRBbits   0x000f93       data     extern C:\MCC18\v3_39\src\extended\proc\p18F8722.asm
                     DDRC   0x000f94       data     extern C:\MCC18\v3_39\src\extended\proc\p18F8722.asm
                 DDRCbits   0x000f94       data     extern C:\MCC18\v3_39\src\extended\proc\p18F8722.asm
                     DDRD   0x000f95       data     extern C:\MCC18\v3_39\src\extended\proc\p18F8722.asm
                 DDRDbits   0x000f95       data     extern C:\MCC18\v3_39\src\extended\proc\p18F8722.asm
                     DDRE   0x000f96       data     extern C:\MCC18\v3_39\src\extended\proc\p18F8722.asm
                 DDREbits   0x000f96       data     extern C:\MCC18\v3_39\src\extended\proc\p18F8722.asm
                     DDRF   0x000f97       data     extern C:\MCC18\v3_39\src\extended\proc\p18F8722.asm
                 DDRFbits   0x000f97       data     extern C:\MCC18\v3_39\src\extended\proc\p18F8722.asm
                     DDRG   0x000f98       data     extern C:\MCC18\v3_39\src\extended\proc\p18F8722.asm
                 DDRGbits   0x000f98       data     extern C:\MCC18\v3_39\src\extended\proc\p18F8722.asm
                     DDRH   0x000f99       data     extern C:\MCC18\v3_39\src\extended\proc\p18F8722.asm
                 DDRHbits   0x000f99       data     extern C:\MCC18\v3_39\src\extended\proc\p18F8722.asm
                     DDRJ   0x000f9a       data     extern C:\MCC18\v3_39\src\extended\proc\p18F8722.asm
                 DDRJbits   0x000f9a       data     extern C:\MCC18\v3_39\src\extended\proc\p18F8722.asm
             DISPLAY_MODE   0x000069       data     extern /audio/mandm/mandm/mandm8722.c
                 D_UPDATE   0x00006a       data     extern /audio/mandm/mandm/mandm8722.c
            DelayCounter1   0x0005ff       data     extern C:\MCC18\v3_39\src\extended\delays\delayd1.asm
            DelayCounter2   0x0002ff       data     extern C:\MCC18\v3_39\src\extended\delays\delayd2.asm
                  ECCP1AS   0x000fb6       data     extern C:\MCC18\v3_39\src\extended\proc\p18F8722.asm
              ECCP1ASbits   0x000fb6       data     extern C:\MCC18\v3_39\src\extended\proc\p18F8722.asm
                 ECCP1CON   0x000fbd       data     extern C:\MCC18\v3_39\src\extended\proc\p18F8722.asm
             ECCP1CONbits   0x000fbd       data     extern C:\MCC18\v3_39\src\extended\proc\p18F8722.asm
                 ECCP1DEL   0x000f79       data     extern C:\MCC18\v3_39\src\extended\proc\p18F8722.asm
             ECCP1DELbits   0x000f79       data     extern C:\MCC18\v3_39\src\extended\proc\p18F8722.asm
                  ECCP2AS   0x000f68       data     extern C:\MCC18\v3_39\src\extended\proc\p18F8722.asm
              ECCP2ASbits   0x000f68       data     extern C:\MCC18\v3_39\src\extended\proc\p18F8722.asm
                 ECCP2CON   0x000fba       data     extern C:\MCC18\v3_39\src\extended\proc\p18F8722.asm
             ECCP2CONbits   0x000fba       data     extern C:\MCC18\v3_39\src\extended\proc\p18F8722.asm
                 ECCP2DEL   0x000f67       data     extern C:\MCC18\v3_39\src\extended\proc\p18F8722.asm
             ECCP2DELbits   0x000f67       data     extern C:\MCC18\v3_39\src\extended\proc\p18F8722.asm
                  ECCP3AS   0x000f6a       data     extern C:\MCC18\v3_39\src\extended\proc\p18F8722.asm
              ECCP3ASbits   0x000f6a       data     extern C:\MCC18\v3_39\src\extended\proc\p18F8722.asm
                 ECCP3CON   0x000fb7       data     extern C:\MCC18\v3_39\src\extended\proc\p18F8722.asm
             ECCP3CONbits   0x000fb7       data     extern C:\MCC18\v3_39\src\extended\proc\p18F8722.asm
                 ECCP3DEL   0x000f69       data     extern C:\MCC18\v3_39\src\extended\proc\p18F8722.asm
             ECCP3DELbits   0x000f69       data     extern C:\MCC18\v3_39\src\extended\proc\p18F8722.asm
                    EEADR   0x000fa9       data     extern C:\MCC18\v3_39\src\extended\proc\p18F8722.asm
                   EEADRH   0x000faa       data     extern C:\MCC18\v3_39\src\extended\proc\p18F8722.asm
                   EECON1   0x000fa6       data     extern C:\MCC18\v3_39\src\extended\proc\p18F8722.asm
               EECON1bits   0x000fa6       data     extern C:\MCC18\v3_39\src\extended\proc\p18F8722.asm
                   EECON2   0x000fa7       data     extern C:\MCC18\v3_39\src\extended\proc\p18F8722.asm
                   EEDATA   0x000fa8       data     extern C:\MCC18\v3_39\src\extended\proc\p18F8722.asm
                   EEP_ER   0x000074       data     extern /audio/mandm/mandm/mandm8722.c
                 FAILSAFE   0x000066       data     extern /audio/mandm/mandm/mandm8722.c
                 FORCEOUT   0x000064       data     extern /audio/mandm/mandm/mandm8722.c
                     FSR0   0x000fe9       data     extern C:\MCC18\v3_39\src\extended\proc\p18F8722.asm
                    FSR0H   0x000fea       data     extern C:\MCC18\v3_39\src\extended\proc\p18F8722.asm
                    FSR0L   0x000fe9       data     extern C:\MCC18\v3_39\src\extended\proc\p18F8722.asm
                     FSR1   0x000fe1       data     extern C:\MCC18\v3_39\src\extended\proc\p18F8722.asm
                    FSR1H   0x000fe2       data     extern C:\MCC18\v3_39\src\extended\proc\p18F8722.asm
                    FSR1L   0x000fe1       data     extern C:\MCC18\v3_39\src\extended\proc\p18F8722.asm
                     FSR2   0x000fd9       data     extern C:\MCC18\v3_39\src\extended\proc\p18F8722.asm
                    FSR2H   0x000fda       data     extern C:\MCC18\v3_39\src\extended\proc\p18F8722.asm
                    FSR2L   0x000fd9       data     extern C:\MCC18\v3_39\src\extended\proc\p18F8722.asm
             GLITCH_CHECK   0x00006b       data     extern /audio/mandm/mandm/mandm8722.c
                    HCRIT   0x000364       data     extern /audio/mandm/mandm/mandm8722.c
            HID_IDLE_FLAG   0x0003eb       data     static /audio/mandm/mandm/mandm_vector.c
                  HLVDCON   0x000fd2       data     extern C:\MCC18\v3_39\src\extended\proc\p18F8722.asm
              HLVDCONbits   0x000fd2       data     extern C:\MCC18\v3_39\src\extended\proc\p18F8722.asm
                HOLD_PROC   0x000068       data     extern /audio/mandm/mandm/mandm8722.c
                    H_tmp   0x0004f3       data     static /audio/mandm/mandm/crit.c
                    H_tmp   0x0004f4       data     static /audio/mandm/mandm/crit.c
                 IDLEFLAG   0x0000db       data     extern /audio/mandm/mandm/mandm8722.c
                    INDF0   0x000fef       data     extern C:\MCC18\v3_39\src\extended\proc\p18F8722.asm
                    INDF1   0x000fe7       data     extern C:\MCC18\v3_39\src\extended\proc\p18F8722.asm
                    INDF2   0x000fdf       data     extern C:\MCC18\v3_39\src\extended\proc\p18F8722.asm
                   INTCON   0x000ff2       data     extern C:\MCC18\v3_39\src\extended\proc\p18F8722.asm
                  INTCON2   0x000ff1       data     extern C:\MCC18\v3_39\src\extended\proc\p18F8722.asm
              INTCON2bits   0x000ff1       data     extern C:\MCC18\v3_39\src\extended\proc\p18F8722.asm
                  INTCON3   0x000ff0       data     extern C:\MCC18\v3_39\src\extended\proc\p18F8722.asm
              INTCON3bits   0x000ff0       data     extern C:\MCC18\v3_39\src\extended\proc\p18F8722.asm
               INTCONbits   0x000ff2       data     extern C:\MCC18\v3_39\src\extended\proc\p18F8722.asm
                     IPR1   0x000f9f       data     extern C:\MCC18\v3_39\src\extended\proc\p18F8722.asm
                 IPR1bits   0x000f9f       data     extern C:\MCC18\v3_39\src\extended\proc\p18F8722.asm
                     IPR2   0x000fa2       data     extern C:\MCC18\v3_39\src\extended\proc\p18F8722.asm
                 IPR2bits   0x000fa2       data     extern C:\MCC18\v3_39\src\extended\proc\p18F8722.asm
                     IPR3   0x000fa5       data     extern C:\MCC18\v3_39\src\extended\proc\p18F8722.asm
                 IPR3bits   0x000fa5       data     extern C:\MCC18\v3_39\src\extended\proc\p18F8722.asm
                   KEYNUM   0x000061       data     extern /audio/mandm/mandm/mandm8722.c
                     LATA   0x000f89       data     extern C:\MCC18\v3_39\src\extended\proc\p18F8722.asm
                 LATAbits   0x000f89       data     extern C:\MCC18\v3_39\src\extended\proc\p18F8722.asm
                     LATB   0x000f8a       data     extern C:\MCC18\v3_39\src\extended\proc\p18F8722.asm
                 LATBbits   0x000f8a       data     extern C:\MCC18\v3_39\src\extended\proc\p18F8722.asm
                     LATC   0x000f8b       data     extern C:\MCC18\v3_39\src\extended\proc\p18F8722.asm
                 LATCbits   0x000f8b       data     extern C:\MCC18\v3_39\src\extended\proc\p18F8722.asm
                     LATD   0x000f8c       data     extern C:\MCC18\v3_39\src\extended\proc\p18F8722.asm
                 LATDbits   0x000f8c       data     extern C:\MCC18\v3_39\src\extended\proc\p18F8722.asm
                     LATE   0x000f8d       data     extern C:\MCC18\v3_39\src\extended\proc\p18F8722.asm
                 LATEbits   0x000f8d       data     extern C:\MCC18\v3_39\src\extended\proc\p18F8722.asm
                     LATF   0x000f8e       data     extern C:\MCC18\v3_39\src\extended\proc\p18F8722.asm
                 LATFbits   0x000f8e       data     extern C:\MCC18\v3_39\src\extended\proc\p18F8722.asm
                     LATG   0x000f8f       data     extern C:\MCC18\v3_39\src\extended\proc\p18F8722.asm
                 LATGbits   0x000f8f       data     extern C:\MCC18\v3_39\src\extended\proc\p18F8722.asm
                     LATH   0x000f90       data     extern C:\MCC18\v3_39\src\extended\proc\p18F8722.asm
                 LATHbits   0x000f90       data     extern C:\MCC18\v3_39\src\extended\proc\p18F8722.asm
                     LATJ   0x000f91       data     extern C:\MCC18\v3_39\src\extended\proc\p18F8722.asm
                 LATJbits   0x000f91       data     extern C:\MCC18\v3_39\src\extended\proc\p18F8722.asm
                   LCD_OK   0x0000f6       data     extern /audio/mandm/mandm/mandm8722.c
                    LCRIT   0x00036c       data     extern /audio/mandm/mandm/mandm8722.c
                   LVDCON   0x000fd2       data     extern C:\MCC18\v3_39\src\extended\proc\p18F8722.asm
               LVDCONbits   0x000fd2       data     extern C:\MCC18\v3_39\src\extended\proc\p18F8722.asm
                   MEMCON   0x000f9c       data     extern C:\MCC18\v3_39\src\extended\proc\p18F8722.asm
               MEMCONbits   0x000f9c       data     extern C:\MCC18\v3_39\src\extended\proc\p18F8722.asm
                 MOD_DATA   0x000070       data     extern /audio/mandm/mandm/mandm8722.c
                   OSCCON   0x000fd3       data     extern C:\MCC18\v3_39\src\extended\proc\p18F8722.asm
               OSCCONbits   0x000fd3       data     extern C:\MCC18\v3_39\src\extended\proc\p18F8722.asm
                  OSCTUNE   0x000f9b       data     extern C:\MCC18\v3_39\src\extended\proc\p18F8722.asm
              OSCTUNEbits   0x000f9b       data     extern C:\MCC18\v3_39\src\extended\proc\p18F8722.asm
               OldEncoder   0x000424       data     extern /audio/mandm/mandm/mandm8722.c
                       PC   0x000ff9       data     extern C:\MCC18\v3_39\src\extended\proc\p18F8722.asm
                      PCL   0x000ff9       data     extern C:\MCC18\v3_39\src\extended\proc\p18F8722.asm
                   PCLATH   0x000ffa       data     extern C:\MCC18\v3_39\src\extended\proc\p18F8722.asm
                   PCLATU   0x000ffb       data     extern C:\MCC18\v3_39\src\extended\proc\p18F8722.asm
                     PIE1   0x000f9d       data     extern C:\MCC18\v3_39\src\extended\proc\p18F8722.asm
                 PIE1bits   0x000f9d       data     extern C:\MCC18\v3_39\src\extended\proc\p18F8722.asm
                     PIE2   0x000fa0       data     extern C:\MCC18\v3_39\src\extended\proc\p18F8722.asm
                 PIE2bits   0x000fa0       data     extern C:\MCC18\v3_39\src\extended\proc\p18F8722.asm
                     PIE3   0x000fa3       data     extern C:\MCC18\v3_39\src\extended\proc\p18F8722.asm
                 PIE3bits   0x000fa3       data     extern C:\MCC18\v3_39\src\extended\proc\p18F8722.asm
                     PIR1   0x000f9e       data     extern C:\MCC18\v3_39\src\extended\proc\p18F8722.asm
                 PIR1bits   0x000f9e       data     extern C:\MCC18\v3_39\src\extended\proc\p18F8722.asm
                     PIR2   0x000fa1       data     extern C:\MCC18\v3_39\src\extended\proc\p18F8722.asm
                 PIR2bits   0x000fa1       data     extern C:\MCC18\v3_39\src\extended\proc\p18F8722.asm
                     PIR3   0x000fa4       data     extern C:\MCC18\v3_39\src\extended\proc\p18F8722.asm
                 PIR3bits   0x000fa4       data     extern C:\MCC18\v3_39\src\extended\proc\p18F8722.asm
                   PLUSW0   0x000feb       data     extern C:\MCC18\v3_39\src\extended\proc\p18F8722.asm
                   PLUSW1   0x000fe3       data     extern C:\MCC18\v3_39\src\extended\proc\p18F8722.asm
                   PLUSW2   0x000fdb       data     extern C:\MCC18\v3_39\src\extended\proc\p18F8722.asm
                    PORTA   0x000f80       data     extern C:\MCC18\v3_39\src\extended\proc\p18F8722.asm
                PORTAbits   0x000f80       data     extern C:\MCC18\v3_39\src\extended\proc\p18F8722.asm
                    PORTB   0x000f81       data     extern C:\MCC18\v3_39\src\extended\proc\p18F8722.asm
                PORTBbits   0x000f81       data     extern C:\MCC18\v3_39\src\extended\proc\p18F8722.asm
                    PORTC   0x000f82       data     extern C:\MCC18\v3_39\src\extended\proc\p18F8722.asm
                PORTCbits   0x000f82       data     extern C:\MCC18\v3_39\src\extended\proc\p18F8722.asm
                    PORTD   0x000f83       data     extern C:\MCC18\v3_39\src\extended\proc\p18F8722.asm
                PORTDbits   0x000f83       data     extern C:\MCC18\v3_39\src\extended\proc\p18F8722.asm
                    PORTE   0x000f84       data     extern C:\MCC18\v3_39\src\extended\proc\p18F8722.asm
                PORTEbits   0x000f84       data     extern C:\MCC18\v3_39\src\extended\proc\p18F8722.asm
                    PORTF   0x000f85       data     extern C:\MCC18\v3_39\src\extended\proc\p18F8722.asm
                PORTFbits   0x000f85       data     extern C:\MCC18\v3_39\src\extended\proc\p18F8722.asm
                    PORTG   0x000f86       data     extern C:\MCC18\v3_39\src\extended\proc\p18F8722.asm
                PORTGbits   0x000f86       data     extern C:\MCC18\v3_39\src\extended\proc\p18F8722.asm
                    PORTH   0x000f87       data     extern C:\MCC18\v3_39\src\extended\proc\p18F8722.asm
                PORTHbits   0x000f87       data     extern C:\MCC18\v3_39\src\extended\proc\p18F8722.asm
                    PORTJ   0x000f88       data     extern C:\MCC18\v3_39\src\extended\proc\p18F8722.asm
                PORTJbits   0x000f88       data     extern C:\MCC18\v3_39\src\extended\proc\p18F8722.asm
                 POSTDEC0   0x000fed       data     extern C:\MCC18\v3_39\src\extended\proc\p18F8722.asm
                 POSTDEC1   0x000fe5       data     extern C:\MCC18\v3_39\src\extended\proc\p18F8722.asm
                 POSTDEC2   0x000fdd       data     extern C:\MCC18\v3_39\src\extended\proc\p18F8722.asm
                 POSTINC0   0x000fee       data     extern C:\MCC18\v3_39\src\extended\proc\p18F8722.asm
                 POSTINC1   0x000fe6       data     extern C:\MCC18\v3_39\src\extended\proc\p18F8722.asm
                 POSTINC2   0x000fde       data     extern C:\MCC18\v3_39\src\extended\proc\p18F8722.asm
                      PR2   0x000fcb       data     extern C:\MCC18\v3_39\src\extended\proc\p18F8722.asm
                      PR4   0x000f77       data     extern C:\MCC18\v3_39\src\extended\proc\p18F8722.asm
                  PREINC0   0x000fec       data     extern C:\MCC18\v3_39\src\extended\proc\p18F8722.asm
                  PREINC1   0x000fe4       data     extern C:\MCC18\v3_39\src\extended\proc\p18F8722.asm
                  PREINC2   0x000fdc       data     extern C:\MCC18\v3_39\src\extended\proc\p18F8722.asm
               PRIPOWEROK   0x000063       data     extern /audio/mandm/mandm/mandm8722.c
                     PROD   0x000ff3       data     extern C:\MCC18\v3_39\src\extended\proc\p18F8722.asm
                    PRODH   0x000ff4       data     extern C:\MCC18\v3_39\src\extended\proc\p18F8722.asm
                    PRODL   0x000ff3       data     extern C:\MCC18\v3_39\src\extended\proc\p18F8722.asm
                   PSPCON   0x000fb0       data     extern C:\MCC18\v3_39\src\extended\proc\p18F8722.asm
               PSPCONbits   0x000fb0       data     extern C:\MCC18\v3_39\src\extended\proc\p18F8722.asm
                        R   0x000600       data     extern /audio/mandm/mandm/mandm8722.c
                     RCON   0x000fd0       data     extern C:\MCC18\v3_39\src\extended\proc\p18F8722.asm
                 RCONbits   0x000fd0       data     extern C:\MCC18\v3_39\src\extended\proc\p18F8722.asm
                    RCREG   0x000fae       data     extern C:\MCC18\v3_39\src\extended\proc\p18F8722.asm
                   RCREG1   0x000fae       data     extern C:\MCC18\v3_39\src\extended\proc\p18F8722.asm
                   RCREG2   0x000f6e       data     extern C:\MCC18\v3_39\src\extended\proc\p18F8722.asm
                    RCSTA   0x000fab       data     extern C:\MCC18\v3_39\src\extended\proc\p18F8722.asm
                   RCSTA1   0x000fab       data     extern C:\MCC18\v3_39\src\extended\proc\p18F8722.asm
               RCSTA1bits   0x000fab       data     extern C:\MCC18\v3_39\src\extended\proc\p18F8722.asm
                   RCSTA2   0x000f6b       data     extern C:\MCC18\v3_39\src\extended\proc\p18F8722.asm
               RCSTA2bits   0x000f6b       data     extern C:\MCC18\v3_39\src\extended\proc\p18F8722.asm
                RCSTAbits   0x000fab       data     extern C:\MCC18\v3_39\src\extended\proc\p18F8722.asm
              RESET_ZEROS   0x00006e       data     extern /audio/mandm/mandm/mandm8722.c
              RS232_DEBUG   0x00008c       data     extern /audio/mandm/mandm/mandm8722.c
                 SET_TLOG   0x000072       data     extern /audio/mandm/mandm/mandm8722.c
              SLOW_STATUS   0x0004f2       data     extern /audio/mandm/mandm/mandm8722.c
                    SPBRG   0x000faf       data     extern C:\MCC18\v3_39\src\extended\proc\p18F8722.asm
                   SPBRG1   0x000faf       data     extern C:\MCC18\v3_39\src\extended\proc\p18F8722.asm
                   SPBRG2   0x000f6f       data     extern C:\MCC18\v3_39\src\extended\proc\p18F8722.asm
                   SPBRGH   0x000f7f       data     extern C:\MCC18\v3_39\src\extended\proc\p18F8722.asm
                  SPBRGH1   0x000f7f       data     extern C:\MCC18\v3_39\src\extended\proc\p18F8722.asm
                  SPBRGH2   0x000f7d       data     extern C:\MCC18\v3_39\src\extended\proc\p18F8722.asm
                  SSP1ADD   0x000fc8       data     extern C:\MCC18\v3_39\src\extended\proc\p18F8722.asm
                  SSP1BUF   0x000fc9       data     extern C:\MCC18\v3_39\src\extended\proc\p18F8722.asm
                 SSP1CON1   0x000fc6       data     extern C:\MCC18\v3_39\src\extended\proc\p18F8722.asm
             SSP1CON1bits   0x000fc6       data     extern C:\MCC18\v3_39\src\extended\proc\p18F8722.asm
                 SSP1CON2   0x000fc5       data     extern C:\MCC18\v3_39\src\extended\proc\p18F8722.asm
             SSP1CON2bits   0x000fc5       data     extern C:\MCC18\v3_39\src\extended\proc\p18F8722.asm
                 SSP1STAT   0x000fc7       data     extern C:\MCC18\v3_39\src\extended\proc\p18F8722.asm
             SSP1STATbits   0x000fc7       data     extern C:\MCC18\v3_39\src\extended\proc\p18F8722.asm
                  SSP2ADD   0x000f65       data     extern C:\MCC18\v3_39\src\extended\proc\p18F8722.asm
                  SSP2BUF   0x000f66       data     extern C:\MCC18\v3_39\src\extended\proc\p18F8722.asm
                 SSP2CON1   0x000f63       data     extern C:\MCC18\v3_39\src\extended\proc\p18F8722.asm
             SSP2CON1bits   0x000f63       data     extern C:\MCC18\v3_39\src\extended\proc\p18F8722.asm
                 SSP2CON2   0x000f62       data     extern C:\MCC18\v3_39\src\extended\proc\p18F8722.asm
             SSP2CON2bits   0x000f62       data     extern C:\MCC18\v3_39\src\extended\proc\p18F8722.asm
                 SSP2STAT   0x000f64       data     extern C:\MCC18\v3_39\src\extended\proc\p18F8722.asm
             SSP2STATbits   0x000f64       data     extern C:\MCC18\v3_39\src\extended\proc\p18F8722.asm
                   SSPADD   0x000fc8       data     extern C:\MCC18\v3_39\src\extended\proc\p18F8722.asm
                   SSPBUF   0x000fc9       data     extern C:\MCC18\v3_39\src\extended\proc\p18F8722.asm
                  SSPCON1   0x000fc6       data     extern C:\MCC18\v3_39\src\extended\proc\p18F8722.asm
              SSPCON1bits   0x000fc6       data     extern C:\MCC18\v3_39\src\extended\proc\p18F8722.asm
                  SSPCON2   0x000fc5       data     extern C:\MCC18\v3_39\src\extended\proc\p18F8722.asm
              SSPCON2bits   0x000fc5       data     extern C:\MCC18\v3_39\src\extended\proc\p18F8722.asm
                  SSPSTAT   0x000fc7       data     extern C:\MCC18\v3_39\src\extended\proc\p18F8722.asm
              SSPSTATbits   0x000fc7       data     extern C:\MCC18\v3_39\src\extended\proc\p18F8722.asm
                   STATUS   0x000fd8       data     extern C:\MCC18\v3_39\src\extended\proc\p18F8722.asm
               STATUSbits   0x000fd8       data     extern C:\MCC18\v3_39\src\extended\proc\p18F8722.asm
                   STKPTR   0x000ffc       data     extern C:\MCC18\v3_39\src\extended\proc\p18F8722.asm
               STKPTRbits   0x000ffc       data     extern C:\MCC18\v3_39\src\extended\proc\p18F8722.asm
            SYSTEM_STABLE   0x000067       data     extern /audio/mandm/mandm/mandm8722.c
                 SYS_DATA   0x00006f       data     extern /audio/mandm/mandm/mandm8722.c
                 SYS_HELP   0x000071       data     extern /audio/mandm/mandm/mandm8722.c
                     Seed   0x0006fe       data     static C:\MCC18\v3_39\src\extended\stdclib\rand.asm
                    T0CON   0x000fd5       data     extern C:\MCC18\v3_39\src\extended\proc\p18F8722.asm
                T0CONbits   0x000fd5       data     extern C:\MCC18\v3_39\src\extended\proc\p18F8722.asm
                    T1CON   0x000fcd       data     extern C:\MCC18\v3_39\src\extended\proc\p18F8722.asm
                T1CONbits   0x000fcd       data     extern C:\MCC18\v3_39\src\extended\proc\p18F8722.asm
                    T2CON   0x000fca       data     extern C:\MCC18\v3_39\src\extended\proc\p18F8722.asm
                T2CONbits   0x000fca       data     extern C:\MCC18\v3_39\src\extended\proc\p18F8722.asm
                    T3CON   0x000fb1       data     extern C:\MCC18\v3_39\src\extended\proc\p18F8722.asm
                T3CONbits   0x000fb1       data     extern C:\MCC18\v3_39\src\extended\proc\p18F8722.asm
                    T4CON   0x000f76       data     extern C:\MCC18\v3_39\src\extended\proc\p18F8722.asm
                T4CONbits   0x000f76       data     extern C:\MCC18\v3_39\src\extended\proc\p18F8722.asm
                   TABLAT   0x000ff5       data     extern C:\MCC18\v3_39\src\extended\proc\p18F8722.asm
                   TBLPTR   0x000ff6       data     extern C:\MCC18\v3_39\src\extended\proc\p18F8722.asm
                  TBLPTRH   0x000ff7       data     extern C:\MCC18\v3_39\src\extended\proc\p18F8722.asm
                  TBLPTRL   0x000ff6       data     extern C:\MCC18\v3_39\src\extended\proc\p18F8722.asm
                  TBLPTRU   0x000ff8       data     extern C:\MCC18\v3_39\src\extended\proc\p18F8722.asm
            TEST_SPINNERS   0x000076       data     extern /audio/mandm/mandm/mandm8722.c
                TIMERFLAG   0x000062       data     extern /audio/mandm/mandm/mandm8722.c
                     TLOG   0x0000f8       data     extern /audio/mandm/mandm/mandm8722.c
                    TMR0H   0x000fd7       data     extern C:\MCC18\v3_39\src\extended\proc\p18F8722.asm
                    TMR0L   0x000fd6       data     extern C:\MCC18\v3_39\src\extended\proc\p18F8722.asm
                    TMR1H   0x000fcf       data     extern C:\MCC18\v3_39\src\extended\proc\p18F8722.asm
                    TMR1L   0x000fce       data     extern C:\MCC18\v3_39\src\extended\proc\p18F8722.asm
                     TMR2   0x000fcc       data     extern C:\MCC18\v3_39\src\extended\proc\p18F8722.asm
                    TMR3H   0x000fb3       data     extern C:\MCC18\v3_39\src\extended\proc\p18F8722.asm
                    TMR3L   0x000fb2       data     extern C:\MCC18\v3_39\src\extended\proc\p18F8722.asm
                     TMR4   0x000f78       data     extern C:\MCC18\v3_39\src\extended\proc\p18F8722.asm
                      TOS   0x000ffd       data     extern C:\MCC18\v3_39\src\extended\proc\p18F8722.asm
                     TOSH   0x000ffe       data     extern C:\MCC18\v3_39\src\extended\proc\p18F8722.asm
                     TOSL   0x000ffd       data     extern C:\MCC18\v3_39\src\extended\proc\p18F8722.asm
                     TOSU   0x000fff       data     extern C:\MCC18\v3_39\src\extended\proc\p18F8722.asm
                    TRISA   0x000f92       data     extern C:\MCC18\v3_39\src\extended\proc\p18F8722.asm
                TRISAbits   0x000f92       data     extern C:\MCC18\v3_39\src\extended\proc\p18F8722.asm
                    TRISB   0x000f93       data     extern C:\MCC18\v3_39\src\extended\proc\p18F8722.asm
                TRISBbits   0x000f93       data     extern C:\MCC18\v3_39\src\extended\proc\p18F8722.asm
                    TRISC   0x000f94       data     extern C:\MCC18\v3_39\src\extended\proc\p18F8722.asm
                TRISCbits   0x000f94       data     extern C:\MCC18\v3_39\src\extended\proc\p18F8722.asm
                    TRISD   0x000f95       data     extern C:\MCC18\v3_39\src\extended\proc\p18F8722.asm
                TRISDbits   0x000f95       data     extern C:\MCC18\v3_39\src\extended\proc\p18F8722.asm
                    TRISE   0x000f96       data     extern C:\MCC18\v3_39\src\extended\proc\p18F8722.asm
                TRISEbits   0x000f96       data     extern C:\MCC18\v3_39\src\extended\proc\p18F8722.asm
                    TRISF   0x000f97       data     extern C:\MCC18\v3_39\src\extended\proc\p18F8722.asm
                TRISFbits   0x000f97       data     extern C:\MCC18\v3_39\src\extended\proc\p18F8722.asm
                    TRISG   0x000f98       data     extern C:\MCC18\v3_39\src\extended\proc\p18F8722.asm
                TRISGbits   0x000f98       data     extern C:\MCC18\v3_39\src\extended\proc\p18F8722.asm
                    TRISH   0x000f99       data     extern C:\MCC18\v3_39\src\extended\proc\p18F8722.asm
                TRISHbits   0x000f99       data     extern C:\MCC18\v3_39\src\extended\proc\p18F8722.asm
                    TRISJ   0x000f9a       data     extern C:\MCC18\v3_39\src\extended\proc\p18F8722.asm
                TRISJbits   0x000f9a       data     extern C:\MCC18\v3_39\src\extended\proc\p18F8722.asm
                    TWEAK   0x000075       data     extern /audio/mandm/mandm/mandm8722.c
                    TXREG   0x000fad       data     extern C:\MCC18\v3_39\src\extended\proc\p18F8722.asm
                   TXREG1   0x000fad       data     extern C:\MCC18\v3_39\src\extended\proc\p18F8722.asm
                   TXREG2   0x000f6d       data     extern C:\MCC18\v3_39\src\extended\proc\p18F8722.asm
                    TXSTA   0x000fac       data     extern C:\MCC18\v3_39\src\extended\proc\p18F8722.asm
                   TXSTA1   0x000fac       data     extern C:\MCC18\v3_39\src\extended\proc\p18F8722.asm
               TXSTA1bits   0x000fac       data     extern C:\MCC18\v3_39\src\extended\proc\p18F8722.asm
                   TXSTA2   0x000f6c       data     extern C:\MCC18\v3_39\src\extended\proc\p18F8722.asm
               TXSTA2bits   0x000f6c       data     extern C:\MCC18\v3_39\src\extended\proc\p18F8722.asm
                TXSTAbits   0x000fac       data     extern C:\MCC18\v3_39\src\extended\proc\p18F8722.asm
               UPDATE_EEP   0x00006d       data     extern /audio/mandm/mandm/mandm8722.c
            USART1_Status   0x0004f6       data     extern C:\MCC18\v3_39\src\pmc_common\USART\u1defs.c
            USART2_Status   0x0004f5       data     extern C:\MCC18\v3_39\src\pmc_common\USART\u2defs.c
                        V   0x000649       data     extern /audio/mandm/mandm/mandm8722.c
                      Vin   0x0000cb       data     extern /audio/mandm/mandm/mandm8722.c
                   WDTCON   0x000fd1       data     extern C:\MCC18\v3_39\src\extended\proc\p18F8722.asm
               WDTCONbits   0x000fd1       data     extern C:\MCC18\v3_39\src\extended\proc\p18F8722.asm
                   WDT_TO   0x000073       data     extern /audio/mandm/mandm/mandm8722.c
               WORKERFLAG   0x000065       data     extern /audio/mandm/mandm/mandm8722.c
                     WREG   0x000fe8       data     extern C:\MCC18\v3_39\src\extended\proc\p18F8722.asm
                    YNKEY   0x000423       data     extern /audio/mandm/mandm/mandm8722.c
                      ZAP   0x0003ed       data     static /audio/mandm/mandm/mandm_vector.c
                __RETVAL0   0x0003fc       data     extern C:\MCC18\v3_39\src\extended\math\cmath18.asm
                __RETVAL1   0x0003fd       data     extern C:\MCC18\v3_39\src\extended\math\cmath18.asm
                __RETVAL2   0x0003fe       data     extern C:\MCC18\v3_39\src\extended\math\cmath18.asm
                __RETVAL3   0x0003ff       data     extern C:\MCC18\v3_39\src\extended\math\cmath18.asm
                  __tmp_0   0x000000       data     static C:\MCC18\v3_39\src\extended\stdclib\vfprintf.c
                  __tmp_0   0x000000       data     static C:\MCC18\v3_39\src\pmc_common\USART\u1open.c
                  __tmp_0   0x000000       data     static C:\MCC18\v3_39\src\pmc_common\USART\u2open.c
                  __tmp_0   0x000000       data     static C:\MCC18\v3_39\src\pmc_common\ADC\adcopen.c
                  __tmp_0   0x000000       data     static C:\MCC18\v3_39\src\pmc_common\EEP\write_B.c
                  __tmp_0   0x000000       data     static C:\MCC18\v3_39\src\pmc_common\ADC\adcread.c
                  __tmp_0   0x000000       data     static C:\MCC18\v3_39\src\pmc_common\EEP\read_B.c
                  __tmp_0   0x000000       data     static C:\MCC18\v3_39\src\pmc_common\ADC\adcsetch.c
                  __tmp_0   0x000000       data     static /audio/mandm/mandm/config.c
                  __tmp_0   0x000000       data     static /audio/mandm/mandm/daq.c 
                  __tmp_0   0x000000       data     static /audio/mandm/mandm/mandm8722.c
                  __tmp_0   0x000000       data     static /audio/mandm/mandm/power.c
                  __tmp_0   0x000000       data     static /audio/mandm/mandm/crit.c
                  __tmp_1   0x0001fc       data     static /audio/mandm/mandm/mandm_vector.c
                    a10_x   0x0004e7       data     extern /audio/mandm/mandm/mandm8722.c
                  a10_x_t   0x00001c       data     static /audio/mandm/mandm/daq.c 
                    a10_y   0x0004e9       data     extern /audio/mandm/mandm/mandm8722.c
                  a10_y_t   0x000020       data     static /audio/mandm/mandm/daq.c 
                    a10_z   0x0004eb       data     extern /audio/mandm/mandm/mandm8722.c
                  a10_z_t   0x000024       data     static /audio/mandm/mandm/daq.c 
                  adc_cal   0x0000e5       data     extern /audio/mandm/mandm/mandm8722.c
                   ahfrak   0x0000c7       data     extern /audio/mandm/mandm/mandm8722.c
             alarm_buffer   0x0003a0       data     extern /audio/mandm/mandm/mandm8722.c
              alarm_codes   0x000077       data     extern /audio/mandm/mandm/mandm8722.c
                  alm_num   0x0005e2       data     static /audio/mandm/mandm/mandm8722.c
                   almctr   0x0000ff       data     extern /audio/mandm/mandm/mandm8722.c
                   b_read   0x0003ec       data     static /audio/mandm/mandm/mandm_vector.c
                 band_max   0x0003f4       data     static /audio/mandm/mandm/mandm_vector.c
                 bootstr2   0x000200       data     extern /audio/mandm/mandm/mandm8722.c
               build_date   0x00009a       data     extern /audio/mandm/mandm/mandm8722.c
               build_time   0x00009d       data     extern /audio/mandm/mandm/mandm8722.c
                   button   0x000470       data     extern /audio/mandm/mandm/mandm8722.c
                       c1   0x0000f9       data     static /audio/mandm/mandm/mandm_vector.c
                       c2   0x0000fa       data     static /audio/mandm/mandm/mandm_vector.c
             cable_return   0x0005f0       data     static /audio/mandm/mandm/mandm8722.c
               cable_type   0x0000f7       data     extern /audio/mandm/mandm/mandm8722.c
                   cdelay   0x0004f1       data     extern /audio/mandm/mandm/mandm8722.c
                   change   0x0002fd       data     static /audio/mandm/mandm/daq.c 
             change_count   0x0002fb       data     static /audio/mandm/mandm/daq.c 
               check_menu   0x0005ef       data     static /audio/mandm/mandm/mandm8722.c
                   chrg_v   0x0000cf       data     extern /audio/mandm/mandm/mandm8722.c
                      cid   0x000352       data     extern /audio/mandm/mandm/mandm8722.c
                clocks_hz   0x0004cb       data     static /audio/mandm/mandm/mandm8722.c
                clocks_hz   0x0004bf       data     static /audio/mandm/mandm/mandm8722.c
                clocks_hz   0x000483       data     static /audio/mandm/mandm/mandm8722.c
                clocks_hz   0x0004b3       data     static /audio/mandm/mandm/mandm8722.c
                clocks_hz   0x00048f       data     static /audio/mandm/mandm/mandm8722.c
                clocks_hz   0x0004a7       data     static /audio/mandm/mandm/mandm8722.c
                clocks_hz   0x00049b       data     static /audio/mandm/mandm/mandm8722.c
              critc_count   0x00008d       data     extern /audio/mandm/mandm/mandm8722.c
              critc_level   0x000060       data     extern /audio/mandm/mandm/mandm8722.c
                      csd   0x000340       data     extern /audio/mandm/mandm/mandm8722.c
                curr_byte   0x0005f8       data     static C:\MCC18\v3_39\src\extended\startup\c018iz_e.c
               curr_entry   0x0005fa       data     static C:\MCC18\v3_39\src\extended\startup\c018iz_e.c
                 data_ptr   0x0005fc       data     static C:\MCC18\v3_39\src\extended\startup\c018iz_e.c
                   dcount   0x00047b       data     static /audio/mandm/mandm/mandm8722.c
                   dcount   0x000477       data     static /audio/mandm/mandm/mandm8722.c
                   dcount   0x000487       data     static /audio/mandm/mandm/mandm8722.c
                   dcount   0x000493       data     static /audio/mandm/mandm/mandm8722.c
                   dcount   0x00049f       data     static /audio/mandm/mandm/mandm8722.c
                   dcount   0x0004ab       data     static /audio/mandm/mandm/mandm8722.c
                   dcount   0x0004b7       data     static /audio/mandm/mandm/mandm8722.c
                   dcount   0x0004c3       data     static /audio/mandm/mandm/mandm8722.c
                 deadband   0x0005e5       data     static /audio/mandm/mandm/mandm8722.c
                       ds   0x000100       data     extern /audio/mandm/mandm/mandm8722.c
                      dsi   0x0000a0       data     extern /audio/mandm/mandm/mandm8722.c
                 eep_char   0x0005f3       data     static /audio/mandm/mandm/mandm8722.c
                emo_bumps   0x0003ea       data     static /audio/mandm/mandm/mandm_vector.c
                  emodump   0x000440       data     extern /audio/mandm/mandm/mandm8722.c
                       f1   0x000374       data     extern /audio/mandm/mandm/mandm8722.c
                       f2   0x00037b       data     extern /audio/mandm/mandm/mandm8722.c
                       f3   0x000382       data     extern /audio/mandm/mandm/mandm8722.c
                       f4   0x000389       data     extern /audio/mandm/mandm/mandm8722.c
               fast_ticks   0x0003f1       data     static /audio/mandm/mandm/mandm_vector.c
                  get_out   0x0004d4       data     static /audio/mandm/mandm/mandm8722.c
             glitch_count   0x0004f0       data     extern /audio/mandm/mandm/mandm8722.c
                        h   0x0005d5       data     static /audio/mandm/mandm/mandm8722.c
                        h   0x0005c9       data     static /audio/mandm/mandm/mandm8722.c
                 help_pos   0x0000a2       data     extern /audio/mandm/mandm/mandm8722.c
                 hid_idle   0x0003f8       data     static /audio/mandm/mandm/mandm_vector.c
               hms_string   0x0004d7       data     extern /audio/mandm/mandm/mandm8722.c
                        i   0x0005e1       data     static /audio/mandm/mandm/mandm8722.c
                        i   0x000018       data     static /audio/mandm/mandm/daq.c 
                       ib   0x0005c8       data     static /audio/mandm/mandm/mandm8722.c
                       ip   0x0000e1       data     extern /audio/mandm/mandm/mandm8722.c
                       iw   0x0000dd       data     extern /audio/mandm/mandm/mandm8722.c
                    knob1   0x000400       data     extern /audio/mandm/mandm/mandm8722.c
                    knob2   0x000410       data     extern /audio/mandm/mandm/mandm8722.c
              knob_to_pot   0x0000dc       data     extern /audio/mandm/mandm/mandm8722.c
         knob_to_pot_save   0x0004d5       data     static /audio/mandm/mandm/mandm8722.c
               last_shape   0x0005c7       data     static /audio/mandm/mandm/mandm8722.c
                lastmotor   0x0006a6       data     static /audio/mandm/mandm/power.c
                    lcd18   0x0005c2       data     extern /audio/mandm/mandm/mandm8722.c
                 lp_speed   0x000092       data     extern /audio/mandm/mandm/mandm8722.c
                     lp_x   0x000096       data     extern /audio/mandm/mandm/mandm8722.c
                        m   0x0005d9       data     static /audio/mandm/mandm/mandm8722.c
                        m   0x0005cd       data     static /audio/mandm/mandm/mandm8722.c
                 menu_pos   0x0004d6       data     static /audio/mandm/mandm/mandm8722.c
                 menu_pos   0x0005f2       data     static /audio/mandm/mandm/mandm8722.c
                 menu_pos   0x0005f1       data     static /audio/mandm/mandm/mandm8722.c
                     mode   0x000079       data     extern /audio/mandm/mandm/mandm8722.c
                motor_ptr   0x0005c0       data     extern /audio/mandm/mandm/mandm8722.c
                motordata   0x000500       data     extern /audio/mandm/mandm/mandm8722.c
                      msi   0x0000a1       data     extern /audio/mandm/mandm/mandm8722.c
                        n   0x0004cf       data     static /audio/mandm/mandm/mandm8722.c
                 new_menu   0x0005ee       data     static /audio/mandm/mandm/mandm8722.c
                old_error   0x0005eb       data     static /audio/mandm/mandm/mandm8722.c
                 old_menu   0x0005ed       data     static /audio/mandm/mandm/mandm8722.c
                 old_part   0x0004f9       data     static /audio/mandm/mandm/config.c
                       p1   0x000300       data     extern /audio/mandm/mandm/mandm8722.c
                       p2   0x000310       data     extern /audio/mandm/mandm/mandm8722.c
                       p3   0x000390       data     extern /audio/mandm/mandm/mandm8722.c
                 position   0x0005e3       data     static /audio/mandm/mandm/mandm8722.c
                     prom   0x0005f5       data     static C:\MCC18\v3_39\src\extended\startup\c018iz_e.c
                     qei1   0x000429       data     extern /audio/mandm/mandm/mandm8722.c
                     rawa   0x0006f2       data     extern /audio/mandm/mandm/mandm8722.c
                     rawp   0x0006e6       data     extern /audio/mandm/mandm/mandm8722.c
               real_ticks   0x0003f0       data     static /audio/mandm/mandm/mandm_vector.c
                   rx_tmp   0x0003f2       data     static /audio/mandm/mandm/mandm_vector.c
                        s   0x000471       data     static /audio/mandm/mandm/mandm8722.c
                        s   0x0005dd       data     static /audio/mandm/mandm/mandm8722.c
                        s   0x0005d1       data     static /audio/mandm/mandm/mandm8722.c
                  s_delay   0x0004d3       data     static /audio/mandm/mandm/mandm8722.c
                    shape   0x0005e4       data     static /audio/mandm/mandm/mandm8722.c
                     sign   0x000091       data     extern /audio/mandm/mandm/mandm8722.c
                     slow   0x0004d1       data     static /audio/mandm/mandm/mandm8722.c
               slow_timer   0x0005c3       data     extern /audio/mandm/mandm/mandm8722.c
                   smooth   0x0003ca       data     extern /audio/mandm/mandm/mandm8722.c
                  solar_t   0x0000d7       data     extern /audio/mandm/mandm/mandm8722.c
                       t1   0x0000a3       data     extern /audio/mandm/mandm/mandm8722.c
                       t2   0x0000a7       data     extern /audio/mandm/mandm/mandm8722.c
                       t3   0x0000ab       data     extern /audio/mandm/mandm/mandm8722.c
                       t4   0x0000af       data     extern /audio/mandm/mandm/mandm8722.c
                       t5   0x0000b3       data     extern /audio/mandm/mandm/mandm8722.c
                       t6   0x0000b7       data     extern /audio/mandm/mandm/mandm8722.c
                       t7   0x0000bb       data     extern /audio/mandm/mandm/mandm8722.c
                   t_time   0x0000bf       data     extern /audio/mandm/mandm/mandm8722.c
                  termstr   0x000320       data     extern /audio/mandm/mandm/mandm8722.c
                    timer   0x0000fb       data     static /audio/mandm/mandm/mandm_vector.c
                   timerl   0x0000fd       data     static /audio/mandm/mandm/mandm_vector.c
                 timetemp   0x0004c7       data     static /audio/mandm/mandm/mandm8722.c
                 timetemp   0x0004bb       data     static /audio/mandm/mandm/mandm8722.c
                 timetemp   0x0004af       data     static /audio/mandm/mandm/mandm8722.c
                 timetemp   0x0004a3       data     static /audio/mandm/mandm/mandm8722.c
                 timetemp   0x000497       data     static /audio/mandm/mandm/mandm8722.c
                 timetemp   0x00047f       data     static /audio/mandm/mandm/mandm8722.c
                 timetemp   0x00048b       data     static /audio/mandm/mandm/mandm8722.c
                 vbatol_t   0x0000d3       data     extern /audio/mandm/mandm/mandm8722.c
                 vc_count   0x0003ee       data     static /audio/mandm/mandm/mandm_vector.c
                 voltfrak   0x0000c3       data     extern /audio/mandm/mandm/mandm8722.c
              was_running   0x0005e9       data     static /audio/mandm/mandm/mandm8722.c
             worker_timer   0x0003ef       data     static /audio/mandm/mandm/mandm_vector.c
                 worktick   0x0004ed       data     extern /audio/mandm/mandm/mandm8722.c
                        z   0x0005f4       data     static /audio/mandm/mandm/mandm8722.c
                        z   0x00001a       data     static /audio/mandm/mandm/daq.c 
                        z   0x0004f7       data     static /audio/mandm/mandm/hwconf.c
                        z   0x0004d2       data     static /audio/mandm/mandm/mandm8722.c
                        z   0x0004f8       data     static /audio/mandm/mandm/config.c
                        z   0x0004d0       data     static /audio/mandm/mandm/mandm8722.c
                        z   0x000028       data     static /audio/mandm/mandm/daq.c 



                              Symbols - Sorted by Address
                     Name    Address   Location    Storage File                     
                ---------  ---------  ---------  --------- ---------                
                   _entry   0x000000    program     extern C:\MCC18\v3_39\src\extended\startup\c018iz_e.c
       ___return_lbl00000   0x000004    program     static                          
               _user_putc   0x000006    program     extern C:\MCC18\v3_39\src\extended\stdclib\_user_putc.c
                 tick_int   0x000008    program     extern /audio/mandm/mandm/mandm8722.c
       ___return_lbl00000   0x00000c    program     static                          
                  BusyADC   0x00000e    program     extern C:\MCC18\v3_39\src\pmc_common\ADC\adcbusy.c
                 work_int   0x000018    program     extern /audio/mandm/mandm/mandm8722.c
       ___return_lbl00001   0x00001c    program     static                          
                 spinners   0x000074    program     extern /audio/mandm/mandm/mandm8722.c
              LCD_VC_puts   0x00016e    program     extern /audio/mandm/mandm/mandm8722.c
              update_hist   0x00021c    program     extern /audio/mandm/mandm/mandm8722.c
                 wdtdelay   0x00026a    program     extern /audio/mandm/mandm/mandm8722.c
          ___for_lbl00030   0x00027e    program     static                          
               __tmplbl_3   0x000290    program     static                          
          ___for_lbl00028   0x000296    program     static                          
          ___for_lbl00029   0x0002a4    program     static                          
       ___return_lbl00027   0x0002a4    program     static                          
                  wdttime   0x0002ac    program     extern /audio/mandm/mandm/mandm8722.c
           ___do_lbl00034   0x000304    program     static                          
           ___do_lbl00032   0x000324    program     static                          
               __tmplbl_4   0x00033e    program     static                          
           ___do_lbl00033   0x000340    program     static                          
       ___return_lbl00031   0x000340    program     static                          
                checktime   0x000348    program     extern /audio/mandm/mandm/mandm8722.c
         checktime_select   0x0003be    program     extern /audio/mandm/mandm/mandm8722.c
          checktime_motor   0x000434    program     extern /audio/mandm/mandm/mandm8722.c
            checktime_cal   0x0004aa    program     extern /audio/mandm/mandm/mandm8722.c
            checktime_eep   0x000520    program     extern /audio/mandm/mandm/mandm8722.c
          checktime_track   0x000596    program     extern /audio/mandm/mandm/mandm8722.c
            DelayFor18TCY   0x00060c    program     extern /audio/mandm/mandm/mandm8722.c
          ___for_lbl00056   0x000612    program     static                          
          ___for_lbl00054   0x00061e    program     static                          
       ___return_lbl00053   0x000624    program     static                          
          ___for_lbl00055   0x000624    program     static                          
             DelayPORXLCD   0x000626    program     extern /audio/mandm/mandm/mandm8722.c
                DelayXLCD   0x000632    program     extern /audio/mandm/mandm/mandm8722.c
                    putc2   0x00063e    program     extern /audio/mandm/mandm/mandm8722.c
              start_delay   0x000656    program     extern /audio/mandm/mandm/mandm8722.c
                  clr_lcd   0x00065c    program     extern /audio/mandm/mandm/mandm8722.c
                lp_filter   0x00066c    program     extern /audio/mandm/mandm/mandm8722.c
                term_time   0x000754    program     extern /audio/mandm/mandm/mandm8722.c
       ___return_lbl00072   0x00079a    program     static                          
             hold_process   0x00079c    program     extern /audio/mandm/mandm/mandm8722.c
              system_data   0x0007de    program     extern /audio/mandm/mandm/mandm8722.c
          ___for_lbl00081   0x000b00    program     static                          
          ___for_lbl00078   0x000de0    program     static                          
           ___if_lbl00080   0x000de0    program     static                          
          ___for_lbl00079   0x000de6    program     static                          
           ___if_lbl00082   0x000dfe    program     static                          
       ___return_lbl00077   0x000e00    program     static                          
              system_help   0x000e02    program     extern /audio/mandm/mandm/mandm8722.c
                      hms   0x000e34    program     extern /audio/mandm/mandm/mandm8722.c
                       hm   0x000ec4    program     extern /audio/mandm/mandm/mandm8722.c
                     ABSI   0x000f4e    program     extern /audio/mandm/mandm/mandm8722.c
                     ABSL   0x000f7c    program     extern /audio/mandm/mandm/mandm8722.c
                   voltfp   0x000fc0    program     extern /audio/mandm/mandm/mandm8722.c
                  voltfps   0x000fde    program     extern /audio/mandm/mandm/mandm8722.c
                  voltfpi   0x000ff8    program     extern /audio/mandm/mandm/mandm8722.c
                     ahfp   0x0010d4    program     extern /audio/mandm/mandm/mandm8722.c
              check_alarm   0x001158    program     extern /audio/mandm/mandm/mandm8722.c
                fail_safe   0x00149c    program     extern /audio/mandm/mandm/mandm8722.c
                 ansidraw   0x00153e    program     extern /audio/mandm/mandm/mandm8722.c
          update_lcd_menu   0x00157c    program     extern /audio/mandm/mandm/mandm8722.c
               Set_Cursor   0x001664    program     extern /audio/mandm/mandm/mandm8722.c
              track_motor   0x0016da    program     extern /audio/mandm/mandm/mandm8722.c
              check_cable   0x001bd4    program     extern /audio/mandm/mandm/mandm8722.c
                  get_hid   0x001d54    program     extern /audio/mandm/mandm/mandm8722.c
                 nav_menu   0x001fe6    program     extern /audio/mandm/mandm/mandm8722.c
            e220_qei_exer   0x001ffa    program     extern /audio/mandm/mandm/mandm8722.c
              nonqei_exer   0x002120    program     extern /audio/mandm/mandm/mandm8722.c
                exerciser   0x002246    program     extern /audio/mandm/mandm/mandm8722.c
                 hid_menu   0x002298    program     extern /audio/mandm/mandm/mandm8722.c
           help_m_display   0x0022b8    program     extern /audio/mandm/mandm/mandm8722.c
            gsd_m_display   0x00230c    program     extern /audio/mandm/mandm/mandm8722.c
           e220_m_display   0x002380    program     extern /audio/mandm/mandm/mandm8722.c
        viision_m_display   0x002416    program     extern /audio/mandm/mandm/mandm8722.c
       viision_ms_display   0x0024a2    program     extern /audio/mandm/mandm/mandm8722.c
          v810_ms_display   0x0024f0    program     extern /audio/mandm/mandm/mandm8722.c
         e220_qei_display   0x002526    program     extern /audio/mandm/mandm/mandm8722.c
          default_display   0x0025e2    program     extern /audio/mandm/mandm/mandm8722.c
              emo_display   0x002644    program     extern /audio/mandm/mandm/mandm8722.c
         varian_v_display   0x002672    program     extern /audio/mandm/mandm/mandm8722.c
          fail_all_motors   0x002734    program     extern /audio/mandm/mandm/mandm8722.c
           set_all_motors   0x00278c    program     extern /audio/mandm/mandm/mandm8722.c
                  run_cal   0x0027b6    program     extern /audio/mandm/mandm/mandm8722.c
           ___if_lbl00425   0x002816    program     static                          
           ___if_lbl00426   0x002840    program     static                          
           ___if_lbl00427   0x002854    program     static                          
           ___if_lbl00428   0x002866    program     static                          
           ___if_lbl00429   0x0028b0    program     static                          
           ___if_lbl00430   0x0028e8    program     static                          
           ___if_lbl00431   0x00291e    program     static                          
          ___for_lbl00454   0x002962    program     static                          
           ___do_lbl00440   0x0029a2    program     static                          
           ___if_lbl00436   0x002a4c    program     static                          
             __tmplbl_144   0x002abe    program     static                          
           ___if_lbl00437   0x002aec    program     static                          
             __tmplbl_145   0x002b62    program     static                          
           ___if_lbl00438   0x002b90    program     static                          
           ___if_lbl00439   0x002ba0    program     static                          
           ___do_lbl00434   0x002bb4    program     static                          
           ___do_lbl00435   0x002bd2    program     static                          
             __tmplbl_146   0x002be2    program     static                          
              __tmplbl_69   0x002be4    program     static                          
              __tmplbl_68   0x002bf4    program     static                          
           ___if_lbl00442   0x002bfc    program     static                          
             __tmplbl_147   0x002c0c    program     static                          
           ___if_lbl00443   0x002c14    program     static                          
           ___do_lbl00450   0x002c3a    program     static                          
           ___if_lbl00446   0x002ce4    program     static                          
             __tmplbl_148   0x002d56    program     static                          
           ___if_lbl00447   0x002d84    program     static                          
             __tmplbl_149   0x002dfa    program     static                          
           ___if_lbl00448   0x002e28    program     static                          
           ___if_lbl00449   0x002e38    program     static                          
           ___do_lbl00444   0x002e4c    program     static                          
           ___do_lbl00445   0x002e6a    program     static                          
             __tmplbl_150   0x002e7a    program     static                          
              __tmplbl_71   0x002e7c    program     static                          
              __tmplbl_70   0x002e8c    program     static                          
           ___if_lbl00452   0x002e94    program     static                          
             __tmplbl_151   0x002ea4    program     static                          
          ___for_lbl00432   0x002eac    program     static                          
           ___if_lbl00453   0x002eac    program     static                          
          ___for_lbl00433   0x002eb4    program     static                          
              __tmplbl_73   0x002ec6    program     static                          
              __tmplbl_72   0x002ed0    program     static                          
           ___if_lbl00456   0x002fd4    program     static                          
           ___if_lbl00457   0x003040    program     static                          
           ___do_lbl00460   0x00307e    program     static                          
           ___do_lbl00458   0x00308a    program     static                          
           ___do_lbl00459   0x003090    program     static                          
           ___if_lbl00462   0x0030de    program     static                          
           ___if_lbl00461   0x0030de    program     static                          
           ___if_lbl00463   0x0030f8    program     static                          
           ___if_lbl00464   0x003164    program     static                          
           ___do_lbl00481   0x003168    program     static                          
              __tmplbl_76   0x003320    program     static                          
              __tmplbl_75   0x003326    program     static                          
              __tmplbl_74   0x00332c    program     static                          
           ___if_lbl00470   0x003338    program     static                          
           ___if_lbl00471   0x003364    program     static                          
           ___if_lbl00472   0x003368    program     static                          
           ___if_lbl00473   0x0033ca    program     static                          
           ___if_lbl00474   0x003486    program     static                          
         ___else_lbl00477   0x003488    program     static                          
           ___if_lbl00475   0x0034e4    program     static                          
           ___if_lbl00476   0x0034e4    program     static                          
           ___if_lbl00478   0x00356a    program     static                          
           ___if_lbl00479   0x0035f0    program     static                          
           ___if_lbl00480   0x003600    program     static                          
           ___do_lbl00465   0x003614    program     static                          
              __tmplbl_78   0x003630    program     static                          
           ___do_lbl00466   0x003638    program     static                          
              __tmplbl_77   0x003638    program     static                          
           ___if_lbl00482   0x0036b4    program     static                          
           ___do_lbl00499   0x0036b8    program     static                          
              __tmplbl_81   0x003870    program     static                          
              __tmplbl_80   0x003876    program     static                          
              __tmplbl_79   0x00387c    program     static                          
           ___if_lbl00488   0x003888    program     static                          
           ___if_lbl00489   0x0038b4    program     static                          
           ___if_lbl00490   0x0038b8    program     static                          
           ___if_lbl00491   0x00391a    program     static                          
           ___if_lbl00492   0x0039d6    program     static                          
         ___else_lbl00495   0x0039d8    program     static                          
           ___if_lbl00493   0x003a34    program     static                          
           ___if_lbl00494   0x003a34    program     static                          
           ___if_lbl00496   0x003aba    program     static                          
           ___if_lbl00497   0x003b40    program     static                          
           ___if_lbl00498   0x003b50    program     static                          
           ___do_lbl00483   0x003b64    program     static                          
              __tmplbl_83   0x003b80    program     static                          
           ___if_lbl00500   0x003b88    program     static                          
              __tmplbl_82   0x003b88    program     static                          
           ___do_lbl00484   0x003b88    program     static                          
         ___else_lbl00519   0x003b8c    program     static                          
          ___for_lbl00507   0x003bc4    program     static                          
           ___if_lbl00503   0x003c5c    program     static                          
              __tmplbl_84   0x003d0a    program     static                          
           ___if_lbl00504   0x003d18    program     static                          
           ___if_lbl00505   0x003d2a    program     static                          
          ___for_lbl00501   0x003d8c    program     static                          
           ___if_lbl00506   0x003d8c    program     static                          
          ___for_lbl00502   0x003da2    program     static                          
          ___for_lbl00514   0x003e02    program     static                          
           ___if_lbl00510   0x003e9a    program     static                          
              __tmplbl_85   0x003f48    program     static                          
           ___if_lbl00511   0x003f56    program     static                          
           ___if_lbl00512   0x003f68    program     static                          
          ___for_lbl00508   0x003fca    program     static                          
           ___if_lbl00513   0x003fca    program     static                          
          ___for_lbl00509   0x003fe0    program     static                          
          ___for_lbl00517   0x004360    program     static                          
          ___for_lbl00515   0x0043a2    program     static                          
           ___if_lbl00518   0x0043b8    program     static                          
          ___for_lbl00516   0x0043b8    program     static                          
          ___for_lbl00540   0x0043c0    program     static                          
           ___if_lbl00522   0x0044b8    program     static                          
           ___if_lbl00523   0x004570    program     static                          
              __tmplbl_87   0x0045f6    program     static                          
              __tmplbl_86   0x00467c    program     static                          
           ___if_lbl00525   0x0046ae    program     static                          
           ___if_lbl00526   0x0046ae    program     static                          
         ___else_lbl00528   0x0047e0    program     static                          
           ___if_lbl00527   0x0047e4    program     static                          
           ___if_lbl00529   0x004a3e    program     static                          
         ___else_lbl00539   0x004a40    program     static                          
         ___else_lbl00531   0x004a7e    program     static                          
           ___if_lbl00530   0x004a82    program     static                          
         ___else_lbl00533   0x004d5e    program     static                          
           ___if_lbl00532   0x004d62    program     static                          
           ___do_lbl00536   0x004da2    program     static                          
           ___do_lbl00534   0x004dae    program     static                          
           ___do_lbl00535   0x004db4    program     static                          
           ___if_lbl00537   0x004dc4    program     static                          
           ___if_lbl00538   0x004dc4    program     static                          
          ___for_lbl00520   0x004dc4    program     static                          
          ___for_lbl00521   0x004ddc    program     static                          
           ___do_lbl00545   0x004e18    program     static                          
           ___if_lbl00544   0x004f7c    program     static                          
           ___do_lbl00541   0x004f7e    program     static                          
              __tmplbl_89   0x004f88    program     static                          
              __tmplbl_90   0x004fbe    program     static                          
              __tmplbl_88   0x004fc2    program     static                          
           ___do_lbl00542   0x004fc2    program     static                          
         ___else_lbl00547   0x00506a    program     static                          
           ___if_lbl00546   0x00506a    program     static                          
       ___return_lbl00424   0x0050a0    program     static                          
              display_cal   0x0050a8    program     extern /audio/mandm/mandm/mandm8722.c
                 init_lcd   0x005156    program     extern /audio/mandm/mandm/mandm8722.c
                     main   0x0051b6    program     extern /audio/mandm/mandm/mandm8722.c
           ___if_lbl00559   0x005262    program     static                          
           ___if_lbl00560   0x005290    program     static                          
           ___if_lbl00561   0x0052be    program     static                          
           ___if_lbl00562   0x0052ec    program     static                          
           ___if_lbl00563   0x00543c    program     static                          
          ___for_lbl00566   0x005488    program     static                          
          ___for_lbl00564   0x0054ac    program     static                          
          ___for_lbl00565   0x0054b2    program     static                          
           ___if_lbl00567   0x0054b2    program     static                          
         ___else_lbl00569   0x0054f6    program     static                          
           ___if_lbl00568   0x00553a    program     static                          
          ___for_lbl00572   0x00556a    program     static                          
          ___for_lbl00570   0x00559c    program     static                          
          ___for_lbl00571   0x0055a2    program     static                          
         ___else_lbl00577   0x0055a4    program     static                          
          ___for_lbl00575   0x0055be    program     static                          
          ___for_lbl00573   0x0055f0    program     static                          
          ___for_lbl00574   0x0055f6    program     static                          
           ___if_lbl00576   0x00560c    program     static                          
        ___while_lbl00578   0x005614    program     static                          
        ___while_lbl00579   0x005616    program     static                          
           ___if_lbl00580   0x005616    program     static                          
           ___if_lbl00581   0x00565e    program     static                          
           ___if_lbl00582   0x00567e    program     static                          
        ___while_lbl00583   0x0058bc    program     static                          
              __tmplbl_92   0x0058c8    program     static                          
              __tmplbl_91   0x0058ce    program     static                          
           ___if_lbl00586   0x0058d2    program     static                          
           ___if_lbl00587   0x005902    program     static                          
           ___if_lbl00588   0x005916    program     static                          
        ___while_lbl00584   0x005918    program     static                          
       ___return_lbl00558   0x005918    program     static                          
                   __pa_0   0x00591a    program     static /audio/mandm/mandm/mandm8722.c
                   __pa_1   0x00592a    program     static /audio/mandm/mandm/mandm8722.c
                   __pa_2   0x005934    program     static /audio/mandm/mandm/mandm8722.c
                   __pa_3   0x005948    program     static /audio/mandm/mandm/mandm8722.c
                   __pa_4   0x005990    program     static /audio/mandm/mandm/mandm8722.c
                   __pa_5   0x00599a    program     static /audio/mandm/mandm/mandm8722.c
                   __pa_6   0x0059be    program     static /audio/mandm/mandm/mandm8722.c
                   __pa_7   0x0059e2    program     static /audio/mandm/mandm/mandm8722.c
                   __pa_8   0x005a00    program     static /audio/mandm/mandm/mandm8722.c
                   __pa_9   0x005a20    program     static /audio/mandm/mandm/mandm8722.c
                  __pa_10   0x005a42    program     static /audio/mandm/mandm/mandm8722.c
                  __pa_11   0x005a4e    program     static /audio/mandm/mandm/mandm8722.c
                  __pa_12   0x005a62    program     static /audio/mandm/mandm/mandm8722.c
                  __pa_13   0x005a78    program     static /audio/mandm/mandm/mandm8722.c
                  __pa_14   0x005a7e    program     static /audio/mandm/mandm/mandm8722.c
                  __pa_15   0x005a96    program     static /audio/mandm/mandm/mandm8722.c
                  __pa_16   0x005a9c    program     static /audio/mandm/mandm/mandm8722.c
                  __pa_17   0x005aa6    program     static /audio/mandm/mandm/mandm8722.c
                  __pa_18   0x005ab0    program     static /audio/mandm/mandm/mandm8722.c
                  __pa_19   0x005ab8    program     static /audio/mandm/mandm/mandm8722.c
             __tmplbl_118   0x005aca    program     static                          
             __tmplbl_117   0x005aca    program     static                          
             __tmplbl_115   0x005aca    program     static                          
             __tmplbl_110   0x005aca    program     static                          
             __tmplbl_109   0x005aca    program     static                          
             __tmplbl_106   0x005aca    program     static                          
             __tmplbl_105   0x005aca    program     static                          
             __tmplbl_102   0x005aca    program     static                          
             __tmplbl_101   0x005aca    program     static                          
                  __pa_20   0x005aca    program     static /audio/mandm/mandm/mandm8722.c
             __tmplbl_133   0x005aca    program     static                          
             __tmplbl_154   0x005aca    program     static                          
             __tmplbl_156   0x005aca    program     static                          
              __tmplbl_93   0x005aca    program     static                          
              __tmplbl_94   0x005aca    program     static                          
              __tmplbl_95   0x005aca    program     static                          
              __tmplbl_96   0x005aca    program     static                          
              __tmplbl_97   0x005aca    program     static                          
              __tmplbl_98   0x005aca    program     static                          
              __tmplbl_99   0x005aca    program     static                          
                  __pa_21   0x005ad2    program     static /audio/mandm/mandm/mandm8722.c
                  __pa_22   0x005ae8    program     static /audio/mandm/mandm/mandm8722.c
                  __pa_23   0x005b06    program     static /audio/mandm/mandm/mandm8722.c
                  __pa_24   0x005b0c    program     static /audio/mandm/mandm/mandm8722.c
                  __pa_25   0x005b18    program     static /audio/mandm/mandm/mandm8722.c
                  __pa_26   0x005b1e    program     static /audio/mandm/mandm/mandm8722.c
                  __pa_27   0x005b28    program     static /audio/mandm/mandm/mandm8722.c
                  __pa_28   0x005b3c    program     static /audio/mandm/mandm/mandm8722.c
                  __pa_29   0x005b48    program     static /audio/mandm/mandm/mandm8722.c
                  __pa_30   0x005b50    program     static /audio/mandm/mandm/mandm8722.c
                  __pa_31   0x005b6a    program     static /audio/mandm/mandm/mandm8722.c
                  __pa_32   0x005b70    program     static /audio/mandm/mandm/mandm8722.c
                  __pa_33   0x005b7a    program     static /audio/mandm/mandm/mandm8722.c
                  __pa_34   0x005b80    program     static /audio/mandm/mandm/mandm8722.c
             __tmplbl_135   0x005b80    program     static                          
             __tmplbl_155   0x005b80    program     static                          
                  __pa_35   0x005b8a    program     static /audio/mandm/mandm/mandm8722.c
                  __pa_36   0x005b9a    program     static /audio/mandm/mandm/mandm8722.c
                  __pa_37   0x005ba6    program     static /audio/mandm/mandm/mandm8722.c
                  __pa_38   0x005bb4    program     static /audio/mandm/mandm/mandm8722.c
                  __pa_39   0x005be6    program     static /audio/mandm/mandm/mandm8722.c
                  __pa_40   0x005c18    program     static /audio/mandm/mandm/mandm8722.c
                  __pa_41   0x005c22    program     static /audio/mandm/mandm/mandm8722.c
                  __pa_42   0x005c4e    program     static /audio/mandm/mandm/mandm8722.c
                  __pa_43   0x005c58    program     static /audio/mandm/mandm/mandm8722.c
                  __pa_44   0x005c6c    program     static /audio/mandm/mandm/mandm8722.c
                  __pa_45   0x005c78    program     static /audio/mandm/mandm/mandm8722.c
                  __pa_46   0x005c84    program     static /audio/mandm/mandm/mandm8722.c
                  __pa_47   0x005ca2    program     static /audio/mandm/mandm/mandm8722.c
                  __pa_48   0x005cb0    program     static /audio/mandm/mandm/mandm8722.c
                  __pa_49   0x005cb6    program     static /audio/mandm/mandm/mandm8722.c
                  __pa_50   0x005cc2    program     static /audio/mandm/mandm/mandm8722.c
                  __pa_51   0x005cce    program     static /audio/mandm/mandm/mandm8722.c
                  __pa_52   0x005cd8    program     static /audio/mandm/mandm/mandm8722.c
                  __pa_53   0x005ce2    program     static /audio/mandm/mandm/mandm8722.c
                  __pa_54   0x005cee    program     static /audio/mandm/mandm/mandm8722.c
                  __pa_55   0x005cf4    program     static /audio/mandm/mandm/mandm8722.c
                  __pa_56   0x005d06    program     static /audio/mandm/mandm/mandm8722.c
                  __pa_57   0x005d18    program     static /audio/mandm/mandm/mandm8722.c
                  __pa_58   0x005d2a    program     static /audio/mandm/mandm/mandm8722.c
                  __pa_59   0x005d32    program     static /audio/mandm/mandm/mandm8722.c
                  __pa_60   0x005d38    program     static /audio/mandm/mandm/mandm8722.c
                  __pa_61   0x005d46    program     static /audio/mandm/mandm/mandm8722.c
                  __pa_62   0x005d50    program     static /audio/mandm/mandm/mandm8722.c
                  __pa_63   0x005d5c    program     static /audio/mandm/mandm/mandm8722.c
                  __pa_64   0x005d68    program     static /audio/mandm/mandm/mandm8722.c
                  __pa_65   0x005d6e    program     static /audio/mandm/mandm/mandm8722.c
                  __pa_66   0x005d78    program     static /audio/mandm/mandm/mandm8722.c
                  __pa_67   0x005d90    program     static /audio/mandm/mandm/mandm8722.c
                  __pa_68   0x005da4    program     static /audio/mandm/mandm/mandm8722.c
                  __pa_69   0x005dae    program     static /audio/mandm/mandm/mandm8722.c
                  __pa_70   0x005db8    program     static /audio/mandm/mandm/mandm8722.c
                  __pa_71   0x005dcc    program     static /audio/mandm/mandm/mandm8722.c
                  __pa_72   0x005dda    program     static /audio/mandm/mandm/mandm8722.c
                  __pa_73   0x005df2    program     static /audio/mandm/mandm/mandm8722.c
                  __pa_74   0x005df8    program     static /audio/mandm/mandm/mandm8722.c
                  __pa_75   0x005e06    program     static /audio/mandm/mandm/mandm8722.c
                  __pa_76   0x005e0e    program     static /audio/mandm/mandm/mandm8722.c
                  __pa_77   0x005e1c    program     static /audio/mandm/mandm/mandm8722.c
                  __pa_78   0x005e2a    program     static /audio/mandm/mandm/mandm8722.c
                  __pa_79   0x005e38    program     static /audio/mandm/mandm/mandm8722.c
                  __pa_80   0x005e3e    program     static /audio/mandm/mandm/mandm8722.c
                  __pa_81   0x005e48    program     static /audio/mandm/mandm/mandm8722.c
                  __pa_82   0x005e52    program     static /audio/mandm/mandm/mandm8722.c
                  __pa_83   0x005e5c    program     static /audio/mandm/mandm/mandm8722.c
                  __pa_84   0x005e70    program     static /audio/mandm/mandm/mandm8722.c
                  __pa_85   0x005e84    program     static /audio/mandm/mandm/mandm8722.c
                  __pa_86   0x005e96    program     static /audio/mandm/mandm/mandm8722.c
                  __pa_87   0x005ea8    program     static /audio/mandm/mandm/mandm8722.c
                  __pa_88   0x005eba    program     static /audio/mandm/mandm/mandm8722.c
                  __pa_89   0x005ecc    program     static /audio/mandm/mandm/mandm8722.c
                  __pa_90   0x005ede    program     static /audio/mandm/mandm/mandm8722.c
                  __pa_91   0x005eea    program     static /audio/mandm/mandm/mandm8722.c
                  __pa_92   0x005efc    program     static /audio/mandm/mandm/mandm8722.c
                  __pa_93   0x005f0e    program     static /audio/mandm/mandm/mandm8722.c
                  __pa_94   0x005f14    program     static /audio/mandm/mandm/mandm8722.c
                  __pa_95   0x005f20    program     static /audio/mandm/mandm/mandm8722.c
                  __pa_96   0x005f26    program     static /audio/mandm/mandm/mandm8722.c
                  __pa_97   0x005f38    program     static /audio/mandm/mandm/mandm8722.c
                  __pa_98   0x005f4a    program     static /audio/mandm/mandm/mandm8722.c
                  __pa_99   0x005f50    program     static /audio/mandm/mandm/mandm8722.c
                 __pa_100   0x005f5c    program     static /audio/mandm/mandm/mandm8722.c
                 __pa_101   0x005f6e    program     static /audio/mandm/mandm/mandm8722.c
                 __pa_102   0x005f80    program     static /audio/mandm/mandm/mandm8722.c
                 __pa_103   0x005f92    program     static /audio/mandm/mandm/mandm8722.c
                 __pa_104   0x005f98    program     static /audio/mandm/mandm/mandm8722.c
                 __pa_105   0x005f9e    program     static /audio/mandm/mandm/mandm8722.c
                 __pa_106   0x005faa    program     static /audio/mandm/mandm/mandm8722.c
                 __pa_107   0x005fb6    program     static /audio/mandm/mandm/mandm8722.c
                 __pa_108   0x005fc0    program     static /audio/mandm/mandm/mandm8722.c
                 __pa_109   0x005fc8    program     static /audio/mandm/mandm/mandm8722.c
                 __pa_110   0x005fd0    program     static /audio/mandm/mandm/mandm8722.c
                 __pa_111   0x005fde    program     static /audio/mandm/mandm/mandm8722.c
                 __pa_112   0x005fee    program     static /audio/mandm/mandm/mandm8722.c
                 __pa_113   0x005ffe    program     static /audio/mandm/mandm/mandm8722.c
                 __pa_114   0x00600e    program     static /audio/mandm/mandm/mandm8722.c
                 __pa_115   0x006016    program     static /audio/mandm/mandm/mandm8722.c
                 __pa_116   0x006024    program     static /audio/mandm/mandm/mandm8722.c
                 __pa_117   0x006032    program     static /audio/mandm/mandm/mandm8722.c
                 __pa_118   0x00603c    program     static /audio/mandm/mandm/mandm8722.c
                 __pa_119   0x006046    program     static /audio/mandm/mandm/mandm8722.c
                 __pa_120   0x006050    program     static /audio/mandm/mandm/mandm8722.c
                 __pa_121   0x00605a    program     static /audio/mandm/mandm/mandm8722.c
                 __pa_122   0x006062    program     static /audio/mandm/mandm/mandm8722.c
                 __pa_123   0x00608c    program     static /audio/mandm/mandm/mandm8722.c
                 __pa_124   0x0060c4    program     static /audio/mandm/mandm/mandm8722.c
                 __pa_125   0x0060ce    program     static /audio/mandm/mandm/mandm8722.c
                 __pa_126   0x0060d4    program     static /audio/mandm/mandm/mandm8722.c
                 __pa_127   0x0060da    program     static /audio/mandm/mandm/mandm8722.c
                 __pa_128   0x0060e6    program     static /audio/mandm/mandm/mandm8722.c
                 __pa_129   0x0060f0    program     static /audio/mandm/mandm/mandm8722.c
                 __pa_130   0x006100    program     static /audio/mandm/mandm/mandm8722.c
                 __pa_131   0x006110    program     static /audio/mandm/mandm/mandm8722.c
                 __pa_132   0x00612a    program     static /audio/mandm/mandm/mandm8722.c
                 __pa_133   0x006148    program     static /audio/mandm/mandm/mandm8722.c
                 __pa_134   0x006158    program     static /audio/mandm/mandm/mandm8722.c
                 __pa_135   0x006182    program     static /audio/mandm/mandm/mandm8722.c
                 __pa_136   0x006188    program     static /audio/mandm/mandm/mandm8722.c
                 __pa_137   0x00618e    program     static /audio/mandm/mandm/mandm8722.c
                 __pa_138   0x00619a    program     static /audio/mandm/mandm/mandm8722.c
                 __pa_139   0x0061b4    program     static /audio/mandm/mandm/mandm8722.c
                 __pa_140   0x0061ba    program     static /audio/mandm/mandm/mandm8722.c
                 __pa_141   0x0061d2    program     static /audio/mandm/mandm/mandm8722.c
                 __pa_142   0x0061de    program     static /audio/mandm/mandm/mandm8722.c
                 __pa_143   0x0061e6    program     static /audio/mandm/mandm/mandm8722.c
                 __pa_144   0x0061fa    program     static /audio/mandm/mandm/mandm8722.c
                 __pa_145   0x006214    program     static /audio/mandm/mandm/mandm8722.c
                 __pa_146   0x00621c    program     static /audio/mandm/mandm/mandm8722.c
                 __pa_147   0x00622a    program     static /audio/mandm/mandm/mandm8722.c
                 __pa_148   0x006230    program     static /audio/mandm/mandm/mandm8722.c
                 __pa_149   0x006236    program     static /audio/mandm/mandm/mandm8722.c
                 __pa_150   0x006240    program     static /audio/mandm/mandm/mandm8722.c
                 __pa_151   0x00624a    program     static /audio/mandm/mandm/mandm8722.c
                 __pa_152   0x006266    program     static /audio/mandm/mandm/mandm8722.c
                 __pa_153   0x00627a    program     static /audio/mandm/mandm/mandm8722.c
                 __pa_154   0x00628e    program     static /audio/mandm/mandm/mandm8722.c
                 __pa_155   0x0062a0    program     static /audio/mandm/mandm/mandm8722.c
                 __pa_156   0x0062b2    program     static /audio/mandm/mandm/mandm8722.c
                 __pa_157   0x0062bc    program     static /audio/mandm/mandm/mandm8722.c
                 __pa_158   0x0062c6    program     static /audio/mandm/mandm/mandm8722.c
                 __pa_159   0x0062d0    program     static /audio/mandm/mandm/mandm8722.c
                 __pa_160   0x0062e4    program     static /audio/mandm/mandm/mandm8722.c
                 __pa_161   0x0062f2    program     static /audio/mandm/mandm/mandm8722.c
                 __pa_162   0x006302    program     static /audio/mandm/mandm/mandm8722.c
                 __pa_163   0x00630a    program     static /audio/mandm/mandm/mandm8722.c
                 __pa_164   0x006312    program     static /audio/mandm/mandm/mandm8722.c
                 __pa_165   0x00631c    program     static /audio/mandm/mandm/mandm8722.c
                 __pa_166   0x006330    program     static /audio/mandm/mandm/mandm8722.c
                 __pa_167   0x006340    program     static /audio/mandm/mandm/mandm8722.c
                 __pa_168   0x006354    program     static /audio/mandm/mandm/mandm8722.c
             __tmplbl_104   0x006366    program     static                          
             __tmplbl_103   0x006366    program     static                          
                 __pa_169   0x006366    program     static /audio/mandm/mandm/mandm8722.c
                 __pa_170   0x006378    program     static /audio/mandm/mandm/mandm8722.c
                 __pa_171   0x006386    program     static /audio/mandm/mandm/mandm8722.c
                 __pa_172   0x006398    program     static /audio/mandm/mandm/mandm8722.c
                 __pa_173   0x0063aa    program     static /audio/mandm/mandm/mandm8722.c
                 __pa_174   0x0063bc    program     static /audio/mandm/mandm/mandm8722.c
                 __pa_175   0x0063ce    program     static /audio/mandm/mandm/mandm8722.c
                 __pa_176   0x0063e0    program     static /audio/mandm/mandm/mandm8722.c
                 __pa_177   0x0063f2    program     static /audio/mandm/mandm/mandm8722.c
                 __pa_178   0x006404    program     static /audio/mandm/mandm/mandm8722.c
                 __pa_179   0x00640e    program     static /audio/mandm/mandm/mandm8722.c
                 __pa_180   0x006414    program     static /audio/mandm/mandm/mandm8722.c
                 __pa_181   0x00641a    program     static /audio/mandm/mandm/mandm8722.c
                 __pa_182   0x006424    program     static /audio/mandm/mandm/mandm8722.c
             __tmplbl_138   0x00642e    program     static                          
             __tmplbl_139   0x00642e    program     static                          
                 __pa_183   0x00642e    program     static /audio/mandm/mandm/mandm8722.c
             __tmplbl_136   0x00642e    program     static                          
             __tmplbl_137   0x00642e    program     static                          
                 __pa_184   0x006438    program     static /audio/mandm/mandm/mandm8722.c
                 __pa_185   0x00643e    program     static /audio/mandm/mandm/mandm8722.c
                 __pa_186   0x00644e    program     static /audio/mandm/mandm/mandm8722.c
                 __pa_187   0x006456    program     static /audio/mandm/mandm/mandm8722.c
             __tmplbl_108   0x006464    program     static                          
             __tmplbl_107   0x006464    program     static                          
                 __pa_188   0x006464    program     static /audio/mandm/mandm/mandm8722.c
                 __pa_189   0x00646e    program     static /audio/mandm/mandm/mandm8722.c
                 __pa_190   0x00647c    program     static /audio/mandm/mandm/mandm8722.c
                 __pa_191   0x006486    program     static /audio/mandm/mandm/mandm8722.c
                 __pa_192   0x006492    program     static /audio/mandm/mandm/mandm8722.c
                 __pa_193   0x0064a0    program     static /audio/mandm/mandm/mandm8722.c
                 __pa_194   0x0064ae    program     static /audio/mandm/mandm/mandm8722.c
                 __pa_195   0x0064ba    program     static /audio/mandm/mandm/mandm8722.c
                 __pa_196   0x0064c0    program     static /audio/mandm/mandm/mandm8722.c
                 __pa_197   0x0064cc    program     static /audio/mandm/mandm/mandm8722.c
                 __pa_198   0x0064da    program     static /audio/mandm/mandm/mandm8722.c
                 __pa_199   0x0064e4    program     static /audio/mandm/mandm/mandm8722.c
                 __pa_200   0x0064ee    program     static /audio/mandm/mandm/mandm8722.c
             __tmplbl_153   0x0064f6    program     static                          
             __tmplbl_152   0x0064f6    program     static                          
                 __pa_201   0x0064f6    program     static /audio/mandm/mandm/mandm8722.c
                 __pa_202   0x0064fa    program     static /audio/mandm/mandm/mandm8722.c
                 __pa_203   0x006502    program     static /audio/mandm/mandm/mandm8722.c
                 __pa_204   0x006510    program     static /audio/mandm/mandm/mandm8722.c
                 __pa_205   0x00651e    program     static /audio/mandm/mandm/mandm8722.c
                 __pa_206   0x006554    program     static /audio/mandm/mandm/mandm8722.c
                 __pa_207   0x00655c    program     static /audio/mandm/mandm/mandm8722.c
                 __pa_208   0x00656a    program     static /audio/mandm/mandm/mandm8722.c
                 __pa_209   0x006580    program     static /audio/mandm/mandm/mandm8722.c
                 __pa_210   0x006586    program     static /audio/mandm/mandm/mandm8722.c
                 __pa_211   0x00658e    program     static /audio/mandm/mandm/mandm8722.c
                 __pa_212   0x0065a0    program     static /audio/mandm/mandm/mandm8722.c
                 __pa_213   0x0065a8    program     static /audio/mandm/mandm/mandm8722.c
                 __pa_214   0x0065b0    program     static /audio/mandm/mandm/mandm8722.c
                 __pa_215   0x0065b6    program     static /audio/mandm/mandm/mandm8722.c
                 __pa_216   0x0065be    program     static /audio/mandm/mandm/mandm8722.c
                 __pa_217   0x0065c6    program     static /audio/mandm/mandm/mandm8722.c
                 __pa_218   0x0065ce    program     static /audio/mandm/mandm/mandm8722.c
                 __pa_219   0x0065d6    program     static /audio/mandm/mandm/mandm8722.c
                 __pa_220   0x0065e6    program     static /audio/mandm/mandm/mandm8722.c
                 __pa_221   0x0065f4    program     static /audio/mandm/mandm/mandm8722.c
                 __pa_222   0x006602    program     static /audio/mandm/mandm/mandm8722.c
                 __pa_223   0x00660c    program     static /audio/mandm/mandm/mandm8722.c
                 __pa_224   0x006614    program     static /audio/mandm/mandm/mandm8722.c
                 __pa_225   0x00661c    program     static /audio/mandm/mandm/mandm8722.c
                 __pa_226   0x006626    program     static /audio/mandm/mandm/mandm8722.c
                 __pa_227   0x006632    program     static /audio/mandm/mandm/mandm8722.c
                 __pa_228   0x00663c    program     static /audio/mandm/mandm/mandm8722.c
                 __pa_229   0x006648    program     static /audio/mandm/mandm/mandm8722.c
                 __pa_230   0x006654    program     static /audio/mandm/mandm/mandm8722.c
                 __pa_231   0x006660    program     static /audio/mandm/mandm/mandm8722.c
                 __pa_232   0x00666c    program     static /audio/mandm/mandm/mandm8722.c
                 __pa_233   0x006678    program     static /audio/mandm/mandm/mandm8722.c
                 __pa_234   0x00667e    program     static /audio/mandm/mandm/mandm8722.c
                 __pa_235   0x006688    program     static /audio/mandm/mandm/mandm8722.c
                 __pa_236   0x006692    program     static /audio/mandm/mandm/mandm8722.c
                 __pa_237   0x00669a    program     static /audio/mandm/mandm/mandm8722.c
                 __pa_238   0x0066a2    program     static /audio/mandm/mandm/mandm8722.c
                 __pa_239   0x0066ac    program     static /audio/mandm/mandm/mandm8722.c
                 __pa_240   0x0066b6    program     static /audio/mandm/mandm/mandm8722.c
                 __pa_241   0x0066be    program     static /audio/mandm/mandm/mandm8722.c
                 __pa_242   0x0066c4    program     static /audio/mandm/mandm/mandm8722.c
                 __pa_243   0x0066ca    program     static /audio/mandm/mandm/mandm8722.c
                 __pa_244   0x0066d4    program     static /audio/mandm/mandm/mandm8722.c
                 __pa_245   0x0066da    program     static /audio/mandm/mandm/mandm8722.c
                 ADC_zero   0x0066e0    program     extern /audio/mandm/mandm/daq.c 
        ___while_lbl00001   0x0066fa    program     static                          
       ___return_lbl00000   0x006704    program     static                          
        ___while_lbl00002   0x006704    program     static                          
       Reset_Change_Count   0x006706    program     extern /audio/mandm/mandm/daq.c 
             Change_Count   0x006746    program     extern /audio/mandm/mandm/daq.c 
                 ADC_read   0x006840    program     extern /audio/mandm/mandm/daq.c 
          ___for_lbl00017   0x006868    program     static                          
        ___while_lbl00015   0x006878    program     static                          
        ___while_lbl00016   0x006882    program     static                          
          ___for_lbl00013   0x0068a4    program     static                          
          ___for_lbl00014   0x0068ae    program     static                          
              __tmplbl_23   0x0068fc    program     static                          
          ___for_lbl00022   0x006988    program     static                          
        ___while_lbl00020   0x006998    program     static                          
        ___while_lbl00021   0x0069a2    program     static                          
          ___for_lbl00018   0x0069c4    program     static                          
          ___for_lbl00019   0x0069ce    program     static                          
              __tmplbl_24   0x006a1c    program     static                          
          ___for_lbl00027   0x006aa8    program     static                          
        ___while_lbl00025   0x006ab8    program     static                          
        ___while_lbl00026   0x006ac2    program     static                          
          ___for_lbl00023   0x006ae4    program     static                          
          ___for_lbl00024   0x006aee    program     static                          
              __tmplbl_25   0x006b8a    program     static                          
               __tmplbl_9   0x006c00    program     static                          
           ___if_lbl00028   0x006c0c    program     static                          
              __tmplbl_11   0x006cac    program     static                          
              __tmplbl_10   0x006cd0    program     static                          
           ___if_lbl00030   0x006cda    program     static                          
          ___for_lbl00035   0x006d00    program     static                          
        ___while_lbl00033   0x006d10    program     static                          
        ___while_lbl00034   0x006d1a    program     static                          
          ___for_lbl00031   0x006d3c    program     static                          
          ___for_lbl00032   0x006d46    program     static                          
              __tmplbl_26   0x006de2    program     static                          
              __tmplbl_12   0x006e58    program     static                          
           ___if_lbl00036   0x006e64    program     static                          
              __tmplbl_14   0x006f0a    program     static                          
              __tmplbl_13   0x006f2e    program     static                          
           ___if_lbl00038   0x006f38    program     static                          
          ___for_lbl00043   0x006f60    program     static                          
        ___while_lbl00041   0x006f70    program     static                          
        ___while_lbl00042   0x006f7a    program     static                          
          ___for_lbl00039   0x006f9c    program     static                          
          ___for_lbl00040   0x006fa6    program     static                          
              __tmplbl_27   0x007042    program     static                          
              __tmplbl_15   0x0070b8    program     static                          
           ___if_lbl00044   0x0070c4    program     static                          
              __tmplbl_17   0x007162    program     static                          
              __tmplbl_16   0x007186    program     static                          
           ___if_lbl00046   0x007190    program     static                          
          ___for_lbl00051   0x0071b8    program     static                          
        ___while_lbl00049   0x0071c8    program     static                          
        ___while_lbl00050   0x0071d2    program     static                          
          ___for_lbl00047   0x0071f4    program     static                          
          ___for_lbl00048   0x0071fe    program     static                          
          ___for_lbl00056   0x007266    program     static                          
        ___while_lbl00054   0x007276    program     static                          
        ___while_lbl00055   0x007280    program     static                          
          ___for_lbl00052   0x0072a2    program     static                          
          ___for_lbl00053   0x0072ac    program     static                          
          ___for_lbl00061   0x007314    program     static                          
        ___while_lbl00059   0x007324    program     static                          
        ___while_lbl00060   0x00732e    program     static                          
          ___for_lbl00057   0x007350    program     static                          
          ___for_lbl00058   0x00735a    program     static                          
          ___for_lbl00066   0x0073c2    program     static                          
        ___while_lbl00064   0x0073d2    program     static                          
        ___while_lbl00065   0x0073dc    program     static                          
          ___for_lbl00062   0x0073fe    program     static                          
          ___for_lbl00063   0x007408    program     static                          
          ___for_lbl00071   0x007470    program     static                          
        ___while_lbl00069   0x007480    program     static                          
        ___while_lbl00070   0x00748a    program     static                          
          ___for_lbl00067   0x0074ac    program     static                          
          ___for_lbl00068   0x0074b6    program     static                          
          ___for_lbl00076   0x00751e    program     static                          
        ___while_lbl00074   0x00752e    program     static                          
        ___while_lbl00075   0x007538    program     static                          
          ___for_lbl00072   0x00755a    program     static                          
          ___for_lbl00073   0x007564    program     static                          
          ___for_lbl00092   0x007672    program     static                          
           ___if_lbl00079   0x007862    program     static                          
              __tmplbl_19   0x00788c    program     static                          
              __tmplbl_18   0x007914    program     static                          
         ___else_lbl00082   0x0079ec    program     static                          
           ___if_lbl00081   0x007ac6    program     static                          
           ___if_lbl00083   0x007ac6    program     static                          
              __tmplbl_28   0x007b0a    program     static                          
              __tmplbl_21   0x007b0c    program     static                          
              __tmplbl_20   0x007b12    program     static                          
           ___if_lbl00085   0x007b44    program     static                          
           ___if_lbl00086   0x007b9c    program     static                          
           ___if_lbl00087   0x007ce0    program     static                          
           ___if_lbl00088   0x007dc2    program     static                          
           ___if_lbl00089   0x007e30    program     static                          
           ___if_lbl00090   0x007faa    program     static                          
           ___if_lbl00091   0x008252    program     static                          
          ___for_lbl00077   0x008348    program     static                          
          ___for_lbl00078   0x008354    program     static                          
        ___while_lbl00093   0x00841c    program     static                          
        ___while_lbl00094   0x00842e    program     static                          
           ___if_lbl00095   0x00842e    program     static                          
           ___if_lbl00096   0x00842e    program     static                          
       ___return_lbl00012   0x008434    program     static                          
              zero_amploc   0x008436    program     extern /audio/mandm/mandm/daq.c 
                   __pa_0   0x00852e    program     static /audio/mandm/mandm/daq.c 
                   __pa_1   0x008560    program     static /audio/mandm/mandm/daq.c 
                   __pa_2   0x008580    program     static /audio/mandm/mandm/daq.c 
                   __pa_3   0x008592    program     static /audio/mandm/mandm/daq.c 
                   __pa_4   0x0085a8    program     static /audio/mandm/mandm/daq.c 
                   __pa_5   0x0085b8    program     static /audio/mandm/mandm/daq.c 
               __string_5   0x0085c2    program     static /audio/mandm/mandm/daq.c 
               __string_4   0x0085f1    program     static /audio/mandm/mandm/daq.c 
               __string_3   0x008620    program     static /audio/mandm/mandm/daq.c 
               __string_2   0x00864f    program     static /audio/mandm/mandm/daq.c 
               __string_1   0x00868a    program     static /audio/mandm/mandm/daq.c 
               __string_0   0x0086ca    program     static /audio/mandm/mandm/daq.c 
             __string_269   0x0086e7    program     static /audio/mandm/mandm/mandm8722.c
             __string_268   0x008708    program     static /audio/mandm/mandm/mandm8722.c
             __string_267   0x008731    program     static /audio/mandm/mandm/mandm8722.c
             __string_266   0x00874a    program     static /audio/mandm/mandm/mandm8722.c
             __string_265   0x008767    program     static /audio/mandm/mandm/mandm8722.c
             __string_264   0x00877d    program     static /audio/mandm/mandm/mandm8722.c
             __string_263   0x008796    program     static /audio/mandm/mandm/mandm8722.c
             __string_262   0x0087af    program     static /audio/mandm/mandm/mandm8722.c
             __string_261   0x0087cb    program     static /audio/mandm/mandm/mandm8722.c
             __string_260   0x0087e4    program     static /audio/mandm/mandm/mandm8722.c
             __string_259   0x008804    program     static /audio/mandm/mandm/mandm8722.c
             __string_258   0x008827    program     static /audio/mandm/mandm/mandm8722.c
             __string_257   0x008847    program     static /audio/mandm/mandm/mandm8722.c
             __string_256   0x008864    program     static /audio/mandm/mandm/mandm8722.c
             __string_255   0x00887d    program     static /audio/mandm/mandm/mandm8722.c
             __string_254   0x008895    program     static /audio/mandm/mandm/mandm8722.c
             __string_253   0x0088b4    program     static /audio/mandm/mandm/mandm8722.c
             __string_252   0x0088cc    program     static /audio/mandm/mandm/mandm8722.c
             __string_251   0x0088f5    program     static /audio/mandm/mandm/mandm8722.c
             __string_250   0x00891e    program     static /audio/mandm/mandm/mandm8722.c
             __string_249   0x008948    program     static /audio/mandm/mandm/mandm8722.c
             __string_248   0x00896d    program     static /audio/mandm/mandm/mandm8722.c
             __string_247   0x008982    program     static /audio/mandm/mandm/mandm8722.c
             __string_246   0x0089c0    program     static /audio/mandm/mandm/mandm8722.c
             __string_245   0x0089e3    program     static /audio/mandm/mandm/mandm8722.c
             __string_244   0x008a18    program     static /audio/mandm/mandm/mandm8722.c
             __string_243   0x008a36    program     static /audio/mandm/mandm/mandm8722.c
             __string_242   0x008a53    program     static /audio/mandm/mandm/mandm8722.c
             __string_241   0x008a71    program     static /audio/mandm/mandm/mandm8722.c
             __string_240   0x008a86    program     static /audio/mandm/mandm/mandm8722.c
             __string_239   0x008ab2    program     static /audio/mandm/mandm/mandm8722.c
             __string_238   0x008ac9    program     static /audio/mandm/mandm/mandm8722.c
             __string_237   0x008ae0    program     static /audio/mandm/mandm/mandm8722.c
             __string_236   0x008af6    program     static /audio/mandm/mandm/mandm8722.c
             __string_235   0x008b0d    program     static /audio/mandm/mandm/mandm8722.c
             __string_234   0x008b24    program     static /audio/mandm/mandm/mandm8722.c
             __string_233   0x008b3b    program     static /audio/mandm/mandm/mandm8722.c
             __string_232   0x008b67    program     static /audio/mandm/mandm/mandm8722.c
             __string_231   0x008b89    program     static /audio/mandm/mandm/mandm8722.c
             __string_230   0x008ba0    program     static /audio/mandm/mandm/mandm8722.c
             __string_229   0x008bc8    program     static /audio/mandm/mandm/mandm8722.c
             __string_228   0x008bf0    program     static /audio/mandm/mandm/mandm8722.c
             __string_227   0x008c18    program     static /audio/mandm/mandm/mandm8722.c
             __string_226   0x008c40    program     static /audio/mandm/mandm/mandm8722.c
             __string_225   0x008c58    program     static /audio/mandm/mandm/mandm8722.c
             __string_224   0x008c7d    program     static /audio/mandm/mandm/mandm8722.c
             __string_223   0x008c9a    program     static /audio/mandm/mandm/mandm8722.c
             __string_222   0x008cc0    program     static /audio/mandm/mandm/mandm8722.c
             __string_221   0x008cde    program     static /audio/mandm/mandm/mandm8722.c
             __string_220   0x008cfa    program     static /audio/mandm/mandm/mandm8722.c
             __string_219   0x008d11    program     static /audio/mandm/mandm/mandm8722.c
             __string_218   0x008d28    program     static /audio/mandm/mandm/mandm8722.c
             __string_217   0x008d48    program     static /audio/mandm/mandm/mandm8722.c
             __string_216   0x008d73    program     static /audio/mandm/mandm/mandm8722.c
             __string_215   0x008d8e    program     static /audio/mandm/mandm/mandm8722.c
             __string_214   0x008dbb    program     static /audio/mandm/mandm/mandm8722.c
             __string_213   0x008de3    program     static /audio/mandm/mandm/mandm8722.c
             __string_212   0x008e02    program     static /audio/mandm/mandm/mandm8722.c
             __string_211   0x008e2d    program     static /audio/mandm/mandm/mandm8722.c
             __string_210   0x008e49    program     static /audio/mandm/mandm/mandm8722.c
             __string_209   0x008e77    program     static /audio/mandm/mandm/mandm8722.c
             __string_208   0x008e9b    program     static /audio/mandm/mandm/mandm8722.c
             __string_207   0x008eb9    program     static /audio/mandm/mandm/mandm8722.c
             __string_206   0x008ed8    program     static /audio/mandm/mandm/mandm8722.c
             __string_205   0x008ef7    program     static /audio/mandm/mandm/mandm8722.c
             __string_204   0x008f16    program     static /audio/mandm/mandm/mandm8722.c
             __string_203   0x008f2d    program     static /audio/mandm/mandm/mandm8722.c
             __string_202   0x008f44    program     static /audio/mandm/mandm/mandm8722.c
             __string_201   0x008f5b    program     static /audio/mandm/mandm/mandm8722.c
             __string_200   0x008f71    program     static /audio/mandm/mandm/mandm8722.c
             __string_199   0x008f87    program     static /audio/mandm/mandm/mandm8722.c
             __string_198   0x008f9d    program     static /audio/mandm/mandm/mandm8722.c
             __string_197   0x008fc4    program     static /audio/mandm/mandm/mandm8722.c
             __string_196   0x008feb    program     static /audio/mandm/mandm/mandm8722.c
             __string_195   0x009012    program     static /audio/mandm/mandm/mandm8722.c
             __string_194   0x009033    program     static /audio/mandm/mandm/mandm8722.c
             __string_193   0x00905a    program     static /audio/mandm/mandm/mandm8722.c
             __string_192   0x00907c    program     static /audio/mandm/mandm/mandm8722.c
             __string_191   0x0090a5    program     static /audio/mandm/mandm/mandm8722.c
             __string_190   0x0090ba    program     static /audio/mandm/mandm/mandm8722.c
             __string_189   0x0090e3    program     static /audio/mandm/mandm/mandm8722.c
             __string_188   0x0090fb    program     static /audio/mandm/mandm/mandm8722.c
             __string_187   0x009124    program     static /audio/mandm/mandm/mandm8722.c
             __string_186   0x00914b    program     static /audio/mandm/mandm/mandm8722.c
             __string_185   0x009172    program     static /audio/mandm/mandm/mandm8722.c
             __string_184   0x009199    program     static /audio/mandm/mandm/mandm8722.c
             __string_183   0x0091c2    program     static /audio/mandm/mandm/mandm8722.c
             __string_182   0x0091eb    program     static /audio/mandm/mandm/mandm8722.c
             __string_181   0x009214    program     static /audio/mandm/mandm/mandm8722.c
             __string_180   0x00922e    program     static /audio/mandm/mandm/mandm8722.c
             __string_179   0x009255    program     static /audio/mandm/mandm/mandm8722.c
             __string_178   0x009272    program     static /audio/mandm/mandm/mandm8722.c
             __string_177   0x009293    program     static /audio/mandm/mandm/mandm8722.c
             __string_176   0x0092bc    program     static /audio/mandm/mandm/mandm8722.c
             __string_175   0x0092d2    program     static /audio/mandm/mandm/mandm8722.c
             __string_174   0x0092e8    program     static /audio/mandm/mandm/mandm8722.c
             __string_173   0x0092fe    program     static /audio/mandm/mandm/mandm8722.c
             __string_172   0x009314    program     static /audio/mandm/mandm/mandm8722.c
             __string_171   0x00933f    program     static /audio/mandm/mandm/mandm8722.c
             __string_170   0x009352    program     static /audio/mandm/mandm/mandm8722.c
             __string_169   0x009369    program     static /audio/mandm/mandm/mandm8722.c
             __string_168   0x009380    program     static /audio/mandm/mandm/mandm8722.c
             __string_167   0x009398    program     static /audio/mandm/mandm/mandm8722.c
             __string_166   0x0093a7    program     static /audio/mandm/mandm/mandm8722.c
             __string_165   0x0093bf    program     static /audio/mandm/mandm/mandm8722.c
             __string_164   0x0093da    program     static /audio/mandm/mandm/mandm8722.c
             __string_163   0x0093e9    program     static /audio/mandm/mandm/mandm8722.c
             __string_162   0x009404    program     static /audio/mandm/mandm/mandm8722.c
             __string_161   0x009416    program     static /audio/mandm/mandm/mandm8722.c
             __string_160   0x009467    program     static /audio/mandm/mandm/mandm8722.c
             __string_159   0x009484    program     static /audio/mandm/mandm/mandm8722.c
             __string_158   0x0094c1    program     static /audio/mandm/mandm/mandm8722.c
             __string_157   0x009513    program     static /audio/mandm/mandm/mandm8722.c
             __string_156   0x009532    program     static /audio/mandm/mandm/mandm8722.c
             __string_155   0x00954c    program     static /audio/mandm/mandm/mandm8722.c
             __string_154   0x0095a2    program     static /audio/mandm/mandm/mandm8722.c
             __string_153   0x0095f1    program     static /audio/mandm/mandm/mandm8722.c
             __string_152   0x009608    program     static /audio/mandm/mandm/mandm8722.c
             __string_151   0x00961e    program     static /audio/mandm/mandm/mandm8722.c
             __string_150   0x009655    program     static /audio/mandm/mandm/mandm8722.c
             __string_149   0x009692    program     static /audio/mandm/mandm/mandm8722.c
             __string_148   0x0096ad    program     static /audio/mandm/mandm/mandm8722.c
             __string_147   0x0096f4    program     static /audio/mandm/mandm/mandm8722.c
             __string_146   0x009741    program     static /audio/mandm/mandm/mandm8722.c
             __string_145   0x009764    program     static /audio/mandm/mandm/mandm8722.c
             __string_144   0x009788    program     static /audio/mandm/mandm/mandm8722.c
             __string_143   0x0097a1    program     static /audio/mandm/mandm/mandm8722.c
             __string_142   0x0097bb    program     static /audio/mandm/mandm/mandm8722.c
             __string_141   0x0097db    program     static /audio/mandm/mandm/mandm8722.c
             __string_140   0x0097f5    program     static /audio/mandm/mandm/mandm8722.c
             __string_139   0x00980f    program     static /audio/mandm/mandm/mandm8722.c
             __string_138   0x009821    program     static /audio/mandm/mandm/mandm8722.c
             __string_137   0x00982b    program     static /audio/mandm/mandm/mandm8722.c
             __string_136   0x009838    program     static /audio/mandm/mandm/mandm8722.c
             __string_135   0x00983e    program     static /audio/mandm/mandm/mandm8722.c
             __string_134   0x009846    program     static /audio/mandm/mandm/mandm8722.c
             __string_133   0x00984e    program     static /audio/mandm/mandm/mandm8722.c
             __string_132   0x00985a    program     static /audio/mandm/mandm/mandm8722.c
             __string_131   0x00986c    program     static /audio/mandm/mandm/mandm8722.c
             __string_130   0x009884    program     static /audio/mandm/mandm/mandm8722.c
             __string_129   0x0098a5    program     static /audio/mandm/mandm/mandm8722.c
             __string_128   0x00991d    program     static /audio/mandm/mandm/mandm8722.c
             __string_127   0x00997c    program     static /audio/mandm/mandm/mandm8722.c
             __string_126   0x009a3b    program     static /audio/mandm/mandm/mandm8722.c
             __string_125   0x009aca    program     static /audio/mandm/mandm/mandm8722.c
             __string_124   0x009ae0    program     static /audio/mandm/mandm/mandm8722.c
             __string_123   0x009ae2    program     static /audio/mandm/mandm/mandm8722.c
             __string_122   0x009ae7    program     static /audio/mandm/mandm/mandm8722.c
             __string_121   0x009aea    program     static /audio/mandm/mandm/mandm8722.c
             __string_120   0x009af1    program     static /audio/mandm/mandm/mandm8722.c
             __string_119   0x009b0a    program     static /audio/mandm/mandm/mandm8722.c
             __string_118   0x009b13    program     static /audio/mandm/mandm/mandm8722.c
              __string_10   0x009b1f    program     static /audio/mandm/mandm/config.c
               __string_9   0x009b43    program     static /audio/mandm/mandm/config.c
               __string_8   0x009b67    program     static /audio/mandm/mandm/config.c
               __string_7   0x009b7e    program     static /audio/mandm/mandm/config.c
               __string_6   0x009ba0    program     static /audio/mandm/mandm/config.c
               __string_5   0x009bc7    program     static /audio/mandm/mandm/config.c
               __string_4   0x009bec    program     static /audio/mandm/mandm/config.c
               __string_3   0x009c0f    program     static /audio/mandm/mandm/config.c
               __string_2   0x009c31    program     static /audio/mandm/mandm/config.c
               __string_1   0x009c56    program     static /audio/mandm/mandm/config.c
               __string_0   0x009c7b    program     static /audio/mandm/mandm/config.c
                     spin   0x009c7e    program     extern /audio/mandm/mandm/mandm_msg.h
        menutext_template   0x009cf6    program     extern /audio/mandm/mandm/mandm_msg.h
                 menutext   0x009dbf    program     extern /audio/mandm/mandm/mandm_msg.h
          menuselect_free   0x009e88    program     extern /audio/mandm/mandm/mandm_msg.h
         menuselect_track   0x00a014    program     extern /audio/mandm/mandm/mandm_msg.h
                 lowbatt0   0x00a1a0    program     extern /audio/mandm/mandm/mandm_msg.h
                    zero0   0x00a1e3    program     extern /audio/mandm/mandm/mandm_msg.h
                    zero1   0x00a20d    program     extern /audio/mandm/mandm/mandm_msg.h
                    zero2   0x00a249    program     extern /audio/mandm/mandm/mandm_msg.h
                    zero3   0x00a27d    program     extern /audio/mandm/mandm/mandm_msg.h
                    adcg0   0x00a2b7    program     extern /audio/mandm/mandm/mandm_msg.h
                    adcg1   0x00a2f7    program     extern /audio/mandm/mandm/mandm_msg.h
                    adcg2   0x00a322    program     extern /audio/mandm/mandm/mandm_msg.h
                    adcg3   0x00a355    program     extern /audio/mandm/mandm/mandm_msg.h
                    adcg4   0x00a3c1    program     extern /audio/mandm/mandm/mandm_msg.h
                   tweak0   0x00a3f8    program     extern /audio/mandm/mandm/mandm_msg.h
                   tweak1   0x00a495    program     extern /audio/mandm/mandm/mandm_msg.h
                   tweak2   0x00a4be    program     extern /audio/mandm/mandm/mandm_msg.h
                   tweak3   0x00a4e2    program     extern /audio/mandm/mandm/mandm_msg.h
                   tweak4   0x00a561    program     extern /audio/mandm/mandm/mandm_msg.h
                   tweak5   0x00a591    program     extern /audio/mandm/mandm/mandm_msg.h
                 tweak_t1   0x00a617    program     extern /audio/mandm/mandm/mandm_msg.h
                 tweak_t2   0x00a61c    program     extern /audio/mandm/mandm/mandm_msg.h
                 tweak_t3   0x00a620    program     extern /audio/mandm/mandm/mandm_msg.h
                 tweak_t4   0x00a624    program     extern /audio/mandm/mandm/mandm_msg.h
                 tweak_tw   0x00a629    program     extern /audio/mandm/mandm/mandm_msg.h
                   hello0   0x00a639    program     extern /audio/mandm/mandm/mandm_msg.h
                   hello1   0x00a686    program     extern /audio/mandm/mandm/mandm_msg.h
                    hold0   0x00a693    program     extern /audio/mandm/mandm/mandm_msg.h
                    hold1   0x00a6f1    program     extern /audio/mandm/mandm/mandm_msg.h
                    sync0   0x00a72a    program     extern /audio/mandm/mandm/mandm_msg.h
                    sync1   0x00a75e    program     extern /audio/mandm/mandm/mandm_msg.h
                    sync2   0x00a77c    program     extern /audio/mandm/mandm/mandm_msg.h
                 keycmds0   0x00a79a    program     extern /audio/mandm/mandm/mandm_msg.h
                 keycmds1   0x00a7e4    program     extern /audio/mandm/mandm/mandm_msg.h
              battheader0   0x00a82e    program     extern /audio/mandm/mandm/mandm_msg.h
              battheader1   0x00a8a2    program     extern /audio/mandm/mandm/mandm_msg.h
             modelheader0   0x00a92c    program     extern /audio/mandm/mandm/mandm_msg.h
             modelheader1   0x00a94b    program     extern /audio/mandm/mandm/mandm_msg.h
              battbuffer0   0x00a963    program     extern /audio/mandm/mandm/mandm_msg.h
                  sddump0   0x00a98b    program     extern /audio/mandm/mandm/mandm_msg.h
                  sddump1   0x00a9b9    program     extern /audio/mandm/mandm/mandm_msg.h
                  sddump2   0x00a9ef    program     extern /audio/mandm/mandm/mandm_msg.h
                  sddump3   0x00aa06    program     extern /audio/mandm/mandm/mandm_msg.h
                  divert0   0x00aa33    program     extern /audio/mandm/mandm/mandm_msg.h
                  divert1   0x00aa53    program     extern /audio/mandm/mandm/mandm_msg.h
                 divert99   0x00aa74    program     extern /audio/mandm/mandm/mandm_msg.h
                 almcode0   0x00aa75    program     extern /audio/mandm/mandm/mandm_msg.h
                 almcode1   0x00aa95    program     extern /audio/mandm/mandm/mandm_msg.h
                 almcode2   0x00aac5    program     extern /audio/mandm/mandm/mandm_msg.h
                 almcode3   0x00aae8    program     extern /audio/mandm/mandm/mandm_msg.h
                 almcode4   0x00ab0b    program     extern /audio/mandm/mandm/mandm_msg.h
                 almcode5   0x00ab3c    program     extern /audio/mandm/mandm/mandm_msg.h
                 almcode6   0x00ab70    program     extern /audio/mandm/mandm/mandm_msg.h
                 almcode7   0x00aba5    program     extern /audio/mandm/mandm/mandm_msg.h
                 almcode8   0x00abde    program     extern /audio/mandm/mandm/mandm_msg.h
                 almcode9   0x00ac0c    program     extern /audio/mandm/mandm/mandm_msg.h
                almcode10   0x00ac3c    program     extern /audio/mandm/mandm/mandm_msg.h
                almcode11   0x00ac7d    program     extern /audio/mandm/mandm/mandm_msg.h
                almcode12   0x00aca3    program     extern /audio/mandm/mandm/mandm_msg.h
                almcode13   0x00acc9    program     extern /audio/mandm/mandm/mandm_msg.h
                almcode14   0x00acf5    program     extern /audio/mandm/mandm/mandm_msg.h
                almcode15   0x00ad0d    program     extern /audio/mandm/mandm/mandm_msg.h
                almcode16   0x00ad24    program     extern /audio/mandm/mandm/mandm_msg.h
                almcode17   0x00ad51    program     extern /audio/mandm/mandm/mandm_msg.h
                almcode99   0x00ad70    program     extern /audio/mandm/mandm/mandm_msg.h
                chrgcode0   0x00ad71    program     extern /audio/mandm/mandm/mandm_msg.h
                chrgcode1   0x00ada2    program     extern /audio/mandm/mandm/mandm_msg.h
                chrgcode2   0x00add8    program     extern /audio/mandm/mandm/mandm_msg.h
                chrgcode3   0x00ae04    program     extern /audio/mandm/mandm/mandm_msg.h
                chrgcode4   0x00ae35    program     extern /audio/mandm/mandm/mandm_msg.h
                chrgcode5   0x00ae6d    program     extern /audio/mandm/mandm/mandm_msg.h
                chrgcode6   0x00ae80    program     extern /audio/mandm/mandm/mandm_msg.h
                chrgcode7   0x00aea0    program     extern /audio/mandm/mandm/mandm_msg.h
                chrgcode8   0x00aecd    program     extern /audio/mandm/mandm/mandm_msg.h
                chrgcode9   0x00aef7    program     extern /audio/mandm/mandm/mandm_msg.h
               chrgcode10   0x00af1c    program     extern /audio/mandm/mandm/mandm_msg.h
               chrgcode11   0x00af49    program     extern /audio/mandm/mandm/mandm_msg.h
               chrgcode12   0x00af74    program     extern /audio/mandm/mandm/mandm_msg.h
               chrgcode13   0x00afa2    program     extern /audio/mandm/mandm/mandm_msg.h
               chrgcode14   0x00afcf    program     extern /audio/mandm/mandm/mandm_msg.h
               chrgcode15   0x00b003    program     extern /audio/mandm/mandm/mandm_msg.h
               chrgcode16   0x00b02d    program     extern /audio/mandm/mandm/mandm_msg.h
                 charger0   0x00b057    program     extern /audio/mandm/mandm/mandm_msg.h
                 charger1   0x00b08e    program     extern /audio/mandm/mandm/mandm_msg.h
                 charger2   0x00b0c8    program     extern /audio/mandm/mandm/mandm_msg.h
                 charger3   0x00b106    program     extern /audio/mandm/mandm/mandm_msg.h
                 charger4   0x00b125    program     extern /audio/mandm/mandm/mandm_msg.h
                charger99   0x00b145    program     extern /audio/mandm/mandm/mandm_msg.h
             tick_handler   0x00b146    program     extern /audio/mandm/mandm/mandm_vector.c
           ___if_lbl00001   0x00b18a    program     static                          
         ___else_lbl00003   0x00b1c0    program     static                          
           ___if_lbl00002   0x00b1d2    program     static                          
           ___if_lbl00004   0x00b1dc    program     static                          
           ___if_lbl00005   0x00b1e6    program     static                          
           ___if_lbl00006   0x00b1f0    program     static                          
           ___if_lbl00007   0x00b1f0    program     static                          
         ___else_lbl00009   0x00b288    program     static                          
           ___if_lbl00008   0x00b2a6    program     static                          
         ___else_lbl00011   0x00b2a8    program     static                          
           ___if_lbl00010   0x00b2b6    program     static                          
           ___if_lbl00012   0x00b2b6    program     static                          
         ___else_lbl00014   0x00b322    program     static                          
           ___if_lbl00013   0x00b340    program     static                          
         ___else_lbl00016   0x00b342    program     static                          
           ___if_lbl00015   0x00b350    program     static                          
           ___if_lbl00017   0x00b350    program     static                          
           ___if_lbl00018   0x00b354    program     static                          
               __tmplbl_1   0x00b35a    program     static                          
               __tmplbl_0   0x00b360    program     static                          
           ___if_lbl00020   0x00b362    program     static                          
           ___if_lbl00021   0x00b376    program     static                          
               __tmplbl_3   0x00b37c    program     static                          
               __tmplbl_2   0x00b382    program     static                          
           ___if_lbl00023   0x00b390    program     static                          
           ___if_lbl00024   0x00b3be    program     static                          
               __tmplbl_4   0x00b3f0    program     static                          
           ___if_lbl00025   0x00b3f2    program     static                          
         ___else_lbl00027   0x00b3fe    program     static                          
           ___if_lbl00026   0x00b406    program     static                          
           ___if_lbl00028   0x00b432    program     static                          
       ___case_0_lbl00030   0x00b444    program     static                          
       ___case_1_lbl00031   0x00b44a    program     static                          
       ___case_2_lbl00032   0x00b452    program     static                          
      ___default_lbl00033   0x00b45a    program     static                          
   ___switchexit_lbl00029   0x00b460    program     static                          
           ___if_lbl00034   0x00b460    program     static                          
           ___if_lbl00035   0x00b460    program     static                          
           ___if_lbl00036   0x00b466    program     static                          
           ___if_lbl00037   0x00b46c    program     static                          
           ___if_lbl00038   0x00b472    program     static                          
           ___if_lbl00039   0x00b478    program     static                          
           ___if_lbl00040   0x00b478    program     static                          
           ___if_lbl00041   0x00b498    program     static                          
           ___if_lbl00042   0x00b49c    program     static                          
           ___if_lbl00043   0x00b4b4    program     static                          
           ___if_lbl00044   0x00b4ca    program     static                          
           ___if_lbl00045   0x00b4d8    program     static                          
           ___if_lbl00046   0x00b4e6    program     static                          
           ___if_lbl00047   0x00b4f4    program     static                          
           ___if_lbl00048   0x00b502    program     static                          
           ___if_lbl00049   0x00b510    program     static                          
               __tmplbl_6   0x00b518    program     static                          
               __tmplbl_5   0x00b520    program     static                          
           ___if_lbl00051   0x00b526    program     static                          
               __tmplbl_8   0x00b52e    program     static                          
               __tmplbl_7   0x00b536    program     static                          
           ___if_lbl00053   0x00b53c    program     static                          
              __tmplbl_10   0x00b544    program     static                          
               __tmplbl_9   0x00b54c    program     static                          
           ___if_lbl00055   0x00b550    program     static                          
        ___while_lbl00056   0x00b558    program     static                          
        ___while_lbl00057   0x00b55a    program     static                          
           ___if_lbl00058   0x00b55a    program     static                          
              __tmplbl_12   0x00b562    program     static                          
              __tmplbl_11   0x00b568    program     static                          
           ___if_lbl00060   0x00b56c    program     static                          
           ___if_lbl00061   0x00b56c    program     static                          
              __tmplbl_14   0x00b584    program     static                          
              __tmplbl_13   0x00b58a    program     static                          
           ___if_lbl00063   0x00b590    program     static                          
           ___if_lbl00064   0x00b594    program     static                          
              __tmplbl_16   0x00b5ac    program     static                          
              __tmplbl_15   0x00b5b2    program     static                          
           ___if_lbl00066   0x00b5b8    program     static                          
           ___if_lbl00067   0x00b5bc    program     static                          
              __tmplbl_18   0x00b5d4    program     static                          
              __tmplbl_17   0x00b5da    program     static                          
           ___if_lbl00069   0x00b5f6    program     static                          
         ___else_lbl00071   0x00b5f8    program     static                          
           ___if_lbl00070   0x00b600    program     static                          
           ___if_lbl00073   0x00b61e    program     static                          
           ___if_lbl00072   0x00b61e    program     static                          
           ___if_lbl00074   0x00b622    program     static                          
              __tmplbl_20   0x00b628    program     static                          
              __tmplbl_19   0x00b62e    program     static                          
           ___if_lbl00076   0x00b640    program     static                          
              __tmplbl_21   0x00b686    program     static                          
              __tmplbl_22   0x00b6b0    program     static                          
           ___if_lbl00078   0x00b6c4    program     static                          
           ___if_lbl00077   0x00b6c4    program     static                          
           ___if_lbl00079   0x00b6c4    program     static                          
           ___if_lbl00082   0x00b748    program     static                          
         ___else_lbl00084   0x00b752    program     static                          
           ___if_lbl00083   0x00b756    program     static                          
         ___else_lbl00086   0x00b760    program     static                          
           ___if_lbl00085   0x00b764    program     static                          
         ___else_lbl00088   0x00b76e    program     static                          
           ___if_lbl00087   0x00b772    program     static                          
         ___else_lbl00090   0x00b7a6    program     static                          
           ___if_lbl00089   0x00b7d6    program     static                          
         ___else_lbl00092   0x00b80c    program     static                          
           ___if_lbl00091   0x00b83e    program     static                          
         ___else_lbl00098   0x00b874    program     static                          
              __tmplbl_23   0x00b8c4    program     static                          
              __tmplbl_24   0x00b912    program     static                          
           ___if_lbl00093   0x00b920    program     static                          
              __tmplbl_25   0x00b93a    program     static                          
           ___if_lbl00094   0x00b948    program     static                          
           ___if_lbl00095   0x00b978    program     static                          
              __tmplbl_26   0x00b9c4    program     static                          
           ___if_lbl00096   0x00b9cc    program     static                          
           ___if_lbl00097   0x00b9ce    program     static                          
           ___if_lbl00099   0x00ba2c    program     static                          
           ___if_lbl00100   0x00ba96    program     static                          
           ___if_lbl00101   0x00baf4    program     static                          
           ___if_lbl00102   0x00bb60    program     static                          
         ___else_lbl00104   0x00bbf8    program     static                          
           ___if_lbl00103   0x00bc56    program     static                          
              __tmplbl_36   0x00bc9c    program     static                          
              __tmplbl_28   0x00bc9e    program     static                          
              __tmplbl_27   0x00bcdc    program     static                          
           ___if_lbl00106   0x00bd04    program     static                          
         ___else_lbl00108   0x00bd06    program     static                          
           ___if_lbl00107   0x00bd26    program     static                          
              __tmplbl_32   0x00bd38    program     static                          
              __tmplbl_31   0x00bd3e    program     static                          
              __tmplbl_30   0x00bd44    program     static                          
              __tmplbl_29   0x00bd66    program     static                          
         ___else_lbl00116   0x00bd6a    program     static                          
         ___else_lbl00114   0x00bd90    program     static                          
           ___if_lbl00115   0x00bdb4    program     static                          
           ___if_lbl00113   0x00bdb4    program     static                          
           ___if_lbl00117   0x00bdb4    program     static                          
           ___if_lbl00112   0x00bdb4    program     static                          
           ___if_lbl00118   0x00bdb4    program     static                          
              __tmplbl_33   0x00bdf0    program     static                          
           ___if_lbl00120   0x00be08    program     static                          
           ___if_lbl00119   0x00be08    program     static                          
           ___if_lbl00121   0x00be24    program     static                          
           ___if_lbl00122   0x00be32    program     static                          
              __tmplbl_35   0x00be38    program     static                          
              __tmplbl_34   0x00be3e    program     static                          
           ___if_lbl00125   0x00be4e    program     static                          
           ___if_lbl00124   0x00be4e    program     static                          
       ___return_lbl00000   0x00be4e    program     static                          
             work_handler   0x00be6e    program     extern /audio/mandm/mandm/mandm_vector.c
                idle_loop   0x00be90    program     extern /audio/mandm/mandm/mandm_vector.c
       ___return_lbl00127   0x00be9c    program     static                          
                   P1wait   0x00be9e    program     extern /audio/mandm/mandm/mandm_vector.c
                   P2wait   0x00bea4    program     extern /audio/mandm/mandm/mandm_vector.c
        Clear_All_Buttons   0x00beaa    program     extern /audio/mandm/mandm/mandm_vector.c
             buzzer_ticks   0x00bebe    program     extern /audio/mandm/mandm/mandm_vector.c
             voice1_ticks   0x00bec8    program     extern /audio/mandm/mandm/mandm_vector.c
             voice2_ticks   0x00bed4    program     extern /audio/mandm/mandm/mandm_vector.c
         slow_timer_start   0x00bee0    program     extern /audio/mandm/mandm/mandm_vector.c
                   __pa_0   0x00beee    program     static /audio/mandm/mandm/mandm_vector.c
                   __pa_1   0x00befa    program     static /audio/mandm/mandm/mandm_vector.c
                  __subFP   0x00bf02    program     extern C:\MCC18\v3_39\src\extended\math\addFP.asm
                  __addFP   0x00bf06    program     extern C:\MCC18\v3_39\src\extended\math\addFP.asm
                     jBeg   0x00bf08    program     static C:\MCC18\v3_39\src\extended\math\addFP.asm
                jBANotInf   0x00bf3e    program     static C:\MCC18\v3_39\src\extended\math\addFP.asm
                 jANotInf   0x00bf48    program     static C:\MCC18\v3_39\src\extended\math\addFP.asm
                 jBNotInf   0x00bf56    program     static C:\MCC18\v3_39\src\extended\math\addFP.asm
            jDifOrPosSign   0x00bf6a    program     static C:\MCC18\v3_39\src\extended\math\addFP.asm
             jNotBothZero   0x00bf6e    program     static C:\MCC18\v3_39\src\extended\math\addFP.asm
                 jAltBexp   0x00bf9a    program     static C:\MCC18\v3_39\src\extended\math\addFP.asm
              jAandWsetup   0x00bfac    program     static C:\MCC18\v3_39\src\extended\math\addFP.asm
                 jANotNeg   0x00bfdc    program     static C:\MCC18\v3_39\src\extended\math\addFP.asm
                 jWNotNeg   0x00bff0    program     static C:\MCC18\v3_39\src\extended\math\addFP.asm
               jShiftLoop   0x00bff6    program     static C:\MCC18\v3_39\src\extended\math\addFP.asm
               jShiftDone   0x00c004    program     static C:\MCC18\v3_39\src\extended\math\addFP.asm
                jSignDone   0x00c034    program     static C:\MCC18\v3_39\src\extended\math\addFP.asm
               jFinalSign   0x00c044    program     static C:\MCC18\v3_39\src\extended\math\addFP.asm
                 __FpPack   0x00c04c    program     extern C:\MCC18\v3_39\src\extended\math\packFP.asm
                  jPkLoop   0x00c05a    program     static C:\MCC18\v3_39\src\extended\math\packFP.asm
             jPkShiftDone   0x00c076    program     static C:\MCC18\v3_39\src\extended\math\packFP.asm
               jPkRoundIt   0x00c08c    program     static C:\MCC18\v3_39\src\extended\math\packFP.asm
              __FpReturnW   0x00c0a4    program     extern C:\MCC18\v3_39\src\extended\math\packFP.asm
             jPkRoundDone   0x00c0a4    program     static C:\MCC18\v3_39\src\extended\math\packFP.asm
                    jExit   0x00c0c0    program     static C:\MCC18\v3_39\src\extended\math\packFP.asm
            __FpReturnNaN   0x00c0ce    program     extern C:\MCC18\v3_39\src\extended\math\packFP.asm
        __FpReturnSignInf   0x00c0dc    program     extern C:\MCC18\v3_39\src\extended\math\packFP.asm
         __FpReturnNegInf   0x00c0e0    program     extern C:\MCC18\v3_39\src\extended\math\packFP.asm
         __FpReturnPosInf   0x00c0e6    program     extern C:\MCC18\v3_39\src\extended\math\packFP.asm
           jReturnPosInf0   0x00c0ea    program     static C:\MCC18\v3_39\src\extended\math\packFP.asm
               jZero1and2   0x00c0ee    program     static C:\MCC18\v3_39\src\extended\math\packFP.asm
       __FpReturnSignZero   0x00c0f4    program     extern C:\MCC18\v3_39\src\extended\math\packFP.asm
        __FpReturnNegZero   0x00c0f8    program     extern C:\MCC18\v3_39\src\extended\math\packFP.asm
        __FpReturnPosZero   0x00c100    program     extern C:\MCC18\v3_39\src\extended\math\packFP.asm
              __FpUnPackA   0x00c106    program     extern C:\MCC18\v3_39\src\extended\math\unpackFP.asm
                  jUnpkA1   0x00c110    program     static C:\MCC18\v3_39\src\extended\math\unpackFP.asm
                 jUnpkANZ   0x00c11e    program     static C:\MCC18\v3_39\src\extended\math\unpackFP.asm
                  jUnpkA2   0x00c128    program     static C:\MCC18\v3_39\src\extended\math\unpackFP.asm
                 jUnpkNaN   0x00c132    program     static C:\MCC18\v3_39\src\extended\math\unpackFP.asm
              __FpUnPackB   0x00c136    program     extern C:\MCC18\v3_39\src\extended\math\unpackFP.asm
                  jUnpkB1   0x00c140    program     static C:\MCC18\v3_39\src\extended\math\unpackFP.asm
                 jUnpkBNZ   0x00c14e    program     static C:\MCC18\v3_39\src\extended\math\unpackFP.asm
                  jUnpkB2   0x00c158    program     static C:\MCC18\v3_39\src\extended\math\unpackFP.asm
              __cast16uFP   0x00c162    program     extern C:\MCC18\v3_39\src\extended\math\cast16FP.asm
              __cast16sFP   0x00c166    program     extern C:\MCC18\v3_39\src\extended\math\cast16FP.asm
                     jBeg   0x00c168    program     static C:\MCC18\v3_39\src\extended\math\cast16FP.asm
                  jNotNeg   0x00c18e    program     static C:\MCC18\v3_39\src\extended\math\cast16FP.asm
              __cast32uFP   0x00c1a4    program     extern C:\MCC18\v3_39\src\extended\math\cast32FP.asm
              __cast32sFP   0x00c1a8    program     extern C:\MCC18\v3_39\src\extended\math\cast32FP.asm
                     jBeg   0x00c1aa    program     static C:\MCC18\v3_39\src\extended\math\cast32FP.asm
                  jNotNeg   0x00c1d8    program     static C:\MCC18\v3_39\src\extended\math\cast32FP.asm
               __castFP16   0x00c1f2    program     extern C:\MCC18\v3_39\src\extended\math\castFP16.asm
                     jMax   0x00c216    program     static C:\MCC18\v3_39\src\extended\math\castFP16.asm
                  jMaxPos   0x00c21a    program     static C:\MCC18\v3_39\src\extended\math\castFP16.asm
                  jMaxNeg   0x00c224    program     static C:\MCC18\v3_39\src\extended\math\castFP16.asm
                    jZero   0x00c22c    program     static C:\MCC18\v3_39\src\extended\math\castFP16.asm
                  jNotInf   0x00c232    program     static C:\MCC18\v3_39\src\extended\math\castFP16.asm
                    jLoop   0x00c242    program     static C:\MCC18\v3_39\src\extended\math\castFP16.asm
                jLoopExit   0x00c252    program     static C:\MCC18\v3_39\src\extended\math\castFP16.asm
                    jDone   0x00c262    program     static C:\MCC18\v3_39\src\extended\math\castFP16.asm
                    jExit   0x00c26a    program     static C:\MCC18\v3_39\src\extended\math\castFP16.asm
               __castFP32   0x00c278    program     extern C:\MCC18\v3_39\src\extended\math\castFP32.asm
                     jMax   0x00c29c    program     static C:\MCC18\v3_39\src\extended\math\castFP32.asm
                  jMaxPos   0x00c2a0    program     static C:\MCC18\v3_39\src\extended\math\castFP32.asm
                   jWr123   0x00c2a6    program     static C:\MCC18\v3_39\src\extended\math\castFP32.asm
                  jMaxNeg   0x00c2ae    program     static C:\MCC18\v3_39\src\extended\math\castFP32.asm
                    jZero   0x00c2b4    program     static C:\MCC18\v3_39\src\extended\math\castFP32.asm
                  jWrZ123   0x00c2b6    program     static C:\MCC18\v3_39\src\extended\math\castFP32.asm
                  jNotInf   0x00c2ba    program     static C:\MCC18\v3_39\src\extended\math\castFP32.asm
                    jLoop   0x00c2cc    program     static C:\MCC18\v3_39\src\extended\math\castFP32.asm
                jLoopExit   0x00c2e0    program     static C:\MCC18\v3_39\src\extended\math\castFP32.asm
                    jDone   0x00c2f8    program     static C:\MCC18\v3_39\src\extended\math\castFP32.asm
                    jExit   0x00c308    program     static C:\MCC18\v3_39\src\extended\math\castFP32.asm
                 SETUPSTK   0x00c316    program     static C:\MCC18\v3_39\src\extended\math\div16s.asm
                 __div16s   0x00c32e    program     extern C:\MCC18\v3_39\src\extended\math\div16s.asm
                 __mod16s   0x00c334    program     extern C:\MCC18\v3_39\src\extended\math\div16s.asm
                  SETSIGN   0x00c336    program     static C:\MCC18\v3_39\src\extended\math\div16s.asm
                  DA1616S   0x00c348    program     static C:\MCC18\v3_39\src\extended\math\div16s.asm
                   D1616S   0x00c358    program     static C:\MCC18\v3_39\src\extended\math\div16s.asm
                 D1616SOK   0x00c362    program     static C:\MCC18\v3_39\src\extended\math\div16s.asm
                D1616SNEG   0x00c366    program     static C:\MCC18\v3_39\src\extended\math\div16s.asm
                D1616SPOS   0x00c376    program     static C:\MCC18\v3_39\src\extended\math\div16s.asm
              RETQUOTIENT   0x00c386    program     static C:\MCC18\v3_39\src\extended\math\div16s.asm
                  RESTORE   0x00c38e    program     static C:\MCC18\v3_39\src\extended\math\div16s.asm
                  D1616SX   0x00c39c    program     static C:\MCC18\v3_39\src\extended\math\div16s.asm
                 SETUPSTK   0x00c3a6    program     static C:\MCC18\v3_39\src\extended\math\div32s.asm
                 __div32s   0x00c3be    program     extern C:\MCC18\v3_39\src\extended\math\div32s.asm
                 __mod32s   0x00c3c4    program     extern C:\MCC18\v3_39\src\extended\math\div32s.asm
                  SETSIGN   0x00c3c6    program     static C:\MCC18\v3_39\src\extended\math\div32s.asm
                  DA3232S   0x00c3e0    program     static C:\MCC18\v3_39\src\extended\math\div32s.asm
                   D3232S   0x00c3f6    program     static C:\MCC18\v3_39\src\extended\math\div32s.asm
                 D3232SOK   0x00c400    program     static C:\MCC18\v3_39\src\extended\math\div32s.asm
                D3232SNEG   0x00c404    program     static C:\MCC18\v3_39\src\extended\math\div32s.asm
                D3232SPOS   0x00c422    program     static C:\MCC18\v3_39\src\extended\math\div32s.asm
              RETQUOTIENT   0x00c43a    program     static C:\MCC18\v3_39\src\extended\math\div32s.asm
                  RESTORE   0x00c44a    program     static C:\MCC18\v3_39\src\extended\math\div32s.asm
                  D3232SX   0x00c458    program     static C:\MCC18\v3_39\src\extended\math\div32s.asm
                 SETUPSTK   0x00c462    program     static C:\MCC18\v3_39\src\extended\math\div32u.asm
                 __div32u   0x00c47a    program     extern C:\MCC18\v3_39\src\extended\math\div32u.asm
                 __mod32u   0x00c480    program     extern C:\MCC18\v3_39\src\extended\math\div32u.asm
            _early32uexit   0x00c484    program     extern C:\MCC18\v3_39\src\extended\math\div32u.asm
                divmod32u   0x00c486    program     static C:\MCC18\v3_39\src\extended\math\div32u.asm
                     loop   0x00c494    program     static C:\MCC18\v3_39\src\extended\math\div32u.asm
                   _false   0x00c4c8    program     static C:\MCC18\v3_39\src\extended\math\div32u.asm
              RETQUOTIENT   0x00c4e8    program     static C:\MCC18\v3_39\src\extended\math\div32u.asm
                  RESTORE   0x00c4f8    program     static C:\MCC18\v3_39\src\extended\math\div32u.asm
                  __divFP   0x00c506    program     extern C:\MCC18\v3_39\src\extended\math\divFP.asm
              jDivANotInf   0x00c538    program     static C:\MCC18\v3_39\src\extended\math\divFP.asm
             jDivANotZero   0x00c54c    program     static C:\MCC18\v3_39\src\extended\math\divFP.asm
                 jDivLoop   0x00c574    program     static C:\MCC18\v3_39\src\extended\math\divFP.asm
                jNoAdjust   0x00c598    program     static C:\MCC18\v3_39\src\extended\math\divFP.asm
                 jDivNext   0x00c59a    program     static C:\MCC18\v3_39\src\extended\math\divFP.asm
                   __ltFP   0x00c5c0    program     extern C:\MCC18\v3_39\src\extended\math\ltFP.asm
              __FpCompare   0x00c5d2    program     extern C:\MCC18\v3_39\src\extended\math\compFP.asm
             jBothNotZero   0x00c604    program     static C:\MCC18\v3_39\src\extended\math\compFP.asm
                 jSignsEQ   0x00c608    program     static C:\MCC18\v3_39\src\extended\math\compFP.asm
                      jEQ   0x00c620    program     static C:\MCC18\v3_39\src\extended\math\compFP.asm
                      jNE   0x00c624    program     static C:\MCC18\v3_39\src\extended\math\compFP.asm
                    jExch   0x00c62c    program     static C:\MCC18\v3_39\src\extended\math\compFP.asm
                  jNoExch   0x00c64c    program     static C:\MCC18\v3_39\src\extended\math\compFP.asm
                   jFinal   0x00c656    program     static C:\MCC18\v3_39\src\extended\math\compFP.asm
                  jAisNeg   0x00c662    program     static C:\MCC18\v3_39\src\extended\math\compFP.asm
                   jShift   0x00c668    program     static C:\MCC18\v3_39\src\extended\math\compFP.asm
                   jExpEQ   0x00c672    program     static C:\MCC18\v3_39\src\extended\math\compFP.asm
                  jRotate   0x00c67e    program     static C:\MCC18\v3_39\src\extended\math\compFP.asm
                    jExit   0x00c690    program     static C:\MCC18\v3_39\src\extended\math\compFP.asm
                  __mul24   0x00c6a0    program     extern C:\MCC18\v3_39\src\extended\math\mul24.asm
                  __mul32   0x00c760    program     extern C:\MCC18\v3_39\src\extended\math\mul32.asm
                  __mulFP   0x00c802    program     extern C:\MCC18\v3_39\src\extended\math\mulFP.asm
                 jANotInf   0x00c834    program     static C:\MCC18\v3_39\src\extended\math\mulFP.asm
              jBothFinite   0x00c842    program     static C:\MCC18\v3_39\src\extended\math\mulFP.asm
                jHaveZero   0x00c84a    program     static C:\MCC18\v3_39\src\extended\math\mulFP.asm
             jBothNotZero   0x00c84e    program     static C:\MCC18\v3_39\src\extended\math\mulFP.asm
                 SETUPSTK   0x00c8f0    program     static C:\MCC18\v3_39\src\extended\math\div16u.asm
                 __div16u   0x00c908    program     extern C:\MCC18\v3_39\src\extended\math\div16u.asm
                 __mod16u   0x00c90e    program     extern C:\MCC18\v3_39\src\extended\math\div16u.asm
            _early16uexit   0x00c912    program     extern C:\MCC18\v3_39\src\extended\math\div16u.asm
                divmod16u   0x00c914    program     static C:\MCC18\v3_39\src\extended\math\div16u.asm
                     loop   0x00c91e    program     static C:\MCC18\v3_39\src\extended\math\div16u.asm
                  endloop   0x00c93a    program     static C:\MCC18\v3_39\src\extended\math\div16u.asm
              RETQUOTIENT   0x00c952    program     static C:\MCC18\v3_39\src\extended\math\div16u.asm
                  RESTORE   0x00c95a    program     static C:\MCC18\v3_39\src\extended\math\div16u.asm
                  __mul16   0x00c968    program     extern C:\MCC18\v3_39\src\extended\math\mul16.asm
            s_put_n_chars   0x00c9d0    program     static C:\MCC18\v3_39\src\extended\stdclib\vfprintf.c
                 vfprintf   0x00ca02    program     extern C:\MCC18\v3_39\src\extended\stdclib\vfprintf.c
                   __pa_0   0x00d092    program     static C:\MCC18\v3_39\src\extended\stdclib\vfprintf.c
                   __pa_1   0x00d0a0    program     static C:\MCC18\v3_39\src\extended\stdclib\vfprintf.c
                   __pa_2   0x00d0b0    program     static C:\MCC18\v3_39\src\extended\stdclib\vfprintf.c
                   __pa_3   0x00d0bc    program     static C:\MCC18\v3_39\src\extended\stdclib\vfprintf.c
                   __pa_4   0x00d0d0    program     static C:\MCC18\v3_39\src\extended\stdclib\vfprintf.c
                   __pa_5   0x00d0e2    program     static C:\MCC18\v3_39\src\extended\stdclib\vfprintf.c
                   __pa_6   0x00d0f2    program     static C:\MCC18\v3_39\src\extended\stdclib\vfprintf.c
                   __pa_7   0x00d104    program     static C:\MCC18\v3_39\src\extended\stdclib\vfprintf.c
                   __pa_8   0x00d110    program     static C:\MCC18\v3_39\src\extended\stdclib\vfprintf.c
                   __pa_9   0x00d122    program     static C:\MCC18\v3_39\src\extended\stdclib\vfprintf.c
                  __pa_10   0x00d12e    program     static C:\MCC18\v3_39\src\extended\stdclib\vfprintf.c
                  __pa_11   0x00d13e    program     static C:\MCC18\v3_39\src\extended\stdclib\vfprintf.c
                  __pa_12   0x00d14e    program     static C:\MCC18\v3_39\src\extended\stdclib\vfprintf.c
                  __pa_13   0x00d15c    program     static C:\MCC18\v3_39\src\extended\stdclib\vfprintf.c
                  __pa_14   0x00d17a    program     static C:\MCC18\v3_39\src\extended\stdclib\vfprintf.c
                  __pa_15   0x00d184    program     static C:\MCC18\v3_39\src\extended\stdclib\vfprintf.c
                  __pa_16   0x00d18a    program     static C:\MCC18\v3_39\src\extended\stdclib\vfprintf.c
                  __pa_17   0x00d19a    program     static C:\MCC18\v3_39\src\extended\stdclib\vfprintf.c
                  __pa_18   0x00d1a6    program     static C:\MCC18\v3_39\src\extended\stdclib\vfprintf.c
                  __pa_19   0x00d1b4    program     static C:\MCC18\v3_39\src\extended\stdclib\vfprintf.c
                  __pa_20   0x00d1be    program     static C:\MCC18\v3_39\src\extended\stdclib\vfprintf.c
                  __pa_21   0x00d1c8    program     static C:\MCC18\v3_39\src\extended\stdclib\vfprintf.c
                  __pa_22   0x00d1d2    program     static C:\MCC18\v3_39\src\extended\stdclib\vfprintf.c
                  __pa_23   0x00d1e0    program     static C:\MCC18\v3_39\src\extended\stdclib\vfprintf.c
           init_motordata   0x00d1e6    program     extern /audio/mandm/mandm/config.c
                   __pa_0   0x00d58e    program     static /audio/mandm/mandm/config.c
                   __pa_1   0x00d59e    program     static /audio/mandm/mandm/config.c
                   __pa_2   0x00d5a6    program     static /audio/mandm/mandm/config.c
                   __pa_3   0x00d5b4    program     static /audio/mandm/mandm/config.c
                   __pa_4   0x00d5bc    program     static /audio/mandm/mandm/config.c
                   __pa_5   0x00d5c4    program     static /audio/mandm/mandm/config.c
                   __pa_6   0x00d5d2    program     static /audio/mandm/mandm/config.c
                   __pa_7   0x00d5da    program     static /audio/mandm/mandm/config.c
                   __pa_8   0x00d5e2    program     static /audio/mandm/mandm/config.c
                   __pa_9   0x00d5ea    program     static /audio/mandm/mandm/config.c
                  __pa_10   0x00d5f2    program     static /audio/mandm/mandm/config.c
                  __pa_11   0x00d5f8    program     static /audio/mandm/mandm/config.c
                  __pa_12   0x00d604    program     static /audio/mandm/mandm/config.c
                  __pa_13   0x00d610    program     static /audio/mandm/mandm/config.c
                  __pa_14   0x00d61a    program     static /audio/mandm/mandm/config.c
                  __pa_15   0x00d622    program     static /audio/mandm/mandm/config.c
                  __pa_16   0x00d62c    program     static /audio/mandm/mandm/config.c
                  __pa_17   0x00d634    program     static /audio/mandm/mandm/config.c
                  __pa_18   0x00d63e    program     static /audio/mandm/mandm/config.c
                  __pa_19   0x00d658    program     static /audio/mandm/mandm/config.c
                  __pa_20   0x00d660    program     static /audio/mandm/mandm/config.c
                  __pa_21   0x00d66c    program     static /audio/mandm/mandm/config.c
                  __pa_22   0x00d678    program     static /audio/mandm/mandm/config.c
                  __pa_23   0x00d67e    program     static /audio/mandm/mandm/config.c
                  __pa_24   0x00d684    program     static /audio/mandm/mandm/config.c
                  __pa_25   0x00d68e    program     static /audio/mandm/mandm/config.c
                  __pa_26   0x00d694    program     static /audio/mandm/mandm/config.c
                  __pa_27   0x00d6a0    program     static /audio/mandm/mandm/config.c
            my_struct_cmp   0x00d6a6    program     extern /audio/mandm/mandm/power.c
            motor_control   0x00d6dc    program     extern /audio/mandm/mandm/power.c
             emotor_power   0x00d918    program     extern /audio/mandm/mandm/power.c
            emotor_relays   0x00d950    program     extern /audio/mandm/mandm/power.c
        emotor_slow_start   0x00d954    program     extern /audio/mandm/mandm/power.c
         emotor_slow_stop   0x00d96c    program     extern /audio/mandm/mandm/power.c
                emotor_cw   0x00d970    program     extern /audio/mandm/mandm/power.c
        emotor_is_all_off   0x00d990    program     extern /audio/mandm/mandm/power.c
        emotor_switch_ccw   0x00d99a    program     extern /audio/mandm/mandm/power.c
         emotor_switch_cw   0x00d9a8    program     extern /audio/mandm/mandm/power.c
         emotor_power_off   0x00d9ae    program     extern /audio/mandm/mandm/power.c
          emotor_power_on   0x00d9b4    program     extern /audio/mandm/mandm/power.c
               emotor_v24   0x00d9ba    program     extern /audio/mandm/mandm/power.c
                relay_v24   0x00d9dc    program     extern /audio/mandm/mandm/power.c
                blink_led   0x00d9e2    program     extern /audio/mandm/mandm/power.c
          is_led_blinking   0x00da80    program     extern /audio/mandm/mandm/power.c
                   __pa_0   0x00da9c    program     static /audio/mandm/mandm/power.c
                   __pa_1   0x00daa8    program     static /audio/mandm/mandm/power.c
                   __pa_2   0x00dab0    program     static /audio/mandm/mandm/power.c
                   __pa_3   0x00daba    program     static /audio/mandm/mandm/power.c
                   __pa_4   0x00dac2    program     static /audio/mandm/mandm/power.c
                   __pa_5   0x00daca    program     static /audio/mandm/mandm/power.c
                   __pa_6   0x00dad6    program     static /audio/mandm/mandm/power.c
                   __pa_7   0x00dae8    program     static /audio/mandm/mandm/power.c
                   __pa_8   0x00daf2    program     static /audio/mandm/mandm/power.c
                   __pa_9   0x00dafc    program     static /audio/mandm/mandm/power.c
                  __pa_10   0x00db02    program     static /audio/mandm/mandm/power.c
                  __pa_11   0x00db0a    program     static /audio/mandm/mandm/power.c
                  __pa_12   0x00db14    program     static /audio/mandm/mandm/power.c
                   s_crit   0x00db1c    program     extern /audio/mandm/mandm/crit.c
           ___if_lbl00001   0x00db4a    program     static                          
           ___if_lbl00002   0x00db6c    program     static                          
           ___if_lbl00003   0x00db8c    program     static                          
           ___if_lbl00004   0x00dbac    program     static                          
       ___return_lbl00000   0x00dbac    program     static                          
                   e_crit   0x00dbb4    program     extern /audio/mandm/mandm/crit.c
           ___if_lbl00006   0x00dbe0    program     static                          
         ___else_lbl00008   0x00dc12    program     static                          
           ___if_lbl00007   0x00dc1a    program     static                          
       ___return_lbl00005   0x00dc1a    program     static                          
               clear_crit   0x00dc1c    program     extern /audio/mandm/mandm/crit.c
        write_data_eeprom   0x00dc26    program     extern /audio/mandm/mandm/crit.c
         read_data_eeprom   0x00dc8a    program     extern /audio/mandm/mandm/crit.c
                   __pa_0   0x00dcba    program     static /audio/mandm/mandm/crit.c
                   __pa_1   0x00dcd0    program     static /audio/mandm/mandm/crit.c
                   memcmp   0x00dcdc    program     extern C:\MCC18\v3_39\src\extended\stdclib\memcmp.asm
                    jLoop   0x00dcfc    program     static C:\MCC18\v3_39\src\extended\stdclib\memcmp.asm
              _4jContinue   0x00dd08    program     static C:\MCC18\v3_39\src\extended\stdclib\memcmp.asm
                   _5jEnd   0x00dd12    program     static C:\MCC18\v3_39\src\extended\stdclib\memcmp.asm
                     jEnd   0x00dd18    program     static C:\MCC18\v3_39\src\extended\stdclib\memcmp.asm
            strcpypgm2ram   0x00dd2e    program     extern C:\MCC18\v3_39\src\extended\stdclib\scpyp2r.asm
                    jLoop   0x00dd54    program     static C:\MCC18\v3_39\src\extended\stdclib\scpyp2r.asm
                     jEnd   0x00dd5e    program     static C:\MCC18\v3_39\src\extended\stdclib\scpyp2r.asm
                strlenpgm   0x00dd60    program     extern C:\MCC18\v3_39\src\extended\stdclib\slenpgm.asm
                    jLoop   0x00dd7e    program     static C:\MCC18\v3_39\src\extended\stdclib\slenpgm.asm
                   _2jEnd   0x00dd94    program     static C:\MCC18\v3_39\src\extended\stdclib\slenpgm.asm
                     jEnd   0x00dd96    program     static C:\MCC18\v3_39\src\extended\stdclib\slenpgm.asm
                  strncpy   0x00ddaa    program     extern C:\MCC18\v3_39\src\extended\stdclib\strncpy.asm
                    jLoop   0x00ddd2    program     static C:\MCC18\v3_39\src\extended\stdclib\strncpy.asm
              _4jContinue   0x00ddde    program     static C:\MCC18\v3_39\src\extended\stdclib\strncpy.asm
                   _5jEnd   0x00dde8    program     static C:\MCC18\v3_39\src\extended\stdclib\strncpy.asm
                     jEnd   0x00ddf4    program     static C:\MCC18\v3_39\src\extended\stdclib\strncpy.asm
           strncpypgm2ram   0x00de06    program     extern C:\MCC18\v3_39\src\extended\stdclib\sncpyp2r.asm
                    jLoop   0x00de2c    program     static C:\MCC18\v3_39\src\extended\stdclib\sncpyp2r.asm
              _3jContinue   0x00de38    program     static C:\MCC18\v3_39\src\extended\stdclib\sncpyp2r.asm
                   _4jEnd   0x00de42    program     static C:\MCC18\v3_39\src\extended\stdclib\sncpyp2r.asm
                     jEnd   0x00de50    program     static C:\MCC18\v3_39\src\extended\stdclib\sncpyp2r.asm
                   strlen   0x00de52    program     extern C:\MCC18\v3_39\src\extended\stdclib\strlen.asm
                    jLoop   0x00de62    program     static C:\MCC18\v3_39\src\extended\stdclib\strlen.asm
                     jEnd   0x00de6c    program     static C:\MCC18\v3_39\src\extended\stdclib\strlen.asm
               config_pic   0x00de6e    program     extern /audio/mandm/mandm/hwconf.c
           ___if_lbl00001   0x00de92    program     static                          
               __tmplbl_1   0x00de98    program     static                          
               __tmplbl_0   0x00de9e    program     static                          
           ___if_lbl00003   0x00dea4    program     static                          
        ___while_lbl00004   0x00defe    program     static                          
        ___while_lbl00005   0x00df0c    program     static                          
        ___while_lbl00006   0x00df22    program     static                          
        ___while_lbl00007   0x00df30    program     static                          
       ___return_lbl00000   0x00dfc8    program     static                          
           ___if_lbl00008   0x00dfc8    program     static                          
                start_pic   0x00dfd0    program     extern /audio/mandm/mandm/hwconf.c
       start_workerthread   0x00dff0    program     extern /audio/mandm/mandm/hwconf.c
                _do_cinit   0x00dff4    program     extern C:\MCC18\v3_39\src\extended\startup\c018iz_e.c
                     test   0x00e00e    program     static                          
                copy_loop   0x00e066    program     static                          
            copy_one_byte   0x00e06c    program     static                          
             done_copying   0x00e07a    program     static                          
       ___return_lbl00002   0x00e090    program     static                          
                     done   0x00e090    program     static                          
                 OpenXLCD   0x00e092    program     extern /audio/mandm/mandm/xlcd/openxlcd.c
                   __pa_0   0x00e11a    program     static /audio/mandm/mandm/xlcd/openxlcd.c
                   __pa_1   0x00e124    program     static /audio/mandm/mandm/xlcd/openxlcd.c
               Open2USART   0x00e12c    program     extern C:\MCC18\v3_39\src\pmc_common\USART\u2open.c
               Open1USART   0x00e1b0    program     extern C:\MCC18\v3_39\src\pmc_common\USART\u1open.c
                  sprintf   0x00e22a    program     extern C:\MCC18\v3_39\src\extended\stdclib\sprintf.c
                     putc   0x00e29c    program     extern C:\MCC18\v3_39\src\extended\stdclib\putc.c
                  OpenADC   0x00e302    program     extern C:\MCC18\v3_39\src\pmc_common\ADC\adcopen.c
              putrs2USART   0x00e366    program     extern C:\MCC18\v3_39\src\pmc_common\USART\u2putrs.c
              Write_b_eep   0x00e3c2    program     extern C:\MCC18\v3_39\src\pmc_common\EEP\write_B.c
                putrsXLCD   0x00e410    program     extern /audio/mandm/mandm/xlcd/putrxlcd.c
                   __pa_0   0x00e44e    program     static /audio/mandm/mandm/xlcd/putrxlcd.c
               puts2USART   0x00e45e    program     extern C:\MCC18\v3_39\src\pmc_common\USART\u2puts.c
             SetDDRamAddr   0x00e4a4    program     extern /audio/mandm/mandm/xlcd/setddram.c
                   __pa_0   0x00e4dc    program     static /audio/mandm/mandm/xlcd/setddram.c
             SetCGRamAddr   0x00e4ea    program     extern /audio/mandm/mandm/xlcd/setcgram.c
                   __pa_0   0x00e522    program     static /audio/mandm/mandm/xlcd/setcgram.c
            WriteDataXLCD   0x00e530    program     extern /audio/mandm/mandm/xlcd/writdata.c
                   __pa_0   0x00e566    program     static /audio/mandm/mandm/xlcd/writdata.c
             WriteCmdXLCD   0x00e574    program     extern /audio/mandm/mandm/xlcd/wcmdxlcd.c
                   __pa_0   0x00e5aa    program     static /audio/mandm/mandm/xlcd/wcmdxlcd.c
             ReadDataXLCD   0x00e5b8    program     extern /audio/mandm/mandm/xlcd/readdata.c
             ReadAddrXLCD   0x00e5fc    program     extern /audio/mandm/mandm/xlcd/readaddr.c
               Read_b_eep   0x00e640    program     extern C:\MCC18\v3_39\src\pmc_common\EEP\read_B.c
       ___return_lbl00000   0x00e676    program     static                          
                    srand   0x00e682    program     extern C:\MCC18\v3_39\src\extended\stdclib\rand.asm
                     rand   0x00e690    program     extern C:\MCC18\v3_39\src\extended\stdclib\rand.asm
               OpenTimer3   0x00e6c2    program     extern C:\MCC18\v3_39\src\pmc_common\Timers\t3open.c
                 putsXLCD   0x00e702    program     extern /audio/mandm/mandm/xlcd/putsxlcd.c
               Read2USART   0x00e742    program     extern C:\MCC18\v3_39\src\pmc_common\USART\u2read.c
               Read1USART   0x00e780    program     extern C:\MCC18\v3_39\src\pmc_common\USART\u1read.c
             Delay10KTCYx   0x00e7be    program     extern C:\MCC18\v3_39\src\extended\delays\d10ktcyx.asm
                    D10Kx   0x00e7ca    program     static C:\MCC18\v3_39\src\extended\delays\d10ktcyx.asm
                   D10K_1   0x00e7ce    program     static C:\MCC18\v3_39\src\extended\delays\d10ktcyx.asm
       _D10KTCYXCODE_0014   0x00e7d2    program     static C:\MCC18\v3_39\src\extended\delays\d10ktcyx.asm
                    D10Kl   0x00e7dc    program     static C:\MCC18\v3_39\src\extended\delays\d10ktcyx.asm
       _D10KTCYXCODE_0022   0x00e7e0    program     static C:\MCC18\v3_39\src\extended\delays\d10ktcyx.asm
               OpenTimer0   0x00e7f4    program     extern C:\MCC18\v3_39\src\pmc_common\Timers\t0open.c
               OpenTimer4   0x00e82a    program     extern C:\MCC18\v3_39\src\pmc_common\Timers\t4open.c
              WriteTimer3   0x00e85e    program     extern C:\MCC18\v3_39\src\pmc_common\Timers\t3write.c
              WriteTimer0   0x00e88e    program     extern C:\MCC18\v3_39\src\pmc_common\Timers\t0write.c
               SetChanADC   0x00e8be    program     extern C:\MCC18\v3_39\src\pmc_common\ADC\adcsetch.c
              Write2USART   0x00e8ee    program     extern C:\MCC18\v3_39\src\pmc_common\USART\u2write.c
                 BusyXLCD   0x00e91c    program     extern /audio/mandm/mandm/xlcd/busyxlcd.c
                   __pa_0   0x00e936    program     static /audio/mandm/mandm/xlcd/busyxlcd.c
                  isdigit   0x00e948    program     extern C:\MCC18\v3_39\src\extended\stdclib\isdigit.asm
                   jMatch   0x00e968    program     static C:\MCC18\v3_39\src\extended\stdclib\isdigit.asm
                 jNoMatch   0x00e96a    program     static C:\MCC18\v3_39\src\extended\stdclib\isdigit.asm
            __zero_memory   0x00e96c    program     extern C:\MCC18\v3_39\src\extended\proc\p18F8722.asm
               zero_block   0x00e97a    program     static C:\MCC18\v3_39\src\extended\proc\p18F8722.asm
                   loop_h   0x00e97a    program     static C:\MCC18\v3_39\src\extended\proc\p18F8722.asm
                compare_l   0x00e982    program     static C:\MCC18\v3_39\src\extended\proc\p18F8722.asm
                   loop_l   0x00e984    program     static C:\MCC18\v3_39\src\extended\proc\p18F8722.asm
                 _startup   0x00e98c    program     extern C:\MCC18\v3_39\src\extended\startup\c018iz_e.c
                     loop   0x00e99e    program     static                          
       ___return_lbl00001   0x00e9a8    program     static                          
              _usart_putc   0x00e9aa    program     extern C:\MCC18\v3_39\src\pmc_common\USART\_usartpc.asm
                     loop   0x00e9ba    program     static C:\MCC18\v3_39\src\pmc_common\USART\_usartpc.asm
                  ReadADC   0x00e9c6    program     extern C:\MCC18\v3_39\src\pmc_common\ADC\adcread.c
              Delay10TCYx   0x00e9de    program     extern C:\MCC18\v3_39\src\extended\delays\d10tcyx.asm
                     D10x   0x00e9e6    program     static C:\MCC18\v3_39\src\extended\delays\d10tcyx.asm
        _D10TCYXCODE_000A   0x00e9e8    program     static C:\MCC18\v3_39\src\extended\delays\d10tcyx.asm
        _D10TCYXCODE_000C   0x00e9ea    program     static C:\MCC18\v3_39\src\extended\delays\d10tcyx.asm
        _D10TCYXCODE_000E   0x00e9ec    program     static C:\MCC18\v3_39\src\extended\delays\d10tcyx.asm
                    D10_1   0x00e9ee    program     static C:\MCC18\v3_39\src\extended\delays\d10tcyx.asm
                 s_digits   0x00e9f4    program     static C:\MCC18\v3_39\src\extended\stdclib\vfprintf.c
                 Busy_eep   0x00ea06    program     extern C:\MCC18\v3_39\src\pmc_common\EEP\busy_eep.c
               ConvertADC   0x00ea0c    program     extern C:\MCC18\v3_39\src\pmc_common\ADC\adcconv.c
                   __init   0x00ea10    program     extern C:\MCC18\v3_39\src\extended\stdclib\__init.c
               __config_0   0x300001    program     static /audio/mandm/mandm/mandm8722.c
               __config_1   0x300002    program     static /audio/mandm/mandm/mandm8722.c
               __config_2   0x300003    program     static /audio/mandm/mandm/mandm8722.c
               __config_3   0x300004    program     static /audio/mandm/mandm/mandm8722.c
               __config_4   0x300005    program     static /audio/mandm/mandm/mandm8722.c
               __config_5   0x300006    program     static /audio/mandm/mandm/mandm8722.c
               __config_6   0x300008    program     static /audio/mandm/mandm/mandm8722.c
               __config_7   0x300009    program     static /audio/mandm/mandm/mandm8722.c
               __config_8   0x30000a    program     static /audio/mandm/mandm/mandm8722.c
               __config_9   0x30000b    program     static /audio/mandm/mandm/mandm8722.c
              __config_10   0x30000c    program     static /audio/mandm/mandm/mandm8722.c
              __config_11   0x30000d    program     static /audio/mandm/mandm/mandm8722.c
                  __tmp_0   0x000000       data     static C:\MCC18\v3_39\src\pmc_common\USART\u2open.c
                  __tmp_0   0x000000       data     static C:\MCC18\v3_39\src\pmc_common\USART\u1open.c
                  __tmp_0   0x000000       data     static C:\MCC18\v3_39\src\extended\stdclib\vfprintf.c
                  __tmp_0   0x000000       data     static C:\MCC18\v3_39\src\pmc_common\ADC\adcopen.c
                  __tmp_0   0x000000       data     static C:\MCC18\v3_39\src\pmc_common\EEP\write_B.c
                  __tmp_0   0x000000       data     static C:\MCC18\v3_39\src\pmc_common\ADC\adcread.c
                  __tmp_0   0x000000       data     static C:\MCC18\v3_39\src\pmc_common\EEP\read_B.c
                  __tmp_0   0x000000       data     static C:\MCC18\v3_39\src\pmc_common\ADC\adcsetch.c
                  __tmp_0   0x000000       data     static /audio/mandm/mandm/config.c
                  __tmp_0   0x000000       data     static /audio/mandm/mandm/daq.c 
                  __tmp_0   0x000000       data     static /audio/mandm/mandm/mandm8722.c
                  __tmp_0   0x000000       data     static /audio/mandm/mandm/power.c
                  __tmp_0   0x000000       data     static /audio/mandm/mandm/crit.c
                        i   0x000018       data     static /audio/mandm/mandm/daq.c 
                        z   0x00001a       data     static /audio/mandm/mandm/daq.c 
                  a10_x_t   0x00001c       data     static /audio/mandm/mandm/daq.c 
                  a10_y_t   0x000020       data     static /audio/mandm/mandm/daq.c 
                  a10_z_t   0x000024       data     static /audio/mandm/mandm/daq.c 
                        z   0x000028       data     static /audio/mandm/mandm/daq.c 
              critc_level   0x000060       data     extern /audio/mandm/mandm/mandm8722.c
                   KEYNUM   0x000061       data     extern /audio/mandm/mandm/mandm8722.c
                TIMERFLAG   0x000062       data     extern /audio/mandm/mandm/mandm8722.c
               PRIPOWEROK   0x000063       data     extern /audio/mandm/mandm/mandm8722.c
                 FORCEOUT   0x000064       data     extern /audio/mandm/mandm/mandm8722.c
               WORKERFLAG   0x000065       data     extern /audio/mandm/mandm/mandm8722.c
                 FAILSAFE   0x000066       data     extern /audio/mandm/mandm/mandm8722.c
            SYSTEM_STABLE   0x000067       data     extern /audio/mandm/mandm/mandm8722.c
                HOLD_PROC   0x000068       data     extern /audio/mandm/mandm/mandm8722.c
             DISPLAY_MODE   0x000069       data     extern /audio/mandm/mandm/mandm8722.c
                 D_UPDATE   0x00006a       data     extern /audio/mandm/mandm/mandm8722.c
             GLITCH_CHECK   0x00006b       data     extern /audio/mandm/mandm/mandm8722.c
                  COOLING   0x00006c       data     extern /audio/mandm/mandm/mandm8722.c
               UPDATE_EEP   0x00006d       data     extern /audio/mandm/mandm/mandm8722.c
              RESET_ZEROS   0x00006e       data     extern /audio/mandm/mandm/mandm8722.c
                 SYS_DATA   0x00006f       data     extern /audio/mandm/mandm/mandm8722.c
                 MOD_DATA   0x000070       data     extern /audio/mandm/mandm/mandm8722.c
                 SYS_HELP   0x000071       data     extern /audio/mandm/mandm/mandm8722.c
                 SET_TLOG   0x000072       data     extern /audio/mandm/mandm/mandm8722.c
                   WDT_TO   0x000073       data     extern /audio/mandm/mandm/mandm8722.c
                   EEP_ER   0x000074       data     extern /audio/mandm/mandm/mandm8722.c
                    TWEAK   0x000075       data     extern /audio/mandm/mandm/mandm8722.c
            TEST_SPINNERS   0x000076       data     extern /audio/mandm/mandm/mandm8722.c
              alarm_codes   0x000077       data     extern /audio/mandm/mandm/mandm8722.c
                     mode   0x000079       data     extern /audio/mandm/mandm/mandm8722.c
              RS232_DEBUG   0x00008c       data     extern /audio/mandm/mandm/mandm8722.c
              critc_count   0x00008d       data     extern /audio/mandm/mandm/mandm8722.c
                     sign   0x000091       data     extern /audio/mandm/mandm/mandm8722.c
                 lp_speed   0x000092       data     extern /audio/mandm/mandm/mandm8722.c
                     lp_x   0x000096       data     extern /audio/mandm/mandm/mandm8722.c
               build_date   0x00009a       data     extern /audio/mandm/mandm/mandm8722.c
               build_time   0x00009d       data     extern /audio/mandm/mandm/mandm8722.c
                      dsi   0x0000a0       data     extern /audio/mandm/mandm/mandm8722.c
                      msi   0x0000a1       data     extern /audio/mandm/mandm/mandm8722.c
                 help_pos   0x0000a2       data     extern /audio/mandm/mandm/mandm8722.c
                       t1   0x0000a3       data     extern /audio/mandm/mandm/mandm8722.c
                       t2   0x0000a7       data     extern /audio/mandm/mandm/mandm8722.c
                       t3   0x0000ab       data     extern /audio/mandm/mandm/mandm8722.c
                       t4   0x0000af       data     extern /audio/mandm/mandm/mandm8722.c
                       t5   0x0000b3       data     extern /audio/mandm/mandm/mandm8722.c
                       t6   0x0000b7       data     extern /audio/mandm/mandm/mandm8722.c
                       t7   0x0000bb       data     extern /audio/mandm/mandm/mandm8722.c
                   t_time   0x0000bf       data     extern /audio/mandm/mandm/mandm8722.c
                 voltfrak   0x0000c3       data     extern /audio/mandm/mandm/mandm8722.c
                   ahfrak   0x0000c7       data     extern /audio/mandm/mandm/mandm8722.c
                      Vin   0x0000cb       data     extern /audio/mandm/mandm/mandm8722.c
                   chrg_v   0x0000cf       data     extern /audio/mandm/mandm/mandm8722.c
                 vbatol_t   0x0000d3       data     extern /audio/mandm/mandm/mandm8722.c
                  solar_t   0x0000d7       data     extern /audio/mandm/mandm/mandm8722.c
                 IDLEFLAG   0x0000db       data     extern /audio/mandm/mandm/mandm8722.c
              knob_to_pot   0x0000dc       data     extern /audio/mandm/mandm/mandm8722.c
                       iw   0x0000dd       data     extern /audio/mandm/mandm/mandm8722.c
                       ip   0x0000e1       data     extern /audio/mandm/mandm/mandm8722.c
                  adc_cal   0x0000e5       data     extern /audio/mandm/mandm/mandm8722.c
                    CRITC   0x0000f5       data     extern /audio/mandm/mandm/mandm8722.c
                   LCD_OK   0x0000f6       data     extern /audio/mandm/mandm/mandm8722.c
               cable_type   0x0000f7       data     extern /audio/mandm/mandm/mandm8722.c
                     TLOG   0x0000f8       data     extern /audio/mandm/mandm/mandm8722.c
                       c1   0x0000f9       data     static /audio/mandm/mandm/mandm_vector.c
                       c2   0x0000fa       data     static /audio/mandm/mandm/mandm_vector.c
                    timer   0x0000fb       data     static /audio/mandm/mandm/mandm_vector.c
                   timerl   0x0000fd       data     static /audio/mandm/mandm/mandm_vector.c
                   almctr   0x0000ff       data     extern /audio/mandm/mandm/mandm8722.c
                       ds   0x000100       data     extern /audio/mandm/mandm/mandm8722.c
                  __tmp_1   0x0001fc       data     static /audio/mandm/mandm/mandm_vector.c
                 bootstr2   0x000200       data     extern /audio/mandm/mandm/mandm8722.c
             change_count   0x0002fb       data     static /audio/mandm/mandm/daq.c 
                   change   0x0002fd       data     static /audio/mandm/mandm/daq.c 
            DelayCounter2   0x0002ff       data     extern C:\MCC18\v3_39\src\extended\delays\delayd2.asm
                       p1   0x000300       data     extern /audio/mandm/mandm/mandm8722.c
                       p2   0x000310       data     extern /audio/mandm/mandm/mandm8722.c
                  termstr   0x000320       data     extern /audio/mandm/mandm/mandm8722.c
                      csd   0x000340       data     extern /audio/mandm/mandm/mandm8722.c
                      cid   0x000352       data     extern /audio/mandm/mandm/mandm8722.c
                    HCRIT   0x000364       data     extern /audio/mandm/mandm/mandm8722.c
                    LCRIT   0x00036c       data     extern /audio/mandm/mandm/mandm8722.c
                       f1   0x000374       data     extern /audio/mandm/mandm/mandm8722.c
                       f2   0x00037b       data     extern /audio/mandm/mandm/mandm8722.c
                       f3   0x000382       data     extern /audio/mandm/mandm/mandm8722.c
                       f4   0x000389       data     extern /audio/mandm/mandm/mandm8722.c
                       p3   0x000390       data     extern /audio/mandm/mandm/mandm8722.c
             alarm_buffer   0x0003a0       data     extern /audio/mandm/mandm/mandm8722.c
                   smooth   0x0003ca       data     extern /audio/mandm/mandm/mandm8722.c
                emo_bumps   0x0003ea       data     static /audio/mandm/mandm/mandm_vector.c
            HID_IDLE_FLAG   0x0003eb       data     static /audio/mandm/mandm/mandm_vector.c
                   b_read   0x0003ec       data     static /audio/mandm/mandm/mandm_vector.c
                      ZAP   0x0003ed       data     static /audio/mandm/mandm/mandm_vector.c
                 vc_count   0x0003ee       data     static /audio/mandm/mandm/mandm_vector.c
             worker_timer   0x0003ef       data     static /audio/mandm/mandm/mandm_vector.c
               real_ticks   0x0003f0       data     static /audio/mandm/mandm/mandm_vector.c
               fast_ticks   0x0003f1       data     static /audio/mandm/mandm/mandm_vector.c
                   rx_tmp   0x0003f2       data     static /audio/mandm/mandm/mandm_vector.c
                 band_max   0x0003f4       data     static /audio/mandm/mandm/mandm_vector.c
                 hid_idle   0x0003f8       data     static /audio/mandm/mandm/mandm_vector.c
                __RETVAL0   0x0003fc       data     extern C:\MCC18\v3_39\src\extended\math\cmath18.asm
                __RETVAL1   0x0003fd       data     extern C:\MCC18\v3_39\src\extended\math\cmath18.asm
                __RETVAL2   0x0003fe       data     extern C:\MCC18\v3_39\src\extended\math\cmath18.asm
                __RETVAL3   0x0003ff       data     extern C:\MCC18\v3_39\src\extended\math\cmath18.asm
                    knob1   0x000400       data     extern /audio/mandm/mandm/mandm8722.c
                    knob2   0x000410       data     extern /audio/mandm/mandm/mandm8722.c
                   Cursor   0x000420       data     extern /audio/mandm/mandm/mandm8722.c
                    YNKEY   0x000423       data     extern /audio/mandm/mandm/mandm8722.c
               OldEncoder   0x000424       data     extern /audio/mandm/mandm/mandm8722.c
                     qei1   0x000429       data     extern /audio/mandm/mandm/mandm8722.c
                  emodump   0x000440       data     extern /audio/mandm/mandm/mandm8722.c
                   button   0x000470       data     extern /audio/mandm/mandm/mandm8722.c
                        s   0x000471       data     static /audio/mandm/mandm/mandm8722.c
                   dcount   0x000477       data     static /audio/mandm/mandm/mandm8722.c
                   dcount   0x00047b       data     static /audio/mandm/mandm/mandm8722.c
                 timetemp   0x00047f       data     static /audio/mandm/mandm/mandm8722.c
                clocks_hz   0x000483       data     static /audio/mandm/mandm/mandm8722.c
                   dcount   0x000487       data     static /audio/mandm/mandm/mandm8722.c
                 timetemp   0x00048b       data     static /audio/mandm/mandm/mandm8722.c
                clocks_hz   0x00048f       data     static /audio/mandm/mandm/mandm8722.c
                   dcount   0x000493       data     static /audio/mandm/mandm/mandm8722.c
                 timetemp   0x000497       data     static /audio/mandm/mandm/mandm8722.c
                clocks_hz   0x00049b       data     static /audio/mandm/mandm/mandm8722.c
                   dcount   0x00049f       data     static /audio/mandm/mandm/mandm8722.c
                 timetemp   0x0004a3       data     static /audio/mandm/mandm/mandm8722.c
                clocks_hz   0x0004a7       data     static /audio/mandm/mandm/mandm8722.c
                   dcount   0x0004ab       data     static /audio/mandm/mandm/mandm8722.c
                 timetemp   0x0004af       data     static /audio/mandm/mandm/mandm8722.c
                clocks_hz   0x0004b3       data     static /audio/mandm/mandm/mandm8722.c
                   dcount   0x0004b7       data     static /audio/mandm/mandm/mandm8722.c
                 timetemp   0x0004bb       data     static /audio/mandm/mandm/mandm8722.c
                clocks_hz   0x0004bf       data     static /audio/mandm/mandm/mandm8722.c
                   dcount   0x0004c3       data     static /audio/mandm/mandm/mandm8722.c
                 timetemp   0x0004c7       data     static /audio/mandm/mandm/mandm8722.c
                clocks_hz   0x0004cb       data     static /audio/mandm/mandm/mandm8722.c
                        n   0x0004cf       data     static /audio/mandm/mandm/mandm8722.c
                        z   0x0004d0       data     static /audio/mandm/mandm/mandm8722.c
                     slow   0x0004d1       data     static /audio/mandm/mandm/mandm8722.c
                        z   0x0004d2       data     static /audio/mandm/mandm/mandm8722.c
                  s_delay   0x0004d3       data     static /audio/mandm/mandm/mandm8722.c
                  get_out   0x0004d4       data     static /audio/mandm/mandm/mandm8722.c
         knob_to_pot_save   0x0004d5       data     static /audio/mandm/mandm/mandm8722.c
                 menu_pos   0x0004d6       data     static /audio/mandm/mandm/mandm8722.c
               hms_string   0x0004d7       data     extern /audio/mandm/mandm/mandm8722.c
                    a10_x   0x0004e7       data     extern /audio/mandm/mandm/mandm8722.c
                    a10_y   0x0004e9       data     extern /audio/mandm/mandm/mandm8722.c
                    a10_z   0x0004eb       data     extern /audio/mandm/mandm/mandm8722.c
                 worktick   0x0004ed       data     extern /audio/mandm/mandm/mandm8722.c
                    C2RAW   0x0004ef       data     extern /audio/mandm/mandm/mandm8722.c
             glitch_count   0x0004f0       data     extern /audio/mandm/mandm/mandm8722.c
                   cdelay   0x0004f1       data     extern /audio/mandm/mandm/mandm8722.c
              SLOW_STATUS   0x0004f2       data     extern /audio/mandm/mandm/mandm8722.c
                    H_tmp   0x0004f3       data     static /audio/mandm/mandm/crit.c
                    H_tmp   0x0004f4       data     static /audio/mandm/mandm/crit.c
            USART2_Status   0x0004f5       data     extern C:\MCC18\v3_39\src\pmc_common\USART\u2defs.c
            USART1_Status   0x0004f6       data     extern C:\MCC18\v3_39\src\pmc_common\USART\u1defs.c
                        z   0x0004f7       data     static /audio/mandm/mandm/hwconf.c
                        z   0x0004f8       data     static /audio/mandm/mandm/config.c
                 old_part   0x0004f9       data     static /audio/mandm/mandm/config.c
                motordata   0x000500       data     extern /audio/mandm/mandm/mandm8722.c
                motor_ptr   0x0005c0       data     extern /audio/mandm/mandm/mandm8722.c
                    lcd18   0x0005c2       data     extern /audio/mandm/mandm/mandm8722.c
               slow_timer   0x0005c3       data     extern /audio/mandm/mandm/mandm8722.c
               last_shape   0x0005c7       data     static /audio/mandm/mandm/mandm8722.c
                       ib   0x0005c8       data     static /audio/mandm/mandm/mandm8722.c
                        h   0x0005c9       data     static /audio/mandm/mandm/mandm8722.c
                        m   0x0005cd       data     static /audio/mandm/mandm/mandm8722.c
                        s   0x0005d1       data     static /audio/mandm/mandm/mandm8722.c
                        h   0x0005d5       data     static /audio/mandm/mandm/mandm8722.c
                        m   0x0005d9       data     static /audio/mandm/mandm/mandm8722.c
                        s   0x0005dd       data     static /audio/mandm/mandm/mandm8722.c
                        i   0x0005e1       data     static /audio/mandm/mandm/mandm8722.c
                  alm_num   0x0005e2       data     static /audio/mandm/mandm/mandm8722.c
                 position   0x0005e3       data     static /audio/mandm/mandm/mandm8722.c
                    shape   0x0005e4       data     static /audio/mandm/mandm/mandm8722.c
                 deadband   0x0005e5       data     static /audio/mandm/mandm/mandm8722.c
              was_running   0x0005e9       data     static /audio/mandm/mandm/mandm8722.c
                old_error   0x0005eb       data     static /audio/mandm/mandm/mandm8722.c
                 old_menu   0x0005ed       data     static /audio/mandm/mandm/mandm8722.c
                 new_menu   0x0005ee       data     static /audio/mandm/mandm/mandm8722.c
               check_menu   0x0005ef       data     static /audio/mandm/mandm/mandm8722.c
             cable_return   0x0005f0       data     static /audio/mandm/mandm/mandm8722.c
                 menu_pos   0x0005f1       data     static /audio/mandm/mandm/mandm8722.c
                 menu_pos   0x0005f2       data     static /audio/mandm/mandm/mandm8722.c
                 eep_char   0x0005f3       data     static /audio/mandm/mandm/mandm8722.c
                        z   0x0005f4       data     static /audio/mandm/mandm/mandm8722.c
                     prom   0x0005f5       data     static C:\MCC18\v3_39\src\extended\startup\c018iz_e.c
                curr_byte   0x0005f8       data     static C:\MCC18\v3_39\src\extended\startup\c018iz_e.c
               curr_entry   0x0005fa       data     static C:\MCC18\v3_39\src\extended\startup\c018iz_e.c
                 data_ptr   0x0005fc       data     static C:\MCC18\v3_39\src\extended\startup\c018iz_e.c
            DelayCounter1   0x0005ff       data     extern C:\MCC18\v3_39\src\extended\delays\delayd1.asm
                        R   0x000600       data     extern /audio/mandm/mandm/mandm8722.c
                        C   0x00063f       data     extern /audio/mandm/mandm/mandm8722.c
                        V   0x000649       data     extern /audio/mandm/mandm/mandm8722.c
                lastmotor   0x0006a6       data     static /audio/mandm/mandm/power.c
                     rawp   0x0006e6       data     extern /audio/mandm/mandm/mandm8722.c
                     rawa   0x0006f2       data     extern /audio/mandm/mandm/mandm8722.c
                     Seed   0x0006fe       data     static C:\MCC18\v3_39\src\extended\stdclib\rand.asm
             SSP2CON2bits   0x000f62       data     extern C:\MCC18\v3_39\src\extended\proc\p18F8722.asm
                 SSP2CON2   0x000f62       data     extern C:\MCC18\v3_39\src\extended\proc\p18F8722.asm
                 SSP2CON1   0x000f63       data     extern C:\MCC18\v3_39\src\extended\proc\p18F8722.asm
             SSP2CON1bits   0x000f63       data     extern C:\MCC18\v3_39\src\extended\proc\p18F8722.asm
                 SSP2STAT   0x000f64       data     extern C:\MCC18\v3_39\src\extended\proc\p18F8722.asm
             SSP2STATbits   0x000f64       data     extern C:\MCC18\v3_39\src\extended\proc\p18F8722.asm
                  SSP2ADD   0x000f65       data     extern C:\MCC18\v3_39\src\extended\proc\p18F8722.asm
                  SSP2BUF   0x000f66       data     extern C:\MCC18\v3_39\src\extended\proc\p18F8722.asm
                 ECCP2DEL   0x000f67       data     extern C:\MCC18\v3_39\src\extended\proc\p18F8722.asm
             ECCP2DELbits   0x000f67       data     extern C:\MCC18\v3_39\src\extended\proc\p18F8722.asm
              ECCP2ASbits   0x000f68       data     extern C:\MCC18\v3_39\src\extended\proc\p18F8722.asm
                  ECCP2AS   0x000f68       data     extern C:\MCC18\v3_39\src\extended\proc\p18F8722.asm
             ECCP3DELbits   0x000f69       data     extern C:\MCC18\v3_39\src\extended\proc\p18F8722.asm
                 ECCP3DEL   0x000f69       data     extern C:\MCC18\v3_39\src\extended\proc\p18F8722.asm
              ECCP3ASbits   0x000f6a       data     extern C:\MCC18\v3_39\src\extended\proc\p18F8722.asm
                  ECCP3AS   0x000f6a       data     extern C:\MCC18\v3_39\src\extended\proc\p18F8722.asm
                   RCSTA2   0x000f6b       data     extern C:\MCC18\v3_39\src\extended\proc\p18F8722.asm
               RCSTA2bits   0x000f6b       data     extern C:\MCC18\v3_39\src\extended\proc\p18F8722.asm
                   TXSTA2   0x000f6c       data     extern C:\MCC18\v3_39\src\extended\proc\p18F8722.asm
               TXSTA2bits   0x000f6c       data     extern C:\MCC18\v3_39\src\extended\proc\p18F8722.asm
                   TXREG2   0x000f6d       data     extern C:\MCC18\v3_39\src\extended\proc\p18F8722.asm
                   RCREG2   0x000f6e       data     extern C:\MCC18\v3_39\src\extended\proc\p18F8722.asm
                   SPBRG2   0x000f6f       data     extern C:\MCC18\v3_39\src\extended\proc\p18F8722.asm
              CCP5CONbits   0x000f70       data     extern C:\MCC18\v3_39\src\extended\proc\p18F8722.asm
                  CCP5CON   0x000f70       data     extern C:\MCC18\v3_39\src\extended\proc\p18F8722.asm
                   CCPR5L   0x000f71       data     extern C:\MCC18\v3_39\src\extended\proc\p18F8722.asm
                    CCPR5   0x000f71       data     extern C:\MCC18\v3_39\src\extended\proc\p18F8722.asm
                   CCPR5H   0x000f72       data     extern C:\MCC18\v3_39\src\extended\proc\p18F8722.asm
              CCP4CONbits   0x000f73       data     extern C:\MCC18\v3_39\src\extended\proc\p18F8722.asm
                  CCP4CON   0x000f73       data     extern C:\MCC18\v3_39\src\extended\proc\p18F8722.asm
                   CCPR4L   0x000f74       data     extern C:\MCC18\v3_39\src\extended\proc\p18F8722.asm
                    CCPR4   0x000f74       data     extern C:\MCC18\v3_39\src\extended\proc\p18F8722.asm
                   CCPR4H   0x000f75       data     extern C:\MCC18\v3_39\src\extended\proc\p18F8722.asm
                T4CONbits   0x000f76       data     extern C:\MCC18\v3_39\src\extended\proc\p18F8722.asm
                    T4CON   0x000f76       data     extern C:\MCC18\v3_39\src\extended\proc\p18F8722.asm
                      PR4   0x000f77       data     extern C:\MCC18\v3_39\src\extended\proc\p18F8722.asm
                     TMR4   0x000f78       data     extern C:\MCC18\v3_39\src\extended\proc\p18F8722.asm
             ECCP1DELbits   0x000f79       data     extern C:\MCC18\v3_39\src\extended\proc\p18F8722.asm
                 ECCP1DEL   0x000f79       data     extern C:\MCC18\v3_39\src\extended\proc\p18F8722.asm
             BAUDCON2bits   0x000f7c       data     extern C:\MCC18\v3_39\src\extended\proc\p18F8722.asm
                 BAUDCON2   0x000f7c       data     extern C:\MCC18\v3_39\src\extended\proc\p18F8722.asm
                  SPBRGH2   0x000f7d       data     extern C:\MCC18\v3_39\src\extended\proc\p18F8722.asm
              BAUDCONbits   0x000f7e       data     extern C:\MCC18\v3_39\src\extended\proc\p18F8722.asm
             BAUDCON1bits   0x000f7e       data     extern C:\MCC18\v3_39\src\extended\proc\p18F8722.asm
                 BAUDCON1   0x000f7e       data     extern C:\MCC18\v3_39\src\extended\proc\p18F8722.asm
                  BAUDCON   0x000f7e       data     extern C:\MCC18\v3_39\src\extended\proc\p18F8722.asm
                  SPBRGH1   0x000f7f       data     extern C:\MCC18\v3_39\src\extended\proc\p18F8722.asm
                   SPBRGH   0x000f7f       data     extern C:\MCC18\v3_39\src\extended\proc\p18F8722.asm
                PORTAbits   0x000f80       data     extern C:\MCC18\v3_39\src\extended\proc\p18F8722.asm
                    PORTA   0x000f80       data     extern C:\MCC18\v3_39\src\extended\proc\p18F8722.asm
                PORTBbits   0x000f81       data     extern C:\MCC18\v3_39\src\extended\proc\p18F8722.asm
                    PORTB   0x000f81       data     extern C:\MCC18\v3_39\src\extended\proc\p18F8722.asm
                    PORTC   0x000f82       data     extern C:\MCC18\v3_39\src\extended\proc\p18F8722.asm
                PORTCbits   0x000f82       data     extern C:\MCC18\v3_39\src\extended\proc\p18F8722.asm
                PORTDbits   0x000f83       data     extern C:\MCC18\v3_39\src\extended\proc\p18F8722.asm
                    PORTD   0x000f83       data     extern C:\MCC18\v3_39\src\extended\proc\p18F8722.asm
                    PORTE   0x000f84       data     extern C:\MCC18\v3_39\src\extended\proc\p18F8722.asm
                PORTEbits   0x000f84       data     extern C:\MCC18\v3_39\src\extended\proc\p18F8722.asm
                    PORTF   0x000f85       data     extern C:\MCC18\v3_39\src\extended\proc\p18F8722.asm
                PORTFbits   0x000f85       data     extern C:\MCC18\v3_39\src\extended\proc\p18F8722.asm
                    PORTG   0x000f86       data     extern C:\MCC18\v3_39\src\extended\proc\p18F8722.asm
                PORTGbits   0x000f86       data     extern C:\MCC18\v3_39\src\extended\proc\p18F8722.asm
                PORTHbits   0x000f87       data     extern C:\MCC18\v3_39\src\extended\proc\p18F8722.asm
                    PORTH   0x000f87       data     extern C:\MCC18\v3_39\src\extended\proc\p18F8722.asm
                PORTJbits   0x000f88       data     extern C:\MCC18\v3_39\src\extended\proc\p18F8722.asm
                    PORTJ   0x000f88       data     extern C:\MCC18\v3_39\src\extended\proc\p18F8722.asm
                     LATA   0x000f89       data     extern C:\MCC18\v3_39\src\extended\proc\p18F8722.asm
                 LATAbits   0x000f89       data     extern C:\MCC18\v3_39\src\extended\proc\p18F8722.asm
                 LATBbits   0x000f8a       data     extern C:\MCC18\v3_39\src\extended\proc\p18F8722.asm
                     LATB   0x000f8a       data     extern C:\MCC18\v3_39\src\extended\proc\p18F8722.asm
                 LATCbits   0x000f8b       data     extern C:\MCC18\v3_39\src\extended\proc\p18F8722.asm
                     LATC   0x000f8b       data     extern C:\MCC18\v3_39\src\extended\proc\p18F8722.asm
                     LATD   0x000f8c       data     extern C:\MCC18\v3_39\src\extended\proc\p18F8722.asm
                 LATDbits   0x000f8c       data     extern C:\MCC18\v3_39\src\extended\proc\p18F8722.asm
                 LATEbits   0x000f8d       data     extern C:\MCC18\v3_39\src\extended\proc\p18F8722.asm
                     LATE   0x000f8d       data     extern C:\MCC18\v3_39\src\extended\proc\p18F8722.asm
                 LATFbits   0x000f8e       data     extern C:\MCC18\v3_39\src\extended\proc\p18F8722.asm
                     LATF   0x000f8e       data     extern C:\MCC18\v3_39\src\extended\proc\p18F8722.asm
                     LATG   0x000f8f       data     extern C:\MCC18\v3_39\src\extended\proc\p18F8722.asm
                 LATGbits   0x000f8f       data     extern C:\MCC18\v3_39\src\extended\proc\p18F8722.asm
                     LATH   0x000f90       data     extern C:\MCC18\v3_39\src\extended\proc\p18F8722.asm
                 LATHbits   0x000f90       data     extern C:\MCC18\v3_39\src\extended\proc\p18F8722.asm
                     LATJ   0x000f91       data     extern C:\MCC18\v3_39\src\extended\proc\p18F8722.asm
                 LATJbits   0x000f91       data     extern C:\MCC18\v3_39\src\extended\proc\p18F8722.asm
                TRISAbits   0x000f92       data     extern C:\MCC18\v3_39\src\extended\proc\p18F8722.asm
                    TRISA   0x000f92       data     extern C:\MCC18\v3_39\src\extended\proc\p18F8722.asm
                     DDRA   0x000f92       data     extern C:\MCC18\v3_39\src\extended\proc\p18F8722.asm
                 DDRAbits   0x000f92       data     extern C:\MCC18\v3_39\src\extended\proc\p18F8722.asm
                     DDRB   0x000f93       data     extern C:\MCC18\v3_39\src\extended\proc\p18F8722.asm
                 DDRBbits   0x000f93       data     extern C:\MCC18\v3_39\src\extended\proc\p18F8722.asm
                    TRISB   0x000f93       data     extern C:\MCC18\v3_39\src\extended\proc\p18F8722.asm
                TRISBbits   0x000f93       data     extern C:\MCC18\v3_39\src\extended\proc\p18F8722.asm
                TRISCbits   0x000f94       data     extern C:\MCC18\v3_39\src\extended\proc\p18F8722.asm
                    TRISC   0x000f94       data     extern C:\MCC18\v3_39\src\extended\proc\p18F8722.asm
                     DDRC   0x000f94       data     extern C:\MCC18\v3_39\src\extended\proc\p18F8722.asm
                 DDRCbits   0x000f94       data     extern C:\MCC18\v3_39\src\extended\proc\p18F8722.asm
                    TRISD   0x000f95       data     extern C:\MCC18\v3_39\src\extended\proc\p18F8722.asm
                TRISDbits   0x000f95       data     extern C:\MCC18\v3_39\src\extended\proc\p18F8722.asm
                     DDRD   0x000f95       data     extern C:\MCC18\v3_39\src\extended\proc\p18F8722.asm
                 DDRDbits   0x000f95       data     extern C:\MCC18\v3_39\src\extended\proc\p18F8722.asm
                    TRISE   0x000f96       data     extern C:\MCC18\v3_39\src\extended\proc\p18F8722.asm
                TRISEbits   0x000f96       data     extern C:\MCC18\v3_39\src\extended\proc\p18F8722.asm
                     DDRE   0x000f96       data     extern C:\MCC18\v3_39\src\extended\proc\p18F8722.asm
                 DDREbits   0x000f96       data     extern C:\MCC18\v3_39\src\extended\proc\p18F8722.asm
                     DDRF   0x000f97       data     extern C:\MCC18\v3_39\src\extended\proc\p18F8722.asm
                 DDRFbits   0x000f97       data     extern C:\MCC18\v3_39\src\extended\proc\p18F8722.asm
                TRISFbits   0x000f97       data     extern C:\MCC18\v3_39\src\extended\proc\p18F8722.asm
                    TRISF   0x000f97       data     extern C:\MCC18\v3_39\src\extended\proc\p18F8722.asm
                TRISGbits   0x000f98       data     extern C:\MCC18\v3_39\src\extended\proc\p18F8722.asm
                    TRISG   0x000f98       data     extern C:\MCC18\v3_39\src\extended\proc\p18F8722.asm
                     DDRG   0x000f98       data     extern C:\MCC18\v3_39\src\extended\proc\p18F8722.asm
                 DDRGbits   0x000f98       data     extern C:\MCC18\v3_39\src\extended\proc\p18F8722.asm
                TRISHbits   0x000f99       data     extern C:\MCC18\v3_39\src\extended\proc\p18F8722.asm
                 DDRHbits   0x000f99       data     extern C:\MCC18\v3_39\src\extended\proc\p18F8722.asm
                     DDRH   0x000f99       data     extern C:\MCC18\v3_39\src\extended\proc\p18F8722.asm
                    TRISH   0x000f99       data     extern C:\MCC18\v3_39\src\extended\proc\p18F8722.asm
                    TRISJ   0x000f9a       data     extern C:\MCC18\v3_39\src\extended\proc\p18F8722.asm
                TRISJbits   0x000f9a       data     extern C:\MCC18\v3_39\src\extended\proc\p18F8722.asm
                     DDRJ   0x000f9a       data     extern C:\MCC18\v3_39\src\extended\proc\p18F8722.asm
                 DDRJbits   0x000f9a       data     extern C:\MCC18\v3_39\src\extended\proc\p18F8722.asm
              OSCTUNEbits   0x000f9b       data     extern C:\MCC18\v3_39\src\extended\proc\p18F8722.asm
                  OSCTUNE   0x000f9b       data     extern C:\MCC18\v3_39\src\extended\proc\p18F8722.asm
               MEMCONbits   0x000f9c       data     extern C:\MCC18\v3_39\src\extended\proc\p18F8722.asm
                   MEMCON   0x000f9c       data     extern C:\MCC18\v3_39\src\extended\proc\p18F8722.asm
                 PIE1bits   0x000f9d       data     extern C:\MCC18\v3_39\src\extended\proc\p18F8722.asm
                     PIE1   0x000f9d       data     extern C:\MCC18\v3_39\src\extended\proc\p18F8722.asm
                 PIR1bits   0x000f9e       data     extern C:\MCC18\v3_39\src\extended\proc\p18F8722.asm
                     PIR1   0x000f9e       data     extern C:\MCC18\v3_39\src\extended\proc\p18F8722.asm
                 IPR1bits   0x000f9f       data     extern C:\MCC18\v3_39\src\extended\proc\p18F8722.asm
                     IPR1   0x000f9f       data     extern C:\MCC18\v3_39\src\extended\proc\p18F8722.asm
                 PIE2bits   0x000fa0       data     extern C:\MCC18\v3_39\src\extended\proc\p18F8722.asm
                     PIE2   0x000fa0       data     extern C:\MCC18\v3_39\src\extended\proc\p18F8722.asm
                 PIR2bits   0x000fa1       data     extern C:\MCC18\v3_39\src\extended\proc\p18F8722.asm
                     PIR2   0x000fa1       data     extern C:\MCC18\v3_39\src\extended\proc\p18F8722.asm
                 IPR2bits   0x000fa2       data     extern C:\MCC18\v3_39\src\extended\proc\p18F8722.asm
                     IPR2   0x000fa2       data     extern C:\MCC18\v3_39\src\extended\proc\p18F8722.asm
                     PIE3   0x000fa3       data     extern C:\MCC18\v3_39\src\extended\proc\p18F8722.asm
                 PIE3bits   0x000fa3       data     extern C:\MCC18\v3_39\src\extended\proc\p18F8722.asm
                 PIR3bits   0x000fa4       data     extern C:\MCC18\v3_39\src\extended\proc\p18F8722.asm
                     PIR3   0x000fa4       data     extern C:\MCC18\v3_39\src\extended\proc\p18F8722.asm
                 IPR3bits   0x000fa5       data     extern C:\MCC18\v3_39\src\extended\proc\p18F8722.asm
                     IPR3   0x000fa5       data     extern C:\MCC18\v3_39\src\extended\proc\p18F8722.asm
                   EECON1   0x000fa6       data     extern C:\MCC18\v3_39\src\extended\proc\p18F8722.asm
               EECON1bits   0x000fa6       data     extern C:\MCC18\v3_39\src\extended\proc\p18F8722.asm
                   EECON2   0x000fa7       data     extern C:\MCC18\v3_39\src\extended\proc\p18F8722.asm
                   EEDATA   0x000fa8       data     extern C:\MCC18\v3_39\src\extended\proc\p18F8722.asm
                    EEADR   0x000fa9       data     extern C:\MCC18\v3_39\src\extended\proc\p18F8722.asm
                   EEADRH   0x000faa       data     extern C:\MCC18\v3_39\src\extended\proc\p18F8722.asm
               RCSTA1bits   0x000fab       data     extern C:\MCC18\v3_39\src\extended\proc\p18F8722.asm
                   RCSTA1   0x000fab       data     extern C:\MCC18\v3_39\src\extended\proc\p18F8722.asm
                    RCSTA   0x000fab       data     extern C:\MCC18\v3_39\src\extended\proc\p18F8722.asm
                RCSTAbits   0x000fab       data     extern C:\MCC18\v3_39\src\extended\proc\p18F8722.asm
                    TXSTA   0x000fac       data     extern C:\MCC18\v3_39\src\extended\proc\p18F8722.asm
                   TXSTA1   0x000fac       data     extern C:\MCC18\v3_39\src\extended\proc\p18F8722.asm
               TXSTA1bits   0x000fac       data     extern C:\MCC18\v3_39\src\extended\proc\p18F8722.asm
                TXSTAbits   0x000fac       data     extern C:\MCC18\v3_39\src\extended\proc\p18F8722.asm
                   TXREG1   0x000fad       data     extern C:\MCC18\v3_39\src\extended\proc\p18F8722.asm
                    TXREG   0x000fad       data     extern C:\MCC18\v3_39\src\extended\proc\p18F8722.asm
                   RCREG1   0x000fae       data     extern C:\MCC18\v3_39\src\extended\proc\p18F8722.asm
                    RCREG   0x000fae       data     extern C:\MCC18\v3_39\src\extended\proc\p18F8722.asm
                   SPBRG1   0x000faf       data     extern C:\MCC18\v3_39\src\extended\proc\p18F8722.asm
                    SPBRG   0x000faf       data     extern C:\MCC18\v3_39\src\extended\proc\p18F8722.asm
                   PSPCON   0x000fb0       data     extern C:\MCC18\v3_39\src\extended\proc\p18F8722.asm
               PSPCONbits   0x000fb0       data     extern C:\MCC18\v3_39\src\extended\proc\p18F8722.asm
                    T3CON   0x000fb1       data     extern C:\MCC18\v3_39\src\extended\proc\p18F8722.asm
                T3CONbits   0x000fb1       data     extern C:\MCC18\v3_39\src\extended\proc\p18F8722.asm
                    TMR3L   0x000fb2       data     extern C:\MCC18\v3_39\src\extended\proc\p18F8722.asm
                    TMR3H   0x000fb3       data     extern C:\MCC18\v3_39\src\extended\proc\p18F8722.asm
                CMCONbits   0x000fb4       data     extern C:\MCC18\v3_39\src\extended\proc\p18F8722.asm
                    CMCON   0x000fb4       data     extern C:\MCC18\v3_39\src\extended\proc\p18F8722.asm
                   CVRCON   0x000fb5       data     extern C:\MCC18\v3_39\src\extended\proc\p18F8722.asm
               CVRCONbits   0x000fb5       data     extern C:\MCC18\v3_39\src\extended\proc\p18F8722.asm
              ECCP1ASbits   0x000fb6       data     extern C:\MCC18\v3_39\src\extended\proc\p18F8722.asm
                  ECCP1AS   0x000fb6       data     extern C:\MCC18\v3_39\src\extended\proc\p18F8722.asm
             ECCP3CONbits   0x000fb7       data     extern C:\MCC18\v3_39\src\extended\proc\p18F8722.asm
                 ECCP3CON   0x000fb7       data     extern C:\MCC18\v3_39\src\extended\proc\p18F8722.asm
              CCP3CONbits   0x000fb7       data     extern C:\MCC18\v3_39\src\extended\proc\p18F8722.asm
                  CCP3CON   0x000fb7       data     extern C:\MCC18\v3_39\src\extended\proc\p18F8722.asm
                   CCPR3L   0x000fb8       data     extern C:\MCC18\v3_39\src\extended\proc\p18F8722.asm
                    CCPR3   0x000fb8       data     extern C:\MCC18\v3_39\src\extended\proc\p18F8722.asm
                   CCPR3H   0x000fb9       data     extern C:\MCC18\v3_39\src\extended\proc\p18F8722.asm
                  CCP2CON   0x000fba       data     extern C:\MCC18\v3_39\src\extended\proc\p18F8722.asm
             ECCP2CONbits   0x000fba       data     extern C:\MCC18\v3_39\src\extended\proc\p18F8722.asm
                 ECCP2CON   0x000fba       data     extern C:\MCC18\v3_39\src\extended\proc\p18F8722.asm
              CCP2CONbits   0x000fba       data     extern C:\MCC18\v3_39\src\extended\proc\p18F8722.asm
                   CCPR2L   0x000fbb       data     extern C:\MCC18\v3_39\src\extended\proc\p18F8722.asm
                    CCPR2   0x000fbb       data     extern C:\MCC18\v3_39\src\extended\proc\p18F8722.asm
                   CCPR2H   0x000fbc       data     extern C:\MCC18\v3_39\src\extended\proc\p18F8722.asm
                  CCP1CON   0x000fbd       data     extern C:\MCC18\v3_39\src\extended\proc\p18F8722.asm
              CCP1CONbits   0x000fbd       data     extern C:\MCC18\v3_39\src\extended\proc\p18F8722.asm
             ECCP1CONbits   0x000fbd       data     extern C:\MCC18\v3_39\src\extended\proc\p18F8722.asm
                 ECCP1CON   0x000fbd       data     extern C:\MCC18\v3_39\src\extended\proc\p18F8722.asm
                    CCPR1   0x000fbe       data     extern C:\MCC18\v3_39\src\extended\proc\p18F8722.asm
                   CCPR1L   0x000fbe       data     extern C:\MCC18\v3_39\src\extended\proc\p18F8722.asm
                   CCPR1H   0x000fbf       data     extern C:\MCC18\v3_39\src\extended\proc\p18F8722.asm
                   ADCON2   0x000fc0       data     extern C:\MCC18\v3_39\src\extended\proc\p18F8722.asm
               ADCON2bits   0x000fc0       data     extern C:\MCC18\v3_39\src\extended\proc\p18F8722.asm
                   ADCON1   0x000fc1       data     extern C:\MCC18\v3_39\src\extended\proc\p18F8722.asm
               ADCON1bits   0x000fc1       data     extern C:\MCC18\v3_39\src\extended\proc\p18F8722.asm
               ADCON0bits   0x000fc2       data     extern C:\MCC18\v3_39\src\extended\proc\p18F8722.asm
                   ADCON0   0x000fc2       data     extern C:\MCC18\v3_39\src\extended\proc\p18F8722.asm
                    ADRES   0x000fc3       data     extern C:\MCC18\v3_39\src\extended\proc\p18F8722.asm
                   ADRESL   0x000fc3       data     extern C:\MCC18\v3_39\src\extended\proc\p18F8722.asm
                   ADRESH   0x000fc4       data     extern C:\MCC18\v3_39\src\extended\proc\p18F8722.asm
              SSPCON2bits   0x000fc5       data     extern C:\MCC18\v3_39\src\extended\proc\p18F8722.asm
                  SSPCON2   0x000fc5       data     extern C:\MCC18\v3_39\src\extended\proc\p18F8722.asm
                 SSP1CON2   0x000fc5       data     extern C:\MCC18\v3_39\src\extended\proc\p18F8722.asm
             SSP1CON2bits   0x000fc5       data     extern C:\MCC18\v3_39\src\extended\proc\p18F8722.asm
             SSP1CON1bits   0x000fc6       data     extern C:\MCC18\v3_39\src\extended\proc\p18F8722.asm
                 SSP1CON1   0x000fc6       data     extern C:\MCC18\v3_39\src\extended\proc\p18F8722.asm
                  SSPCON1   0x000fc6       data     extern C:\MCC18\v3_39\src\extended\proc\p18F8722.asm
              SSPCON1bits   0x000fc6       data     extern C:\MCC18\v3_39\src\extended\proc\p18F8722.asm
                  SSPSTAT   0x000fc7       data     extern C:\MCC18\v3_39\src\extended\proc\p18F8722.asm
                 SSP1STAT   0x000fc7       data     extern C:\MCC18\v3_39\src\extended\proc\p18F8722.asm
              SSPSTATbits   0x000fc7       data     extern C:\MCC18\v3_39\src\extended\proc\p18F8722.asm
             SSP1STATbits   0x000fc7       data     extern C:\MCC18\v3_39\src\extended\proc\p18F8722.asm
                  SSP1ADD   0x000fc8       data     extern C:\MCC18\v3_39\src\extended\proc\p18F8722.asm
                   SSPADD   0x000fc8       data     extern C:\MCC18\v3_39\src\extended\proc\p18F8722.asm
                   SSPBUF   0x000fc9       data     extern C:\MCC18\v3_39\src\extended\proc\p18F8722.asm
                  SSP1BUF   0x000fc9       data     extern C:\MCC18\v3_39\src\extended\proc\p18F8722.asm
                T2CONbits   0x000fca       data     extern C:\MCC18\v3_39\src\extended\proc\p18F8722.asm
                    T2CON   0x000fca       data     extern C:\MCC18\v3_39\src\extended\proc\p18F8722.asm
                      PR2   0x000fcb       data     extern C:\MCC18\v3_39\src\extended\proc\p18F8722.asm
                     TMR2   0x000fcc       data     extern C:\MCC18\v3_39\src\extended\proc\p18F8722.asm
                    T1CON   0x000fcd       data     extern C:\MCC18\v3_39\src\extended\proc\p18F8722.asm
                T1CONbits   0x000fcd       data     extern C:\MCC18\v3_39\src\extended\proc\p18F8722.asm
                    TMR1L   0x000fce       data     extern C:\MCC18\v3_39\src\extended\proc\p18F8722.asm
                    TMR1H   0x000fcf       data     extern C:\MCC18\v3_39\src\extended\proc\p18F8722.asm
                     RCON   0x000fd0       data     extern C:\MCC18\v3_39\src\extended\proc\p18F8722.asm
                 RCONbits   0x000fd0       data     extern C:\MCC18\v3_39\src\extended\proc\p18F8722.asm
               WDTCONbits   0x000fd1       data     extern C:\MCC18\v3_39\src\extended\proc\p18F8722.asm
                   WDTCON   0x000fd1       data     extern C:\MCC18\v3_39\src\extended\proc\p18F8722.asm
               LVDCONbits   0x000fd2       data     extern C:\MCC18\v3_39\src\extended\proc\p18F8722.asm
                   LVDCON   0x000fd2       data     extern C:\MCC18\v3_39\src\extended\proc\p18F8722.asm
              HLVDCONbits   0x000fd2       data     extern C:\MCC18\v3_39\src\extended\proc\p18F8722.asm
                  HLVDCON   0x000fd2       data     extern C:\MCC18\v3_39\src\extended\proc\p18F8722.asm
               OSCCONbits   0x000fd3       data     extern C:\MCC18\v3_39\src\extended\proc\p18F8722.asm
                   OSCCON   0x000fd3       data     extern C:\MCC18\v3_39\src\extended\proc\p18F8722.asm
                T0CONbits   0x000fd5       data     extern C:\MCC18\v3_39\src\extended\proc\p18F8722.asm
                    T0CON   0x000fd5       data     extern C:\MCC18\v3_39\src\extended\proc\p18F8722.asm
                    TMR0L   0x000fd6       data     extern C:\MCC18\v3_39\src\extended\proc\p18F8722.asm
                    TMR0H   0x000fd7       data     extern C:\MCC18\v3_39\src\extended\proc\p18F8722.asm
               STATUSbits   0x000fd8       data     extern C:\MCC18\v3_39\src\extended\proc\p18F8722.asm
                   STATUS   0x000fd8       data     extern C:\MCC18\v3_39\src\extended\proc\p18F8722.asm
                    FSR2L   0x000fd9       data     extern C:\MCC18\v3_39\src\extended\proc\p18F8722.asm
                     FSR2   0x000fd9       data     extern C:\MCC18\v3_39\src\extended\proc\p18F8722.asm
                    FSR2H   0x000fda       data     extern C:\MCC18\v3_39\src\extended\proc\p18F8722.asm
                   PLUSW2   0x000fdb       data     extern C:\MCC18\v3_39\src\extended\proc\p18F8722.asm
                  PREINC2   0x000fdc       data     extern C:\MCC18\v3_39\src\extended\proc\p18F8722.asm
                 POSTDEC2   0x000fdd       data     extern C:\MCC18\v3_39\src\extended\proc\p18F8722.asm
                 POSTINC2   0x000fde       data     extern C:\MCC18\v3_39\src\extended\proc\p18F8722.asm
                    INDF2   0x000fdf       data     extern C:\MCC18\v3_39\src\extended\proc\p18F8722.asm
                      BSR   0x000fe0       data     extern C:\MCC18\v3_39\src\extended\proc\p18F8722.asm
                    FSR1L   0x000fe1       data     extern C:\MCC18\v3_39\src\extended\proc\p18F8722.asm
                     FSR1   0x000fe1       data     extern C:\MCC18\v3_39\src\extended\proc\p18F8722.asm
                    FSR1H   0x000fe2       data     extern C:\MCC18\v3_39\src\extended\proc\p18F8722.asm
                   PLUSW1   0x000fe3       data     extern C:\MCC18\v3_39\src\extended\proc\p18F8722.asm
                  PREINC1   0x000fe4       data     extern C:\MCC18\v3_39\src\extended\proc\p18F8722.asm
                 POSTDEC1   0x000fe5       data     extern C:\MCC18\v3_39\src\extended\proc\p18F8722.asm
                 POSTINC1   0x000fe6       data     extern C:\MCC18\v3_39\src\extended\proc\p18F8722.asm
                    INDF1   0x000fe7       data     extern C:\MCC18\v3_39\src\extended\proc\p18F8722.asm
                     WREG   0x000fe8       data     extern C:\MCC18\v3_39\src\extended\proc\p18F8722.asm
                    FSR0L   0x000fe9       data     extern C:\MCC18\v3_39\src\extended\proc\p18F8722.asm
                     FSR0   0x000fe9       data     extern C:\MCC18\v3_39\src\extended\proc\p18F8722.asm
                    FSR0H   0x000fea       data     extern C:\MCC18\v3_39\src\extended\proc\p18F8722.asm
                   PLUSW0   0x000feb       data     extern C:\MCC18\v3_39\src\extended\proc\p18F8722.asm
                  PREINC0   0x000fec       data     extern C:\MCC18\v3_39\src\extended\proc\p18F8722.asm
                 POSTDEC0   0x000fed       data     extern C:\MCC18\v3_39\src\extended\proc\p18F8722.asm
                 POSTINC0   0x000fee       data     extern C:\MCC18\v3_39\src\extended\proc\p18F8722.asm
                    INDF0   0x000fef       data     extern C:\MCC18\v3_39\src\extended\proc\p18F8722.asm
              INTCON3bits   0x000ff0       data     extern C:\MCC18\v3_39\src\extended\proc\p18F8722.asm
                  INTCON3   0x000ff0       data     extern C:\MCC18\v3_39\src\extended\proc\p18F8722.asm
              INTCON2bits   0x000ff1       data     extern C:\MCC18\v3_39\src\extended\proc\p18F8722.asm
                  INTCON2   0x000ff1       data     extern C:\MCC18\v3_39\src\extended\proc\p18F8722.asm
                   INTCON   0x000ff2       data     extern C:\MCC18\v3_39\src\extended\proc\p18F8722.asm
               INTCONbits   0x000ff2       data     extern C:\MCC18\v3_39\src\extended\proc\p18F8722.asm
                    PRODL   0x000ff3       data     extern C:\MCC18\v3_39\src\extended\proc\p18F8722.asm
                     PROD   0x000ff3       data     extern C:\MCC18\v3_39\src\extended\proc\p18F8722.asm
                    PRODH   0x000ff4       data     extern C:\MCC18\v3_39\src\extended\proc\p18F8722.asm
                   TABLAT   0x000ff5       data     extern C:\MCC18\v3_39\src\extended\proc\p18F8722.asm
                   TBLPTR   0x000ff6       data     extern C:\MCC18\v3_39\src\extended\proc\p18F8722.asm
                  TBLPTRL   0x000ff6       data     extern C:\MCC18\v3_39\src\extended\proc\p18F8722.asm
                  TBLPTRH   0x000ff7       data     extern C:\MCC18\v3_39\src\extended\proc\p18F8722.asm
                  TBLPTRU   0x000ff8       data     extern C:\MCC18\v3_39\src\extended\proc\p18F8722.asm
                      PCL   0x000ff9       data     extern C:\MCC18\v3_39\src\extended\proc\p18F8722.asm
                       PC   0x000ff9       data     extern C:\MCC18\v3_39\src\extended\proc\p18F8722.asm
                   PCLATH   0x000ffa       data     extern C:\MCC18\v3_39\src\extended\proc\p18F8722.asm
                   PCLATU   0x000ffb       data     extern C:\MCC18\v3_39\src\extended\proc\p18F8722.asm
                   STKPTR   0x000ffc       data     extern C:\MCC18\v3_39\src\extended\proc\p18F8722.asm
               STKPTRbits   0x000ffc       data     extern C:\MCC18\v3_39\src\extended\proc\p18F8722.asm
                      TOS   0x000ffd       data     extern C:\MCC18\v3_39\src\extended\proc\p18F8722.asm
                     TOSL   0x000ffd       data     extern C:\MCC18\v3_39\src\extended\proc\p18F8722.asm
                     TOSH   0x000ffe       data     extern C:\MCC18\v3_39\src\extended\proc\p18F8722.asm
                     TOSU   0x000fff       data     extern C:\MCC18\v3_39\src\extended\proc\p18F8722.asm


